TI ARM Assembler PC v16.9.4 Sat Nov 18 18:46:29 2017

Tools Copyright (c) 1996-2017 Texas Instruments Incorporated
C:\Users\Kevin\AppData\Local\Temp\{5E948145-182F-435E-8CCA-E077E24C2FF9} PAGE    1

       1                    ;******************************************************************************
       2                    ;* TI ARM C/C++ Codegen                                        PC v16.9.4.LTS *
       3                    ;* Date/Time created: Sat Nov 18 18:46:29 2017                                *
       4                    ;******************************************************************************
       5                            .compiler_opts --abi=eabi --arm_vmrs_si_workaround=off --code_state=16 --diag_wrap=off --embed
       6 00000000                   .thumb
       7                    
       8                    $C$DW$CU        .dwtag  DW_TAG_compile_unit
       9                            .dwattr $C$DW$CU, DW_AT_name("../Application/PALNA/board_palna.c")
      10                            .dwattr $C$DW$CU, DW_AT_producer("TI TI ARM C/C++ Codegen PC v16.9.4.LTS Copyright (c) 1996-20
      11                            .dwattr $C$DW$CU, DW_AT_TI_version(0x01)
      12                            .dwattr $C$DW$CU, DW_AT_comp_dir("C:\Users\Kevin\workspace_v7\sensor_cc1310lp\sensor_cc1310lp"
      13                    
      14                    $C$DW$1 .dwtag  DW_TAG_subprogram
      15                            .dwattr $C$DW$1, DW_AT_name("PIN_open")
      16                            .dwattr $C$DW$1, DW_AT_TI_symbol_name("PIN_open")
      17                            .dwattr $C$DW$1, DW_AT_type(*$C$DW$T$82)
      18                            .dwattr $C$DW$1, DW_AT_declaration
      19                            .dwattr $C$DW$1, DW_AT_external
      20                            .dwattr $C$DW$1, DW_AT_decl_file("C:/ti/simplelink_cc13x0_sdk_1_50_00_08/source/ti/drivers/PIN
      21                            .dwattr $C$DW$1, DW_AT_decl_line(0x2da)
      22                            .dwattr $C$DW$1, DW_AT_decl_column(0x13)
      23                    $C$DW$2 .dwtag  DW_TAG_formal_parameter
      24                            .dwattr $C$DW$2, DW_AT_type(*$C$DW$T$81)
      25                    
      26                    $C$DW$3 .dwtag  DW_TAG_formal_parameter
      27                            .dwattr $C$DW$3, DW_AT_type(*$C$DW$T$137)
      28                    
      29                            .dwendtag $C$DW$1
      30                    
      31                    
      32                    $C$DW$4 .dwtag  DW_TAG_subprogram
      33                            .dwattr $C$DW$4, DW_AT_name("PIN_setOutputValue")
      34                            .dwattr $C$DW$4, DW_AT_TI_symbol_name("PIN_setOutputValue")
      35                            .dwattr $C$DW$4, DW_AT_type(*$C$DW$T$97)
      36                            .dwattr $C$DW$4, DW_AT_declaration
      37                            .dwattr $C$DW$4, DW_AT_external
      38                            .dwattr $C$DW$4, DW_AT_decl_file("C:/ti/simplelink_cc13x0_sdk_1_50_00_08/source/ti/drivers/PIN
      39                            .dwattr $C$DW$4, DW_AT_decl_line(0x34c)
      40                            .dwattr $C$DW$4, DW_AT_decl_column(0x13)
      41                    $C$DW$5 .dwtag  DW_TAG_formal_parameter
      42                            .dwattr $C$DW$5, DW_AT_type(*$C$DW$T$82)
      43                    
      44                    $C$DW$6 .dwtag  DW_TAG_formal_parameter
      45                            .dwattr $C$DW$6, DW_AT_type(*$C$DW$T$83)
      46                    
      47                    $C$DW$7 .dwtag  DW_TAG_formal_parameter
      48                            .dwattr $C$DW$7, DW_AT_type(*$C$DW$T$19)
      49                    
      50                            .dwendtag $C$DW$4
      51                    
      52                    
      53                    $C$DW$8 .dwtag  DW_TAG_subprogram
      54                            .dwattr $C$DW$8, DW_AT_name("PINCC26XX_setMux")
      55                            .dwattr $C$DW$8, DW_AT_TI_symbol_name("PINCC26XX_setMux")
TI ARM Assembler PC v16.9.4 Sat Nov 18 18:46:29 2017

Tools Copyright (c) 1996-2017 Texas Instruments Incorporated
C:\Users\Kevin\AppData\Local\Temp\{5E948145-182F-435E-8CCA-E077E24C2FF9} PAGE    2

      56                            .dwattr $C$DW$8, DW_AT_type(*$C$DW$T$97)
      57                            .dwattr $C$DW$8, DW_AT_declaration
      58                            .dwattr $C$DW$8, DW_AT_external
      59                            .dwattr $C$DW$8, DW_AT_decl_file("C:/ti/simplelink_cc13x0_sdk_1_50_00_08/source/ti/drivers/pin
      60                            .dwattr $C$DW$8, DW_AT_decl_line(0x15c)
      61                            .dwattr $C$DW$8, DW_AT_decl_column(0x13)
      62                    $C$DW$9 .dwtag  DW_TAG_formal_parameter
      63                            .dwattr $C$DW$9, DW_AT_type(*$C$DW$T$82)
      64                    
      65                    $C$DW$10        .dwtag  DW_TAG_formal_parameter
      66                            .dwattr $C$DW$10, DW_AT_type(*$C$DW$T$83)
      67                    
      68                    $C$DW$11        .dwtag  DW_TAG_formal_parameter
      69                            .dwattr $C$DW$11, DW_AT_type(*$C$DW$T$89)
      70                    
      71                            .dwendtag $C$DW$8
      72                    
      73 00000000                   .sect   ".data:$O1$$", RW
      74                            .clink
      75                            .align  4
      76                            .elfsym ||$O1$$||,SYM_SIZE(32)
      77 00000000           ||$O1$$||:
      78 00000000                   .space  16
      79 00000010 80C0081C          .bits   -2134898660,32                  ; $O1$$.palnaPinTable[0] @ 128
      80 00000014 8080081D          .bits   -2139092963,32                  ; $O1$$.palnaPinTable[1] @ 160
      81 00000018 8080081E          .bits   -2139092962,32                  ; $O1$$.palnaPinTable[2] @ 192
      82 0000001c 000000FE          .bits   254,32                  ; $O1$$.palnaPinTable[3] @ 224
      83                    
      84                    
      85                    ;*********************************************************************
      86                    ;* GROUPED GLOBALS FOR $O1$$                                         *
      87                    ;*********************************************************************
      88          00000000! palnaPinHandle: .set    ||$O1$$||+0
      89                    $C$DW$12        .dwtag  DW_TAG_variable
      90                            .dwattr $C$DW$12, DW_AT_name("palnaPinHandle")
      91                            .dwattr $C$DW$12, DW_AT_TI_symbol_name("palnaPinHandle")
      92                            .dwattr $C$DW$12, DW_AT_type(*$C$DW$T$82)
      93                            .dwattr $C$DW$12, DW_AT_location[DW_OP_addr palnaPinHandle]
      94                            .dwattr $C$DW$12, DW_AT_decl_file("../Application/PALNA/board_palna.c")
      95                            .dwattr $C$DW$12, DW_AT_decl_line(0x5a)
      96                            .dwattr $C$DW$12, DW_AT_decl_column(0x13)
      97                    
      98          00000004! palnaPinState:  .set    ||$O1$$||+4
      99                    $C$DW$13        .dwtag  DW_TAG_variable
     100                            .dwattr $C$DW$13, DW_AT_name("palnaPinState")
     101                            .dwattr $C$DW$13, DW_AT_TI_symbol_name("palnaPinState")
     102                            .dwattr $C$DW$13, DW_AT_type(*$C$DW$T$80)
     103                            .dwattr $C$DW$13, DW_AT_location[DW_OP_addr palnaPinState]
     104                            .dwattr $C$DW$13, DW_AT_decl_file("../Application/PALNA/board_palna.c")
     105                            .dwattr $C$DW$13, DW_AT_decl_line(0x57)
     106                            .dwattr $C$DW$13, DW_AT_decl_column(0x12)
     107                    
     108          00000010! palnaPinTable:  .set    ||$O1$$||+16
     109                    $C$DW$14        .dwtag  DW_TAG_variable
     110                            .dwattr $C$DW$14, DW_AT_name("palnaPinTable")
TI ARM Assembler PC v16.9.4 Sat Nov 18 18:46:29 2017

Tools Copyright (c) 1996-2017 Texas Instruments Incorporated
C:\Users\Kevin\AppData\Local\Temp\{5E948145-182F-435E-8CCA-E077E24C2FF9} PAGE    3

     111                            .dwattr $C$DW$14, DW_AT_TI_symbol_name("palnaPinTable")
     112                            .dwattr $C$DW$14, DW_AT_type(*$C$DW$T$206)
     113                            .dwattr $C$DW$14, DW_AT_location[DW_OP_addr palnaPinTable]
     114                            .dwattr $C$DW$14, DW_AT_decl_file("../Application/PALNA/board_palna.c")
     115                            .dwattr $C$DW$14, DW_AT_decl_line(0x4b)
     116                            .dwattr $C$DW$14, DW_AT_decl_column(0x13)
     117                    
     118                    ;       C:\ti\ccsv7\tools\compiler\ti-cgt-arm_16.9.4.LTS\bin\armopt.exe C:/Users/Kevin/workspace_v7/se
     119 00000000                   .sect   ".text:Board_Palna_initialize"
     120                            .clink
     121                            .thumbfunc Board_Palna_initialize
     122 00000000                   .thumb
     123                            .global Board_Palna_initialize
     124                    
     125                    $C$DW$15        .dwtag  DW_TAG_subprogram
     126                            .dwattr $C$DW$15, DW_AT_name("Board_Palna_initialize")
     127                            .dwattr $C$DW$15, DW_AT_low_pc(Board_Palna_initialize)
     128                            .dwattr $C$DW$15, DW_AT_high_pc(0x00)
     129                            .dwattr $C$DW$15, DW_AT_TI_symbol_name("Board_Palna_initialize")
     130                            .dwattr $C$DW$15, DW_AT_external
     131                            .dwattr $C$DW$15, DW_AT_TI_begin_file("../Application/PALNA/board_palna.c")
     132                            .dwattr $C$DW$15, DW_AT_TI_begin_line(0x69)
     133                            .dwattr $C$DW$15, DW_AT_TI_begin_column(0x06)
     134                            .dwattr $C$DW$15, DW_AT_decl_file("../Application/PALNA/board_palna.c")
     135                            .dwattr $C$DW$15, DW_AT_decl_line(0x69)
     136                            .dwattr $C$DW$15, DW_AT_decl_column(0x06)
     137                            .dwattr $C$DW$15, DW_AT_TI_max_frame_size(0x10)
     138                            .dwpsn  file "../Application/PALNA/board_palna.c",line 106,column 1,is_stmt,address Board_Paln
     139                    
     140                            .dwfde $C$DW$CIE, Board_Palna_initialize
     141                    $C$DW$16        .dwtag  DW_TAG_formal_parameter
     142                            .dwattr $C$DW$16, DW_AT_name("hgm")
     143                            .dwattr $C$DW$16, DW_AT_TI_symbol_name("hgm")
     144                            .dwattr $C$DW$16, DW_AT_type(*$C$DW$T$19)
     145                            .dwattr $C$DW$16, DW_AT_location[DW_OP_reg0]
     146                    
     147                    
     148                    ;*****************************************************************************
     149                    ;* FUNCTION NAME: Board_Palna_initialize                                     *
     150                    ;*                                                                           *
     151                    ;*   Regs Modified     : A1,A2,A3,A4,V1,V2,V9,SP,LR,SR                       *
     152                    ;*   Regs Used         : A1,A2,A3,A4,V1,V2,V9,SP,LR,SR                       *
     153                    ;*   Local Frame Size  : 0 Args + 0 Auto + 12 Save = 12 byte                 *
     154                    ;*****************************************************************************
     155                    Board_Palna_initialize:
     156                    ;* --------------------------------------------------------------------------*
     157                    ;* V2    assigned to $O$C1
     158                    ;* A1    assigned to $O$v1
     159                    ;* A1    assigned to $O$v1
     160                    ;* V2    assigned to $O$K3
     161                    ;* V1    assigned to hgm
     162                    $C$DW$17        .dwtag  DW_TAG_variable
     163                            .dwattr $C$DW$17, DW_AT_name("hgm")
     164                            .dwattr $C$DW$17, DW_AT_TI_symbol_name("hgm")
     165                            .dwattr $C$DW$17, DW_AT_type(*$C$DW$T$207)
TI ARM Assembler PC v16.9.4 Sat Nov 18 18:46:29 2017

Tools Copyright (c) 1996-2017 Texas Instruments Incorporated
C:\Users\Kevin\AppData\Local\Temp\{5E948145-182F-435E-8CCA-E077E24C2FF9} PAGE    4

     166                            .dwattr $C$DW$17, DW_AT_location[DW_OP_reg4]
     167                    
     168                            .dwcfi  cfa_offset, 0
     169 00000000 B538              PUSH      {A4, V1, V2, LR}      ; [DPU_3_PIPE]  ; [ORIG 16-BIT INS]
     170                            .dwcfi  cfa_offset, 16
     171                            .dwcfi  save_reg_to_mem, 14, -4
     172                            .dwcfi  save_reg_to_mem, 5, -8
     173                            .dwcfi  save_reg_to_mem, 4, -12
     174                            .dwcfi  save_reg_to_mem, 3, -16
     175                            .dwpsn  file "../Application/PALNA/board_palna.c",line 107,column 2,is_stmt,isa 1
     176 00000002 4D0D              LDR       V2, $C$CON1           ; [DPU_3_PIPE] |107|  ; [ORIG 16-BIT INS]
     177                            .dwpsn  file "../Application/PALNA/board_palna.c",line 106,column 1,is_stmt,isa 1
     178 00000004 4604              MOV       V1, A1                ; [DPU_3_PIPE] |106|  ; [ORIG 16-BIT INS]
     179                            .dwpsn  file "../Application/PALNA/board_palna.c",line 107,column 2,is_stmt,isa 1
     180 00000006 6828              LDR       A1, [V2, #0]          ; [DPU_3_PIPE] |107|  ; [ORIG 16-BIT INS]
     181 00000008 B1AC              CBZ       V1, ||$C$L2||         ; []  ; [ORIG 16-BIT INS]
     182                            ; BRANCHCC OCCURS {||$C$L2||}    ; [] |107| 
     183                    ;* --------------------------------------------------------------------------*
     184 0000000a B978              CBNZ      A1, ||$C$L1||         ; []  ; [ORIG 16-BIT INS]
     185                            .dwpsn  file "../Application/PALNA/board_palna.c",line 109,column 3,is_stmt,isa 1
     186                            ; BRANCHCC OCCURS {||$C$L1||}    ; [] |109| 
     187                    ;* --------------------------------------------------------------------------*
     188 0000000c 1D28              ADDS      A1, V2, #4            ; [DPU_3_PIPE]  ; [ORIG 16-BIT INS]
     189 0000000e 0110F105          ADD       A2, V2, #16           ; [DPU_3_PIPE]  ; [KEEP 32-BIT INS]
     190                            .dwpsn  file "../Application/PALNA/board_palna.c",line 112,column 4,is_stmt,isa 1
     191                    $C$DW$18        .dwtag  DW_TAG_TI_branch
     192                            .dwattr $C$DW$18, DW_AT_low_pc(0x00)
     193                            .dwattr $C$DW$18, DW_AT_name("PIN_open")
     194                            .dwattr $C$DW$18, DW_AT_TI_call
     195                    
     196 00000012 FFFEF7FF!         BL        PIN_open              ; [DPU_3_PIPE] |112|  ; [KEEP 32-BIT INS]
     197                            ; CALL OCCURS {PIN_open }        ; [] |112| 
     198                            .dwpsn  file "../Application/PALNA/board_palna.c",line 115,column 4,is_stmt,isa 1
     199 00000016 211D              MOVS      A2, #29               ; [DPU_3_PIPE] |115|  ; [ORIG 16-BIT INS]
     200 00000018 222F              MOVS      A3, #47               ; [DPU_3_PIPE] |115|  ; [ORIG 16-BIT INS]
     201                            .dwpsn  file "../Application/PALNA/board_palna.c",line 112,column 4,is_stmt,isa 1
     202 0000001a 6028              STR       A1, [V2, #0]          ; [DPU_3_PIPE] |112|  ; [ORIG 16-BIT INS]
     203                            .dwpsn  file "../Application/PALNA/board_palna.c",line 115,column 4,is_stmt,isa 1
     204                    $C$DW$19        .dwtag  DW_TAG_TI_branch
     205                            .dwattr $C$DW$19, DW_AT_low_pc(0x00)
     206                            .dwattr $C$DW$19, DW_AT_name("PINCC26XX_setMux")
     207                            .dwattr $C$DW$19, DW_AT_TI_call
     208                    
     209 0000001c FFFEF7FF!         BL        PINCC26XX_setMux      ; [DPU_3_PIPE] |115|  ; [KEEP 32-BIT INS]
     210                            ; CALL OCCURS {PINCC26XX_setMux }  ; [] |115| 
     211                            .dwpsn  file "../Application/PALNA/board_palna.c",line 116,column 4,is_stmt,isa 1
     212 00000020 6828              LDR       A1, [V2, #0]          ; [DPU_3_PIPE] |116|  ; [ORIG 16-BIT INS]
     213 00000022 211E              MOVS      A2, #30               ; [DPU_3_PIPE] |116|  ; [ORIG 16-BIT INS]
     214 00000024 2230              MOVS      A3, #48               ; [DPU_3_PIPE] |116|  ; [ORIG 16-BIT INS]
     215                    $C$DW$20        .dwtag  DW_TAG_TI_branch
     216                            .dwattr $C$DW$20, DW_AT_low_pc(0x00)
     217                            .dwattr $C$DW$20, DW_AT_name("PINCC26XX_setMux")
     218                            .dwattr $C$DW$20, DW_AT_TI_call
     219                    
     220 00000026 FFFEF7FF!         BL        PINCC26XX_setMux      ; [DPU_3_PIPE] |116|  ; [KEEP 32-BIT INS]
TI ARM Assembler PC v16.9.4 Sat Nov 18 18:46:29 2017

Tools Copyright (c) 1996-2017 Texas Instruments Incorporated
C:\Users\Kevin\AppData\Local\Temp\{5E948145-182F-435E-8CCA-E077E24C2FF9} PAGE    5

     221                            ; CALL OCCURS {PINCC26XX_setMux }  ; [] |116| 
     222 0000002a 6828              LDR       A1, [V2, #0]          ; [DPU_3_PIPE] |116|  ; [ORIG 16-BIT INS]
     223                    ;* --------------------------------------------------------------------------*
     224 0000002c           ||$C$L1||:    
     225                            .dwpsn  file "../Application/PALNA/board_palna.c",line 119,column 3,is_stmt,isa 1
     226 0000002c 0201F004          AND       A3, V1, #1            ; [DPU_3_PIPE] |119|  ; [KEEP 32-BIT INS]
     227 00000030 211C              MOVS      A2, #28               ; [DPU_3_PIPE] |119|  ; [ORIG 16-BIT INS]
     228                    $C$DW$21        .dwtag  DW_TAG_TI_branch
     229                            .dwattr $C$DW$21, DW_AT_low_pc(0x00)
     230                            .dwattr $C$DW$21, DW_AT_name("PIN_setOutputValue")
     231                            .dwattr $C$DW$21, DW_AT_TI_call
     232                    
     233 00000032 FFFEF7FF!         BL        PIN_setOutputValue    ; [DPU_3_PIPE] |119|  ; [KEEP 32-BIT INS]
     234                            ; CALL OCCURS {PIN_setOutputValue }  ; [] |119| 
     235                    ;* --------------------------------------------------------------------------*
     236                    ||$C$L2||:    
     237                    $C$DW$22        .dwtag  DW_TAG_TI_branch
     238                            .dwattr $C$DW$22, DW_AT_low_pc(0x00)
     239                            .dwattr $C$DW$22, DW_AT_TI_return
     240                    
     241 00000036 BD38              POP       {A4, V1, V2, PC}      ; [DPU_3_PIPE]  ; [ORIG 16-BIT INS]
     242                            .dwcfi  cfa_offset, 0
     243                            ; BRANCH OCCURS                  ; [] 
     244                            .dwattr $C$DW$15, DW_AT_TI_end_file("../Application/PALNA/board_palna.c")
     245                            .dwattr $C$DW$15, DW_AT_TI_end_line(0x7a)
     246                            .dwattr $C$DW$15, DW_AT_TI_end_column(0x01)
     247                            .dwendentry
     248                            .dwendtag $C$DW$15
     249                    
     250                    ;******************************************************************************
     251                    ;* CONSTANT TABLE                                                             *
     252                    ;******************************************************************************
     253 00000038                   .sect   ".text:Board_Palna_initialize"
     254                            .align  4
     255 00000038 00000000! ||$C$CON1||:    .bits   ||$O1$$||,32
     256                    ;*****************************************************************************
     257                    ;* UNDEFINED EXTERNAL REFERENCES                                             *
     258                    ;*****************************************************************************
     259                            .global PIN_open
     260                            .global PIN_setOutputValue
     261                            .global PINCC26XX_setMux
     262                    
     263                    ;******************************************************************************
     264                    ;* BUILD ATTRIBUTES                                                           *
     265                    ;******************************************************************************
     266                            .battr "aeabi", Tag_File, 1, Tag_ABI_PCS_wchar_t(2)
     267                            .battr "aeabi", Tag_File, 1, Tag_ABI_FP_rounding(0)
     268                            .battr "aeabi", Tag_File, 1, Tag_ABI_FP_denormal(0)
     269                            .battr "aeabi", Tag_File, 1, Tag_ABI_FP_exceptions(0)
     270                            .battr "aeabi", Tag_File, 1, Tag_ABI_FP_number_model(1)
     271                            .battr "aeabi", Tag_File, 1, Tag_ABI_enum_size(1)
     272                            .battr "aeabi", Tag_File, 1, Tag_ABI_optimization_goals(0)
     273                            .battr "aeabi", Tag_File, 1, Tag_ABI_FP_optimization_goals(0)
     274                            .battr "TI", Tag_File, 1, Tag_Bitfield_layout(2)
     275                            .battr "aeabi", Tag_File, 1, Tag_ABI_VFP_args(3)
TI ARM Assembler PC v16.9.4 Sat Nov 18 18:46:29 2017

Tools Copyright (c) 1996-2017 Texas Instruments Incorporated
C:\Users\Kevin\AppData\Local\Temp\{5E948145-182F-435E-8CCA-E077E24C2FF9} PAGE    6

     276                            .battr "TI", Tag_File, 1, Tag_FP_interface(1)
     277                    
     278                    ;******************************************************************************
     279                    ;* TYPE INFORMATION                                                           *
     280                    ;******************************************************************************
     281                    
     282                    $C$DW$T$96      .dwtag  DW_TAG_enumeration_type
     283                            .dwattr $C$DW$T$96, DW_AT_byte_size(0x01)
     284                    $C$DW$23        .dwtag  DW_TAG_enumerator
     285                            .dwattr $C$DW$23, DW_AT_name("PIN_SUCCESS")
     286                            .dwattr $C$DW$23, DW_AT_const_value(0x00)
     287                            .dwattr $C$DW$23, DW_AT_decl_file("C:/ti/simplelink_cc13x0_sdk_1_50_00_08/source/ti/drivers/PI
     288                            .dwattr $C$DW$23, DW_AT_decl_line(0x2b2)
     289                            .dwattr $C$DW$23, DW_AT_decl_column(0x05)
     290                    
     291                    $C$DW$24        .dwtag  DW_TAG_enumerator
     292                            .dwattr $C$DW$24, DW_AT_name("PIN_ALREADY_ALLOCATED")
     293                            .dwattr $C$DW$24, DW_AT_const_value(0x01)
     294                            .dwattr $C$DW$24, DW_AT_decl_file("C:/ti/simplelink_cc13x0_sdk_1_50_00_08/source/ti/drivers/PI
     295                            .dwattr $C$DW$24, DW_AT_decl_line(0x2b3)
     296                            .dwattr $C$DW$24, DW_AT_decl_column(0x05)
     297                    
     298                    $C$DW$25        .dwtag  DW_TAG_enumerator
     299                            .dwattr $C$DW$25, DW_AT_name("PIN_NO_ACCESS")
     300                            .dwattr $C$DW$25, DW_AT_const_value(0x02)
     301                            .dwattr $C$DW$25, DW_AT_decl_file("C:/ti/simplelink_cc13x0_sdk_1_50_00_08/source/ti/drivers/PI
     302                            .dwattr $C$DW$25, DW_AT_decl_line(0x2b4)
     303                            .dwattr $C$DW$25, DW_AT_decl_column(0x05)
     304                    
     305                    $C$DW$26        .dwtag  DW_TAG_enumerator
     306                            .dwattr $C$DW$26, DW_AT_name("PIN_UNSUPPORTED")
     307                            .dwattr $C$DW$26, DW_AT_const_value(0x03)
     308                            .dwattr $C$DW$26, DW_AT_decl_file("C:/ti/simplelink_cc13x0_sdk_1_50_00_08/source/ti/drivers/PI
     309                            .dwattr $C$DW$26, DW_AT_decl_line(0x2b5)
     310                            .dwattr $C$DW$26, DW_AT_decl_column(0x05)
     311                    
     312                            .dwattr $C$DW$T$96, DW_AT_decl_file("C:/ti/simplelink_cc13x0_sdk_1_50_00_08/source/ti/drivers/
     313                            .dwattr $C$DW$T$96, DW_AT_decl_line(0x2b1)
     314                            .dwattr $C$DW$T$96, DW_AT_decl_column(0x0e)
     315                            .dwendtag $C$DW$T$96
     316                    
     317                    $C$DW$T$97      .dwtag  DW_TAG_typedef
     318                            .dwattr $C$DW$T$97, DW_AT_name("PIN_Status")
     319                            .dwattr $C$DW$T$97, DW_AT_type(*$C$DW$T$96)
     320                            .dwattr $C$DW$T$97, DW_AT_language(DW_LANG_C)
     321                            .dwattr $C$DW$T$97, DW_AT_decl_file("C:/ti/simplelink_cc13x0_sdk_1_50_00_08/source/ti/drivers/
     322                            .dwattr $C$DW$T$97, DW_AT_decl_line(0x2b6)
     323                            .dwattr $C$DW$T$97, DW_AT_decl_column(0x03)
     324                    
     325                    
     326                    $C$DW$T$60      .dwtag  DW_TAG_structure_type
     327                            .dwattr $C$DW$T$60, DW_AT_byte_size(0x4c)
     328                    $C$DW$27        .dwtag  DW_TAG_member
     329                            .dwattr $C$DW$27, DW_AT_type(*$C$DW$T$24)
     330                            .dwattr $C$DW$27, DW_AT_name("Crc32")
TI ARM Assembler PC v16.9.4 Sat Nov 18 18:46:29 2017

Tools Copyright (c) 1996-2017 Texas Instruments Incorporated
C:\Users\Kevin\AppData\Local\Temp\{5E948145-182F-435E-8CCA-E077E24C2FF9} PAGE    7

     331                            .dwattr $C$DW$27, DW_AT_TI_symbol_name("Crc32")
     332                            .dwattr $C$DW$27, DW_AT_data_member_location[DW_OP_plus_uconst 0x0]
     333                            .dwattr $C$DW$27, DW_AT_accessibility(DW_ACCESS_public)
     334                            .dwattr $C$DW$27, DW_AT_decl_file("C:\ti\simplelink_cc13x0_sdk_1_50_00_08\source\ti\devices\cc
     335                            .dwattr $C$DW$27, DW_AT_decl_line(0x76)
     336                            .dwattr $C$DW$27, DW_AT_decl_column(0x25)
     337                    
     338                    $C$DW$28        .dwtag  DW_TAG_member
     339                            .dwattr $C$DW$28, DW_AT_type(*$C$DW$T$27)
     340                            .dwattr $C$DW$28, DW_AT_name("FlashGetSize")
     341                            .dwattr $C$DW$28, DW_AT_TI_symbol_name("FlashGetSize")
     342                            .dwattr $C$DW$28, DW_AT_data_member_location[DW_OP_plus_uconst 0x4]
     343                            .dwattr $C$DW$28, DW_AT_accessibility(DW_ACCESS_public)
     344                            .dwattr $C$DW$28, DW_AT_decl_file("C:\ti\simplelink_cc13x0_sdk_1_50_00_08\source\ti\devices\cc
     345                            .dwattr $C$DW$28, DW_AT_decl_line(0x77)
     346                            .dwattr $C$DW$28, DW_AT_decl_column(0x25)
     347                    
     348                    $C$DW$29        .dwtag  DW_TAG_member
     349                            .dwattr $C$DW$29, DW_AT_type(*$C$DW$T$28)
     350                            .dwattr $C$DW$29, DW_AT_name("GetChipId")
     351                            .dwattr $C$DW$29, DW_AT_TI_symbol_name("GetChipId")
     352                            .dwattr $C$DW$29, DW_AT_data_member_location[DW_OP_plus_uconst 0x8]
     353                            .dwattr $C$DW$29, DW_AT_accessibility(DW_ACCESS_public)
     354                            .dwattr $C$DW$29, DW_AT_decl_file("C:\ti\simplelink_cc13x0_sdk_1_50_00_08\source\ti\devices\cc
     355                            .dwattr $C$DW$29, DW_AT_decl_line(0x78)
     356                            .dwattr $C$DW$29, DW_AT_decl_column(0x25)
     357                    
     358                    $C$DW$30        .dwtag  DW_TAG_member
     359                            .dwattr $C$DW$30, DW_AT_type(*$C$DW$T$31)
     360                            .dwattr $C$DW$30, DW_AT_name("ReservedLocation1")
     361                            .dwattr $C$DW$30, DW_AT_TI_symbol_name("ReservedLocation1")
     362                            .dwattr $C$DW$30, DW_AT_data_member_location[DW_OP_plus_uconst 0xc]
     363                            .dwattr $C$DW$30, DW_AT_accessibility(DW_ACCESS_public)
     364                            .dwattr $C$DW$30, DW_AT_decl_file("C:\ti\simplelink_cc13x0_sdk_1_50_00_08\source\ti\devices\cc
     365                            .dwattr $C$DW$30, DW_AT_decl_line(0x79)
     366                            .dwattr $C$DW$30, DW_AT_decl_column(0x25)
     367                    
     368                    $C$DW$31        .dwtag  DW_TAG_member
     369                            .dwattr $C$DW$31, DW_AT_type(*$C$DW$T$32)
     370                            .dwattr $C$DW$31, DW_AT_name("ReservedLocation2")
     371                            .dwattr $C$DW$31, DW_AT_TI_symbol_name("ReservedLocation2")
     372                            .dwattr $C$DW$31, DW_AT_data_member_location[DW_OP_plus_uconst 0x10]
     373                            .dwattr $C$DW$31, DW_AT_accessibility(DW_ACCESS_public)
     374                            .dwattr $C$DW$31, DW_AT_decl_file("C:\ti\simplelink_cc13x0_sdk_1_50_00_08\source\ti\devices\cc
     375                            .dwattr $C$DW$31, DW_AT_decl_line(0x7a)
     376                            .dwattr $C$DW$31, DW_AT_decl_column(0x25)
     377                    
     378                    $C$DW$32        .dwtag  DW_TAG_member
     379                            .dwattr $C$DW$32, DW_AT_type(*$C$DW$T$33)
     380                            .dwattr $C$DW$32, DW_AT_name("ReservedLocation3")
     381                            .dwattr $C$DW$32, DW_AT_TI_symbol_name("ReservedLocation3")
     382                            .dwattr $C$DW$32, DW_AT_data_member_location[DW_OP_plus_uconst 0x14]
     383                            .dwattr $C$DW$32, DW_AT_accessibility(DW_ACCESS_public)
     384                            .dwattr $C$DW$32, DW_AT_decl_file("C:\ti\simplelink_cc13x0_sdk_1_50_00_08\source\ti\devices\cc
     385                            .dwattr $C$DW$32, DW_AT_decl_line(0x7b)
TI ARM Assembler PC v16.9.4 Sat Nov 18 18:46:29 2017

Tools Copyright (c) 1996-2017 Texas Instruments Incorporated
C:\Users\Kevin\AppData\Local\Temp\{5E948145-182F-435E-8CCA-E077E24C2FF9} PAGE    8

     386                            .dwattr $C$DW$32, DW_AT_decl_column(0x25)
     387                    
     388                    $C$DW$33        .dwtag  DW_TAG_member
     389                            .dwattr $C$DW$33, DW_AT_type(*$C$DW$T$36)
     390                            .dwattr $C$DW$33, DW_AT_name("ResetDevice")
     391                            .dwattr $C$DW$33, DW_AT_TI_symbol_name("ResetDevice")
     392                            .dwattr $C$DW$33, DW_AT_data_member_location[DW_OP_plus_uconst 0x18]
     393                            .dwattr $C$DW$33, DW_AT_accessibility(DW_ACCESS_public)
     394                            .dwattr $C$DW$33, DW_AT_decl_file("C:\ti\simplelink_cc13x0_sdk_1_50_00_08\source\ti\devices\cc
     395                            .dwattr $C$DW$33, DW_AT_decl_line(0x7c)
     396                            .dwattr $C$DW$33, DW_AT_decl_column(0x25)
     397                    
     398                    $C$DW$34        .dwtag  DW_TAG_member
     399                            .dwattr $C$DW$34, DW_AT_type(*$C$DW$T$41)
     400                            .dwattr $C$DW$34, DW_AT_name("Fletcher32")
     401                            .dwattr $C$DW$34, DW_AT_TI_symbol_name("Fletcher32")
     402                            .dwattr $C$DW$34, DW_AT_data_member_location[DW_OP_plus_uconst 0x1c]
     403                            .dwattr $C$DW$34, DW_AT_accessibility(DW_ACCESS_public)
     404                            .dwattr $C$DW$34, DW_AT_decl_file("C:\ti\simplelink_cc13x0_sdk_1_50_00_08\source\ti\devices\cc
     405                            .dwattr $C$DW$34, DW_AT_decl_line(0x7d)
     406                            .dwattr $C$DW$34, DW_AT_decl_column(0x25)
     407                    
     408                    $C$DW$35        .dwtag  DW_TAG_member
     409                            .dwattr $C$DW$35, DW_AT_type(*$C$DW$T$45)
     410                            .dwattr $C$DW$35, DW_AT_name("MinValue")
     411                            .dwattr $C$DW$35, DW_AT_TI_symbol_name("MinValue")
     412                            .dwattr $C$DW$35, DW_AT_data_member_location[DW_OP_plus_uconst 0x20]
     413                            .dwattr $C$DW$35, DW_AT_accessibility(DW_ACCESS_public)
     414                            .dwattr $C$DW$35, DW_AT_decl_file("C:\ti\simplelink_cc13x0_sdk_1_50_00_08\source\ti\devices\cc
     415                            .dwattr $C$DW$35, DW_AT_decl_line(0x7e)
     416                            .dwattr $C$DW$35, DW_AT_decl_column(0x25)
     417                    
     418                    $C$DW$36        .dwtag  DW_TAG_member
     419                            .dwattr $C$DW$36, DW_AT_type(*$C$DW$T$46)
     420                            .dwattr $C$DW$36, DW_AT_name("MaxValue")
     421                            .dwattr $C$DW$36, DW_AT_TI_symbol_name("MaxValue")
     422                            .dwattr $C$DW$36, DW_AT_data_member_location[DW_OP_plus_uconst 0x24]
     423                            .dwattr $C$DW$36, DW_AT_accessibility(DW_ACCESS_public)
     424                            .dwattr $C$DW$36, DW_AT_decl_file("C:\ti\simplelink_cc13x0_sdk_1_50_00_08\source\ti\devices\cc
     425                            .dwattr $C$DW$36, DW_AT_decl_line(0x7f)
     426                            .dwattr $C$DW$36, DW_AT_decl_column(0x25)
     427                    
     428                    $C$DW$37        .dwtag  DW_TAG_member
     429                            .dwattr $C$DW$37, DW_AT_type(*$C$DW$T$47)
     430                            .dwattr $C$DW$37, DW_AT_name("MeanValue")
     431                            .dwattr $C$DW$37, DW_AT_TI_symbol_name("MeanValue")
     432                            .dwattr $C$DW$37, DW_AT_data_member_location[DW_OP_plus_uconst 0x28]
     433                            .dwattr $C$DW$37, DW_AT_accessibility(DW_ACCESS_public)
     434                            .dwattr $C$DW$37, DW_AT_decl_file("C:\ti\simplelink_cc13x0_sdk_1_50_00_08\source\ti\devices\cc
     435                            .dwattr $C$DW$37, DW_AT_decl_line(0x80)
     436                            .dwattr $C$DW$37, DW_AT_decl_column(0x25)
     437                    
     438                    $C$DW$38        .dwtag  DW_TAG_member
     439                            .dwattr $C$DW$38, DW_AT_type(*$C$DW$T$48)
     440                            .dwattr $C$DW$38, DW_AT_name("StandDeviationValue")
TI ARM Assembler PC v16.9.4 Sat Nov 18 18:46:29 2017

Tools Copyright (c) 1996-2017 Texas Instruments Incorporated
C:\Users\Kevin\AppData\Local\Temp\{5E948145-182F-435E-8CCA-E077E24C2FF9} PAGE    9

     441                            .dwattr $C$DW$38, DW_AT_TI_symbol_name("StandDeviationValue")
     442                            .dwattr $C$DW$38, DW_AT_data_member_location[DW_OP_plus_uconst 0x2c]
     443                            .dwattr $C$DW$38, DW_AT_accessibility(DW_ACCESS_public)
     444                            .dwattr $C$DW$38, DW_AT_decl_file("C:\ti\simplelink_cc13x0_sdk_1_50_00_08\source\ti\devices\cc
     445                            .dwattr $C$DW$38, DW_AT_decl_line(0x81)
     446                            .dwattr $C$DW$38, DW_AT_decl_column(0x25)
     447                    
     448                    $C$DW$39        .dwtag  DW_TAG_member
     449                            .dwattr $C$DW$39, DW_AT_type(*$C$DW$T$51)
     450                            .dwattr $C$DW$39, DW_AT_name("ReservedLocation4")
     451                            .dwattr $C$DW$39, DW_AT_TI_symbol_name("ReservedLocation4")
     452                            .dwattr $C$DW$39, DW_AT_data_member_location[DW_OP_plus_uconst 0x30]
     453                            .dwattr $C$DW$39, DW_AT_accessibility(DW_ACCESS_public)
     454                            .dwattr $C$DW$39, DW_AT_decl_file("C:\ti\simplelink_cc13x0_sdk_1_50_00_08\source\ti\devices\cc
     455                            .dwattr $C$DW$39, DW_AT_decl_line(0x82)
     456                            .dwattr $C$DW$39, DW_AT_decl_column(0x25)
     457                    
     458                    $C$DW$40        .dwtag  DW_TAG_member
     459                            .dwattr $C$DW$40, DW_AT_type(*$C$DW$T$52)
     460                            .dwattr $C$DW$40, DW_AT_name("ReservedLocation5")
     461                            .dwattr $C$DW$40, DW_AT_TI_symbol_name("ReservedLocation5")
     462                            .dwattr $C$DW$40, DW_AT_data_member_location[DW_OP_plus_uconst 0x34]
     463                            .dwattr $C$DW$40, DW_AT_accessibility(DW_ACCESS_public)
     464                            .dwattr $C$DW$40, DW_AT_decl_file("C:\ti\simplelink_cc13x0_sdk_1_50_00_08\source\ti\devices\cc
     465                            .dwattr $C$DW$40, DW_AT_decl_line(0x83)
     466                            .dwattr $C$DW$40, DW_AT_decl_column(0x25)
     467                    
     468                    $C$DW$41        .dwtag  DW_TAG_member
     469                            .dwattr $C$DW$41, DW_AT_type(*$C$DW$T$53)
     470                            .dwattr $C$DW$41, DW_AT_name("HFSourceSafeSwitch")
     471                            .dwattr $C$DW$41, DW_AT_TI_symbol_name("HFSourceSafeSwitch")
     472                            .dwattr $C$DW$41, DW_AT_data_member_location[DW_OP_plus_uconst 0x38]
     473                            .dwattr $C$DW$41, DW_AT_accessibility(DW_ACCESS_public)
     474                            .dwattr $C$DW$41, DW_AT_decl_file("C:\ti\simplelink_cc13x0_sdk_1_50_00_08\source\ti\devices\cc
     475                            .dwattr $C$DW$41, DW_AT_decl_line(0x84)
     476                            .dwattr $C$DW$41, DW_AT_decl_column(0x25)
     477                    
     478                    $C$DW$42        .dwtag  DW_TAG_member
     479                            .dwattr $C$DW$42, DW_AT_type(*$C$DW$T$56)
     480                            .dwattr $C$DW$42, DW_AT_name("SelectCompAInput")
     481                            .dwattr $C$DW$42, DW_AT_TI_symbol_name("SelectCompAInput")
     482                            .dwattr $C$DW$42, DW_AT_data_member_location[DW_OP_plus_uconst 0x3c]
     483                            .dwattr $C$DW$42, DW_AT_accessibility(DW_ACCESS_public)
     484                            .dwattr $C$DW$42, DW_AT_decl_file("C:\ti\simplelink_cc13x0_sdk_1_50_00_08\source\ti\devices\cc
     485                            .dwattr $C$DW$42, DW_AT_decl_line(0x85)
     486                            .dwattr $C$DW$42, DW_AT_decl_column(0x25)
     487                    
     488                    $C$DW$43        .dwtag  DW_TAG_member
     489                            .dwattr $C$DW$43, DW_AT_type(*$C$DW$T$57)
     490                            .dwattr $C$DW$43, DW_AT_name("SelectCompARef")
     491                            .dwattr $C$DW$43, DW_AT_TI_symbol_name("SelectCompARef")
     492                            .dwattr $C$DW$43, DW_AT_data_member_location[DW_OP_plus_uconst 0x40]
     493                            .dwattr $C$DW$43, DW_AT_accessibility(DW_ACCESS_public)
     494                            .dwattr $C$DW$43, DW_AT_decl_file("C:\ti\simplelink_cc13x0_sdk_1_50_00_08\source\ti\devices\cc
     495                            .dwattr $C$DW$43, DW_AT_decl_line(0x86)
TI ARM Assembler PC v16.9.4 Sat Nov 18 18:46:29 2017

Tools Copyright (c) 1996-2017 Texas Instruments Incorporated
C:\Users\Kevin\AppData\Local\Temp\{5E948145-182F-435E-8CCA-E077E24C2FF9} PAGE   10

     496                            .dwattr $C$DW$43, DW_AT_decl_column(0x25)
     497                    
     498                    $C$DW$44        .dwtag  DW_TAG_member
     499                            .dwattr $C$DW$44, DW_AT_type(*$C$DW$T$58)
     500                            .dwattr $C$DW$44, DW_AT_name("SelectADCCompBInput")
     501                            .dwattr $C$DW$44, DW_AT_TI_symbol_name("SelectADCCompBInput")
     502                            .dwattr $C$DW$44, DW_AT_data_member_location[DW_OP_plus_uconst 0x44]
     503                            .dwattr $C$DW$44, DW_AT_accessibility(DW_ACCESS_public)
     504                            .dwattr $C$DW$44, DW_AT_decl_file("C:\ti\simplelink_cc13x0_sdk_1_50_00_08\source\ti\devices\cc
     505                            .dwattr $C$DW$44, DW_AT_decl_line(0x87)
     506                            .dwattr $C$DW$44, DW_AT_decl_column(0x25)
     507                    
     508                    $C$DW$45        .dwtag  DW_TAG_member
     509                            .dwattr $C$DW$45, DW_AT_type(*$C$DW$T$59)
     510                            .dwattr $C$DW$45, DW_AT_name("SelectCompBRef")
     511                            .dwattr $C$DW$45, DW_AT_TI_symbol_name("SelectCompBRef")
     512                            .dwattr $C$DW$45, DW_AT_data_member_location[DW_OP_plus_uconst 0x48]
     513                            .dwattr $C$DW$45, DW_AT_accessibility(DW_ACCESS_public)
     514                            .dwattr $C$DW$45, DW_AT_decl_file("C:\ti\simplelink_cc13x0_sdk_1_50_00_08\source\ti\devices\cc
     515                            .dwattr $C$DW$45, DW_AT_decl_line(0x88)
     516                            .dwattr $C$DW$45, DW_AT_decl_column(0x25)
     517                    
     518                            .dwattr $C$DW$T$60, DW_AT_decl_file("C:\ti\simplelink_cc13x0_sdk_1_50_00_08\source\ti\devices\
     519                            .dwattr $C$DW$T$60, DW_AT_decl_line(0x75)
     520                            .dwattr $C$DW$T$60, DW_AT_decl_column(0x01)
     521                            .dwendtag $C$DW$T$60
     522                    
     523                    $C$DW$T$104     .dwtag  DW_TAG_typedef
     524                            .dwattr $C$DW$T$104, DW_AT_name("HARD_API_T")
     525                            .dwattr $C$DW$T$104, DW_AT_type(*$C$DW$T$60)
     526                            .dwattr $C$DW$T$104, DW_AT_language(DW_LANG_C)
     527                            .dwattr $C$DW$T$104, DW_AT_decl_file("C:\ti\simplelink_cc13x0_sdk_1_50_00_08\source\ti\devices
     528                            .dwattr $C$DW$T$104, DW_AT_decl_line(0x89)
     529                            .dwattr $C$DW$T$104, DW_AT_decl_column(0x03)
     530                    
     531                    
     532                    $C$DW$T$64      .dwtag  DW_TAG_union_type
     533                            .dwattr $C$DW$T$64, DW_AT_byte_size(0x04)
     534                    $C$DW$46        .dwtag  DW_TAG_member
     535                            .dwattr $C$DW$46, DW_AT_type(*$C$DW$T$61)
     536                            .dwattr $C$DW$46, DW_AT_name("f")
     537                            .dwattr $C$DW$46, DW_AT_TI_symbol_name("f")
     538                            .dwattr $C$DW$46, DW_AT_data_member_location[DW_OP_plus_uconst 0x0]
     539                            .dwattr $C$DW$46, DW_AT_accessibility(DW_ACCESS_public)
     540                            .dwattr $C$DW$46, DW_AT_decl_file("C:/ti/xdctools_3_50_03_33_core/packages/xdc/std.h")
     541                            .dwattr $C$DW$46, DW_AT_decl_line(0xb7)
     542                            .dwattr $C$DW$46, DW_AT_decl_column(0x0f)
     543                    
     544                    $C$DW$47        .dwtag  DW_TAG_member
     545                            .dwattr $C$DW$47, DW_AT_type(*$C$DW$T$63)
     546                            .dwattr $C$DW$47, DW_AT_name("a")
     547                            .dwattr $C$DW$47, DW_AT_TI_symbol_name("a")
     548                            .dwattr $C$DW$47, DW_AT_data_member_location[DW_OP_plus_uconst 0x0]
     549                            .dwattr $C$DW$47, DW_AT_accessibility(DW_ACCESS_public)
     550                            .dwattr $C$DW$47, DW_AT_decl_file("C:/ti/xdctools_3_50_03_33_core/packages/xdc/std.h")
TI ARM Assembler PC v16.9.4 Sat Nov 18 18:46:29 2017

Tools Copyright (c) 1996-2017 Texas Instruments Incorporated
C:\Users\Kevin\AppData\Local\Temp\{5E948145-182F-435E-8CCA-E077E24C2FF9} PAGE   11

     551                            .dwattr $C$DW$47, DW_AT_decl_line(0xb8)
     552                            .dwattr $C$DW$47, DW_AT_decl_column(0x0f)
     553                    
     554                            .dwattr $C$DW$T$64, DW_AT_decl_file("C:/ti/xdctools_3_50_03_33_core/packages/xdc/std.h")
     555                            .dwattr $C$DW$T$64, DW_AT_decl_line(0xb6)
     556                            .dwattr $C$DW$T$64, DW_AT_decl_column(0x0f)
     557                            .dwendtag $C$DW$T$64
     558                    
     559                    $C$DW$T$105     .dwtag  DW_TAG_typedef
     560                            .dwattr $C$DW$T$105, DW_AT_name("xdc_FloatData")
     561                            .dwattr $C$DW$T$105, DW_AT_type(*$C$DW$T$64)
     562                            .dwattr $C$DW$T$105, DW_AT_language(DW_LANG_C)
     563                            .dwattr $C$DW$T$105, DW_AT_decl_file("C:/ti/xdctools_3_50_03_33_core/packages/xdc/std.h")
     564                            .dwattr $C$DW$T$105, DW_AT_decl_line(0xb9)
     565                            .dwattr $C$DW$T$105, DW_AT_decl_column(0x03)
     566                    
     567                    
     568                    $C$DW$T$67      .dwtag  DW_TAG_structure_type
     569                            .dwattr $C$DW$T$67, DW_AT_name(".ggroup1")
     570                            .dwattr $C$DW$T$67, DW_AT_byte_size(0x20)
     571                    $C$DW$48        .dwtag  DW_TAG_member
     572                            .dwattr $C$DW$48, DW_AT_type(*$C$DW$T$65)
     573                            .dwattr $C$DW$48, DW_AT_name("palnaPinHandle")
     574                            .dwattr $C$DW$48, DW_AT_TI_symbol_name("palnaPinHandle")
     575                            .dwattr $C$DW$48, DW_AT_data_member_location[DW_OP_plus_uconst 0x0]
     576                            .dwattr $C$DW$48, DW_AT_accessibility(DW_ACCESS_public)
     577                    
     578                    $C$DW$49        .dwtag  DW_TAG_member
     579                            .dwattr $C$DW$49, DW_AT_type(*$C$DW$T$87)
     580                            .dwattr $C$DW$49, DW_AT_name("palnaPinState")
     581                            .dwattr $C$DW$49, DW_AT_TI_symbol_name("palnaPinState")
     582                            .dwattr $C$DW$49, DW_AT_data_member_location[DW_OP_plus_uconst 0x4]
     583                            .dwattr $C$DW$49, DW_AT_accessibility(DW_ACCESS_public)
     584                    
     585                    $C$DW$50        .dwtag  DW_TAG_member
     586                            .dwattr $C$DW$50, DW_AT_type(*$C$DW$T$66)
     587                            .dwattr $C$DW$50, DW_AT_name("palnaPinTable")
     588                            .dwattr $C$DW$50, DW_AT_TI_symbol_name("palnaPinTable")
     589                            .dwattr $C$DW$50, DW_AT_data_member_location[DW_OP_plus_uconst 0x10]
     590                            .dwattr $C$DW$50, DW_AT_accessibility(DW_ACCESS_public)
     591                    
     592                            .dwendtag $C$DW$T$67
     593                    
     594                    
     595                    $C$DW$T$107     .dwtag  DW_TAG_enumeration_type
     596                            .dwattr $C$DW$T$107, DW_AT_name("CC13X0_LAUNCHXL_ADCBufName")
     597                            .dwattr $C$DW$T$107, DW_AT_byte_size(0x01)
     598                    $C$DW$51        .dwtag  DW_TAG_enumerator
     599                            .dwattr $C$DW$51, DW_AT_name("CC13X0_LAUNCHXL_ADCBuf0")
     600                            .dwattr $C$DW$51, DW_AT_const_value(0x00)
     601                            .dwattr $C$DW$51, DW_AT_decl_file("C:\ti\simplelink_cc13x0_sdk_1_50_00_08\examples\rtos\CC1310
     602                            .dwattr $C$DW$51, DW_AT_decl_line(0x129)
     603                            .dwattr $C$DW$51, DW_AT_decl_column(0x05)
     604                    
     605                    $C$DW$52        .dwtag  DW_TAG_enumerator
TI ARM Assembler PC v16.9.4 Sat Nov 18 18:46:29 2017

Tools Copyright (c) 1996-2017 Texas Instruments Incorporated
C:\Users\Kevin\AppData\Local\Temp\{5E948145-182F-435E-8CCA-E077E24C2FF9} PAGE   12

     606                            .dwattr $C$DW$52, DW_AT_name("CC13X0_LAUNCHXL_ADCBufCOUNT")
     607                            .dwattr $C$DW$52, DW_AT_const_value(0x01)
     608                            .dwattr $C$DW$52, DW_AT_decl_file("C:\ti\simplelink_cc13x0_sdk_1_50_00_08\examples\rtos\CC1310
     609                            .dwattr $C$DW$52, DW_AT_decl_line(0x12a)
     610                            .dwattr $C$DW$52, DW_AT_decl_column(0x05)
     611                    
     612                            .dwattr $C$DW$T$107, DW_AT_decl_file("C:\ti\simplelink_cc13x0_sdk_1_50_00_08\examples\rtos\CC1
     613                            .dwattr $C$DW$T$107, DW_AT_decl_line(0x128)
     614                            .dwattr $C$DW$T$107, DW_AT_decl_column(0x0e)
     615                            .dwendtag $C$DW$T$107
     616                    
     617                    $C$DW$T$108     .dwtag  DW_TAG_typedef
     618                            .dwattr $C$DW$T$108, DW_AT_name("CC13X0_LAUNCHXL_ADCBufName")
     619                            .dwattr $C$DW$T$108, DW_AT_type(*$C$DW$T$107)
     620                            .dwattr $C$DW$T$108, DW_AT_language(DW_LANG_C)
     621                            .dwattr $C$DW$T$108, DW_AT_decl_file("C:\ti\simplelink_cc13x0_sdk_1_50_00_08\examples\rtos\CC1
     622                            .dwattr $C$DW$T$108, DW_AT_decl_line(0x12b)
     623                            .dwattr $C$DW$T$108, DW_AT_decl_column(0x03)
     624                    
     625                    
     626                    $C$DW$T$109     .dwtag  DW_TAG_enumeration_type
     627                            .dwattr $C$DW$T$109, DW_AT_name("CC13X0_LAUNCHXL_ADCName")
     628                            .dwattr $C$DW$T$109, DW_AT_byte_size(0x01)
     629                    $C$DW$53        .dwtag  DW_TAG_enumerator
     630                            .dwattr $C$DW$53, DW_AT_name("CC13X0_LAUNCHXL_ADC0")
     631                            .dwattr $C$DW$53, DW_AT_const_value(0x00)
     632                            .dwattr $C$DW$53, DW_AT_decl_file("C:\ti\simplelink_cc13x0_sdk_1_50_00_08\examples\rtos\CC1310
     633                            .dwattr $C$DW$53, DW_AT_decl_line(0x133)
     634                            .dwattr $C$DW$53, DW_AT_decl_column(0x05)
     635                    
     636                    $C$DW$54        .dwtag  DW_TAG_enumerator
     637                            .dwattr $C$DW$54, DW_AT_name("CC13X0_LAUNCHXL_ADC1")
     638                            .dwattr $C$DW$54, DW_AT_const_value(0x01)
     639                            .dwattr $C$DW$54, DW_AT_decl_file("C:\ti\simplelink_cc13x0_sdk_1_50_00_08\examples\rtos\CC1310
     640                            .dwattr $C$DW$54, DW_AT_decl_line(0x134)
     641                            .dwattr $C$DW$54, DW_AT_decl_column(0x05)
     642                    
     643                    $C$DW$55        .dwtag  DW_TAG_enumerator
     644                            .dwattr $C$DW$55, DW_AT_name("CC13X0_LAUNCHXL_ADC2")
     645                            .dwattr $C$DW$55, DW_AT_const_value(0x02)
     646                            .dwattr $C$DW$55, DW_AT_decl_file("C:\ti\simplelink_cc13x0_sdk_1_50_00_08\examples\rtos\CC1310
     647                            .dwattr $C$DW$55, DW_AT_decl_line(0x135)
     648                            .dwattr $C$DW$55, DW_AT_decl_column(0x05)
     649                    
     650                    $C$DW$56        .dwtag  DW_TAG_enumerator
     651                            .dwattr $C$DW$56, DW_AT_name("CC13X0_LAUNCHXL_ADC3")
     652                            .dwattr $C$DW$56, DW_AT_const_value(0x03)
     653                            .dwattr $C$DW$56, DW_AT_decl_file("C:\ti\simplelink_cc13x0_sdk_1_50_00_08\examples\rtos\CC1310
     654                            .dwattr $C$DW$56, DW_AT_decl_line(0x136)
     655                            .dwattr $C$DW$56, DW_AT_decl_column(0x05)
     656                    
     657                    $C$DW$57        .dwtag  DW_TAG_enumerator
     658                            .dwattr $C$DW$57, DW_AT_name("CC13X0_LAUNCHXL_ADC4")
     659                            .dwattr $C$DW$57, DW_AT_const_value(0x04)
     660                            .dwattr $C$DW$57, DW_AT_decl_file("C:\ti\simplelink_cc13x0_sdk_1_50_00_08\examples\rtos\CC1310
TI ARM Assembler PC v16.9.4 Sat Nov 18 18:46:29 2017

Tools Copyright (c) 1996-2017 Texas Instruments Incorporated
C:\Users\Kevin\AppData\Local\Temp\{5E948145-182F-435E-8CCA-E077E24C2FF9} PAGE   13

     661                            .dwattr $C$DW$57, DW_AT_decl_line(0x137)
     662                            .dwattr $C$DW$57, DW_AT_decl_column(0x05)
     663                    
     664                    $C$DW$58        .dwtag  DW_TAG_enumerator
     665                            .dwattr $C$DW$58, DW_AT_name("CC13X0_LAUNCHXL_ADC5")
     666                            .dwattr $C$DW$58, DW_AT_const_value(0x05)
     667                            .dwattr $C$DW$58, DW_AT_decl_file("C:\ti\simplelink_cc13x0_sdk_1_50_00_08\examples\rtos\CC1310
     668                            .dwattr $C$DW$58, DW_AT_decl_line(0x138)
     669                            .dwattr $C$DW$58, DW_AT_decl_column(0x05)
     670                    
     671                    $C$DW$59        .dwtag  DW_TAG_enumerator
     672                            .dwattr $C$DW$59, DW_AT_name("CC13X0_LAUNCHXL_ADC6")
     673                            .dwattr $C$DW$59, DW_AT_const_value(0x06)
     674                            .dwattr $C$DW$59, DW_AT_decl_file("C:\ti\simplelink_cc13x0_sdk_1_50_00_08\examples\rtos\CC1310
     675                            .dwattr $C$DW$59, DW_AT_decl_line(0x139)
     676                            .dwattr $C$DW$59, DW_AT_decl_column(0x05)
     677                    
     678                    $C$DW$60        .dwtag  DW_TAG_enumerator
     679                            .dwattr $C$DW$60, DW_AT_name("CC13X0_LAUNCHXL_ADC7")
     680                            .dwattr $C$DW$60, DW_AT_const_value(0x07)
     681                            .dwattr $C$DW$60, DW_AT_decl_file("C:\ti\simplelink_cc13x0_sdk_1_50_00_08\examples\rtos\CC1310
     682                            .dwattr $C$DW$60, DW_AT_decl_line(0x13a)
     683                            .dwattr $C$DW$60, DW_AT_decl_column(0x05)
     684                    
     685                    $C$DW$61        .dwtag  DW_TAG_enumerator
     686                            .dwattr $C$DW$61, DW_AT_name("CC13X0_LAUNCHXL_ADCDCOUPL")
     687                            .dwattr $C$DW$61, DW_AT_const_value(0x08)
     688                            .dwattr $C$DW$61, DW_AT_decl_file("C:\ti\simplelink_cc13x0_sdk_1_50_00_08\examples\rtos\CC1310
     689                            .dwattr $C$DW$61, DW_AT_decl_line(0x13b)
     690                            .dwattr $C$DW$61, DW_AT_decl_column(0x05)
     691                    
     692                    $C$DW$62        .dwtag  DW_TAG_enumerator
     693                            .dwattr $C$DW$62, DW_AT_name("CC13X0_LAUNCHXL_ADCVSS")
     694                            .dwattr $C$DW$62, DW_AT_const_value(0x09)
     695                            .dwattr $C$DW$62, DW_AT_decl_file("C:\ti\simplelink_cc13x0_sdk_1_50_00_08\examples\rtos\CC1310
     696                            .dwattr $C$DW$62, DW_AT_decl_line(0x13c)
     697                            .dwattr $C$DW$62, DW_AT_decl_column(0x05)
     698                    
     699                    $C$DW$63        .dwtag  DW_TAG_enumerator
     700                            .dwattr $C$DW$63, DW_AT_name("CC13X0_LAUNCHXL_ADCVDDS")
     701                            .dwattr $C$DW$63, DW_AT_const_value(0x0a)
     702                            .dwattr $C$DW$63, DW_AT_decl_file("C:\ti\simplelink_cc13x0_sdk_1_50_00_08\examples\rtos\CC1310
     703                            .dwattr $C$DW$63, DW_AT_decl_line(0x13d)
     704                            .dwattr $C$DW$63, DW_AT_decl_column(0x05)
     705                    
     706                    $C$DW$64        .dwtag  DW_TAG_enumerator
     707                            .dwattr $C$DW$64, DW_AT_name("CC13X0_LAUNCHXL_ADCCOUNT")
     708                            .dwattr $C$DW$64, DW_AT_const_value(0x0b)
     709                            .dwattr $C$DW$64, DW_AT_decl_file("C:\ti\simplelink_cc13x0_sdk_1_50_00_08\examples\rtos\CC1310
     710                            .dwattr $C$DW$64, DW_AT_decl_line(0x13e)
     711                            .dwattr $C$DW$64, DW_AT_decl_column(0x05)
     712                    
     713                            .dwattr $C$DW$T$109, DW_AT_decl_file("C:\ti\simplelink_cc13x0_sdk_1_50_00_08\examples\rtos\CC1
     714                            .dwattr $C$DW$T$109, DW_AT_decl_line(0x132)
     715                            .dwattr $C$DW$T$109, DW_AT_decl_column(0x0e)
TI ARM Assembler PC v16.9.4 Sat Nov 18 18:46:29 2017

Tools Copyright (c) 1996-2017 Texas Instruments Incorporated
C:\Users\Kevin\AppData\Local\Temp\{5E948145-182F-435E-8CCA-E077E24C2FF9} PAGE   14

     716                            .dwendtag $C$DW$T$109
     717                    
     718                    $C$DW$T$110     .dwtag  DW_TAG_typedef
     719                            .dwattr $C$DW$T$110, DW_AT_name("CC13X0_LAUNCHXL_ADCName")
     720                            .dwattr $C$DW$T$110, DW_AT_type(*$C$DW$T$109)
     721                            .dwattr $C$DW$T$110, DW_AT_language(DW_LANG_C)
     722                            .dwattr $C$DW$T$110, DW_AT_decl_file("C:\ti\simplelink_cc13x0_sdk_1_50_00_08\examples\rtos\CC1
     723                            .dwattr $C$DW$T$110, DW_AT_decl_line(0x13f)
     724                            .dwattr $C$DW$T$110, DW_AT_decl_column(0x03)
     725                    
     726                    
     727                    $C$DW$T$111     .dwtag  DW_TAG_enumeration_type
     728                            .dwattr $C$DW$T$111, DW_AT_name("CC13X0_LAUNCHXL_CryptoName")
     729                            .dwattr $C$DW$T$111, DW_AT_byte_size(0x01)
     730                    $C$DW$65        .dwtag  DW_TAG_enumerator
     731                            .dwattr $C$DW$65, DW_AT_name("CC13X0_LAUNCHXL_CRYPTO0")
     732                            .dwattr $C$DW$65, DW_AT_const_value(0x00)
     733                            .dwattr $C$DW$65, DW_AT_decl_file("C:\ti\simplelink_cc13x0_sdk_1_50_00_08\examples\rtos\CC1310
     734                            .dwattr $C$DW$65, DW_AT_decl_line(0xd0)
     735                            .dwattr $C$DW$65, DW_AT_decl_column(0x05)
     736                    
     737                    $C$DW$66        .dwtag  DW_TAG_enumerator
     738                            .dwattr $C$DW$66, DW_AT_name("CC13X0_LAUNCHXL_CRYPTOCOUNT")
     739                            .dwattr $C$DW$66, DW_AT_const_value(0x01)
     740                            .dwattr $C$DW$66, DW_AT_decl_file("C:\ti\simplelink_cc13x0_sdk_1_50_00_08\examples\rtos\CC1310
     741                            .dwattr $C$DW$66, DW_AT_decl_line(0xd2)
     742                            .dwattr $C$DW$66, DW_AT_decl_column(0x05)
     743                    
     744                            .dwattr $C$DW$T$111, DW_AT_decl_file("C:\ti\simplelink_cc13x0_sdk_1_50_00_08\examples\rtos\CC1
     745                            .dwattr $C$DW$T$111, DW_AT_decl_line(0xcf)
     746                            .dwattr $C$DW$T$111, DW_AT_decl_column(0x0e)
     747                            .dwendtag $C$DW$T$111
     748                    
     749                    $C$DW$T$112     .dwtag  DW_TAG_typedef
     750                            .dwattr $C$DW$T$112, DW_AT_name("CC13X0_LAUNCHXL_CryptoName")
     751                            .dwattr $C$DW$T$112, DW_AT_type(*$C$DW$T$111)
     752                            .dwattr $C$DW$T$112, DW_AT_language(DW_LANG_C)
     753                            .dwattr $C$DW$T$112, DW_AT_decl_file("C:\ti\simplelink_cc13x0_sdk_1_50_00_08\examples\rtos\CC1
     754                            .dwattr $C$DW$T$112, DW_AT_decl_line(0xd3)
     755                            .dwattr $C$DW$T$112, DW_AT_decl_column(0x03)
     756                    
     757                    
     758                    $C$DW$T$113     .dwtag  DW_TAG_enumeration_type
     759                            .dwattr $C$DW$T$113, DW_AT_name("CC13X0_LAUNCHXL_GPTimerName")
     760                            .dwattr $C$DW$T$113, DW_AT_byte_size(0x01)
     761                    $C$DW$67        .dwtag  DW_TAG_enumerator
     762                            .dwattr $C$DW$67, DW_AT_name("CC13X0_LAUNCHXL_GPTIMER0A")
     763                            .dwattr $C$DW$67, DW_AT_const_value(0x00)
     764                            .dwattr $C$DW$67, DW_AT_decl_file("C:\ti\simplelink_cc13x0_sdk_1_50_00_08\examples\rtos\CC1310
     765                            .dwattr $C$DW$67, DW_AT_decl_line(0xfb)
     766                            .dwattr $C$DW$67, DW_AT_decl_column(0x05)
     767                    
     768                    $C$DW$68        .dwtag  DW_TAG_enumerator
     769                            .dwattr $C$DW$68, DW_AT_name("CC13X0_LAUNCHXL_GPTIMER0B")
     770                            .dwattr $C$DW$68, DW_AT_const_value(0x01)
TI ARM Assembler PC v16.9.4 Sat Nov 18 18:46:29 2017

Tools Copyright (c) 1996-2017 Texas Instruments Incorporated
C:\Users\Kevin\AppData\Local\Temp\{5E948145-182F-435E-8CCA-E077E24C2FF9} PAGE   15

     771                            .dwattr $C$DW$68, DW_AT_decl_file("C:\ti\simplelink_cc13x0_sdk_1_50_00_08\examples\rtos\CC1310
     772                            .dwattr $C$DW$68, DW_AT_decl_line(0xfc)
     773                            .dwattr $C$DW$68, DW_AT_decl_column(0x05)
     774                    
     775                    $C$DW$69        .dwtag  DW_TAG_enumerator
     776                            .dwattr $C$DW$69, DW_AT_name("CC13X0_LAUNCHXL_GPTIMER1A")
     777                            .dwattr $C$DW$69, DW_AT_const_value(0x02)
     778                            .dwattr $C$DW$69, DW_AT_decl_file("C:\ti\simplelink_cc13x0_sdk_1_50_00_08\examples\rtos\CC1310
     779                            .dwattr $C$DW$69, DW_AT_decl_line(0xfd)
     780                            .dwattr $C$DW$69, DW_AT_decl_column(0x05)
     781                    
     782                    $C$DW$70        .dwtag  DW_TAG_enumerator
     783                            .dwattr $C$DW$70, DW_AT_name("CC13X0_LAUNCHXL_GPTIMER1B")
     784                            .dwattr $C$DW$70, DW_AT_const_value(0x03)
     785                            .dwattr $C$DW$70, DW_AT_decl_file("C:\ti\simplelink_cc13x0_sdk_1_50_00_08\examples\rtos\CC1310
     786                            .dwattr $C$DW$70, DW_AT_decl_line(0xfe)
     787                            .dwattr $C$DW$70, DW_AT_decl_column(0x05)
     788                    
     789                    $C$DW$71        .dwtag  DW_TAG_enumerator
     790                            .dwattr $C$DW$71, DW_AT_name("CC13X0_LAUNCHXL_GPTIMER2A")
     791                            .dwattr $C$DW$71, DW_AT_const_value(0x04)
     792                            .dwattr $C$DW$71, DW_AT_decl_file("C:\ti\simplelink_cc13x0_sdk_1_50_00_08\examples\rtos\CC1310
     793                            .dwattr $C$DW$71, DW_AT_decl_line(0xff)
     794                            .dwattr $C$DW$71, DW_AT_decl_column(0x05)
     795                    
     796                    $C$DW$72        .dwtag  DW_TAG_enumerator
     797                            .dwattr $C$DW$72, DW_AT_name("CC13X0_LAUNCHXL_GPTIMER2B")
     798                            .dwattr $C$DW$72, DW_AT_const_value(0x05)
     799                            .dwattr $C$DW$72, DW_AT_decl_file("C:\ti\simplelink_cc13x0_sdk_1_50_00_08\examples\rtos\CC1310
     800                            .dwattr $C$DW$72, DW_AT_decl_line(0x100)
     801                            .dwattr $C$DW$72, DW_AT_decl_column(0x05)
     802                    
     803                    $C$DW$73        .dwtag  DW_TAG_enumerator
     804                            .dwattr $C$DW$73, DW_AT_name("CC13X0_LAUNCHXL_GPTIMER3A")
     805                            .dwattr $C$DW$73, DW_AT_const_value(0x06)
     806                            .dwattr $C$DW$73, DW_AT_decl_file("C:\ti\simplelink_cc13x0_sdk_1_50_00_08\examples\rtos\CC1310
     807                            .dwattr $C$DW$73, DW_AT_decl_line(0x101)
     808                            .dwattr $C$DW$73, DW_AT_decl_column(0x05)
     809                    
     810                    $C$DW$74        .dwtag  DW_TAG_enumerator
     811                            .dwattr $C$DW$74, DW_AT_name("CC13X0_LAUNCHXL_GPTIMER3B")
     812                            .dwattr $C$DW$74, DW_AT_const_value(0x07)
     813                            .dwattr $C$DW$74, DW_AT_decl_file("C:\ti\simplelink_cc13x0_sdk_1_50_00_08\examples\rtos\CC1310
     814                            .dwattr $C$DW$74, DW_AT_decl_line(0x102)
     815                            .dwattr $C$DW$74, DW_AT_decl_column(0x05)
     816                    
     817                    $C$DW$75        .dwtag  DW_TAG_enumerator
     818                            .dwattr $C$DW$75, DW_AT_name("CC13X0_LAUNCHXL_GPTIMERPARTSCOUNT")
     819                            .dwattr $C$DW$75, DW_AT_const_value(0x08)
     820                            .dwattr $C$DW$75, DW_AT_decl_file("C:\ti\simplelink_cc13x0_sdk_1_50_00_08\examples\rtos\CC1310
     821                            .dwattr $C$DW$75, DW_AT_decl_line(0x103)
     822                            .dwattr $C$DW$75, DW_AT_decl_column(0x05)
     823                    
     824                            .dwattr $C$DW$T$113, DW_AT_decl_file("C:\ti\simplelink_cc13x0_sdk_1_50_00_08\examples\rtos\CC1
     825                            .dwattr $C$DW$T$113, DW_AT_decl_line(0xf9)
TI ARM Assembler PC v16.9.4 Sat Nov 18 18:46:29 2017

Tools Copyright (c) 1996-2017 Texas Instruments Incorporated
C:\Users\Kevin\AppData\Local\Temp\{5E948145-182F-435E-8CCA-E077E24C2FF9} PAGE   16

     826                            .dwattr $C$DW$T$113, DW_AT_decl_column(0x0e)
     827                            .dwendtag $C$DW$T$113
     828                    
     829                    $C$DW$T$114     .dwtag  DW_TAG_typedef
     830                            .dwattr $C$DW$T$114, DW_AT_name("CC13X0_LAUNCHXL_GPTimerName")
     831                            .dwattr $C$DW$T$114, DW_AT_type(*$C$DW$T$113)
     832                            .dwattr $C$DW$T$114, DW_AT_language(DW_LANG_C)
     833                            .dwattr $C$DW$T$114, DW_AT_decl_file("C:\ti\simplelink_cc13x0_sdk_1_50_00_08\examples\rtos\CC1
     834                            .dwattr $C$DW$T$114, DW_AT_decl_line(0x104)
     835                            .dwattr $C$DW$T$114, DW_AT_decl_column(0x03)
     836                    
     837                    
     838                    $C$DW$T$115     .dwtag  DW_TAG_enumeration_type
     839                            .dwattr $C$DW$T$115, DW_AT_name("CC13X0_LAUNCHXL_GPTimers")
     840                            .dwattr $C$DW$T$115, DW_AT_byte_size(0x01)
     841                    $C$DW$76        .dwtag  DW_TAG_enumerator
     842                            .dwattr $C$DW$76, DW_AT_name("CC13X0_LAUNCHXL_GPTIMER0")
     843                            .dwattr $C$DW$76, DW_AT_const_value(0x00)
     844                            .dwattr $C$DW$76, DW_AT_decl_file("C:\ti\simplelink_cc13x0_sdk_1_50_00_08\examples\rtos\CC1310
     845                            .dwattr $C$DW$76, DW_AT_decl_line(0x10c)
     846                            .dwattr $C$DW$76, DW_AT_decl_column(0x05)
     847                    
     848                    $C$DW$77        .dwtag  DW_TAG_enumerator
     849                            .dwattr $C$DW$77, DW_AT_name("CC13X0_LAUNCHXL_GPTIMER1")
     850                            .dwattr $C$DW$77, DW_AT_const_value(0x01)
     851                            .dwattr $C$DW$77, DW_AT_decl_file("C:\ti\simplelink_cc13x0_sdk_1_50_00_08\examples\rtos\CC1310
     852                            .dwattr $C$DW$77, DW_AT_decl_line(0x10d)
     853                            .dwattr $C$DW$77, DW_AT_decl_column(0x05)
     854                    
     855                    $C$DW$78        .dwtag  DW_TAG_enumerator
     856                            .dwattr $C$DW$78, DW_AT_name("CC13X0_LAUNCHXL_GPTIMER2")
     857                            .dwattr $C$DW$78, DW_AT_const_value(0x02)
     858                            .dwattr $C$DW$78, DW_AT_decl_file("C:\ti\simplelink_cc13x0_sdk_1_50_00_08\examples\rtos\CC1310
     859                            .dwattr $C$DW$78, DW_AT_decl_line(0x10e)
     860                            .dwattr $C$DW$78, DW_AT_decl_column(0x05)
     861                    
     862                    $C$DW$79        .dwtag  DW_TAG_enumerator
     863                            .dwattr $C$DW$79, DW_AT_name("CC13X0_LAUNCHXL_GPTIMER3")
     864                            .dwattr $C$DW$79, DW_AT_const_value(0x03)
     865                            .dwattr $C$DW$79, DW_AT_decl_file("C:\ti\simplelink_cc13x0_sdk_1_50_00_08\examples\rtos\CC1310
     866                            .dwattr $C$DW$79, DW_AT_decl_line(0x10f)
     867                            .dwattr $C$DW$79, DW_AT_decl_column(0x05)
     868                    
     869                    $C$DW$80        .dwtag  DW_TAG_enumerator
     870                            .dwattr $C$DW$80, DW_AT_name("CC13X0_LAUNCHXL_GPTIMERCOUNT")
     871                            .dwattr $C$DW$80, DW_AT_const_value(0x04)
     872                            .dwattr $C$DW$80, DW_AT_decl_file("C:\ti\simplelink_cc13x0_sdk_1_50_00_08\examples\rtos\CC1310
     873                            .dwattr $C$DW$80, DW_AT_decl_line(0x110)
     874                            .dwattr $C$DW$80, DW_AT_decl_column(0x05)
     875                    
     876                            .dwattr $C$DW$T$115, DW_AT_decl_file("C:\ti\simplelink_cc13x0_sdk_1_50_00_08\examples\rtos\CC1
     877                            .dwattr $C$DW$T$115, DW_AT_decl_line(0x10a)
     878                            .dwattr $C$DW$T$115, DW_AT_decl_column(0x0e)
     879                            .dwendtag $C$DW$T$115
     880                    
TI ARM Assembler PC v16.9.4 Sat Nov 18 18:46:29 2017

Tools Copyright (c) 1996-2017 Texas Instruments Incorporated
C:\Users\Kevin\AppData\Local\Temp\{5E948145-182F-435E-8CCA-E077E24C2FF9} PAGE   17

     881                    $C$DW$T$116     .dwtag  DW_TAG_typedef
     882                            .dwattr $C$DW$T$116, DW_AT_name("CC13X0_LAUNCHXL_GPTimers")
     883                            .dwattr $C$DW$T$116, DW_AT_type(*$C$DW$T$115)
     884                            .dwattr $C$DW$T$116, DW_AT_language(DW_LANG_C)
     885                            .dwattr $C$DW$T$116, DW_AT_decl_file("C:\ti\simplelink_cc13x0_sdk_1_50_00_08\examples\rtos\CC1
     886                            .dwattr $C$DW$T$116, DW_AT_decl_line(0x111)
     887                            .dwattr $C$DW$T$116, DW_AT_decl_column(0x03)
     888                    
     889                    
     890                    $C$DW$T$117     .dwtag  DW_TAG_enumeration_type
     891                            .dwattr $C$DW$T$117, DW_AT_name("CC13X0_LAUNCHXL_I2CName")
     892                            .dwattr $C$DW$T$117, DW_AT_byte_size(0x01)
     893                    $C$DW$81        .dwtag  DW_TAG_enumerator
     894                            .dwattr $C$DW$81, DW_AT_name("CC13X0_LAUNCHXL_I2C0")
     895                            .dwattr $C$DW$81, DW_AT_const_value(0x00)
     896                            .dwattr $C$DW$81, DW_AT_decl_file("C:\ti\simplelink_cc13x0_sdk_1_50_00_08\examples\rtos\CC1310
     897                            .dwattr $C$DW$81, DW_AT_decl_line(0xc6)
     898                            .dwattr $C$DW$81, DW_AT_decl_column(0x05)
     899                    
     900                    $C$DW$82        .dwtag  DW_TAG_enumerator
     901                            .dwattr $C$DW$82, DW_AT_name("CC13X0_LAUNCHXL_I2CCOUNT")
     902                            .dwattr $C$DW$82, DW_AT_const_value(0x01)
     903                            .dwattr $C$DW$82, DW_AT_decl_file("C:\ti\simplelink_cc13x0_sdk_1_50_00_08\examples\rtos\CC1310
     904                            .dwattr $C$DW$82, DW_AT_decl_line(0xc8)
     905                            .dwattr $C$DW$82, DW_AT_decl_column(0x05)
     906                    
     907                            .dwattr $C$DW$T$117, DW_AT_decl_file("C:\ti\simplelink_cc13x0_sdk_1_50_00_08\examples\rtos\CC1
     908                            .dwattr $C$DW$T$117, DW_AT_decl_line(0xc5)
     909                            .dwattr $C$DW$T$117, DW_AT_decl_column(0x0e)
     910                            .dwendtag $C$DW$T$117
     911                    
     912                    $C$DW$T$118     .dwtag  DW_TAG_typedef
     913                            .dwattr $C$DW$T$118, DW_AT_name("CC13X0_LAUNCHXL_I2CName")
     914                            .dwattr $C$DW$T$118, DW_AT_type(*$C$DW$T$117)
     915                            .dwattr $C$DW$T$118, DW_AT_language(DW_LANG_C)
     916                            .dwattr $C$DW$T$118, DW_AT_decl_file("C:\ti\simplelink_cc13x0_sdk_1_50_00_08\examples\rtos\CC1
     917                            .dwattr $C$DW$T$118, DW_AT_decl_line(0xc9)
     918                            .dwattr $C$DW$T$118, DW_AT_decl_column(0x03)
     919                    
     920                    
     921                    $C$DW$T$119     .dwtag  DW_TAG_enumeration_type
     922                            .dwattr $C$DW$T$119, DW_AT_name("CC13X0_LAUNCHXL_PWM")
     923                            .dwattr $C$DW$T$119, DW_AT_byte_size(0x01)
     924                    $C$DW$83        .dwtag  DW_TAG_enumerator
     925                            .dwattr $C$DW$83, DW_AT_name("CC13X0_LAUNCHXL_PWM0")
     926                            .dwattr $C$DW$83, DW_AT_const_value(0x00)
     927                            .dwattr $C$DW$83, DW_AT_decl_file("C:\ti\simplelink_cc13x0_sdk_1_50_00_08\examples\rtos\CC1310
     928                            .dwattr $C$DW$83, DW_AT_decl_line(0x119)
     929                            .dwattr $C$DW$83, DW_AT_decl_column(0x05)
     930                    
     931                    $C$DW$84        .dwtag  DW_TAG_enumerator
     932                            .dwattr $C$DW$84, DW_AT_name("CC13X0_LAUNCHXL_PWM1")
     933                            .dwattr $C$DW$84, DW_AT_const_value(0x01)
     934                            .dwattr $C$DW$84, DW_AT_decl_file("C:\ti\simplelink_cc13x0_sdk_1_50_00_08\examples\rtos\CC1310
     935                            .dwattr $C$DW$84, DW_AT_decl_line(0x11a)
TI ARM Assembler PC v16.9.4 Sat Nov 18 18:46:29 2017

Tools Copyright (c) 1996-2017 Texas Instruments Incorporated
C:\Users\Kevin\AppData\Local\Temp\{5E948145-182F-435E-8CCA-E077E24C2FF9} PAGE   18

     936                            .dwattr $C$DW$84, DW_AT_decl_column(0x05)
     937                    
     938                    $C$DW$85        .dwtag  DW_TAG_enumerator
     939                            .dwattr $C$DW$85, DW_AT_name("CC13X0_LAUNCHXL_PWM2")
     940                            .dwattr $C$DW$85, DW_AT_const_value(0x02)
     941                            .dwattr $C$DW$85, DW_AT_decl_file("C:\ti\simplelink_cc13x0_sdk_1_50_00_08\examples\rtos\CC1310
     942                            .dwattr $C$DW$85, DW_AT_decl_line(0x11b)
     943                            .dwattr $C$DW$85, DW_AT_decl_column(0x05)
     944                    
     945                    $C$DW$86        .dwtag  DW_TAG_enumerator
     946                            .dwattr $C$DW$86, DW_AT_name("CC13X0_LAUNCHXL_PWM3")
     947                            .dwattr $C$DW$86, DW_AT_const_value(0x03)
     948                            .dwattr $C$DW$86, DW_AT_decl_file("C:\ti\simplelink_cc13x0_sdk_1_50_00_08\examples\rtos\CC1310
     949                            .dwattr $C$DW$86, DW_AT_decl_line(0x11c)
     950                            .dwattr $C$DW$86, DW_AT_decl_column(0x05)
     951                    
     952                    $C$DW$87        .dwtag  DW_TAG_enumerator
     953                            .dwattr $C$DW$87, DW_AT_name("CC13X0_LAUNCHXL_PWM4")
     954                            .dwattr $C$DW$87, DW_AT_const_value(0x04)
     955                            .dwattr $C$DW$87, DW_AT_decl_file("C:\ti\simplelink_cc13x0_sdk_1_50_00_08\examples\rtos\CC1310
     956                            .dwattr $C$DW$87, DW_AT_decl_line(0x11d)
     957                            .dwattr $C$DW$87, DW_AT_decl_column(0x05)
     958                    
     959                    $C$DW$88        .dwtag  DW_TAG_enumerator
     960                            .dwattr $C$DW$88, DW_AT_name("CC13X0_LAUNCHXL_PWM5")
     961                            .dwattr $C$DW$88, DW_AT_const_value(0x05)
     962                            .dwattr $C$DW$88, DW_AT_decl_file("C:\ti\simplelink_cc13x0_sdk_1_50_00_08\examples\rtos\CC1310
     963                            .dwattr $C$DW$88, DW_AT_decl_line(0x11e)
     964                            .dwattr $C$DW$88, DW_AT_decl_column(0x05)
     965                    
     966                    $C$DW$89        .dwtag  DW_TAG_enumerator
     967                            .dwattr $C$DW$89, DW_AT_name("CC13X0_LAUNCHXL_PWM6")
     968                            .dwattr $C$DW$89, DW_AT_const_value(0x06)
     969                            .dwattr $C$DW$89, DW_AT_decl_file("C:\ti\simplelink_cc13x0_sdk_1_50_00_08\examples\rtos\CC1310
     970                            .dwattr $C$DW$89, DW_AT_decl_line(0x11f)
     971                            .dwattr $C$DW$89, DW_AT_decl_column(0x05)
     972                    
     973                    $C$DW$90        .dwtag  DW_TAG_enumerator
     974                            .dwattr $C$DW$90, DW_AT_name("CC13X0_LAUNCHXL_PWM7")
     975                            .dwattr $C$DW$90, DW_AT_const_value(0x07)
     976                            .dwattr $C$DW$90, DW_AT_decl_file("C:\ti\simplelink_cc13x0_sdk_1_50_00_08\examples\rtos\CC1310
     977                            .dwattr $C$DW$90, DW_AT_decl_line(0x120)
     978                            .dwattr $C$DW$90, DW_AT_decl_column(0x05)
     979                    
     980                    $C$DW$91        .dwtag  DW_TAG_enumerator
     981                            .dwattr $C$DW$91, DW_AT_name("CC13X0_LAUNCHXL_PWMCOUNT")
     982                            .dwattr $C$DW$91, DW_AT_const_value(0x08)
     983                            .dwattr $C$DW$91, DW_AT_decl_file("C:\ti\simplelink_cc13x0_sdk_1_50_00_08\examples\rtos\CC1310
     984                            .dwattr $C$DW$91, DW_AT_decl_line(0x121)
     985                            .dwattr $C$DW$91, DW_AT_decl_column(0x05)
     986                    
     987                            .dwattr $C$DW$T$119, DW_AT_decl_file("C:\ti\simplelink_cc13x0_sdk_1_50_00_08\examples\rtos\CC1
     988                            .dwattr $C$DW$T$119, DW_AT_decl_line(0x117)
     989                            .dwattr $C$DW$T$119, DW_AT_decl_column(0x0e)
     990                            .dwendtag $C$DW$T$119
TI ARM Assembler PC v16.9.4 Sat Nov 18 18:46:29 2017

Tools Copyright (c) 1996-2017 Texas Instruments Incorporated
C:\Users\Kevin\AppData\Local\Temp\{5E948145-182F-435E-8CCA-E077E24C2FF9} PAGE   19

     991                    
     992                    $C$DW$T$120     .dwtag  DW_TAG_typedef
     993                            .dwattr $C$DW$T$120, DW_AT_name("CC13X0_LAUNCHXL_PWM")
     994                            .dwattr $C$DW$T$120, DW_AT_type(*$C$DW$T$119)
     995                            .dwattr $C$DW$T$120, DW_AT_language(DW_LANG_C)
     996                            .dwattr $C$DW$T$120, DW_AT_decl_file("C:\ti\simplelink_cc13x0_sdk_1_50_00_08\examples\rtos\CC1
     997                            .dwattr $C$DW$T$120, DW_AT_decl_line(0x122)
     998                            .dwattr $C$DW$T$120, DW_AT_decl_column(0x03)
     999                    
    1000                    
    1001                    $C$DW$T$121     .dwtag  DW_TAG_enumeration_type
    1002                            .dwattr $C$DW$T$121, DW_AT_name("CC13X0_LAUNCHXL_SPIName")
    1003                            .dwattr $C$DW$T$121, DW_AT_byte_size(0x01)
    1004                    $C$DW$92        .dwtag  DW_TAG_enumerator
    1005                            .dwattr $C$DW$92, DW_AT_name("CC13X0_LAUNCHXL_SPI0")
    1006                            .dwattr $C$DW$92, DW_AT_const_value(0x00)
    1007                            .dwattr $C$DW$92, DW_AT_decl_file("C:\ti\simplelink_cc13x0_sdk_1_50_00_08\examples\rtos\CC1310
    1008                            .dwattr $C$DW$92, DW_AT_decl_line(0xdb)
    1009                            .dwattr $C$DW$92, DW_AT_decl_column(0x05)
    1010                    
    1011                    $C$DW$93        .dwtag  DW_TAG_enumerator
    1012                            .dwattr $C$DW$93, DW_AT_name("CC13X0_LAUNCHXL_SPI1")
    1013                            .dwattr $C$DW$93, DW_AT_const_value(0x01)
    1014                            .dwattr $C$DW$93, DW_AT_decl_file("C:\ti\simplelink_cc13x0_sdk_1_50_00_08\examples\rtos\CC1310
    1015                            .dwattr $C$DW$93, DW_AT_decl_line(0xdc)
    1016                            .dwattr $C$DW$93, DW_AT_decl_column(0x05)
    1017                    
    1018                    $C$DW$94        .dwtag  DW_TAG_enumerator
    1019                            .dwattr $C$DW$94, DW_AT_name("CC13X0_LAUNCHXL_SPICOUNT")
    1020                            .dwattr $C$DW$94, DW_AT_const_value(0x02)
    1021                            .dwattr $C$DW$94, DW_AT_decl_file("C:\ti\simplelink_cc13x0_sdk_1_50_00_08\examples\rtos\CC1310
    1022                            .dwattr $C$DW$94, DW_AT_decl_line(0xde)
    1023                            .dwattr $C$DW$94, DW_AT_decl_column(0x05)
    1024                    
    1025                            .dwattr $C$DW$T$121, DW_AT_decl_file("C:\ti\simplelink_cc13x0_sdk_1_50_00_08\examples\rtos\CC1
    1026                            .dwattr $C$DW$T$121, DW_AT_decl_line(0xda)
    1027                            .dwattr $C$DW$T$121, DW_AT_decl_column(0x0e)
    1028                            .dwendtag $C$DW$T$121
    1029                    
    1030                    $C$DW$T$122     .dwtag  DW_TAG_typedef
    1031                            .dwattr $C$DW$T$122, DW_AT_name("CC13X0_LAUNCHXL_SPIName")
    1032                            .dwattr $C$DW$T$122, DW_AT_type(*$C$DW$T$121)
    1033                            .dwattr $C$DW$T$122, DW_AT_language(DW_LANG_C)
    1034                            .dwattr $C$DW$T$122, DW_AT_decl_file("C:\ti\simplelink_cc13x0_sdk_1_50_00_08\examples\rtos\CC1
    1035                            .dwattr $C$DW$T$122, DW_AT_decl_line(0xdf)
    1036                            .dwattr $C$DW$T$122, DW_AT_decl_column(0x03)
    1037                    
    1038                    
    1039                    $C$DW$T$123     .dwtag  DW_TAG_enumeration_type
    1040                            .dwattr $C$DW$T$123, DW_AT_name("CC13X0_LAUNCHXL_UARTName")
    1041                            .dwattr $C$DW$T$123, DW_AT_byte_size(0x01)
    1042                    $C$DW$95        .dwtag  DW_TAG_enumerator
    1043                            .dwattr $C$DW$95, DW_AT_name("CC13X0_LAUNCHXL_UART0")
    1044                            .dwattr $C$DW$95, DW_AT_const_value(0x00)
    1045                            .dwattr $C$DW$95, DW_AT_decl_file("C:\ti\simplelink_cc13x0_sdk_1_50_00_08\examples\rtos\CC1310
TI ARM Assembler PC v16.9.4 Sat Nov 18 18:46:29 2017

Tools Copyright (c) 1996-2017 Texas Instruments Incorporated
C:\Users\Kevin\AppData\Local\Temp\{5E948145-182F-435E-8CCA-E077E24C2FF9} PAGE   20

    1046                            .dwattr $C$DW$95, DW_AT_decl_line(0xe6)
    1047                            .dwattr $C$DW$95, DW_AT_decl_column(0x05)
    1048                    
    1049                    $C$DW$96        .dwtag  DW_TAG_enumerator
    1050                            .dwattr $C$DW$96, DW_AT_name("CC13X0_LAUNCHXL_UARTCOUNT")
    1051                            .dwattr $C$DW$96, DW_AT_const_value(0x01)
    1052                            .dwattr $C$DW$96, DW_AT_decl_file("C:\ti\simplelink_cc13x0_sdk_1_50_00_08\examples\rtos\CC1310
    1053                            .dwattr $C$DW$96, DW_AT_decl_line(0xe8)
    1054                            .dwattr $C$DW$96, DW_AT_decl_column(0x05)
    1055                    
    1056                            .dwattr $C$DW$T$123, DW_AT_decl_file("C:\ti\simplelink_cc13x0_sdk_1_50_00_08\examples\rtos\CC1
    1057                            .dwattr $C$DW$T$123, DW_AT_decl_line(0xe5)
    1058                            .dwattr $C$DW$T$123, DW_AT_decl_column(0x0e)
    1059                            .dwendtag $C$DW$T$123
    1060                    
    1061                    $C$DW$T$124     .dwtag  DW_TAG_typedef
    1062                            .dwattr $C$DW$T$124, DW_AT_name("CC13X0_LAUNCHXL_UARTName")
    1063                            .dwattr $C$DW$T$124, DW_AT_type(*$C$DW$T$123)
    1064                            .dwattr $C$DW$T$124, DW_AT_language(DW_LANG_C)
    1065                            .dwattr $C$DW$T$124, DW_AT_decl_file("C:\ti\simplelink_cc13x0_sdk_1_50_00_08\examples\rtos\CC1
    1066                            .dwattr $C$DW$T$124, DW_AT_decl_line(0xe9)
    1067                            .dwattr $C$DW$T$124, DW_AT_decl_column(0x03)
    1068                    
    1069                    
    1070                    $C$DW$T$125     .dwtag  DW_TAG_enumeration_type
    1071                            .dwattr $C$DW$T$125, DW_AT_name("CC13X0_LAUNCHXL_UdmaName")
    1072                            .dwattr $C$DW$T$125, DW_AT_byte_size(0x01)
    1073                    $C$DW$97        .dwtag  DW_TAG_enumerator
    1074                            .dwattr $C$DW$97, DW_AT_name("CC13X0_LAUNCHXL_UDMA0")
    1075                            .dwattr $C$DW$97, DW_AT_const_value(0x00)
    1076                            .dwattr $C$DW$97, DW_AT_decl_file("C:\ti\simplelink_cc13x0_sdk_1_50_00_08\examples\rtos\CC1310
    1077                            .dwattr $C$DW$97, DW_AT_decl_line(0xf0)
    1078                            .dwattr $C$DW$97, DW_AT_decl_column(0x05)
    1079                    
    1080                    $C$DW$98        .dwtag  DW_TAG_enumerator
    1081                            .dwattr $C$DW$98, DW_AT_name("CC13X0_LAUNCHXL_UDMACOUNT")
    1082                            .dwattr $C$DW$98, DW_AT_const_value(0x01)
    1083                            .dwattr $C$DW$98, DW_AT_decl_file("C:\ti\simplelink_cc13x0_sdk_1_50_00_08\examples\rtos\CC1310
    1084                            .dwattr $C$DW$98, DW_AT_decl_line(0xf2)
    1085                            .dwattr $C$DW$98, DW_AT_decl_column(0x05)
    1086                    
    1087                            .dwattr $C$DW$T$125, DW_AT_decl_file("C:\ti\simplelink_cc13x0_sdk_1_50_00_08\examples\rtos\CC1
    1088                            .dwattr $C$DW$T$125, DW_AT_decl_line(0xef)
    1089                            .dwattr $C$DW$T$125, DW_AT_decl_column(0x0e)
    1090                            .dwendtag $C$DW$T$125
    1091                    
    1092                    $C$DW$T$126     .dwtag  DW_TAG_typedef
    1093                            .dwattr $C$DW$T$126, DW_AT_name("CC13X0_LAUNCHXL_UdmaName")
    1094                            .dwattr $C$DW$T$126, DW_AT_type(*$C$DW$T$125)
    1095                            .dwattr $C$DW$T$126, DW_AT_language(DW_LANG_C)
    1096                            .dwattr $C$DW$T$126, DW_AT_decl_file("C:\ti\simplelink_cc13x0_sdk_1_50_00_08\examples\rtos\CC1
    1097                            .dwattr $C$DW$T$126, DW_AT_decl_line(0xf3)
    1098                            .dwattr $C$DW$T$126, DW_AT_decl_column(0x03)
    1099                    
    1100                    
TI ARM Assembler PC v16.9.4 Sat Nov 18 18:46:29 2017

Tools Copyright (c) 1996-2017 Texas Instruments Incorporated
C:\Users\Kevin\AppData\Local\Temp\{5E948145-182F-435E-8CCA-E077E24C2FF9} PAGE   21

    1101                    $C$DW$T$127     .dwtag  DW_TAG_enumeration_type
    1102                            .dwattr $C$DW$T$127, DW_AT_name("CC13X0_LAUNCHXL_WatchdogName")
    1103                            .dwattr $C$DW$T$127, DW_AT_byte_size(0x01)
    1104                    $C$DW$99        .dwtag  DW_TAG_enumerator
    1105                            .dwattr $C$DW$99, DW_AT_name("CC13X0_LAUNCHXL_WATCHDOG0")
    1106                            .dwattr $C$DW$99, DW_AT_const_value(0x00)
    1107                            .dwattr $C$DW$99, DW_AT_decl_file("C:\ti\simplelink_cc13x0_sdk_1_50_00_08\examples\rtos\CC1310
    1108                            .dwattr $C$DW$99, DW_AT_decl_line(0x146)
    1109                            .dwattr $C$DW$99, DW_AT_decl_column(0x05)
    1110                    
    1111                    $C$DW$100       .dwtag  DW_TAG_enumerator
    1112                            .dwattr $C$DW$100, DW_AT_name("CC13X0_LAUNCHXL_WATCHDOGCOUNT")
    1113                            .dwattr $C$DW$100, DW_AT_const_value(0x01)
    1114                            .dwattr $C$DW$100, DW_AT_decl_file("C:\ti\simplelink_cc13x0_sdk_1_50_00_08\examples\rtos\CC131
    1115                            .dwattr $C$DW$100, DW_AT_decl_line(0x148)
    1116                            .dwattr $C$DW$100, DW_AT_decl_column(0x05)
    1117                    
    1118                            .dwattr $C$DW$T$127, DW_AT_decl_file("C:\ti\simplelink_cc13x0_sdk_1_50_00_08\examples\rtos\CC1
    1119                            .dwattr $C$DW$T$127, DW_AT_decl_line(0x145)
    1120                            .dwattr $C$DW$T$127, DW_AT_decl_column(0x0e)
    1121                            .dwendtag $C$DW$T$127
    1122                    
    1123                    $C$DW$T$128     .dwtag  DW_TAG_typedef
    1124                            .dwattr $C$DW$T$128, DW_AT_name("CC13X0_LAUNCHXL_WatchdogName")
    1125                            .dwattr $C$DW$T$128, DW_AT_type(*$C$DW$T$127)
    1126                            .dwattr $C$DW$T$128, DW_AT_language(DW_LANG_C)
    1127                            .dwattr $C$DW$T$128, DW_AT_decl_file("C:\ti\simplelink_cc13x0_sdk_1_50_00_08\examples\rtos\CC1
    1128                            .dwattr $C$DW$T$128, DW_AT_decl_line(0x149)
    1129                            .dwattr $C$DW$T$128, DW_AT_decl_column(0x03)
    1130                    
    1131                    
    1132                    $C$DW$T$70      .dwtag  DW_TAG_structure_type
    1133                            .dwattr $C$DW$T$70, DW_AT_name("HwiP_Params")
    1134                            .dwattr $C$DW$T$70, DW_AT_byte_size(0x0c)
    1135                    $C$DW$101       .dwtag  DW_TAG_member
    1136                            .dwattr $C$DW$101, DW_AT_type(*$C$DW$T$68)
    1137                            .dwattr $C$DW$101, DW_AT_name("arg")
    1138                            .dwattr $C$DW$101, DW_AT_TI_symbol_name("arg")
    1139                            .dwattr $C$DW$101, DW_AT_data_member_location[DW_OP_plus_uconst 0x0]
    1140                            .dwattr $C$DW$101, DW_AT_accessibility(DW_ACCESS_public)
    1141                            .dwattr $C$DW$101, DW_AT_decl_file("C:/ti/simplelink_cc13x0_sdk_1_50_00_08/source/ti/drivers/d
    1142                            .dwattr $C$DW$101, DW_AT_decl_line(0x72)
    1143                            .dwattr $C$DW$101, DW_AT_decl_column(0x10)
    1144                    
    1145                    $C$DW$102       .dwtag  DW_TAG_member
    1146                            .dwattr $C$DW$102, DW_AT_type(*$C$DW$T$19)
    1147                            .dwattr $C$DW$102, DW_AT_name("priority")
    1148                            .dwattr $C$DW$102, DW_AT_TI_symbol_name("priority")
    1149                            .dwattr $C$DW$102, DW_AT_data_member_location[DW_OP_plus_uconst 0x4]
    1150                            .dwattr $C$DW$102, DW_AT_accessibility(DW_ACCESS_public)
    1151                            .dwattr $C$DW$102, DW_AT_decl_file("C:/ti/simplelink_cc13x0_sdk_1_50_00_08/source/ti/drivers/d
    1152                            .dwattr $C$DW$102, DW_AT_decl_line(0x73)
    1153                            .dwattr $C$DW$102, DW_AT_decl_column(0x10)
    1154                    
    1155                    $C$DW$103       .dwtag  DW_TAG_member
TI ARM Assembler PC v16.9.4 Sat Nov 18 18:46:29 2017

Tools Copyright (c) 1996-2017 Texas Instruments Incorporated
C:\Users\Kevin\AppData\Local\Temp\{5E948145-182F-435E-8CCA-E077E24C2FF9} PAGE   22

    1156                            .dwattr $C$DW$103, DW_AT_type(*$C$DW$T$69)
    1157                            .dwattr $C$DW$103, DW_AT_name("enableInt")
    1158                            .dwattr $C$DW$103, DW_AT_TI_symbol_name("enableInt")
    1159                            .dwattr $C$DW$103, DW_AT_data_member_location[DW_OP_plus_uconst 0x8]
    1160                            .dwattr $C$DW$103, DW_AT_accessibility(DW_ACCESS_public)
    1161                            .dwattr $C$DW$103, DW_AT_decl_file("C:/ti/simplelink_cc13x0_sdk_1_50_00_08/source/ti/drivers/d
    1162                            .dwattr $C$DW$103, DW_AT_decl_line(0x74)
    1163                            .dwattr $C$DW$103, DW_AT_decl_column(0x10)
    1164                    
    1165                            .dwattr $C$DW$T$70, DW_AT_decl_file("C:/ti/simplelink_cc13x0_sdk_1_50_00_08/source/ti/drivers/
    1166                            .dwattr $C$DW$T$70, DW_AT_decl_line(0x71)
    1167                            .dwattr $C$DW$T$70, DW_AT_decl_column(0x10)
    1168                            .dwendtag $C$DW$T$70
    1169                    
    1170                    $C$DW$T$129     .dwtag  DW_TAG_typedef
    1171                            .dwattr $C$DW$T$129, DW_AT_name("HwiP_Params")
    1172                            .dwattr $C$DW$T$129, DW_AT_type(*$C$DW$T$70)
    1173                            .dwattr $C$DW$T$129, DW_AT_language(DW_LANG_C)
    1174                            .dwattr $C$DW$T$129, DW_AT_decl_file("C:/ti/simplelink_cc13x0_sdk_1_50_00_08/source/ti/drivers
    1175                            .dwattr $C$DW$T$129, DW_AT_decl_line(0x75)
    1176                            .dwattr $C$DW$T$129, DW_AT_decl_column(0x03)
    1177                    
    1178                    
    1179                    $C$DW$T$130     .dwtag  DW_TAG_enumeration_type
    1180                            .dwattr $C$DW$T$130, DW_AT_name("HwiP_Status")
    1181                            .dwattr $C$DW$T$130, DW_AT_byte_size(0x01)
    1182                    $C$DW$104       .dwtag  DW_TAG_enumerator
    1183                            .dwattr $C$DW$104, DW_AT_name("HwiP_OK")
    1184                            .dwattr $C$DW$104, DW_AT_const_value(0x00)
    1185                            .dwattr $C$DW$104, DW_AT_decl_file("C:/ti/simplelink_cc13x0_sdk_1_50_00_08/source/ti/drivers/d
    1186                            .dwattr $C$DW$104, DW_AT_decl_line(0x5c)
    1187                            .dwattr $C$DW$104, DW_AT_decl_column(0x05)
    1188                    
    1189                    $C$DW$105       .dwtag  DW_TAG_enumerator
    1190                            .dwattr $C$DW$105, DW_AT_name("HwiP_FAILURE")
    1191                            .dwattr $C$DW$105, DW_AT_const_value(-1)
    1192                            .dwattr $C$DW$105, DW_AT_decl_file("C:/ti/simplelink_cc13x0_sdk_1_50_00_08/source/ti/drivers/d
    1193                            .dwattr $C$DW$105, DW_AT_decl_line(0x5d)
    1194                            .dwattr $C$DW$105, DW_AT_decl_column(0x05)
    1195                    
    1196                            .dwattr $C$DW$T$130, DW_AT_decl_file("C:/ti/simplelink_cc13x0_sdk_1_50_00_08/source/ti/drivers
    1197                            .dwattr $C$DW$T$130, DW_AT_decl_line(0x5b)
    1198                            .dwattr $C$DW$T$130, DW_AT_decl_column(0x0e)
    1199                            .dwendtag $C$DW$T$130
    1200                    
    1201                    $C$DW$T$131     .dwtag  DW_TAG_typedef
    1202                            .dwattr $C$DW$T$131, DW_AT_name("HwiP_Status")
    1203                            .dwattr $C$DW$T$131, DW_AT_type(*$C$DW$T$130)
    1204                            .dwattr $C$DW$T$131, DW_AT_language(DW_LANG_C)
    1205                            .dwattr $C$DW$T$131, DW_AT_decl_file("C:/ti/simplelink_cc13x0_sdk_1_50_00_08/source/ti/drivers
    1206                            .dwattr $C$DW$T$131, DW_AT_decl_line(0x5e)
    1207                            .dwattr $C$DW$T$131, DW_AT_decl_column(0x03)
    1208                    
    1209                    
    1210                    $C$DW$T$73      .dwtag  DW_TAG_union_type
TI ARM Assembler PC v16.9.4 Sat Nov 18 18:46:29 2017

Tools Copyright (c) 1996-2017 Texas Instruments Incorporated
C:\Users\Kevin\AppData\Local\Temp\{5E948145-182F-435E-8CCA-E077E24C2FF9} PAGE   23

    1211                            .dwattr $C$DW$T$73, DW_AT_name("HwiP_Struct")
    1212                            .dwattr $C$DW$T$73, DW_AT_byte_size(0x1c)
    1213                    $C$DW$106       .dwtag  DW_TAG_member
    1214                            .dwattr $C$DW$106, DW_AT_type(*$C$DW$T$19)
    1215                            .dwattr $C$DW$106, DW_AT_name("dummy")
    1216                            .dwattr $C$DW$106, DW_AT_TI_symbol_name("dummy")
    1217                            .dwattr $C$DW$106, DW_AT_data_member_location[DW_OP_plus_uconst 0x0]
    1218                            .dwattr $C$DW$106, DW_AT_accessibility(DW_ACCESS_public)
    1219                            .dwattr $C$DW$106, DW_AT_decl_file("C:/ti/simplelink_cc13x0_sdk_1_50_00_08/source/ti/drivers/d
    1220                            .dwattr $C$DW$106, DW_AT_decl_line(0x4d)
    1221                            .dwattr $C$DW$106, DW_AT_decl_column(0x0e)
    1222                    
    1223                    $C$DW$107       .dwtag  DW_TAG_member
    1224                            .dwattr $C$DW$107, DW_AT_type(*$C$DW$T$72)
    1225                            .dwattr $C$DW$107, DW_AT_name("data")
    1226                            .dwattr $C$DW$107, DW_AT_TI_symbol_name("data")
    1227                            .dwattr $C$DW$107, DW_AT_data_member_location[DW_OP_plus_uconst 0x0]
    1228                            .dwattr $C$DW$107, DW_AT_accessibility(DW_ACCESS_public)
    1229                            .dwattr $C$DW$107, DW_AT_decl_file("C:/ti/simplelink_cc13x0_sdk_1_50_00_08/source/ti/drivers/d
    1230                            .dwattr $C$DW$107, DW_AT_decl_line(0x4e)
    1231                            .dwattr $C$DW$107, DW_AT_decl_column(0x0e)
    1232                    
    1233                            .dwattr $C$DW$T$73, DW_AT_decl_file("C:/ti/simplelink_cc13x0_sdk_1_50_00_08/source/ti/drivers/
    1234                            .dwattr $C$DW$T$73, DW_AT_decl_line(0x4c)
    1235                            .dwattr $C$DW$T$73, DW_AT_decl_column(0x0f)
    1236                            .dwendtag $C$DW$T$73
    1237                    
    1238                    $C$DW$T$132     .dwtag  DW_TAG_typedef
    1239                            .dwattr $C$DW$T$132, DW_AT_name("HwiP_Struct")
    1240                            .dwattr $C$DW$T$132, DW_AT_type(*$C$DW$T$73)
    1241                            .dwattr $C$DW$T$132, DW_AT_language(DW_LANG_C)
    1242                            .dwattr $C$DW$T$132, DW_AT_decl_file("C:/ti/simplelink_cc13x0_sdk_1_50_00_08/source/ti/drivers
    1243                            .dwattr $C$DW$T$132, DW_AT_decl_line(0x4f)
    1244                            .dwattr $C$DW$T$132, DW_AT_decl_column(0x03)
    1245                    
    1246                    
    1247                    $C$DW$T$75      .dwtag  DW_TAG_structure_type
    1248                            .dwattr $C$DW$T$75, DW_AT_name("List_Elem")
    1249                            .dwattr $C$DW$T$75, DW_AT_byte_size(0x08)
    1250                    $C$DW$108       .dwtag  DW_TAG_member
    1251                            .dwattr $C$DW$108, DW_AT_type(*$C$DW$T$74)
    1252                            .dwattr $C$DW$108, DW_AT_name("next")
    1253                            .dwattr $C$DW$108, DW_AT_TI_symbol_name("next")
    1254                            .dwattr $C$DW$108, DW_AT_data_member_location[DW_OP_plus_uconst 0x0]
    1255                            .dwattr $C$DW$108, DW_AT_accessibility(DW_ACCESS_public)
    1256                            .dwattr $C$DW$108, DW_AT_decl_file("C:/ti/simplelink_cc13x0_sdk_1_50_00_08/source/ti/drivers/u
    1257                            .dwattr $C$DW$108, DW_AT_decl_line(0x7f)
    1258                            .dwattr $C$DW$108, DW_AT_decl_column(0x17)
    1259                    
    1260                    $C$DW$109       .dwtag  DW_TAG_member
    1261                            .dwattr $C$DW$109, DW_AT_type(*$C$DW$T$74)
    1262                            .dwattr $C$DW$109, DW_AT_name("prev")
    1263                            .dwattr $C$DW$109, DW_AT_TI_symbol_name("prev")
    1264                            .dwattr $C$DW$109, DW_AT_data_member_location[DW_OP_plus_uconst 0x4]
    1265                            .dwattr $C$DW$109, DW_AT_accessibility(DW_ACCESS_public)
TI ARM Assembler PC v16.9.4 Sat Nov 18 18:46:29 2017

Tools Copyright (c) 1996-2017 Texas Instruments Incorporated
C:\Users\Kevin\AppData\Local\Temp\{5E948145-182F-435E-8CCA-E077E24C2FF9} PAGE   24

    1266                            .dwattr $C$DW$109, DW_AT_decl_file("C:/ti/simplelink_cc13x0_sdk_1_50_00_08/source/ti/drivers/u
    1267                            .dwattr $C$DW$109, DW_AT_decl_line(0x80)
    1268                            .dwattr $C$DW$109, DW_AT_decl_column(0x17)
    1269                    
    1270                            .dwattr $C$DW$T$75, DW_AT_decl_file("C:/ti/simplelink_cc13x0_sdk_1_50_00_08/source/ti/drivers/
    1271                            .dwattr $C$DW$T$75, DW_AT_decl_line(0x7e)
    1272                            .dwattr $C$DW$T$75, DW_AT_decl_column(0x10)
    1273                            .dwendtag $C$DW$T$75
    1274                    
    1275                    $C$DW$T$76      .dwtag  DW_TAG_typedef
    1276                            .dwattr $C$DW$T$76, DW_AT_name("List_Elem")
    1277                            .dwattr $C$DW$T$76, DW_AT_type(*$C$DW$T$75)
    1278                            .dwattr $C$DW$T$76, DW_AT_language(DW_LANG_C)
    1279                            .dwattr $C$DW$T$76, DW_AT_decl_file("C:/ti/simplelink_cc13x0_sdk_1_50_00_08/source/ti/drivers/
    1280                            .dwattr $C$DW$T$76, DW_AT_decl_line(0x81)
    1281                            .dwattr $C$DW$T$76, DW_AT_decl_column(0x03)
    1282                    
    1283                    $C$DW$T$77      .dwtag  DW_TAG_pointer_type
    1284                            .dwattr $C$DW$T$77, DW_AT_type(*$C$DW$T$76)
    1285                            .dwattr $C$DW$T$77, DW_AT_address_class(0x20)
    1286                    
    1287                    $C$DW$T$74      .dwtag  DW_TAG_pointer_type
    1288                            .dwattr $C$DW$T$74, DW_AT_type(*$C$DW$T$75)
    1289                            .dwattr $C$DW$T$74, DW_AT_address_class(0x20)
    1290                    
    1291                    
    1292                    $C$DW$T$78      .dwtag  DW_TAG_structure_type
    1293                            .dwattr $C$DW$T$78, DW_AT_name("List_List")
    1294                            .dwattr $C$DW$T$78, DW_AT_byte_size(0x08)
    1295                    $C$DW$110       .dwtag  DW_TAG_member
    1296                            .dwattr $C$DW$110, DW_AT_type(*$C$DW$T$77)
    1297                            .dwattr $C$DW$110, DW_AT_name("head")
    1298                            .dwattr $C$DW$110, DW_AT_TI_symbol_name("head")
    1299                            .dwattr $C$DW$110, DW_AT_data_member_location[DW_OP_plus_uconst 0x0]
    1300                            .dwattr $C$DW$110, DW_AT_accessibility(DW_ACCESS_public)
    1301                            .dwattr $C$DW$110, DW_AT_decl_file("C:/ti/simplelink_cc13x0_sdk_1_50_00_08/source/ti/drivers/u
    1302                            .dwattr $C$DW$110, DW_AT_decl_line(0x84)
    1303                            .dwattr $C$DW$110, DW_AT_decl_column(0x10)
    1304                    
    1305                    $C$DW$111       .dwtag  DW_TAG_member
    1306                            .dwattr $C$DW$111, DW_AT_type(*$C$DW$T$77)
    1307                            .dwattr $C$DW$111, DW_AT_name("tail")
    1308                            .dwattr $C$DW$111, DW_AT_TI_symbol_name("tail")
    1309                            .dwattr $C$DW$111, DW_AT_data_member_location[DW_OP_plus_uconst 0x4]
    1310                            .dwattr $C$DW$111, DW_AT_accessibility(DW_ACCESS_public)
    1311                            .dwattr $C$DW$111, DW_AT_decl_file("C:/ti/simplelink_cc13x0_sdk_1_50_00_08/source/ti/drivers/u
    1312                            .dwattr $C$DW$111, DW_AT_decl_line(0x85)
    1313                            .dwattr $C$DW$111, DW_AT_decl_column(0x10)
    1314                    
    1315                            .dwattr $C$DW$T$78, DW_AT_decl_file("C:/ti/simplelink_cc13x0_sdk_1_50_00_08/source/ti/drivers/
    1316                            .dwattr $C$DW$T$78, DW_AT_decl_line(0x83)
    1317                            .dwattr $C$DW$T$78, DW_AT_decl_column(0x10)
    1318                            .dwendtag $C$DW$T$78
    1319                    
    1320                    $C$DW$T$133     .dwtag  DW_TAG_typedef
TI ARM Assembler PC v16.9.4 Sat Nov 18 18:46:29 2017

Tools Copyright (c) 1996-2017 Texas Instruments Incorporated
C:\Users\Kevin\AppData\Local\Temp\{5E948145-182F-435E-8CCA-E077E24C2FF9} PAGE   25

    1321                            .dwattr $C$DW$T$133, DW_AT_name("List_List")
    1322                            .dwattr $C$DW$T$133, DW_AT_type(*$C$DW$T$78)
    1323                            .dwattr $C$DW$T$133, DW_AT_language(DW_LANG_C)
    1324                            .dwattr $C$DW$T$133, DW_AT_decl_file("C:/ti/simplelink_cc13x0_sdk_1_50_00_08/source/ti/drivers
    1325                            .dwattr $C$DW$T$133, DW_AT_decl_line(0x86)
    1326                            .dwattr $C$DW$T$133, DW_AT_decl_column(0x03)
    1327                    
    1328                    
    1329                    $C$DW$T$79      .dwtag  DW_TAG_structure_type
    1330                            .dwattr $C$DW$T$79, DW_AT_name("PINCC26XX_HWAttrs")
    1331                            .dwattr $C$DW$T$79, DW_AT_byte_size(0x08)
    1332                    $C$DW$112       .dwtag  DW_TAG_member
    1333                            .dwattr $C$DW$112, DW_AT_type(*$C$DW$T$20)
    1334                            .dwattr $C$DW$112, DW_AT_name("intPriority")
    1335                            .dwattr $C$DW$112, DW_AT_TI_symbol_name("intPriority")
    1336                            .dwattr $C$DW$112, DW_AT_data_member_location[DW_OP_plus_uconst 0x0]
    1337                            .dwattr $C$DW$112, DW_AT_accessibility(DW_ACCESS_public)
    1338                            .dwattr $C$DW$112, DW_AT_decl_file("C:/ti/simplelink_cc13x0_sdk_1_50_00_08/source/ti/drivers/p
    1339                            .dwattr $C$DW$112, DW_AT_decl_line(0x17d)
    1340                            .dwattr $C$DW$112, DW_AT_decl_column(0x16)
    1341                    
    1342                    $C$DW$113       .dwtag  DW_TAG_member
    1343                            .dwattr $C$DW$113, DW_AT_type(*$C$DW$T$19)
    1344                            .dwattr $C$DW$113, DW_AT_name("swiPriority")
    1345                            .dwattr $C$DW$113, DW_AT_TI_symbol_name("swiPriority")
    1346                            .dwattr $C$DW$113, DW_AT_data_member_location[DW_OP_plus_uconst 0x4]
    1347                            .dwattr $C$DW$113, DW_AT_accessibility(DW_ACCESS_public)
    1348                            .dwattr $C$DW$113, DW_AT_decl_file("C:/ti/simplelink_cc13x0_sdk_1_50_00_08/source/ti/drivers/p
    1349                            .dwattr $C$DW$113, DW_AT_decl_line(0x183)
    1350                            .dwattr $C$DW$113, DW_AT_decl_column(0x16)
    1351                    
    1352                            .dwattr $C$DW$T$79, DW_AT_decl_file("C:/ti/simplelink_cc13x0_sdk_1_50_00_08/source/ti/drivers/
    1353                            .dwattr $C$DW$T$79, DW_AT_decl_line(0x16f)
    1354                            .dwattr $C$DW$T$79, DW_AT_decl_column(0x10)
    1355                            .dwendtag $C$DW$T$79
    1356                    
    1357                    $C$DW$T$134     .dwtag  DW_TAG_typedef
    1358                            .dwattr $C$DW$T$134, DW_AT_name("PINCC26XX_HWAttrs")
    1359                            .dwattr $C$DW$T$134, DW_AT_type(*$C$DW$T$79)
    1360                            .dwattr $C$DW$T$134, DW_AT_language(DW_LANG_C)
    1361                            .dwattr $C$DW$T$134, DW_AT_decl_file("C:/ti/simplelink_cc13x0_sdk_1_50_00_08/source/ti/drivers
    1362                            .dwattr $C$DW$T$134, DW_AT_decl_line(0x184)
    1363                            .dwattr $C$DW$T$134, DW_AT_decl_column(0x03)
    1364                    
    1365                    
    1366                    $C$DW$T$87      .dwtag  DW_TAG_structure_type
    1367                            .dwattr $C$DW$T$87, DW_AT_name("PIN_State_s")
    1368                            .dwattr $C$DW$T$87, DW_AT_byte_size(0x0c)
    1369                    $C$DW$114       .dwtag  DW_TAG_member
    1370                            .dwattr $C$DW$114, DW_AT_type(*$C$DW$T$86)
    1371                            .dwattr $C$DW$114, DW_AT_name("callbackFxn")
    1372                            .dwattr $C$DW$114, DW_AT_TI_symbol_name("callbackFxn")
    1373                            .dwattr $C$DW$114, DW_AT_data_member_location[DW_OP_plus_uconst 0x0]
    1374                            .dwattr $C$DW$114, DW_AT_accessibility(DW_ACCESS_public)
    1375                            .dwattr $C$DW$114, DW_AT_decl_file("C:/ti/simplelink_cc13x0_sdk_1_50_00_08/source/ti/drivers/P
TI ARM Assembler PC v16.9.4 Sat Nov 18 18:46:29 2017

Tools Copyright (c) 1996-2017 Texas Instruments Incorporated
C:\Users\Kevin\AppData\Local\Temp\{5E948145-182F-435E-8CCA-E077E24C2FF9} PAGE   26

    1376                            .dwattr $C$DW$114, DW_AT_decl_line(0x2aa)
    1377                            .dwattr $C$DW$114, DW_AT_decl_column(0x11)
    1378                    
    1379                    $C$DW$115       .dwtag  DW_TAG_member
    1380                            .dwattr $C$DW$115, DW_AT_type(*$C$DW$T$19)
    1381                            .dwattr $C$DW$115, DW_AT_name("portMask")
    1382                            .dwattr $C$DW$115, DW_AT_TI_symbol_name("portMask")
    1383                            .dwattr $C$DW$115, DW_AT_data_member_location[DW_OP_plus_uconst 0x4]
    1384                            .dwattr $C$DW$115, DW_AT_accessibility(DW_ACCESS_public)
    1385                            .dwattr $C$DW$115, DW_AT_decl_file("C:/ti/simplelink_cc13x0_sdk_1_50_00_08/source/ti/drivers/P
    1386                            .dwattr $C$DW$115, DW_AT_decl_line(0x2ab)
    1387                            .dwattr $C$DW$115, DW_AT_decl_column(0x11)
    1388                    
    1389                    $C$DW$116       .dwtag  DW_TAG_member
    1390                            .dwattr $C$DW$116, DW_AT_type(*$C$DW$T$68)
    1391                            .dwattr $C$DW$116, DW_AT_name("userArg")
    1392                            .dwattr $C$DW$116, DW_AT_TI_symbol_name("userArg")
    1393                            .dwattr $C$DW$116, DW_AT_data_member_location[DW_OP_plus_uconst 0x8]
    1394                            .dwattr $C$DW$116, DW_AT_accessibility(DW_ACCESS_public)
    1395                            .dwattr $C$DW$116, DW_AT_decl_file("C:/ti/simplelink_cc13x0_sdk_1_50_00_08/source/ti/drivers/P
    1396                            .dwattr $C$DW$116, DW_AT_decl_line(0x2ac)
    1397                            .dwattr $C$DW$116, DW_AT_decl_column(0x11)
    1398                    
    1399                            .dwattr $C$DW$T$87, DW_AT_decl_file("C:/ti/simplelink_cc13x0_sdk_1_50_00_08/source/ti/drivers/
    1400                            .dwattr $C$DW$T$87, DW_AT_decl_line(0x2a9)
    1401                            .dwattr $C$DW$T$87, DW_AT_decl_column(0x08)
    1402                            .dwendtag $C$DW$T$87
    1403                    
    1404                    $C$DW$T$80      .dwtag  DW_TAG_typedef
    1405                            .dwattr $C$DW$T$80, DW_AT_name("PIN_State")
    1406                            .dwattr $C$DW$T$80, DW_AT_type(*$C$DW$T$87)
    1407                            .dwattr $C$DW$T$80, DW_AT_language(DW_LANG_C)
    1408                            .dwattr $C$DW$T$80, DW_AT_decl_file("C:/ti/simplelink_cc13x0_sdk_1_50_00_08/source/ti/drivers/
    1409                            .dwattr $C$DW$T$80, DW_AT_decl_line(0x292)
    1410                            .dwattr $C$DW$T$80, DW_AT_decl_column(0x1c)
    1411                    
    1412                    $C$DW$T$81      .dwtag  DW_TAG_pointer_type
    1413                            .dwattr $C$DW$T$81, DW_AT_type(*$C$DW$T$80)
    1414                            .dwattr $C$DW$T$81, DW_AT_address_class(0x20)
    1415                    
    1416                    $C$DW$T$82      .dwtag  DW_TAG_typedef
    1417                            .dwattr $C$DW$T$82, DW_AT_name("PIN_Handle")
    1418                            .dwattr $C$DW$T$82, DW_AT_type(*$C$DW$T$81)
    1419                            .dwattr $C$DW$T$82, DW_AT_language(DW_LANG_C)
    1420                            .dwattr $C$DW$T$82, DW_AT_decl_file("C:/ti/simplelink_cc13x0_sdk_1_50_00_08/source/ti/drivers/
    1421                            .dwattr $C$DW$T$82, DW_AT_decl_line(0x298)
    1422                            .dwattr $C$DW$T$82, DW_AT_decl_column(0x14)
    1423                    
    1424                    $C$DW$T$65      .dwtag  DW_TAG_pointer_type
    1425                            .dwattr $C$DW$T$65, DW_AT_type(*$C$DW$T$87)
    1426                            .dwattr $C$DW$T$65, DW_AT_address_class(0x20)
    1427                    
    1428                    
    1429                    $C$DW$T$94      .dwtag  DW_TAG_structure_type
    1430                            .dwattr $C$DW$T$94, DW_AT_name("Power_NotifyObj_")
TI ARM Assembler PC v16.9.4 Sat Nov 18 18:46:29 2017

Tools Copyright (c) 1996-2017 Texas Instruments Incorporated
C:\Users\Kevin\AppData\Local\Temp\{5E948145-182F-435E-8CCA-E077E24C2FF9} PAGE   27

    1431                            .dwattr $C$DW$T$94, DW_AT_byte_size(0x14)
    1432                    $C$DW$117       .dwtag  DW_TAG_member
    1433                            .dwattr $C$DW$117, DW_AT_type(*$C$DW$T$76)
    1434                            .dwattr $C$DW$117, DW_AT_name("link")
    1435                            .dwattr $C$DW$117, DW_AT_TI_symbol_name("link")
    1436                            .dwattr $C$DW$117, DW_AT_data_member_location[DW_OP_plus_uconst 0x0]
    1437                            .dwattr $C$DW$117, DW_AT_accessibility(DW_ACCESS_public)
    1438                            .dwattr $C$DW$117, DW_AT_decl_file("C:/ti/simplelink_cc13x0_sdk_1_50_00_08/source/ti/drivers/P
    1439                            .dwattr $C$DW$117, DW_AT_decl_line(0x74)
    1440                            .dwattr $C$DW$117, DW_AT_decl_column(0x0f)
    1441                    
    1442                    $C$DW$118       .dwtag  DW_TAG_member
    1443                            .dwattr $C$DW$118, DW_AT_type(*$C$DW$T$88)
    1444                            .dwattr $C$DW$118, DW_AT_name("eventTypes")
    1445                            .dwattr $C$DW$118, DW_AT_TI_symbol_name("eventTypes")
    1446                            .dwattr $C$DW$118, DW_AT_data_member_location[DW_OP_plus_uconst 0x8]
    1447                            .dwattr $C$DW$118, DW_AT_accessibility(DW_ACCESS_public)
    1448                            .dwattr $C$DW$118, DW_AT_decl_file("C:/ti/simplelink_cc13x0_sdk_1_50_00_08/source/ti/drivers/P
    1449                            .dwattr $C$DW$118, DW_AT_decl_line(0x75)
    1450                            .dwattr $C$DW$118, DW_AT_decl_column(0x13)
    1451                    
    1452                    $C$DW$119       .dwtag  DW_TAG_member
    1453                            .dwattr $C$DW$119, DW_AT_type(*$C$DW$T$93)
    1454                            .dwattr $C$DW$119, DW_AT_name("notifyFxn")
    1455                            .dwattr $C$DW$119, DW_AT_TI_symbol_name("notifyFxn")
    1456                            .dwattr $C$DW$119, DW_AT_data_member_location[DW_OP_plus_uconst 0xc]
    1457                            .dwattr $C$DW$119, DW_AT_accessibility(DW_ACCESS_public)
    1458                            .dwattr $C$DW$119, DW_AT_decl_file("C:/ti/simplelink_cc13x0_sdk_1_50_00_08/source/ti/drivers/P
    1459                            .dwattr $C$DW$119, DW_AT_decl_line(0x76)
    1460                            .dwattr $C$DW$119, DW_AT_decl_column(0x15)
    1461                    
    1462                    $C$DW$120       .dwtag  DW_TAG_member
    1463                            .dwattr $C$DW$120, DW_AT_type(*$C$DW$T$68)
    1464                            .dwattr $C$DW$120, DW_AT_name("clientArg")
    1465                            .dwattr $C$DW$120, DW_AT_TI_symbol_name("clientArg")
    1466                            .dwattr $C$DW$120, DW_AT_data_member_location[DW_OP_plus_uconst 0x10]
    1467                            .dwattr $C$DW$120, DW_AT_accessibility(DW_ACCESS_public)
    1468                            .dwattr $C$DW$120, DW_AT_decl_file("C:/ti/simplelink_cc13x0_sdk_1_50_00_08/source/ti/drivers/P
    1469                            .dwattr $C$DW$120, DW_AT_decl_line(0x77)
    1470                            .dwattr $C$DW$120, DW_AT_decl_column(0x0f)
    1471                    
    1472                            .dwattr $C$DW$T$94, DW_AT_decl_file("C:/ti/simplelink_cc13x0_sdk_1_50_00_08/source/ti/drivers/
    1473                            .dwattr $C$DW$T$94, DW_AT_decl_line(0x73)
    1474                            .dwattr $C$DW$T$94, DW_AT_decl_column(0x10)
    1475                            .dwendtag $C$DW$T$94
    1476                    
    1477                    $C$DW$T$142     .dwtag  DW_TAG_typedef
    1478                            .dwattr $C$DW$T$142, DW_AT_name("Power_NotifyObj")
    1479                            .dwattr $C$DW$T$142, DW_AT_type(*$C$DW$T$94)
    1480                            .dwattr $C$DW$T$142, DW_AT_language(DW_LANG_C)
    1481                            .dwattr $C$DW$T$142, DW_AT_decl_file("C:/ti/simplelink_cc13x0_sdk_1_50_00_08/source/ti/drivers
    1482                            .dwattr $C$DW$T$142, DW_AT_decl_line(0x78)
    1483                            .dwattr $C$DW$T$142, DW_AT_decl_column(0x03)
    1484                    
    1485                    $C$DW$T$2       .dwtag  DW_TAG_unspecified_type
TI ARM Assembler PC v16.9.4 Sat Nov 18 18:46:29 2017

Tools Copyright (c) 1996-2017 Texas Instruments Incorporated
C:\Users\Kevin\AppData\Local\Temp\{5E948145-182F-435E-8CCA-E077E24C2FF9} PAGE   28

    1486                            .dwattr $C$DW$T$2, DW_AT_name("void")
    1487                    
    1488                    $C$DW$T$3       .dwtag  DW_TAG_pointer_type
    1489                            .dwattr $C$DW$T$3, DW_AT_type(*$C$DW$T$2)
    1490                            .dwattr $C$DW$T$3, DW_AT_address_class(0x20)
    1491                    
    1492                    $C$DW$T$143     .dwtag  DW_TAG_typedef
    1493                            .dwattr $C$DW$T$143, DW_AT_name("HwiP_Handle")
    1494                            .dwattr $C$DW$T$143, DW_AT_type(*$C$DW$T$3)
    1495                            .dwattr $C$DW$T$143, DW_AT_language(DW_LANG_C)
    1496                            .dwattr $C$DW$T$143, DW_AT_decl_file("C:/ti/simplelink_cc13x0_sdk_1_50_00_08/source/ti/drivers
    1497                            .dwattr $C$DW$T$143, DW_AT_decl_line(0x56)
    1498                            .dwattr $C$DW$T$143, DW_AT_decl_column(0x10)
    1499                    
    1500                    $C$DW$T$144     .dwtag  DW_TAG_typedef
    1501                            .dwattr $C$DW$T$144, DW_AT_name("xdc_Ptr")
    1502                            .dwattr $C$DW$T$144, DW_AT_type(*$C$DW$T$3)
    1503                            .dwattr $C$DW$T$144, DW_AT_language(DW_LANG_C)
    1504                            .dwattr $C$DW$T$144, DW_AT_decl_file("C:/ti/xdctools_3_50_03_33_core/packages/xdc/std.h")
    1505                            .dwattr $C$DW$T$144, DW_AT_decl_line(0x2e)
    1506                            .dwattr $C$DW$T$144, DW_AT_decl_column(0x1a)
    1507                    
    1508                    $C$DW$T$145     .dwtag  DW_TAG_typedef
    1509                            .dwattr $C$DW$T$145, DW_AT_name("Ptr")
    1510                            .dwattr $C$DW$T$145, DW_AT_type(*$C$DW$T$144)
    1511                            .dwattr $C$DW$T$145, DW_AT_language(DW_LANG_C)
    1512                            .dwattr $C$DW$T$145, DW_AT_decl_file("C:/ti/xdctools_3_50_03_33_core/packages/xdc/std.h")
    1513                            .dwattr $C$DW$T$145, DW_AT_decl_line(0xf7)
    1514                            .dwattr $C$DW$T$145, DW_AT_decl_column(0x19)
    1515                    
    1516                    
    1517                    $C$DW$T$34      .dwtag  DW_TAG_subroutine_type
    1518                            .dwattr $C$DW$T$34, DW_AT_language(DW_LANG_C)
    1519                            .dwendtag $C$DW$T$34
    1520                    
    1521                    $C$DW$T$35      .dwtag  DW_TAG_pointer_type
    1522                            .dwattr $C$DW$T$35, DW_AT_type(*$C$DW$T$34)
    1523                            .dwattr $C$DW$T$35, DW_AT_address_class(0x20)
    1524                    
    1525                    $C$DW$T$53      .dwtag  DW_TAG_typedef
    1526                            .dwattr $C$DW$T$53, DW_AT_name("FPTR_HFSOURCESAFESWITCH_T")
    1527                            .dwattr $C$DW$T$53, DW_AT_type(*$C$DW$T$35)
    1528                            .dwattr $C$DW$T$53, DW_AT_language(DW_LANG_C)
    1529                            .dwattr $C$DW$T$53, DW_AT_decl_file("C:\ti\simplelink_cc13x0_sdk_1_50_00_08\source\ti\devices\
    1530                            .dwattr $C$DW$T$53, DW_AT_decl_line(0x5f)
    1531                            .dwattr $C$DW$T$53, DW_AT_decl_column(0x19)
    1532                    
    1533                    $C$DW$T$36      .dwtag  DW_TAG_typedef
    1534                            .dwattr $C$DW$T$36, DW_AT_name("FPTR_RESETDEV_T")
    1535                            .dwattr $C$DW$T$36, DW_AT_type(*$C$DW$T$35)
    1536                            .dwattr $C$DW$T$36, DW_AT_language(DW_LANG_C)
    1537                            .dwattr $C$DW$T$36, DW_AT_decl_file("C:\ti\simplelink_cc13x0_sdk_1_50_00_08\source\ti\devices\
    1538                            .dwattr $C$DW$T$36, DW_AT_decl_line(0x4d)
    1539                            .dwattr $C$DW$T$36, DW_AT_decl_column(0x19)
    1540                    
TI ARM Assembler PC v16.9.4 Sat Nov 18 18:46:29 2017

Tools Copyright (c) 1996-2017 Texas Instruments Incorporated
C:\Users\Kevin\AppData\Local\Temp\{5E948145-182F-435E-8CCA-E077E24C2FF9} PAGE   29

    1541                    $C$DW$T$146     .dwtag  DW_TAG_typedef
    1542                            .dwattr $C$DW$T$146, DW_AT_name("FPTR_VOID_VOID_T")
    1543                            .dwattr $C$DW$T$146, DW_AT_type(*$C$DW$T$35)
    1544                            .dwattr $C$DW$T$146, DW_AT_language(DW_LANG_C)
    1545                            .dwattr $C$DW$T$146, DW_AT_decl_file("C:\ti\simplelink_cc13x0_sdk_1_50_00_08\source\ti\devices
    1546                            .dwattr $C$DW$T$146, DW_AT_decl_line(0x33)
    1547                            .dwattr $C$DW$T$146, DW_AT_decl_column(0x11)
    1548                    
    1549                    $C$DW$T$147     .dwtag  DW_TAG_typedef
    1550                            .dwattr $C$DW$T$147, DW_AT_name("Power_PolicyFxn")
    1551                            .dwattr $C$DW$T$147, DW_AT_type(*$C$DW$T$35)
    1552                            .dwattr $C$DW$T$147, DW_AT_language(DW_LANG_C)
    1553                            .dwattr $C$DW$T$147, DW_AT_decl_file("C:/ti/simplelink_cc13x0_sdk_1_50_00_08/source/ti/drivers
    1554                            .dwattr $C$DW$T$147, DW_AT_decl_line(0x63)
    1555                            .dwattr $C$DW$T$147, DW_AT_decl_column(0x10)
    1556                    
    1557                    $C$DW$T$148     .dwtag  DW_TAG_typedef
    1558                            .dwattr $C$DW$T$148, DW_AT_name("Power_PolicyInitFxn")
    1559                            .dwattr $C$DW$T$148, DW_AT_type(*$C$DW$T$35)
    1560                            .dwattr $C$DW$T$148, DW_AT_language(DW_LANG_C)
    1561                            .dwattr $C$DW$T$148, DW_AT_decl_file("C:/ti/simplelink_cc13x0_sdk_1_50_00_08/source/ti/drivers
    1562                            .dwattr $C$DW$T$148, DW_AT_decl_line(0x5e)
    1563                            .dwattr $C$DW$T$148, DW_AT_decl_column(0x10)
    1564                    
    1565                    
    1566                    $C$DW$T$49      .dwtag  DW_TAG_subroutine_type
    1567                            .dwattr $C$DW$T$49, DW_AT_language(DW_LANG_C)
    1568                    $C$DW$121       .dwtag  DW_TAG_formal_parameter
    1569                            .dwattr $C$DW$121, DW_AT_type(*$C$DW$T$19)
    1570                    
    1571                            .dwendtag $C$DW$T$49
    1572                    
    1573                    $C$DW$T$50      .dwtag  DW_TAG_pointer_type
    1574                            .dwattr $C$DW$T$50, DW_AT_type(*$C$DW$T$49)
    1575                            .dwattr $C$DW$T$50, DW_AT_address_class(0x20)
    1576                    
    1577                    $C$DW$T$51      .dwtag  DW_TAG_typedef
    1578                            .dwattr $C$DW$T$51, DW_AT_name("FPTR_RESERVED4_T")
    1579                            .dwattr $C$DW$T$51, DW_AT_type(*$C$DW$T$50)
    1580                            .dwattr $C$DW$T$51, DW_AT_language(DW_LANG_C)
    1581                            .dwattr $C$DW$T$51, DW_AT_decl_file("C:\ti\simplelink_cc13x0_sdk_1_50_00_08\source\ti\devices\
    1582                            .dwattr $C$DW$T$51, DW_AT_decl_line(0x61)
    1583                            .dwattr $C$DW$T$51, DW_AT_decl_column(0x19)
    1584                    
    1585                    $C$DW$T$52      .dwtag  DW_TAG_typedef
    1586                            .dwattr $C$DW$T$52, DW_AT_name("FPTR_RESERVED5_T")
    1587                            .dwattr $C$DW$T$52, DW_AT_type(*$C$DW$T$50)
    1588                            .dwattr $C$DW$T$52, DW_AT_language(DW_LANG_C)
    1589                            .dwattr $C$DW$T$52, DW_AT_decl_file("C:\ti\simplelink_cc13x0_sdk_1_50_00_08\source\ti\devices\
    1590                            .dwattr $C$DW$T$52, DW_AT_decl_line(0x63)
    1591                            .dwattr $C$DW$T$52, DW_AT_decl_column(0x19)
    1592                    
    1593                    
    1594                    $C$DW$T$54      .dwtag  DW_TAG_subroutine_type
    1595                            .dwattr $C$DW$T$54, DW_AT_language(DW_LANG_C)
TI ARM Assembler PC v16.9.4 Sat Nov 18 18:46:29 2017

Tools Copyright (c) 1996-2017 Texas Instruments Incorporated
C:\Users\Kevin\AppData\Local\Temp\{5E948145-182F-435E-8CCA-E077E24C2FF9} PAGE   30

    1596                    $C$DW$122       .dwtag  DW_TAG_formal_parameter
    1597                            .dwattr $C$DW$122, DW_AT_type(*$C$DW$T$20)
    1598                    
    1599                            .dwendtag $C$DW$T$54
    1600                    
    1601                    $C$DW$T$55      .dwtag  DW_TAG_pointer_type
    1602                            .dwattr $C$DW$T$55, DW_AT_type(*$C$DW$T$54)
    1603                            .dwattr $C$DW$T$55, DW_AT_address_class(0x20)
    1604                    
    1605                    $C$DW$T$58      .dwtag  DW_TAG_typedef
    1606                            .dwattr $C$DW$T$58, DW_AT_name("FPTR_ADCCOMPBIN_T")
    1607                            .dwattr $C$DW$T$58, DW_AT_type(*$C$DW$T$55)
    1608                            .dwattr $C$DW$T$58, DW_AT_language(DW_LANG_C)
    1609                            .dwattr $C$DW$T$58, DW_AT_decl_file("C:\ti\simplelink_cc13x0_sdk_1_50_00_08\source\ti\devices\
    1610                            .dwattr $C$DW$T$58, DW_AT_decl_line(0x69)
    1611                            .dwattr $C$DW$T$58, DW_AT_decl_column(0x19)
    1612                    
    1613                    $C$DW$T$56      .dwtag  DW_TAG_typedef
    1614                            .dwattr $C$DW$T$56, DW_AT_name("FPTR_COMPAIN_T")
    1615                            .dwattr $C$DW$T$56, DW_AT_type(*$C$DW$T$55)
    1616                            .dwattr $C$DW$T$56, DW_AT_language(DW_LANG_C)
    1617                            .dwattr $C$DW$T$56, DW_AT_decl_file("C:\ti\simplelink_cc13x0_sdk_1_50_00_08\source\ti\devices\
    1618                            .dwattr $C$DW$T$56, DW_AT_decl_line(0x65)
    1619                            .dwattr $C$DW$T$56, DW_AT_decl_column(0x19)
    1620                    
    1621                    $C$DW$T$57      .dwtag  DW_TAG_typedef
    1622                            .dwattr $C$DW$T$57, DW_AT_name("FPTR_COMPAREF_T")
    1623                            .dwattr $C$DW$T$57, DW_AT_type(*$C$DW$T$55)
    1624                            .dwattr $C$DW$T$57, DW_AT_language(DW_LANG_C)
    1625                            .dwattr $C$DW$T$57, DW_AT_decl_file("C:\ti\simplelink_cc13x0_sdk_1_50_00_08\source\ti\devices\
    1626                            .dwattr $C$DW$T$57, DW_AT_decl_line(0x67)
    1627                            .dwattr $C$DW$T$57, DW_AT_decl_column(0x19)
    1628                    
    1629                    $C$DW$T$59      .dwtag  DW_TAG_typedef
    1630                            .dwattr $C$DW$T$59, DW_AT_name("FPTR_COMPBREF_T")
    1631                            .dwattr $C$DW$T$59, DW_AT_type(*$C$DW$T$55)
    1632                            .dwattr $C$DW$T$59, DW_AT_language(DW_LANG_C)
    1633                            .dwattr $C$DW$T$59, DW_AT_decl_file("C:\ti\simplelink_cc13x0_sdk_1_50_00_08\source\ti\devices\
    1634                            .dwattr $C$DW$T$59, DW_AT_decl_line(0x6b)
    1635                            .dwattr $C$DW$T$59, DW_AT_decl_column(0x19)
    1636                    
    1637                    $C$DW$T$149     .dwtag  DW_TAG_typedef
    1638                            .dwattr $C$DW$T$149, DW_AT_name("FPTR_VOID_UINT8_T")
    1639                            .dwattr $C$DW$T$149, DW_AT_type(*$C$DW$T$55)
    1640                            .dwattr $C$DW$T$149, DW_AT_language(DW_LANG_C)
    1641                            .dwattr $C$DW$T$149, DW_AT_decl_file("C:\ti\simplelink_cc13x0_sdk_1_50_00_08\source\ti\devices
    1642                            .dwattr $C$DW$T$149, DW_AT_decl_line(0x34)
    1643                            .dwattr $C$DW$T$149, DW_AT_decl_column(0x11)
    1644                    
    1645                    
    1646                    $C$DW$T$84      .dwtag  DW_TAG_subroutine_type
    1647                            .dwattr $C$DW$T$84, DW_AT_language(DW_LANG_C)
    1648                    $C$DW$123       .dwtag  DW_TAG_formal_parameter
    1649                            .dwattr $C$DW$123, DW_AT_type(*$C$DW$T$82)
    1650                    
TI ARM Assembler PC v16.9.4 Sat Nov 18 18:46:29 2017

Tools Copyright (c) 1996-2017 Texas Instruments Incorporated
C:\Users\Kevin\AppData\Local\Temp\{5E948145-182F-435E-8CCA-E077E24C2FF9} PAGE   31

    1651                    $C$DW$124       .dwtag  DW_TAG_formal_parameter
    1652                            .dwattr $C$DW$124, DW_AT_type(*$C$DW$T$83)
    1653                    
    1654                            .dwendtag $C$DW$T$84
    1655                    
    1656                    $C$DW$T$85      .dwtag  DW_TAG_pointer_type
    1657                            .dwattr $C$DW$T$85, DW_AT_type(*$C$DW$T$84)
    1658                            .dwattr $C$DW$T$85, DW_AT_address_class(0x20)
    1659                    
    1660                    $C$DW$T$86      .dwtag  DW_TAG_typedef
    1661                            .dwattr $C$DW$T$86, DW_AT_name("PIN_IntCb")
    1662                            .dwattr $C$DW$T$86, DW_AT_type(*$C$DW$T$85)
    1663                            .dwattr $C$DW$T$86, DW_AT_language(DW_LANG_C)
    1664                            .dwattr $C$DW$T$86, DW_AT_decl_file("C:/ti/simplelink_cc13x0_sdk_1_50_00_08/source/ti/drivers/
    1665                            .dwattr $C$DW$T$86, DW_AT_decl_line(0x2a4)
    1666                            .dwattr $C$DW$T$86, DW_AT_decl_column(0x10)
    1667                    
    1668                    $C$DW$T$150     .dwtag  DW_TAG_const_type
    1669                            .dwattr $C$DW$T$150, DW_AT_type(*$C$DW$T$2)
    1670                    
    1671                    $C$DW$T$151     .dwtag  DW_TAG_pointer_type
    1672                            .dwattr $C$DW$T$151, DW_AT_type(*$C$DW$T$150)
    1673                            .dwattr $C$DW$T$151, DW_AT_address_class(0x20)
    1674                    
    1675                    $C$DW$T$152     .dwtag  DW_TAG_typedef
    1676                            .dwattr $C$DW$T$152, DW_AT_name("xdc_CPtr")
    1677                            .dwattr $C$DW$T$152, DW_AT_type(*$C$DW$T$151)
    1678                            .dwattr $C$DW$T$152, DW_AT_language(DW_LANG_C)
    1679                            .dwattr $C$DW$T$152, DW_AT_decl_file("C:/ti/xdctools_3_50_03_33_core/packages/xdc/std.h")
    1680                            .dwattr $C$DW$T$152, DW_AT_decl_line(0x2f)
    1681                            .dwattr $C$DW$T$152, DW_AT_decl_column(0x1a)
    1682                    
    1683                    $C$DW$T$153     .dwtag  DW_TAG_typedef
    1684                            .dwattr $C$DW$T$153, DW_AT_name("CPtr")
    1685                            .dwattr $C$DW$T$153, DW_AT_type(*$C$DW$T$152)
    1686                            .dwattr $C$DW$T$153, DW_AT_language(DW_LANG_C)
    1687                            .dwattr $C$DW$T$153, DW_AT_decl_file("C:/ti/xdctools_3_50_03_33_core/packages/xdc/std.h")
    1688                            .dwattr $C$DW$T$153, DW_AT_decl_line(0xf8)
    1689                            .dwattr $C$DW$T$153, DW_AT_decl_column(0x19)
    1690                    
    1691                    
    1692                    $C$DW$T$154     .dwtag  DW_TAG_subroutine_type
    1693                            .dwattr $C$DW$T$154, DW_AT_language(DW_LANG_C)
    1694                    $C$DW$125       .dwtag  DW_TAG_formal_parameter
    1695                            .dwattr $C$DW$125, DW_AT_type(*$C$DW$T$68)
    1696                    
    1697                            .dwendtag $C$DW$T$154
    1698                    
    1699                    $C$DW$T$155     .dwtag  DW_TAG_pointer_type
    1700                            .dwattr $C$DW$T$155, DW_AT_type(*$C$DW$T$154)
    1701                            .dwattr $C$DW$T$155, DW_AT_address_class(0x20)
    1702                    
    1703                    $C$DW$T$156     .dwtag  DW_TAG_typedef
    1704                            .dwattr $C$DW$T$156, DW_AT_name("HwiP_Fxn")
    1705                            .dwattr $C$DW$T$156, DW_AT_type(*$C$DW$T$155)
TI ARM Assembler PC v16.9.4 Sat Nov 18 18:46:29 2017

Tools Copyright (c) 1996-2017 Texas Instruments Incorporated
C:\Users\Kevin\AppData\Local\Temp\{5E948145-182F-435E-8CCA-E077E24C2FF9} PAGE   32

    1706                            .dwattr $C$DW$T$156, DW_AT_language(DW_LANG_C)
    1707                            .dwattr $C$DW$T$156, DW_AT_decl_file("C:/ti/simplelink_cc13x0_sdk_1_50_00_08/source/ti/drivers
    1708                            .dwattr $C$DW$T$156, DW_AT_decl_line(0x63)
    1709                            .dwattr $C$DW$T$156, DW_AT_decl_column(0x10)
    1710                    
    1711                    $C$DW$T$4       .dwtag  DW_TAG_base_type
    1712                            .dwattr $C$DW$T$4, DW_AT_encoding(DW_ATE_boolean)
    1713                            .dwattr $C$DW$T$4, DW_AT_name("bool")
    1714                            .dwattr $C$DW$T$4, DW_AT_byte_size(0x01)
    1715                    
    1716                    $C$DW$T$5       .dwtag  DW_TAG_base_type
    1717                            .dwattr $C$DW$T$5, DW_AT_encoding(DW_ATE_signed_char)
    1718                            .dwattr $C$DW$T$5, DW_AT_name("signed char")
    1719                            .dwattr $C$DW$T$5, DW_AT_byte_size(0x01)
    1720                    
    1721                    $C$DW$T$157     .dwtag  DW_TAG_typedef
    1722                            .dwattr $C$DW$T$157, DW_AT_name("int8_t")
    1723                            .dwattr $C$DW$T$157, DW_AT_type(*$C$DW$T$5)
    1724                            .dwattr $C$DW$T$157, DW_AT_language(DW_LANG_C)
    1725                            .dwattr $C$DW$T$157, DW_AT_decl_file("C:/ti/ccsv7/tools/compiler/ti-cgt-arm_16.9.4.LTS/include
    1726                            .dwattr $C$DW$T$157, DW_AT_decl_line(0x2a)
    1727                            .dwattr $C$DW$T$157, DW_AT_decl_column(0x1d)
    1728                    
    1729                    $C$DW$T$158     .dwtag  DW_TAG_typedef
    1730                            .dwattr $C$DW$T$158, DW_AT_name("int_least8_t")
    1731                            .dwattr $C$DW$T$158, DW_AT_type(*$C$DW$T$157)
    1732                            .dwattr $C$DW$T$158, DW_AT_language(DW_LANG_C)
    1733                            .dwattr $C$DW$T$158, DW_AT_decl_file("C:/ti/ccsv7/tools/compiler/ti-cgt-arm_16.9.4.LTS/include
    1734                            .dwattr $C$DW$T$158, DW_AT_decl_line(0x37)
    1735                            .dwattr $C$DW$T$158, DW_AT_decl_column(0x17)
    1736                    
    1737                    $C$DW$T$159     .dwtag  DW_TAG_typedef
    1738                            .dwattr $C$DW$T$159, DW_AT_name("xdc_Int8")
    1739                            .dwattr $C$DW$T$159, DW_AT_type(*$C$DW$T$158)
    1740                            .dwattr $C$DW$T$159, DW_AT_language(DW_LANG_C)
    1741                            .dwattr $C$DW$T$159, DW_AT_decl_file("C:/ti/simplelink_cc13x0_sdk_1_50_00_08/kernel/tirtos/pac
    1742                            .dwattr $C$DW$T$159, DW_AT_decl_line(0x6c)
    1743                            .dwattr $C$DW$T$159, DW_AT_decl_column(0x19)
    1744                    
    1745                    $C$DW$T$160     .dwtag  DW_TAG_typedef
    1746                            .dwattr $C$DW$T$160, DW_AT_name("Int8")
    1747                            .dwattr $C$DW$T$160, DW_AT_type(*$C$DW$T$159)
    1748                            .dwattr $C$DW$T$160, DW_AT_language(DW_LANG_C)
    1749                            .dwattr $C$DW$T$160, DW_AT_decl_file("C:/ti/xdctools_3_50_03_33_core/packages/xdc/std.h")
    1750                            .dwattr $C$DW$T$160, DW_AT_decl_line(0xf3)
    1751                            .dwattr $C$DW$T$160, DW_AT_decl_column(0x19)
    1752                    
    1753                    $C$DW$T$6       .dwtag  DW_TAG_base_type
    1754                            .dwattr $C$DW$T$6, DW_AT_encoding(DW_ATE_unsigned_char)
    1755                            .dwattr $C$DW$T$6, DW_AT_name("unsigned char")
    1756                            .dwattr $C$DW$T$6, DW_AT_byte_size(0x01)
    1757                    
    1758                    $C$DW$T$20      .dwtag  DW_TAG_typedef
    1759                            .dwattr $C$DW$T$20, DW_AT_name("uint8_t")
    1760                            .dwattr $C$DW$T$20, DW_AT_type(*$C$DW$T$6)
TI ARM Assembler PC v16.9.4 Sat Nov 18 18:46:29 2017

Tools Copyright (c) 1996-2017 Texas Instruments Incorporated
C:\Users\Kevin\AppData\Local\Temp\{5E948145-182F-435E-8CCA-E077E24C2FF9} PAGE   33

    1761                            .dwattr $C$DW$T$20, DW_AT_language(DW_LANG_C)
    1762                            .dwattr $C$DW$T$20, DW_AT_decl_file("C:/ti/ccsv7/tools/compiler/ti-cgt-arm_16.9.4.LTS/include/
    1763                            .dwattr $C$DW$T$20, DW_AT_decl_line(0x2b)
    1764                            .dwattr $C$DW$T$20, DW_AT_decl_column(0x1c)
    1765                    
    1766                    $C$DW$T$83      .dwtag  DW_TAG_typedef
    1767                            .dwattr $C$DW$T$83, DW_AT_name("PIN_Id")
    1768                            .dwattr $C$DW$T$83, DW_AT_type(*$C$DW$T$20)
    1769                            .dwattr $C$DW$T$83, DW_AT_language(DW_LANG_C)
    1770                            .dwattr $C$DW$T$83, DW_AT_decl_file("C:/ti/simplelink_cc13x0_sdk_1_50_00_08/source/ti/drivers/
    1771                            .dwattr $C$DW$T$83, DW_AT_decl_line(0x226)
    1772                            .dwattr $C$DW$T$83, DW_AT_decl_column(0x11)
    1773                    
    1774                    $C$DW$T$21      .dwtag  DW_TAG_pointer_type
    1775                            .dwattr $C$DW$T$21, DW_AT_type(*$C$DW$T$20)
    1776                            .dwattr $C$DW$T$21, DW_AT_address_class(0x20)
    1777                    
    1778                    $C$DW$T$161     .dwtag  DW_TAG_typedef
    1779                            .dwattr $C$DW$T$161, DW_AT_name("uint_least8_t")
    1780                            .dwattr $C$DW$T$161, DW_AT_type(*$C$DW$T$20)
    1781                            .dwattr $C$DW$T$161, DW_AT_language(DW_LANG_C)
    1782                            .dwattr $C$DW$T$161, DW_AT_decl_file("C:/ti/ccsv7/tools/compiler/ti-cgt-arm_16.9.4.LTS/include
    1783                            .dwattr $C$DW$T$161, DW_AT_decl_line(0x38)
    1784                            .dwattr $C$DW$T$161, DW_AT_decl_column(0x16)
    1785                    
    1786                    $C$DW$T$162     .dwtag  DW_TAG_typedef
    1787                            .dwattr $C$DW$T$162, DW_AT_name("xdc_UInt8")
    1788                            .dwattr $C$DW$T$162, DW_AT_type(*$C$DW$T$161)
    1789                            .dwattr $C$DW$T$162, DW_AT_language(DW_LANG_C)
    1790                            .dwattr $C$DW$T$162, DW_AT_decl_file("C:/ti/simplelink_cc13x0_sdk_1_50_00_08/kernel/tirtos/pac
    1791                            .dwattr $C$DW$T$162, DW_AT_decl_line(0x6d)
    1792                            .dwattr $C$DW$T$162, DW_AT_decl_column(0x19)
    1793                    
    1794                    $C$DW$T$163     .dwtag  DW_TAG_typedef
    1795                            .dwattr $C$DW$T$163, DW_AT_name("UInt8")
    1796                            .dwattr $C$DW$T$163, DW_AT_type(*$C$DW$T$162)
    1797                            .dwattr $C$DW$T$163, DW_AT_language(DW_LANG_C)
    1798                            .dwattr $C$DW$T$163, DW_AT_decl_file("C:/ti/xdctools_3_50_03_33_core/packages/xdc/std.h")
    1799                            .dwattr $C$DW$T$163, DW_AT_decl_line(0xfe)
    1800                            .dwattr $C$DW$T$163, DW_AT_decl_column(0x19)
    1801                    
    1802                    $C$DW$T$164     .dwtag  DW_TAG_typedef
    1803                            .dwattr $C$DW$T$164, DW_AT_name("Uint8")
    1804                            .dwattr $C$DW$T$164, DW_AT_type(*$C$DW$T$162)
    1805                            .dwattr $C$DW$T$164, DW_AT_language(DW_LANG_C)
    1806                            .dwattr $C$DW$T$164, DW_AT_decl_file("C:/ti/xdctools_3_50_03_33_core/packages/xdc/std.h")
    1807                            .dwattr $C$DW$T$164, DW_AT_decl_line(0x10b)
    1808                            .dwattr $C$DW$T$164, DW_AT_decl_column(0x19)
    1809                    
    1810                    $C$DW$T$165     .dwtag  DW_TAG_typedef
    1811                            .dwattr $C$DW$T$165, DW_AT_name("xdc_Bits8")
    1812                            .dwattr $C$DW$T$165, DW_AT_type(*$C$DW$T$20)
    1813                            .dwattr $C$DW$T$165, DW_AT_language(DW_LANG_C)
    1814                            .dwattr $C$DW$T$165, DW_AT_decl_file("C:/ti/simplelink_cc13x0_sdk_1_50_00_08/kernel/tirtos/pac
    1815                            .dwattr $C$DW$T$165, DW_AT_decl_line(0x89)
TI ARM Assembler PC v16.9.4 Sat Nov 18 18:46:29 2017

Tools Copyright (c) 1996-2017 Texas Instruments Incorporated
C:\Users\Kevin\AppData\Local\Temp\{5E948145-182F-435E-8CCA-E077E24C2FF9} PAGE   34

    1816                            .dwattr $C$DW$T$165, DW_AT_decl_column(0x19)
    1817                    
    1818                    $C$DW$T$166     .dwtag  DW_TAG_typedef
    1819                            .dwattr $C$DW$T$166, DW_AT_name("Bits8")
    1820                            .dwattr $C$DW$T$166, DW_AT_type(*$C$DW$T$165)
    1821                            .dwattr $C$DW$T$166, DW_AT_language(DW_LANG_C)
    1822                            .dwattr $C$DW$T$166, DW_AT_decl_file("C:/ti/xdctools_3_50_03_33_core/packages/xdc/std.h")
    1823                            .dwattr $C$DW$T$166, DW_AT_decl_line(0x11f)
    1824                            .dwattr $C$DW$T$166, DW_AT_decl_column(0x19)
    1825                    
    1826                    $C$DW$T$167     .dwtag  DW_TAG_typedef
    1827                            .dwattr $C$DW$T$167, DW_AT_name("xdc_UChar")
    1828                            .dwattr $C$DW$T$167, DW_AT_type(*$C$DW$T$6)
    1829                            .dwattr $C$DW$T$167, DW_AT_language(DW_LANG_C)
    1830                            .dwattr $C$DW$T$167, DW_AT_decl_file("C:/ti/xdctools_3_50_03_33_core/packages/xdc/std.h")
    1831                            .dwattr $C$DW$T$167, DW_AT_decl_line(0x1e)
    1832                            .dwattr $C$DW$T$167, DW_AT_decl_column(0x19)
    1833                    
    1834                    $C$DW$T$168     .dwtag  DW_TAG_typedef
    1835                            .dwattr $C$DW$T$168, DW_AT_name("UChar")
    1836                            .dwattr $C$DW$T$168, DW_AT_type(*$C$DW$T$167)
    1837                            .dwattr $C$DW$T$168, DW_AT_language(DW_LANG_C)
    1838                            .dwattr $C$DW$T$168, DW_AT_decl_file("C:/ti/xdctools_3_50_03_33_core/packages/xdc/std.h")
    1839                            .dwattr $C$DW$T$168, DW_AT_decl_line(0xe1)
    1840                            .dwattr $C$DW$T$168, DW_AT_decl_column(0x19)
    1841                    
    1842                    $C$DW$T$7       .dwtag  DW_TAG_base_type
    1843                            .dwattr $C$DW$T$7, DW_AT_encoding(DW_ATE_signed_char)
    1844                            .dwattr $C$DW$T$7, DW_AT_name("wchar_t")
    1845                            .dwattr $C$DW$T$7, DW_AT_byte_size(0x02)
    1846                    
    1847                    $C$DW$T$8       .dwtag  DW_TAG_base_type
    1848                            .dwattr $C$DW$T$8, DW_AT_encoding(DW_ATE_signed)
    1849                            .dwattr $C$DW$T$8, DW_AT_name("short")
    1850                            .dwattr $C$DW$T$8, DW_AT_byte_size(0x02)
    1851                    
    1852                    $C$DW$T$169     .dwtag  DW_TAG_typedef
    1853                            .dwattr $C$DW$T$169, DW_AT_name("int16_t")
    1854                            .dwattr $C$DW$T$169, DW_AT_type(*$C$DW$T$8)
    1855                            .dwattr $C$DW$T$169, DW_AT_language(DW_LANG_C)
    1856                            .dwattr $C$DW$T$169, DW_AT_decl_file("C:/ti/ccsv7/tools/compiler/ti-cgt-arm_16.9.4.LTS/include
    1857                            .dwattr $C$DW$T$169, DW_AT_decl_line(0x2c)
    1858                            .dwattr $C$DW$T$169, DW_AT_decl_column(0x1d)
    1859                    
    1860                    $C$DW$T$170     .dwtag  DW_TAG_typedef
    1861                            .dwattr $C$DW$T$170, DW_AT_name("int_least16_t")
    1862                            .dwattr $C$DW$T$170, DW_AT_type(*$C$DW$T$169)
    1863                            .dwattr $C$DW$T$170, DW_AT_language(DW_LANG_C)
    1864                            .dwattr $C$DW$T$170, DW_AT_decl_file("C:/ti/ccsv7/tools/compiler/ti-cgt-arm_16.9.4.LTS/include
    1865                            .dwattr $C$DW$T$170, DW_AT_decl_line(0x3a)
    1866                            .dwattr $C$DW$T$170, DW_AT_decl_column(0x17)
    1867                    
    1868                    $C$DW$T$171     .dwtag  DW_TAG_typedef
    1869                            .dwattr $C$DW$T$171, DW_AT_name("xdc_Int16")
    1870                            .dwattr $C$DW$T$171, DW_AT_type(*$C$DW$T$170)
TI ARM Assembler PC v16.9.4 Sat Nov 18 18:46:29 2017

Tools Copyright (c) 1996-2017 Texas Instruments Incorporated
C:\Users\Kevin\AppData\Local\Temp\{5E948145-182F-435E-8CCA-E077E24C2FF9} PAGE   35

    1871                            .dwattr $C$DW$T$171, DW_AT_language(DW_LANG_C)
    1872                            .dwattr $C$DW$T$171, DW_AT_decl_file("C:/ti/simplelink_cc13x0_sdk_1_50_00_08/kernel/tirtos/pac
    1873                            .dwattr $C$DW$T$171, DW_AT_decl_line(0x6e)
    1874                            .dwattr $C$DW$T$171, DW_AT_decl_column(0x19)
    1875                    
    1876                    $C$DW$T$172     .dwtag  DW_TAG_typedef
    1877                            .dwattr $C$DW$T$172, DW_AT_name("Int16")
    1878                            .dwattr $C$DW$T$172, DW_AT_type(*$C$DW$T$171)
    1879                            .dwattr $C$DW$T$172, DW_AT_language(DW_LANG_C)
    1880                            .dwattr $C$DW$T$172, DW_AT_decl_file("C:/ti/xdctools_3_50_03_33_core/packages/xdc/std.h")
    1881                            .dwattr $C$DW$T$172, DW_AT_decl_line(0xf4)
    1882                            .dwattr $C$DW$T$172, DW_AT_decl_column(0x19)
    1883                    
    1884                    $C$DW$T$173     .dwtag  DW_TAG_typedef
    1885                            .dwattr $C$DW$T$173, DW_AT_name("xdc_Short")
    1886                            .dwattr $C$DW$T$173, DW_AT_type(*$C$DW$T$8)
    1887                            .dwattr $C$DW$T$173, DW_AT_language(DW_LANG_C)
    1888                            .dwattr $C$DW$T$173, DW_AT_decl_file("C:/ti/xdctools_3_50_03_33_core/packages/xdc/std.h")
    1889                            .dwattr $C$DW$T$173, DW_AT_decl_line(0x1f)
    1890                            .dwattr $C$DW$T$173, DW_AT_decl_column(0x19)
    1891                    
    1892                    $C$DW$T$174     .dwtag  DW_TAG_typedef
    1893                            .dwattr $C$DW$T$174, DW_AT_name("Short")
    1894                            .dwattr $C$DW$T$174, DW_AT_type(*$C$DW$T$173)
    1895                            .dwattr $C$DW$T$174, DW_AT_language(DW_LANG_C)
    1896                            .dwattr $C$DW$T$174, DW_AT_decl_file("C:/ti/xdctools_3_50_03_33_core/packages/xdc/std.h")
    1897                            .dwattr $C$DW$T$174, DW_AT_decl_line(0xe2)
    1898                            .dwattr $C$DW$T$174, DW_AT_decl_column(0x19)
    1899                    
    1900                    $C$DW$T$9       .dwtag  DW_TAG_base_type
    1901                            .dwattr $C$DW$T$9, DW_AT_encoding(DW_ATE_unsigned)
    1902                            .dwattr $C$DW$T$9, DW_AT_name("unsigned short")
    1903                            .dwattr $C$DW$T$9, DW_AT_byte_size(0x02)
    1904                    
    1905                    $C$DW$T$37      .dwtag  DW_TAG_typedef
    1906                            .dwattr $C$DW$T$37, DW_AT_name("uint16_t")
    1907                            .dwattr $C$DW$T$37, DW_AT_type(*$C$DW$T$9)
    1908                            .dwattr $C$DW$T$37, DW_AT_language(DW_LANG_C)
    1909                            .dwattr $C$DW$T$37, DW_AT_decl_file("C:/ti/ccsv7/tools/compiler/ti-cgt-arm_16.9.4.LTS/include/
    1910                            .dwattr $C$DW$T$37, DW_AT_decl_line(0x2d)
    1911                            .dwattr $C$DW$T$37, DW_AT_decl_column(0x1c)
    1912                    
    1913                    $C$DW$T$38      .dwtag  DW_TAG_pointer_type
    1914                            .dwattr $C$DW$T$38, DW_AT_type(*$C$DW$T$37)
    1915                            .dwattr $C$DW$T$38, DW_AT_address_class(0x20)
    1916                    
    1917                    $C$DW$T$175     .dwtag  DW_TAG_typedef
    1918                            .dwattr $C$DW$T$175, DW_AT_name("uint_least16_t")
    1919                            .dwattr $C$DW$T$175, DW_AT_type(*$C$DW$T$37)
    1920                            .dwattr $C$DW$T$175, DW_AT_language(DW_LANG_C)
    1921                            .dwattr $C$DW$T$175, DW_AT_decl_file("C:/ti/ccsv7/tools/compiler/ti-cgt-arm_16.9.4.LTS/include
    1922                            .dwattr $C$DW$T$175, DW_AT_decl_line(0x3b)
    1923                            .dwattr $C$DW$T$175, DW_AT_decl_column(0x16)
    1924                    
    1925                    $C$DW$T$176     .dwtag  DW_TAG_typedef
TI ARM Assembler PC v16.9.4 Sat Nov 18 18:46:29 2017

Tools Copyright (c) 1996-2017 Texas Instruments Incorporated
C:\Users\Kevin\AppData\Local\Temp\{5E948145-182F-435E-8CCA-E077E24C2FF9} PAGE   36

    1926                            .dwattr $C$DW$T$176, DW_AT_name("xdc_UInt16")
    1927                            .dwattr $C$DW$T$176, DW_AT_type(*$C$DW$T$175)
    1928                            .dwattr $C$DW$T$176, DW_AT_language(DW_LANG_C)
    1929                            .dwattr $C$DW$T$176, DW_AT_decl_file("C:/ti/simplelink_cc13x0_sdk_1_50_00_08/kernel/tirtos/pac
    1930                            .dwattr $C$DW$T$176, DW_AT_decl_line(0x6f)
    1931                            .dwattr $C$DW$T$176, DW_AT_decl_column(0x19)
    1932                    
    1933                    $C$DW$T$177     .dwtag  DW_TAG_typedef
    1934                            .dwattr $C$DW$T$177, DW_AT_name("UInt16")
    1935                            .dwattr $C$DW$T$177, DW_AT_type(*$C$DW$T$176)
    1936                            .dwattr $C$DW$T$177, DW_AT_language(DW_LANG_C)
    1937                            .dwattr $C$DW$T$177, DW_AT_decl_file("C:/ti/xdctools_3_50_03_33_core/packages/xdc/std.h")
    1938                            .dwattr $C$DW$T$177, DW_AT_decl_line(0xff)
    1939                            .dwattr $C$DW$T$177, DW_AT_decl_column(0x19)
    1940                    
    1941                    $C$DW$T$178     .dwtag  DW_TAG_typedef
    1942                            .dwattr $C$DW$T$178, DW_AT_name("Uint16")
    1943                            .dwattr $C$DW$T$178, DW_AT_type(*$C$DW$T$176)
    1944                            .dwattr $C$DW$T$178, DW_AT_language(DW_LANG_C)
    1945                            .dwattr $C$DW$T$178, DW_AT_decl_file("C:/ti/xdctools_3_50_03_33_core/packages/xdc/std.h")
    1946                            .dwattr $C$DW$T$178, DW_AT_decl_line(0x10c)
    1947                            .dwattr $C$DW$T$178, DW_AT_decl_column(0x19)
    1948                    
    1949                    $C$DW$T$179     .dwtag  DW_TAG_typedef
    1950                            .dwattr $C$DW$T$179, DW_AT_name("xdc_Bits16")
    1951                            .dwattr $C$DW$T$179, DW_AT_type(*$C$DW$T$37)
    1952                            .dwattr $C$DW$T$179, DW_AT_language(DW_LANG_C)
    1953                            .dwattr $C$DW$T$179, DW_AT_decl_file("C:/ti/simplelink_cc13x0_sdk_1_50_00_08/kernel/tirtos/pac
    1954                            .dwattr $C$DW$T$179, DW_AT_decl_line(0x8c)
    1955                            .dwattr $C$DW$T$179, DW_AT_decl_column(0x19)
    1956                    
    1957                    $C$DW$T$180     .dwtag  DW_TAG_typedef
    1958                            .dwattr $C$DW$T$180, DW_AT_name("Bits16")
    1959                            .dwattr $C$DW$T$180, DW_AT_type(*$C$DW$T$179)
    1960                            .dwattr $C$DW$T$180, DW_AT_language(DW_LANG_C)
    1961                            .dwattr $C$DW$T$180, DW_AT_decl_file("C:/ti/xdctools_3_50_03_33_core/packages/xdc/std.h")
    1962                            .dwattr $C$DW$T$180, DW_AT_decl_line(0x123)
    1963                            .dwattr $C$DW$T$180, DW_AT_decl_column(0x19)
    1964                    
    1965                    $C$DW$T$181     .dwtag  DW_TAG_typedef
    1966                            .dwattr $C$DW$T$181, DW_AT_name("wchar_t")
    1967                            .dwattr $C$DW$T$181, DW_AT_type(*$C$DW$T$9)
    1968                            .dwattr $C$DW$T$181, DW_AT_language(DW_LANG_C)
    1969                            .dwattr $C$DW$T$181, DW_AT_decl_file("C:/ti/ccsv7/tools/compiler/ti-cgt-arm_16.9.4.LTS/include
    1970                            .dwattr $C$DW$T$181, DW_AT_decl_line(0x41)
    1971                            .dwattr $C$DW$T$181, DW_AT_decl_column(0x1a)
    1972                    
    1973                    $C$DW$T$182     .dwtag  DW_TAG_typedef
    1974                            .dwattr $C$DW$T$182, DW_AT_name("xdc_Bool")
    1975                            .dwattr $C$DW$T$182, DW_AT_type(*$C$DW$T$9)
    1976                            .dwattr $C$DW$T$182, DW_AT_language(DW_LANG_C)
    1977                            .dwattr $C$DW$T$182, DW_AT_decl_file("C:/ti/xdctools_3_50_03_33_core/packages/xdc/std.h")
    1978                            .dwattr $C$DW$T$182, DW_AT_decl_line(0x2d)
    1979                            .dwattr $C$DW$T$182, DW_AT_decl_column(0x19)
    1980                    
TI ARM Assembler PC v16.9.4 Sat Nov 18 18:46:29 2017

Tools Copyright (c) 1996-2017 Texas Instruments Incorporated
C:\Users\Kevin\AppData\Local\Temp\{5E948145-182F-435E-8CCA-E077E24C2FF9} PAGE   37

    1981                    $C$DW$T$183     .dwtag  DW_TAG_typedef
    1982                            .dwattr $C$DW$T$183, DW_AT_name("Bool")
    1983                            .dwattr $C$DW$T$183, DW_AT_type(*$C$DW$T$182)
    1984                            .dwattr $C$DW$T$183, DW_AT_language(DW_LANG_C)
    1985                            .dwattr $C$DW$T$183, DW_AT_decl_file("C:/ti/xdctools_3_50_03_33_core/packages/xdc/std.h")
    1986                            .dwattr $C$DW$T$183, DW_AT_decl_line(0xf2)
    1987                            .dwattr $C$DW$T$183, DW_AT_decl_column(0x19)
    1988                    
    1989                    $C$DW$T$184     .dwtag  DW_TAG_typedef
    1990                            .dwattr $C$DW$T$184, DW_AT_name("xdc_UShort")
    1991                            .dwattr $C$DW$T$184, DW_AT_type(*$C$DW$T$9)
    1992                            .dwattr $C$DW$T$184, DW_AT_language(DW_LANG_C)
    1993                            .dwattr $C$DW$T$184, DW_AT_decl_file("C:/ti/xdctools_3_50_03_33_core/packages/xdc/std.h")
    1994                            .dwattr $C$DW$T$184, DW_AT_decl_line(0x20)
    1995                            .dwattr $C$DW$T$184, DW_AT_decl_column(0x19)
    1996                    
    1997                    $C$DW$T$185     .dwtag  DW_TAG_typedef
    1998                            .dwattr $C$DW$T$185, DW_AT_name("UShort")
    1999                            .dwattr $C$DW$T$185, DW_AT_type(*$C$DW$T$184)
    2000                            .dwattr $C$DW$T$185, DW_AT_language(DW_LANG_C)
    2001                            .dwattr $C$DW$T$185, DW_AT_decl_file("C:/ti/xdctools_3_50_03_33_core/packages/xdc/std.h")
    2002                            .dwattr $C$DW$T$185, DW_AT_decl_line(0xe3)
    2003                            .dwattr $C$DW$T$185, DW_AT_decl_column(0x19)
    2004                    
    2005                    $C$DW$T$10      .dwtag  DW_TAG_base_type
    2006                            .dwattr $C$DW$T$10, DW_AT_encoding(DW_ATE_signed)
    2007                            .dwattr $C$DW$T$10, DW_AT_name("int")
    2008                            .dwattr $C$DW$T$10, DW_AT_byte_size(0x04)
    2009                    
    2010                    
    2011                    $C$DW$T$186     .dwtag  DW_TAG_subroutine_type
    2012                            .dwattr $C$DW$T$186, DW_AT_type(*$C$DW$T$10)
    2013                            .dwattr $C$DW$T$186, DW_AT_language(DW_LANG_C)
    2014                            .dwendtag $C$DW$T$186
    2015                    
    2016                    $C$DW$T$187     .dwtag  DW_TAG_pointer_type
    2017                            .dwattr $C$DW$T$187, DW_AT_type(*$C$DW$T$186)
    2018                            .dwattr $C$DW$T$187, DW_AT_address_class(0x20)
    2019                    
    2020                    $C$DW$T$188     .dwtag  DW_TAG_typedef
    2021                            .dwattr $C$DW$T$188, DW_AT_name("xdc_Fxn")
    2022                            .dwattr $C$DW$T$188, DW_AT_type(*$C$DW$T$187)
    2023                            .dwattr $C$DW$T$188, DW_AT_language(DW_LANG_C)
    2024                            .dwattr $C$DW$T$188, DW_AT_decl_file("C:/ti/xdctools_3_50_03_33_core/packages/xdc/std.h")
    2025                            .dwattr $C$DW$T$188, DW_AT_decl_line(0x47)
    2026                            .dwattr $C$DW$T$188, DW_AT_decl_column(0x1d)
    2027                    
    2028                    $C$DW$T$189     .dwtag  DW_TAG_typedef
    2029                            .dwattr $C$DW$T$189, DW_AT_name("Fxn")
    2030                            .dwattr $C$DW$T$189, DW_AT_type(*$C$DW$T$188)
    2031                            .dwattr $C$DW$T$189, DW_AT_language(DW_LANG_C)
    2032                            .dwattr $C$DW$T$189, DW_AT_decl_file("C:/ti/xdctools_3_50_03_33_core/packages/xdc/std.h")
    2033                            .dwattr $C$DW$T$189, DW_AT_decl_line(0xf6)
    2034                            .dwattr $C$DW$T$189, DW_AT_decl_column(0x19)
    2035                    
TI ARM Assembler PC v16.9.4 Sat Nov 18 18:46:29 2017

Tools Copyright (c) 1996-2017 Texas Instruments Incorporated
C:\Users\Kevin\AppData\Local\Temp\{5E948145-182F-435E-8CCA-E077E24C2FF9} PAGE   38

    2036                    $C$DW$T$89      .dwtag  DW_TAG_typedef
    2037                            .dwattr $C$DW$T$89, DW_AT_name("int32_t")
    2038                            .dwattr $C$DW$T$89, DW_AT_type(*$C$DW$T$10)
    2039                            .dwattr $C$DW$T$89, DW_AT_language(DW_LANG_C)
    2040                            .dwattr $C$DW$T$89, DW_AT_decl_file("C:/ti/ccsv7/tools/compiler/ti-cgt-arm_16.9.4.LTS/include/
    2041                            .dwattr $C$DW$T$89, DW_AT_decl_line(0x2e)
    2042                            .dwattr $C$DW$T$89, DW_AT_decl_column(0x1d)
    2043                    
    2044                    $C$DW$T$90      .dwtag  DW_TAG_typedef
    2045                            .dwattr $C$DW$T$90, DW_AT_name("int_fast16_t")
    2046                            .dwattr $C$DW$T$90, DW_AT_type(*$C$DW$T$89)
    2047                            .dwattr $C$DW$T$90, DW_AT_language(DW_LANG_C)
    2048                            .dwattr $C$DW$T$90, DW_AT_decl_file("C:/ti/ccsv7/tools/compiler/ti-cgt-arm_16.9.4.LTS/include/
    2049                            .dwattr $C$DW$T$90, DW_AT_decl_line(0x47)
    2050                            .dwattr $C$DW$T$90, DW_AT_decl_column(0x17)
    2051                    
    2052                    
    2053                    $C$DW$T$91      .dwtag  DW_TAG_subroutine_type
    2054                            .dwattr $C$DW$T$91, DW_AT_type(*$C$DW$T$90)
    2055                            .dwattr $C$DW$T$91, DW_AT_language(DW_LANG_C)
    2056                    $C$DW$126       .dwtag  DW_TAG_formal_parameter
    2057                            .dwattr $C$DW$126, DW_AT_type(*$C$DW$T$88)
    2058                    
    2059                    $C$DW$127       .dwtag  DW_TAG_formal_parameter
    2060                            .dwattr $C$DW$127, DW_AT_type(*$C$DW$T$68)
    2061                    
    2062                    $C$DW$128       .dwtag  DW_TAG_formal_parameter
    2063                            .dwattr $C$DW$128, DW_AT_type(*$C$DW$T$68)
    2064                    
    2065                            .dwendtag $C$DW$T$91
    2066                    
    2067                    $C$DW$T$92      .dwtag  DW_TAG_pointer_type
    2068                            .dwattr $C$DW$T$92, DW_AT_type(*$C$DW$T$91)
    2069                            .dwattr $C$DW$T$92, DW_AT_address_class(0x20)
    2070                    
    2071                    $C$DW$T$93      .dwtag  DW_TAG_typedef
    2072                            .dwattr $C$DW$T$93, DW_AT_name("Power_NotifyFxn")
    2073                            .dwattr $C$DW$T$93, DW_AT_type(*$C$DW$T$92)
    2074                            .dwattr $C$DW$T$93, DW_AT_language(DW_LANG_C)
    2075                            .dwattr $C$DW$T$93, DW_AT_decl_file("C:/ti/simplelink_cc13x0_sdk_1_50_00_08/source/ti/drivers/
    2076                            .dwattr $C$DW$T$93, DW_AT_decl_line(0x68)
    2077                            .dwattr $C$DW$T$93, DW_AT_decl_column(0x18)
    2078                    
    2079                    $C$DW$T$190     .dwtag  DW_TAG_typedef
    2080                            .dwattr $C$DW$T$190, DW_AT_name("int_fast32_t")
    2081                            .dwattr $C$DW$T$190, DW_AT_type(*$C$DW$T$89)
    2082                            .dwattr $C$DW$T$190, DW_AT_language(DW_LANG_C)
    2083                            .dwattr $C$DW$T$190, DW_AT_decl_file("C:/ti/ccsv7/tools/compiler/ti-cgt-arm_16.9.4.LTS/include
    2084                            .dwattr $C$DW$T$190, DW_AT_decl_line(0x4a)
    2085                            .dwattr $C$DW$T$190, DW_AT_decl_column(0x17)
    2086                    
    2087                    $C$DW$T$191     .dwtag  DW_TAG_typedef
    2088                            .dwattr $C$DW$T$191, DW_AT_name("int_fast8_t")
    2089                            .dwattr $C$DW$T$191, DW_AT_type(*$C$DW$T$89)
    2090                            .dwattr $C$DW$T$191, DW_AT_language(DW_LANG_C)
TI ARM Assembler PC v16.9.4 Sat Nov 18 18:46:29 2017

Tools Copyright (c) 1996-2017 Texas Instruments Incorporated
C:\Users\Kevin\AppData\Local\Temp\{5E948145-182F-435E-8CCA-E077E24C2FF9} PAGE   39

    2091                            .dwattr $C$DW$T$191, DW_AT_decl_file("C:/ti/ccsv7/tools/compiler/ti-cgt-arm_16.9.4.LTS/include
    2092                            .dwattr $C$DW$T$191, DW_AT_decl_line(0x45)
    2093                            .dwattr $C$DW$T$191, DW_AT_decl_column(0x17)
    2094                    
    2095                    $C$DW$T$192     .dwtag  DW_TAG_typedef
    2096                            .dwattr $C$DW$T$192, DW_AT_name("int_least32_t")
    2097                            .dwattr $C$DW$T$192, DW_AT_type(*$C$DW$T$89)
    2098                            .dwattr $C$DW$T$192, DW_AT_language(DW_LANG_C)
    2099                            .dwattr $C$DW$T$192, DW_AT_decl_file("C:/ti/ccsv7/tools/compiler/ti-cgt-arm_16.9.4.LTS/include
    2100                            .dwattr $C$DW$T$192, DW_AT_decl_line(0x3c)
    2101                            .dwattr $C$DW$T$192, DW_AT_decl_column(0x17)
    2102                    
    2103                    $C$DW$T$193     .dwtag  DW_TAG_typedef
    2104                            .dwattr $C$DW$T$193, DW_AT_name("xdc_Int32")
    2105                            .dwattr $C$DW$T$193, DW_AT_type(*$C$DW$T$192)
    2106                            .dwattr $C$DW$T$193, DW_AT_language(DW_LANG_C)
    2107                            .dwattr $C$DW$T$193, DW_AT_decl_file("C:/ti/simplelink_cc13x0_sdk_1_50_00_08/kernel/tirtos/pac
    2108                            .dwattr $C$DW$T$193, DW_AT_decl_line(0x70)
    2109                            .dwattr $C$DW$T$193, DW_AT_decl_column(0x19)
    2110                    
    2111                    $C$DW$T$194     .dwtag  DW_TAG_typedef
    2112                            .dwattr $C$DW$T$194, DW_AT_name("Int32")
    2113                            .dwattr $C$DW$T$194, DW_AT_type(*$C$DW$T$193)
    2114                            .dwattr $C$DW$T$194, DW_AT_language(DW_LANG_C)
    2115                            .dwattr $C$DW$T$194, DW_AT_decl_file("C:/ti/xdctools_3_50_03_33_core/packages/xdc/std.h")
    2116                            .dwattr $C$DW$T$194, DW_AT_decl_line(0xf5)
    2117                            .dwattr $C$DW$T$194, DW_AT_decl_column(0x19)
    2118                    
    2119                    $C$DW$T$62      .dwtag  DW_TAG_typedef
    2120                            .dwattr $C$DW$T$62, DW_AT_name("intptr_t")
    2121                            .dwattr $C$DW$T$62, DW_AT_type(*$C$DW$T$10)
    2122                            .dwattr $C$DW$T$62, DW_AT_language(DW_LANG_C)
    2123                            .dwattr $C$DW$T$62, DW_AT_decl_file("C:/ti/ccsv7/tools/compiler/ti-cgt-arm_16.9.4.LTS/include/
    2124                            .dwattr $C$DW$T$62, DW_AT_decl_line(0x52)
    2125                            .dwattr $C$DW$T$62, DW_AT_decl_column(0x1a)
    2126                    
    2127                    $C$DW$T$63      .dwtag  DW_TAG_typedef
    2128                            .dwattr $C$DW$T$63, DW_AT_name("xdc_IArg")
    2129                            .dwattr $C$DW$T$63, DW_AT_type(*$C$DW$T$62)
    2130                            .dwattr $C$DW$T$63, DW_AT_language(DW_LANG_C)
    2131                            .dwattr $C$DW$T$63, DW_AT_decl_file("C:/ti/simplelink_cc13x0_sdk_1_50_00_08/kernel/tirtos/pack
    2132                            .dwattr $C$DW$T$63, DW_AT_decl_line(0x98)
    2133                            .dwattr $C$DW$T$63, DW_AT_decl_column(0x19)
    2134                    
    2135                    $C$DW$T$195     .dwtag  DW_TAG_typedef
    2136                            .dwattr $C$DW$T$195, DW_AT_name("IArg")
    2137                            .dwattr $C$DW$T$195, DW_AT_type(*$C$DW$T$63)
    2138                            .dwattr $C$DW$T$195, DW_AT_language(DW_LANG_C)
    2139                            .dwattr $C$DW$T$195, DW_AT_decl_file("C:/ti/xdctools_3_50_03_33_core/packages/xdc/std.h")
    2140                            .dwattr $C$DW$T$195, DW_AT_decl_line(0xf0)
    2141                            .dwattr $C$DW$T$195, DW_AT_decl_column(0x19)
    2142                    
    2143                    $C$DW$T$196     .dwtag  DW_TAG_typedef
    2144                            .dwattr $C$DW$T$196, DW_AT_name("ptrdiff_t")
    2145                            .dwattr $C$DW$T$196, DW_AT_type(*$C$DW$T$10)
TI ARM Assembler PC v16.9.4 Sat Nov 18 18:46:29 2017

Tools Copyright (c) 1996-2017 Texas Instruments Incorporated
C:\Users\Kevin\AppData\Local\Temp\{5E948145-182F-435E-8CCA-E077E24C2FF9} PAGE   40

    2146                            .dwattr $C$DW$T$196, DW_AT_language(DW_LANG_C)
    2147                            .dwattr $C$DW$T$196, DW_AT_decl_file("C:/ti/ccsv7/tools/compiler/ti-cgt-arm_16.9.4.LTS/include
    2148                            .dwattr $C$DW$T$196, DW_AT_decl_line(0x36)
    2149                            .dwattr $C$DW$T$196, DW_AT_decl_column(0x1c)
    2150                    
    2151                    $C$DW$T$197     .dwtag  DW_TAG_typedef
    2152                            .dwattr $C$DW$T$197, DW_AT_name("xdc_Int")
    2153                            .dwattr $C$DW$T$197, DW_AT_type(*$C$DW$T$10)
    2154                            .dwattr $C$DW$T$197, DW_AT_language(DW_LANG_C)
    2155                            .dwattr $C$DW$T$197, DW_AT_decl_file("C:/ti/xdctools_3_50_03_33_core/packages/xdc/std.h")
    2156                            .dwattr $C$DW$T$197, DW_AT_decl_line(0x21)
    2157                            .dwattr $C$DW$T$197, DW_AT_decl_column(0x19)
    2158                    
    2159                    $C$DW$T$198     .dwtag  DW_TAG_typedef
    2160                            .dwattr $C$DW$T$198, DW_AT_name("Int")
    2161                            .dwattr $C$DW$T$198, DW_AT_type(*$C$DW$T$197)
    2162                            .dwattr $C$DW$T$198, DW_AT_language(DW_LANG_C)
    2163                            .dwattr $C$DW$T$198, DW_AT_decl_file("C:/ti/xdctools_3_50_03_33_core/packages/xdc/std.h")
    2164                            .dwattr $C$DW$T$198, DW_AT_decl_line(0xe4)
    2165                            .dwattr $C$DW$T$198, DW_AT_decl_column(0x19)
    2166                    
    2167                    $C$DW$T$11      .dwtag  DW_TAG_base_type
    2168                            .dwattr $C$DW$T$11, DW_AT_encoding(DW_ATE_unsigned)
    2169                            .dwattr $C$DW$T$11, DW_AT_name("unsigned int")
    2170                            .dwattr $C$DW$T$11, DW_AT_byte_size(0x04)
    2171                    
    2172                    $C$DW$T$199     .dwtag  DW_TAG_typedef
    2173                            .dwattr $C$DW$T$199, DW_AT_name("__UINT32")
    2174                            .dwattr $C$DW$T$199, DW_AT_type(*$C$DW$T$11)
    2175                            .dwattr $C$DW$T$199, DW_AT_language(DW_LANG_C)
    2176                            .dwattr $C$DW$T$199, DW_AT_decl_file("C:\ti\simplelink_cc13x0_sdk_1_50_00_08\source\ti\devices
    2177                            .dwattr $C$DW$T$199, DW_AT_decl_line(0x45)
    2178                            .dwattr $C$DW$T$199, DW_AT_decl_column(0x17)
    2179                    
    2180                    
    2181                    $C$DW$T$66      .dwtag  DW_TAG_array_type
    2182                            .dwattr $C$DW$T$66, DW_AT_type(*$C$DW$T$11)
    2183                            .dwattr $C$DW$T$66, DW_AT_language(DW_LANG_C)
    2184                            .dwattr $C$DW$T$66, DW_AT_byte_size(0x10)
    2185                    $C$DW$129       .dwtag  DW_TAG_subrange_type
    2186                            .dwattr $C$DW$129, DW_AT_upper_bound(0x03)
    2187                    
    2188                            .dwendtag $C$DW$T$66
    2189                    
    2190                    $C$DW$T$203     .dwtag  DW_TAG_typedef
    2191                            .dwattr $C$DW$T$203, DW_AT_name("size_t")
    2192                            .dwattr $C$DW$T$203, DW_AT_type(*$C$DW$T$11)
    2193                            .dwattr $C$DW$T$203, DW_AT_language(DW_LANG_C)
    2194                            .dwattr $C$DW$T$203, DW_AT_decl_file("C:/ti/ccsv7/tools/compiler/ti-cgt-arm_16.9.4.LTS/include
    2195                            .dwattr $C$DW$T$203, DW_AT_decl_line(0x3a)
    2196                            .dwattr $C$DW$T$203, DW_AT_decl_column(0x19)
    2197                    
    2198                    $C$DW$T$204     .dwtag  DW_TAG_typedef
    2199                            .dwattr $C$DW$T$204, DW_AT_name("xdc_SizeT")
    2200                            .dwattr $C$DW$T$204, DW_AT_type(*$C$DW$T$203)
TI ARM Assembler PC v16.9.4 Sat Nov 18 18:46:29 2017

Tools Copyright (c) 1996-2017 Texas Instruments Incorporated
C:\Users\Kevin\AppData\Local\Temp\{5E948145-182F-435E-8CCA-E077E24C2FF9} PAGE   41

    2201                            .dwattr $C$DW$T$204, DW_AT_language(DW_LANG_C)
    2202                            .dwattr $C$DW$T$204, DW_AT_decl_file("C:/ti/xdctools_3_50_03_33_core/packages/xdc/std.h")
    2203                            .dwattr $C$DW$T$204, DW_AT_decl_line(0x28)
    2204                            .dwattr $C$DW$T$204, DW_AT_decl_column(0x19)
    2205                    
    2206                    $C$DW$T$205     .dwtag  DW_TAG_typedef
    2207                            .dwattr $C$DW$T$205, DW_AT_name("SizeT")
    2208                            .dwattr $C$DW$T$205, DW_AT_type(*$C$DW$T$204)
    2209                            .dwattr $C$DW$T$205, DW_AT_language(DW_LANG_C)
    2210                            .dwattr $C$DW$T$205, DW_AT_decl_file("C:/ti/xdctools_3_50_03_33_core/packages/xdc/std.h")
    2211                            .dwattr $C$DW$T$205, DW_AT_decl_line(0xed)
    2212                            .dwattr $C$DW$T$205, DW_AT_decl_column(0x19)
    2213                    
    2214                    $C$DW$T$19      .dwtag  DW_TAG_typedef
    2215                            .dwattr $C$DW$T$19, DW_AT_name("uint32_t")
    2216                            .dwattr $C$DW$T$19, DW_AT_type(*$C$DW$T$11)
    2217                            .dwattr $C$DW$T$19, DW_AT_language(DW_LANG_C)
    2218                            .dwattr $C$DW$T$19, DW_AT_decl_file("C:/ti/ccsv7/tools/compiler/ti-cgt-arm_16.9.4.LTS/include/
    2219                            .dwattr $C$DW$T$19, DW_AT_decl_line(0x2f)
    2220                            .dwattr $C$DW$T$19, DW_AT_decl_column(0x1c)
    2221                    
    2222                    $C$DW$T$135     .dwtag  DW_TAG_typedef
    2223                            .dwattr $C$DW$T$135, DW_AT_name("PIN_Config")
    2224                            .dwattr $C$DW$T$135, DW_AT_type(*$C$DW$T$19)
    2225                            .dwattr $C$DW$T$135, DW_AT_language(DW_LANG_C)
    2226                            .dwattr $C$DW$T$135, DW_AT_decl_file("C:/ti/simplelink_cc13x0_sdk_1_50_00_08/source/ti/drivers
    2227                            .dwattr $C$DW$T$135, DW_AT_decl_line(0x23a)
    2228                            .dwattr $C$DW$T$135, DW_AT_decl_column(0x12)
    2229                    
    2230                    $C$DW$T$136     .dwtag  DW_TAG_const_type
    2231                            .dwattr $C$DW$T$136, DW_AT_type(*$C$DW$T$135)
    2232                    
    2233                    $C$DW$T$137     .dwtag  DW_TAG_pointer_type
    2234                            .dwattr $C$DW$T$137, DW_AT_type(*$C$DW$T$136)
    2235                            .dwattr $C$DW$T$137, DW_AT_address_class(0x20)
    2236                    
    2237                    
    2238                    $C$DW$T$206     .dwtag  DW_TAG_array_type
    2239                            .dwattr $C$DW$T$206, DW_AT_type(*$C$DW$T$135)
    2240                            .dwattr $C$DW$T$206, DW_AT_language(DW_LANG_C)
    2241                            .dwattr $C$DW$T$206, DW_AT_byte_size(0x10)
    2242                    $C$DW$130       .dwtag  DW_TAG_subrange_type
    2243                            .dwattr $C$DW$130, DW_AT_upper_bound(0x03)
    2244                    
    2245                            .dwendtag $C$DW$T$206
    2246                    
    2247                    
    2248                    $C$DW$T$22      .dwtag  DW_TAG_subroutine_type
    2249                            .dwattr $C$DW$T$22, DW_AT_type(*$C$DW$T$19)
    2250                            .dwattr $C$DW$T$22, DW_AT_language(DW_LANG_C)
    2251                    $C$DW$131       .dwtag  DW_TAG_formal_parameter
    2252                            .dwattr $C$DW$131, DW_AT_type(*$C$DW$T$21)
    2253                    
    2254                    $C$DW$132       .dwtag  DW_TAG_formal_parameter
    2255                            .dwattr $C$DW$132, DW_AT_type(*$C$DW$T$19)
TI ARM Assembler PC v16.9.4 Sat Nov 18 18:46:29 2017

Tools Copyright (c) 1996-2017 Texas Instruments Incorporated
C:\Users\Kevin\AppData\Local\Temp\{5E948145-182F-435E-8CCA-E077E24C2FF9} PAGE   42

    2256                    
    2257                    $C$DW$133       .dwtag  DW_TAG_formal_parameter
    2258                            .dwattr $C$DW$133, DW_AT_type(*$C$DW$T$19)
    2259                    
    2260                            .dwendtag $C$DW$T$22
    2261                    
    2262                    $C$DW$T$23      .dwtag  DW_TAG_pointer_type
    2263                            .dwattr $C$DW$T$23, DW_AT_type(*$C$DW$T$22)
    2264                            .dwattr $C$DW$T$23, DW_AT_address_class(0x20)
    2265                    
    2266                    $C$DW$T$24      .dwtag  DW_TAG_typedef
    2267                            .dwattr $C$DW$T$24, DW_AT_name("FPTR_CRC32_T")
    2268                            .dwattr $C$DW$T$24, DW_AT_type(*$C$DW$T$23)
    2269                            .dwattr $C$DW$T$24, DW_AT_language(DW_LANG_C)
    2270                            .dwattr $C$DW$T$24, DW_AT_decl_file("C:\ti\simplelink_cc13x0_sdk_1_50_00_08\source\ti\devices\
    2271                            .dwattr $C$DW$T$24, DW_AT_decl_line(0x3e)
    2272                            .dwattr $C$DW$T$24, DW_AT_decl_column(0x19)
    2273                    
    2274                    $C$DW$T$33      .dwtag  DW_TAG_typedef
    2275                            .dwattr $C$DW$T$33, DW_AT_name("FPTR_RESERVED3_T")
    2276                            .dwattr $C$DW$T$33, DW_AT_type(*$C$DW$T$23)
    2277                            .dwattr $C$DW$T$33, DW_AT_language(DW_LANG_C)
    2278                            .dwattr $C$DW$T$33, DW_AT_decl_file("C:\ti\simplelink_cc13x0_sdk_1_50_00_08\source\ti\devices\
    2279                            .dwattr $C$DW$T$33, DW_AT_decl_line(0x4a)
    2280                            .dwattr $C$DW$T$33, DW_AT_decl_column(0x19)
    2281                    
    2282                    
    2283                    $C$DW$T$25      .dwtag  DW_TAG_subroutine_type
    2284                            .dwattr $C$DW$T$25, DW_AT_type(*$C$DW$T$19)
    2285                            .dwattr $C$DW$T$25, DW_AT_language(DW_LANG_C)
    2286                            .dwendtag $C$DW$T$25
    2287                    
    2288                    $C$DW$T$26      .dwtag  DW_TAG_pointer_type
    2289                            .dwattr $C$DW$T$26, DW_AT_type(*$C$DW$T$25)
    2290                            .dwattr $C$DW$T$26, DW_AT_address_class(0x20)
    2291                    
    2292                    $C$DW$T$28      .dwtag  DW_TAG_typedef
    2293                            .dwattr $C$DW$T$28, DW_AT_name("FPTR_GETCHIPID_T")
    2294                            .dwattr $C$DW$T$28, DW_AT_type(*$C$DW$T$26)
    2295                            .dwattr $C$DW$T$28, DW_AT_language(DW_LANG_C)
    2296                            .dwattr $C$DW$T$28, DW_AT_decl_file("C:\ti\simplelink_cc13x0_sdk_1_50_00_08\source\ti\devices\
    2297                            .dwattr $C$DW$T$28, DW_AT_decl_line(0x44)
    2298                            .dwattr $C$DW$T$28, DW_AT_decl_column(0x19)
    2299                    
    2300                    $C$DW$T$27      .dwtag  DW_TAG_typedef
    2301                            .dwattr $C$DW$T$27, DW_AT_name("FPTR_GETFLSIZE_T")
    2302                            .dwattr $C$DW$T$27, DW_AT_type(*$C$DW$T$26)
    2303                            .dwattr $C$DW$T$27, DW_AT_language(DW_LANG_C)
    2304                            .dwattr $C$DW$T$27, DW_AT_decl_file("C:\ti\simplelink_cc13x0_sdk_1_50_00_08\source\ti\devices\
    2305                            .dwattr $C$DW$T$27, DW_AT_decl_line(0x42)
    2306                            .dwattr $C$DW$T$27, DW_AT_decl_column(0x19)
    2307                    
    2308                    $C$DW$T$32      .dwtag  DW_TAG_typedef
    2309                            .dwattr $C$DW$T$32, DW_AT_name("FPTR_RESERVED2_T")
    2310                            .dwattr $C$DW$T$32, DW_AT_type(*$C$DW$T$26)
TI ARM Assembler PC v16.9.4 Sat Nov 18 18:46:29 2017

Tools Copyright (c) 1996-2017 Texas Instruments Incorporated
C:\Users\Kevin\AppData\Local\Temp\{5E948145-182F-435E-8CCA-E077E24C2FF9} PAGE   43

    2311                            .dwattr $C$DW$T$32, DW_AT_language(DW_LANG_C)
    2312                            .dwattr $C$DW$T$32, DW_AT_decl_file("C:\ti\simplelink_cc13x0_sdk_1_50_00_08\source\ti\devices\
    2313                            .dwattr $C$DW$T$32, DW_AT_decl_line(0x48)
    2314                            .dwattr $C$DW$T$32, DW_AT_decl_column(0x19)
    2315                    
    2316                    
    2317                    $C$DW$T$29      .dwtag  DW_TAG_subroutine_type
    2318                            .dwattr $C$DW$T$29, DW_AT_type(*$C$DW$T$19)
    2319                            .dwattr $C$DW$T$29, DW_AT_language(DW_LANG_C)
    2320                    $C$DW$134       .dwtag  DW_TAG_formal_parameter
    2321                            .dwattr $C$DW$134, DW_AT_type(*$C$DW$T$19)
    2322                    
    2323                            .dwendtag $C$DW$T$29
    2324                    
    2325                    $C$DW$T$30      .dwtag  DW_TAG_pointer_type
    2326                            .dwattr $C$DW$T$30, DW_AT_type(*$C$DW$T$29)
    2327                            .dwattr $C$DW$T$30, DW_AT_address_class(0x20)
    2328                    
    2329                    $C$DW$T$31      .dwtag  DW_TAG_typedef
    2330                            .dwattr $C$DW$T$31, DW_AT_name("FPTR_RESERVED1_T")
    2331                            .dwattr $C$DW$T$31, DW_AT_type(*$C$DW$T$30)
    2332                            .dwattr $C$DW$T$31, DW_AT_language(DW_LANG_C)
    2333                            .dwattr $C$DW$T$31, DW_AT_decl_file("C:\ti\simplelink_cc13x0_sdk_1_50_00_08\source\ti\devices\
    2334                            .dwattr $C$DW$T$31, DW_AT_decl_line(0x46)
    2335                            .dwattr $C$DW$T$31, DW_AT_decl_column(0x19)
    2336                    
    2337                    
    2338                    $C$DW$T$39      .dwtag  DW_TAG_subroutine_type
    2339                            .dwattr $C$DW$T$39, DW_AT_type(*$C$DW$T$19)
    2340                            .dwattr $C$DW$T$39, DW_AT_language(DW_LANG_C)
    2341                    $C$DW$135       .dwtag  DW_TAG_formal_parameter
    2342                            .dwattr $C$DW$135, DW_AT_type(*$C$DW$T$38)
    2343                    
    2344                    $C$DW$136       .dwtag  DW_TAG_formal_parameter
    2345                            .dwattr $C$DW$136, DW_AT_type(*$C$DW$T$37)
    2346                    
    2347                    $C$DW$137       .dwtag  DW_TAG_formal_parameter
    2348                            .dwattr $C$DW$137, DW_AT_type(*$C$DW$T$37)
    2349                    
    2350                            .dwendtag $C$DW$T$39
    2351                    
    2352                    $C$DW$T$40      .dwtag  DW_TAG_pointer_type
    2353                            .dwattr $C$DW$T$40, DW_AT_type(*$C$DW$T$39)
    2354                            .dwattr $C$DW$T$40, DW_AT_address_class(0x20)
    2355                    
    2356                    $C$DW$T$41      .dwtag  DW_TAG_typedef
    2357                            .dwattr $C$DW$T$41, DW_AT_name("FPTR_FLETCHER32_T")
    2358                            .dwattr $C$DW$T$41, DW_AT_type(*$C$DW$T$40)
    2359                            .dwattr $C$DW$T$41, DW_AT_language(DW_LANG_C)
    2360                            .dwattr $C$DW$T$41, DW_AT_decl_file("C:\ti\simplelink_cc13x0_sdk_1_50_00_08\source\ti\devices\
    2361                            .dwattr $C$DW$T$41, DW_AT_decl_line(0x4f)
    2362                            .dwattr $C$DW$T$41, DW_AT_decl_column(0x19)
    2363                    
    2364                    $C$DW$T$42      .dwtag  DW_TAG_pointer_type
    2365                            .dwattr $C$DW$T$42, DW_AT_type(*$C$DW$T$19)
TI ARM Assembler PC v16.9.4 Sat Nov 18 18:46:29 2017

Tools Copyright (c) 1996-2017 Texas Instruments Incorporated
C:\Users\Kevin\AppData\Local\Temp\{5E948145-182F-435E-8CCA-E077E24C2FF9} PAGE   44

    2366                            .dwattr $C$DW$T$42, DW_AT_address_class(0x20)
    2367                    
    2368                    
    2369                    $C$DW$T$43      .dwtag  DW_TAG_subroutine_type
    2370                            .dwattr $C$DW$T$43, DW_AT_type(*$C$DW$T$19)
    2371                            .dwattr $C$DW$T$43, DW_AT_language(DW_LANG_C)
    2372                    $C$DW$138       .dwtag  DW_TAG_formal_parameter
    2373                            .dwattr $C$DW$138, DW_AT_type(*$C$DW$T$42)
    2374                    
    2375                    $C$DW$139       .dwtag  DW_TAG_formal_parameter
    2376                            .dwattr $C$DW$139, DW_AT_type(*$C$DW$T$19)
    2377                    
    2378                            .dwendtag $C$DW$T$43
    2379                    
    2380                    $C$DW$T$44      .dwtag  DW_TAG_pointer_type
    2381                            .dwattr $C$DW$T$44, DW_AT_type(*$C$DW$T$43)
    2382                            .dwattr $C$DW$T$44, DW_AT_address_class(0x20)
    2383                    
    2384                    $C$DW$T$46      .dwtag  DW_TAG_typedef
    2385                            .dwattr $C$DW$T$46, DW_AT_name("FPTR_MAXVAL_T")
    2386                            .dwattr $C$DW$T$46, DW_AT_type(*$C$DW$T$44)
    2387                            .dwattr $C$DW$T$46, DW_AT_language(DW_LANG_C)
    2388                            .dwattr $C$DW$T$46, DW_AT_decl_file("C:\ti\simplelink_cc13x0_sdk_1_50_00_08\source\ti\devices\
    2389                            .dwattr $C$DW$T$46, DW_AT_decl_line(0x56)
    2390                            .dwattr $C$DW$T$46, DW_AT_decl_column(0x19)
    2391                    
    2392                    $C$DW$T$47      .dwtag  DW_TAG_typedef
    2393                            .dwattr $C$DW$T$47, DW_AT_name("FPTR_MEANVAL_T")
    2394                            .dwattr $C$DW$T$47, DW_AT_type(*$C$DW$T$44)
    2395                            .dwattr $C$DW$T$47, DW_AT_language(DW_LANG_C)
    2396                            .dwattr $C$DW$T$47, DW_AT_decl_file("C:\ti\simplelink_cc13x0_sdk_1_50_00_08\source\ti\devices\
    2397                            .dwattr $C$DW$T$47, DW_AT_decl_line(0x59)
    2398                            .dwattr $C$DW$T$47, DW_AT_decl_column(0x19)
    2399                    
    2400                    $C$DW$T$45      .dwtag  DW_TAG_typedef
    2401                            .dwattr $C$DW$T$45, DW_AT_name("FPTR_MINVAL_T")
    2402                            .dwattr $C$DW$T$45, DW_AT_type(*$C$DW$T$44)
    2403                            .dwattr $C$DW$T$45, DW_AT_language(DW_LANG_C)
    2404                            .dwattr $C$DW$T$45, DW_AT_decl_file("C:\ti\simplelink_cc13x0_sdk_1_50_00_08\source\ti\devices\
    2405                            .dwattr $C$DW$T$45, DW_AT_decl_line(0x53)
    2406                            .dwattr $C$DW$T$45, DW_AT_decl_column(0x19)
    2407                    
    2408                    $C$DW$T$48      .dwtag  DW_TAG_typedef
    2409                            .dwattr $C$DW$T$48, DW_AT_name("FPTR_STDDVAL_T")
    2410                            .dwattr $C$DW$T$48, DW_AT_type(*$C$DW$T$44)
    2411                            .dwattr $C$DW$T$48, DW_AT_language(DW_LANG_C)
    2412                            .dwattr $C$DW$T$48, DW_AT_decl_file("C:\ti\simplelink_cc13x0_sdk_1_50_00_08\source\ti\devices\
    2413                            .dwattr $C$DW$T$48, DW_AT_decl_line(0x5c)
    2414                            .dwattr $C$DW$T$48, DW_AT_decl_column(0x19)
    2415                    
    2416                    $C$DW$T$207     .dwtag  DW_TAG_const_type
    2417                            .dwattr $C$DW$T$207, DW_AT_type(*$C$DW$T$19)
    2418                    
    2419                    $C$DW$T$88      .dwtag  DW_TAG_typedef
    2420                            .dwattr $C$DW$T$88, DW_AT_name("uint_fast16_t")
TI ARM Assembler PC v16.9.4 Sat Nov 18 18:46:29 2017

Tools Copyright (c) 1996-2017 Texas Instruments Incorporated
C:\Users\Kevin\AppData\Local\Temp\{5E948145-182F-435E-8CCA-E077E24C2FF9} PAGE   45

    2421                            .dwattr $C$DW$T$88, DW_AT_type(*$C$DW$T$19)
    2422                            .dwattr $C$DW$T$88, DW_AT_language(DW_LANG_C)
    2423                            .dwattr $C$DW$T$88, DW_AT_decl_file("C:/ti/ccsv7/tools/compiler/ti-cgt-arm_16.9.4.LTS/include/
    2424                            .dwattr $C$DW$T$88, DW_AT_decl_line(0x48)
    2425                            .dwattr $C$DW$T$88, DW_AT_decl_column(0x16)
    2426                    
    2427                    $C$DW$T$208     .dwtag  DW_TAG_typedef
    2428                            .dwattr $C$DW$T$208, DW_AT_name("uint_fast32_t")
    2429                            .dwattr $C$DW$T$208, DW_AT_type(*$C$DW$T$19)
    2430                            .dwattr $C$DW$T$208, DW_AT_language(DW_LANG_C)
    2431                            .dwattr $C$DW$T$208, DW_AT_decl_file("C:/ti/ccsv7/tools/compiler/ti-cgt-arm_16.9.4.LTS/include
    2432                            .dwattr $C$DW$T$208, DW_AT_decl_line(0x4b)
    2433                            .dwattr $C$DW$T$208, DW_AT_decl_column(0x16)
    2434                    
    2435                    $C$DW$T$209     .dwtag  DW_TAG_typedef
    2436                            .dwattr $C$DW$T$209, DW_AT_name("uint_fast8_t")
    2437                            .dwattr $C$DW$T$209, DW_AT_type(*$C$DW$T$19)
    2438                            .dwattr $C$DW$T$209, DW_AT_language(DW_LANG_C)
    2439                            .dwattr $C$DW$T$209, DW_AT_decl_file("C:/ti/ccsv7/tools/compiler/ti-cgt-arm_16.9.4.LTS/include
    2440                            .dwattr $C$DW$T$209, DW_AT_decl_line(0x46)
    2441                            .dwattr $C$DW$T$209, DW_AT_decl_column(0x16)
    2442                    
    2443                    $C$DW$T$210     .dwtag  DW_TAG_typedef
    2444                            .dwattr $C$DW$T$210, DW_AT_name("uint_least32_t")
    2445                            .dwattr $C$DW$T$210, DW_AT_type(*$C$DW$T$19)
    2446                            .dwattr $C$DW$T$210, DW_AT_language(DW_LANG_C)
    2447                            .dwattr $C$DW$T$210, DW_AT_decl_file("C:/ti/ccsv7/tools/compiler/ti-cgt-arm_16.9.4.LTS/include
    2448                            .dwattr $C$DW$T$210, DW_AT_decl_line(0x3d)
    2449                            .dwattr $C$DW$T$210, DW_AT_decl_column(0x16)
    2450                    
    2451                    $C$DW$T$211     .dwtag  DW_TAG_typedef
    2452                            .dwattr $C$DW$T$211, DW_AT_name("xdc_UInt32")
    2453                            .dwattr $C$DW$T$211, DW_AT_type(*$C$DW$T$210)
    2454                            .dwattr $C$DW$T$211, DW_AT_language(DW_LANG_C)
    2455                            .dwattr $C$DW$T$211, DW_AT_decl_file("C:/ti/simplelink_cc13x0_sdk_1_50_00_08/kernel/tirtos/pac
    2456                            .dwattr $C$DW$T$211, DW_AT_decl_line(0x71)
    2457                            .dwattr $C$DW$T$211, DW_AT_decl_column(0x19)
    2458                    
    2459                    $C$DW$T$212     .dwtag  DW_TAG_typedef
    2460                            .dwattr $C$DW$T$212, DW_AT_name("UInt32")
    2461                            .dwattr $C$DW$T$212, DW_AT_type(*$C$DW$T$211)
    2462                            .dwattr $C$DW$T$212, DW_AT_language(DW_LANG_C)
    2463                            .dwattr $C$DW$T$212, DW_AT_decl_file("C:/ti/xdctools_3_50_03_33_core/packages/xdc/std.h")
    2464                            .dwattr $C$DW$T$212, DW_AT_decl_line(0x100)
    2465                            .dwattr $C$DW$T$212, DW_AT_decl_column(0x19)
    2466                    
    2467                    $C$DW$T$213     .dwtag  DW_TAG_typedef
    2468                            .dwattr $C$DW$T$213, DW_AT_name("Uint32")
    2469                            .dwattr $C$DW$T$213, DW_AT_type(*$C$DW$T$211)
    2470                            .dwattr $C$DW$T$213, DW_AT_language(DW_LANG_C)
    2471                            .dwattr $C$DW$T$213, DW_AT_decl_file("C:/ti/xdctools_3_50_03_33_core/packages/xdc/std.h")
    2472                            .dwattr $C$DW$T$213, DW_AT_decl_line(0x10d)
    2473                            .dwattr $C$DW$T$213, DW_AT_decl_column(0x19)
    2474                    
    2475                    $C$DW$T$214     .dwtag  DW_TAG_typedef
TI ARM Assembler PC v16.9.4 Sat Nov 18 18:46:29 2017

Tools Copyright (c) 1996-2017 Texas Instruments Incorporated
C:\Users\Kevin\AppData\Local\Temp\{5E948145-182F-435E-8CCA-E077E24C2FF9} PAGE   46

    2476                            .dwattr $C$DW$T$214, DW_AT_name("xdc_Bits32")
    2477                            .dwattr $C$DW$T$214, DW_AT_type(*$C$DW$T$19)
    2478                            .dwattr $C$DW$T$214, DW_AT_language(DW_LANG_C)
    2479                            .dwattr $C$DW$T$214, DW_AT_decl_file("C:/ti/simplelink_cc13x0_sdk_1_50_00_08/kernel/tirtos/pac
    2480                            .dwattr $C$DW$T$214, DW_AT_decl_line(0x8f)
    2481                            .dwattr $C$DW$T$214, DW_AT_decl_column(0x19)
    2482                    
    2483                    $C$DW$T$215     .dwtag  DW_TAG_typedef
    2484                            .dwattr $C$DW$T$215, DW_AT_name("Bits32")
    2485                            .dwattr $C$DW$T$215, DW_AT_type(*$C$DW$T$214)
    2486                            .dwattr $C$DW$T$215, DW_AT_language(DW_LANG_C)
    2487                            .dwattr $C$DW$T$215, DW_AT_decl_file("C:/ti/xdctools_3_50_03_33_core/packages/xdc/std.h")
    2488                            .dwattr $C$DW$T$215, DW_AT_decl_line(0x127)
    2489                            .dwattr $C$DW$T$215, DW_AT_decl_column(0x19)
    2490                    
    2491                    $C$DW$T$68      .dwtag  DW_TAG_typedef
    2492                            .dwattr $C$DW$T$68, DW_AT_name("uintptr_t")
    2493                            .dwattr $C$DW$T$68, DW_AT_type(*$C$DW$T$11)
    2494                            .dwattr $C$DW$T$68, DW_AT_language(DW_LANG_C)
    2495                            .dwattr $C$DW$T$68, DW_AT_decl_file("C:/ti/ccsv7/tools/compiler/ti-cgt-arm_16.9.4.LTS/include/
    2496                            .dwattr $C$DW$T$68, DW_AT_decl_line(0x53)
    2497                            .dwattr $C$DW$T$68, DW_AT_decl_column(0x1a)
    2498                    
    2499                    $C$DW$T$216     .dwtag  DW_TAG_typedef
    2500                            .dwattr $C$DW$T$216, DW_AT_name("xdc_UArg")
    2501                            .dwattr $C$DW$T$216, DW_AT_type(*$C$DW$T$68)
    2502                            .dwattr $C$DW$T$216, DW_AT_language(DW_LANG_C)
    2503                            .dwattr $C$DW$T$216, DW_AT_decl_file("C:/ti/simplelink_cc13x0_sdk_1_50_00_08/kernel/tirtos/pac
    2504                            .dwattr $C$DW$T$216, DW_AT_decl_line(0x99)
    2505                            .dwattr $C$DW$T$216, DW_AT_decl_column(0x19)
    2506                    
    2507                    $C$DW$T$217     .dwtag  DW_TAG_typedef
    2508                            .dwattr $C$DW$T$217, DW_AT_name("UArg")
    2509                            .dwattr $C$DW$T$217, DW_AT_type(*$C$DW$T$216)
    2510                            .dwattr $C$DW$T$217, DW_AT_language(DW_LANG_C)
    2511                            .dwattr $C$DW$T$217, DW_AT_decl_file("C:/ti/xdctools_3_50_03_33_core/packages/xdc/std.h")
    2512                            .dwattr $C$DW$T$217, DW_AT_decl_line(0xf1)
    2513                            .dwattr $C$DW$T$217, DW_AT_decl_column(0x19)
    2514                    
    2515                    $C$DW$T$218     .dwtag  DW_TAG_typedef
    2516                            .dwattr $C$DW$T$218, DW_AT_name("xdc_UInt")
    2517                            .dwattr $C$DW$T$218, DW_AT_type(*$C$DW$T$11)
    2518                            .dwattr $C$DW$T$218, DW_AT_language(DW_LANG_C)
    2519                            .dwattr $C$DW$T$218, DW_AT_decl_file("C:/ti/xdctools_3_50_03_33_core/packages/xdc/std.h")
    2520                            .dwattr $C$DW$T$218, DW_AT_decl_line(0x22)
    2521                            .dwattr $C$DW$T$218, DW_AT_decl_column(0x19)
    2522                    
    2523                    $C$DW$T$219     .dwtag  DW_TAG_typedef
    2524                            .dwattr $C$DW$T$219, DW_AT_name("UInt")
    2525                            .dwattr $C$DW$T$219, DW_AT_type(*$C$DW$T$218)
    2526                            .dwattr $C$DW$T$219, DW_AT_language(DW_LANG_C)
    2527                            .dwattr $C$DW$T$219, DW_AT_decl_file("C:/ti/xdctools_3_50_03_33_core/packages/xdc/std.h")
    2528                            .dwattr $C$DW$T$219, DW_AT_decl_line(0xe5)
    2529                            .dwattr $C$DW$T$219, DW_AT_decl_column(0x19)
    2530                    
TI ARM Assembler PC v16.9.4 Sat Nov 18 18:46:29 2017

Tools Copyright (c) 1996-2017 Texas Instruments Incorporated
C:\Users\Kevin\AppData\Local\Temp\{5E948145-182F-435E-8CCA-E077E24C2FF9} PAGE   47

    2531                    $C$DW$T$220     .dwtag  DW_TAG_typedef
    2532                            .dwattr $C$DW$T$220, DW_AT_name("Uns")
    2533                            .dwattr $C$DW$T$220, DW_AT_type(*$C$DW$T$218)
    2534                            .dwattr $C$DW$T$220, DW_AT_language(DW_LANG_C)
    2535                            .dwattr $C$DW$T$220, DW_AT_decl_file("C:/ti/xdctools_3_50_03_33_core/packages/xdc/std.h")
    2536                            .dwattr $C$DW$T$220, DW_AT_decl_line(0x10e)
    2537                            .dwattr $C$DW$T$220, DW_AT_decl_column(0x19)
    2538                    
    2539                    $C$DW$T$12      .dwtag  DW_TAG_base_type
    2540                            .dwattr $C$DW$T$12, DW_AT_encoding(DW_ATE_signed)
    2541                            .dwattr $C$DW$T$12, DW_AT_name("long")
    2542                            .dwattr $C$DW$T$12, DW_AT_byte_size(0x04)
    2543                    
    2544                    $C$DW$T$221     .dwtag  DW_TAG_typedef
    2545                            .dwattr $C$DW$T$221, DW_AT_name("xdc_Long")
    2546                            .dwattr $C$DW$T$221, DW_AT_type(*$C$DW$T$12)
    2547                            .dwattr $C$DW$T$221, DW_AT_language(DW_LANG_C)
    2548                            .dwattr $C$DW$T$221, DW_AT_decl_file("C:/ti/xdctools_3_50_03_33_core/packages/xdc/std.h")
    2549                            .dwattr $C$DW$T$221, DW_AT_decl_line(0x23)
    2550                            .dwattr $C$DW$T$221, DW_AT_decl_column(0x19)
    2551                    
    2552                    $C$DW$T$222     .dwtag  DW_TAG_typedef
    2553                            .dwattr $C$DW$T$222, DW_AT_name("Long")
    2554                            .dwattr $C$DW$T$222, DW_AT_type(*$C$DW$T$221)
    2555                            .dwattr $C$DW$T$222, DW_AT_language(DW_LANG_C)
    2556                            .dwattr $C$DW$T$222, DW_AT_decl_file("C:/ti/xdctools_3_50_03_33_core/packages/xdc/std.h")
    2557                            .dwattr $C$DW$T$222, DW_AT_decl_line(0xe6)
    2558                            .dwattr $C$DW$T$222, DW_AT_decl_column(0x19)
    2559                    
    2560                    $C$DW$T$13      .dwtag  DW_TAG_base_type
    2561                            .dwattr $C$DW$T$13, DW_AT_encoding(DW_ATE_unsigned)
    2562                            .dwattr $C$DW$T$13, DW_AT_name("unsigned long")
    2563                            .dwattr $C$DW$T$13, DW_AT_byte_size(0x04)
    2564                    
    2565                    $C$DW$T$223     .dwtag  DW_TAG_typedef
    2566                            .dwattr $C$DW$T$223, DW_AT_name("xdc_ULong")
    2567                            .dwattr $C$DW$T$223, DW_AT_type(*$C$DW$T$13)
    2568                            .dwattr $C$DW$T$223, DW_AT_language(DW_LANG_C)
    2569                            .dwattr $C$DW$T$223, DW_AT_decl_file("C:/ti/xdctools_3_50_03_33_core/packages/xdc/std.h")
    2570                            .dwattr $C$DW$T$223, DW_AT_decl_line(0x24)
    2571                            .dwattr $C$DW$T$223, DW_AT_decl_column(0x19)
    2572                    
    2573                    $C$DW$T$224     .dwtag  DW_TAG_typedef
    2574                            .dwattr $C$DW$T$224, DW_AT_name("ULong")
    2575                            .dwattr $C$DW$T$224, DW_AT_type(*$C$DW$T$223)
    2576                            .dwattr $C$DW$T$224, DW_AT_language(DW_LANG_C)
    2577                            .dwattr $C$DW$T$224, DW_AT_decl_file("C:/ti/xdctools_3_50_03_33_core/packages/xdc/std.h")
    2578                            .dwattr $C$DW$T$224, DW_AT_decl_line(0xe7)
    2579                            .dwattr $C$DW$T$224, DW_AT_decl_column(0x19)
    2580                    
    2581                    $C$DW$T$14      .dwtag  DW_TAG_base_type
    2582                            .dwattr $C$DW$T$14, DW_AT_encoding(DW_ATE_signed)
    2583                            .dwattr $C$DW$T$14, DW_AT_name("long long")
    2584                            .dwattr $C$DW$T$14, DW_AT_byte_size(0x08)
    2585                    
TI ARM Assembler PC v16.9.4 Sat Nov 18 18:46:29 2017

Tools Copyright (c) 1996-2017 Texas Instruments Incorporated
C:\Users\Kevin\AppData\Local\Temp\{5E948145-182F-435E-8CCA-E077E24C2FF9} PAGE   48

    2586                    $C$DW$T$225     .dwtag  DW_TAG_typedef
    2587                            .dwattr $C$DW$T$225, DW_AT_name("int64_t")
    2588                            .dwattr $C$DW$T$225, DW_AT_type(*$C$DW$T$14)
    2589                            .dwattr $C$DW$T$225, DW_AT_language(DW_LANG_C)
    2590                            .dwattr $C$DW$T$225, DW_AT_decl_file("C:/ti/ccsv7/tools/compiler/ti-cgt-arm_16.9.4.LTS/include
    2591                            .dwattr $C$DW$T$225, DW_AT_decl_line(0x32)
    2592                            .dwattr $C$DW$T$225, DW_AT_decl_column(0x21)
    2593                    
    2594                    $C$DW$T$226     .dwtag  DW_TAG_typedef
    2595                            .dwattr $C$DW$T$226, DW_AT_name("int_fast64_t")
    2596                            .dwattr $C$DW$T$226, DW_AT_type(*$C$DW$T$225)
    2597                            .dwattr $C$DW$T$226, DW_AT_language(DW_LANG_C)
    2598                            .dwattr $C$DW$T$226, DW_AT_decl_file("C:/ti/ccsv7/tools/compiler/ti-cgt-arm_16.9.4.LTS/include
    2599                            .dwattr $C$DW$T$226, DW_AT_decl_line(0x4e)
    2600                            .dwattr $C$DW$T$226, DW_AT_decl_column(0x17)
    2601                    
    2602                    $C$DW$T$227     .dwtag  DW_TAG_typedef
    2603                            .dwattr $C$DW$T$227, DW_AT_name("int_least64_t")
    2604                            .dwattr $C$DW$T$227, DW_AT_type(*$C$DW$T$225)
    2605                            .dwattr $C$DW$T$227, DW_AT_language(DW_LANG_C)
    2606                            .dwattr $C$DW$T$227, DW_AT_decl_file("C:/ti/ccsv7/tools/compiler/ti-cgt-arm_16.9.4.LTS/include
    2607                            .dwattr $C$DW$T$227, DW_AT_decl_line(0x40)
    2608                            .dwattr $C$DW$T$227, DW_AT_decl_column(0x17)
    2609                    
    2610                    $C$DW$T$228     .dwtag  DW_TAG_typedef
    2611                            .dwattr $C$DW$T$228, DW_AT_name("xdc_Int64")
    2612                            .dwattr $C$DW$T$228, DW_AT_type(*$C$DW$T$227)
    2613                            .dwattr $C$DW$T$228, DW_AT_language(DW_LANG_C)
    2614                            .dwattr $C$DW$T$228, DW_AT_decl_file("C:/ti/simplelink_cc13x0_sdk_1_50_00_08/kernel/tirtos/pac
    2615                            .dwattr $C$DW$T$228, DW_AT_decl_line(0x74)
    2616                            .dwattr $C$DW$T$228, DW_AT_decl_column(0x1d)
    2617                    
    2618                    $C$DW$T$229     .dwtag  DW_TAG_typedef
    2619                            .dwattr $C$DW$T$229, DW_AT_name("Int64")
    2620                            .dwattr $C$DW$T$229, DW_AT_type(*$C$DW$T$228)
    2621                            .dwattr $C$DW$T$229, DW_AT_language(DW_LANG_C)
    2622                            .dwattr $C$DW$T$229, DW_AT_decl_file("C:/ti/xdctools_3_50_03_33_core/packages/xdc/std.h")
    2623                            .dwattr $C$DW$T$229, DW_AT_decl_line(0x116)
    2624                            .dwattr $C$DW$T$229, DW_AT_decl_column(0x19)
    2625                    
    2626                    $C$DW$T$230     .dwtag  DW_TAG_typedef
    2627                            .dwattr $C$DW$T$230, DW_AT_name("intmax_t")
    2628                            .dwattr $C$DW$T$230, DW_AT_type(*$C$DW$T$14)
    2629                            .dwattr $C$DW$T$230, DW_AT_language(DW_LANG_C)
    2630                            .dwattr $C$DW$T$230, DW_AT_decl_file("C:/ti/ccsv7/tools/compiler/ti-cgt-arm_16.9.4.LTS/include
    2631                            .dwattr $C$DW$T$230, DW_AT_decl_line(0x56)
    2632                            .dwattr $C$DW$T$230, DW_AT_decl_column(0x20)
    2633                    
    2634                    $C$DW$T$231     .dwtag  DW_TAG_typedef
    2635                            .dwattr $C$DW$T$231, DW_AT_name("xdc_LLong")
    2636                            .dwattr $C$DW$T$231, DW_AT_type(*$C$DW$T$14)
    2637                            .dwattr $C$DW$T$231, DW_AT_language(DW_LANG_C)
    2638                            .dwattr $C$DW$T$231, DW_AT_decl_file("C:/ti/xdctools_3_50_03_33_core/packages/xdc/std.h")
    2639                            .dwattr $C$DW$T$231, DW_AT_decl_line(0x88)
    2640                            .dwattr $C$DW$T$231, DW_AT_decl_column(0x21)
TI ARM Assembler PC v16.9.4 Sat Nov 18 18:46:29 2017

Tools Copyright (c) 1996-2017 Texas Instruments Incorporated
C:\Users\Kevin\AppData\Local\Temp\{5E948145-182F-435E-8CCA-E077E24C2FF9} PAGE   49

    2641                    
    2642                    $C$DW$T$232     .dwtag  DW_TAG_typedef
    2643                            .dwattr $C$DW$T$232, DW_AT_name("LLong")
    2644                            .dwattr $C$DW$T$232, DW_AT_type(*$C$DW$T$231)
    2645                            .dwattr $C$DW$T$232, DW_AT_language(DW_LANG_C)
    2646                            .dwattr $C$DW$T$232, DW_AT_decl_file("C:/ti/xdctools_3_50_03_33_core/packages/xdc/std.h")
    2647                            .dwattr $C$DW$T$232, DW_AT_decl_line(0xe8)
    2648                            .dwattr $C$DW$T$232, DW_AT_decl_column(0x19)
    2649                    
    2650                    $C$DW$T$15      .dwtag  DW_TAG_base_type
    2651                            .dwattr $C$DW$T$15, DW_AT_encoding(DW_ATE_unsigned)
    2652                            .dwattr $C$DW$T$15, DW_AT_name("unsigned long long")
    2653                            .dwattr $C$DW$T$15, DW_AT_byte_size(0x08)
    2654                    
    2655                    $C$DW$T$233     .dwtag  DW_TAG_typedef
    2656                            .dwattr $C$DW$T$233, DW_AT_name("uint64_t")
    2657                            .dwattr $C$DW$T$233, DW_AT_type(*$C$DW$T$15)
    2658                            .dwattr $C$DW$T$233, DW_AT_language(DW_LANG_C)
    2659                            .dwattr $C$DW$T$233, DW_AT_decl_file("C:/ti/ccsv7/tools/compiler/ti-cgt-arm_16.9.4.LTS/include
    2660                            .dwattr $C$DW$T$233, DW_AT_decl_line(0x33)
    2661                            .dwattr $C$DW$T$233, DW_AT_decl_column(0x20)
    2662                    
    2663                    $C$DW$T$234     .dwtag  DW_TAG_typedef
    2664                            .dwattr $C$DW$T$234, DW_AT_name("uint_fast64_t")
    2665                            .dwattr $C$DW$T$234, DW_AT_type(*$C$DW$T$233)
    2666                            .dwattr $C$DW$T$234, DW_AT_language(DW_LANG_C)
    2667                            .dwattr $C$DW$T$234, DW_AT_decl_file("C:/ti/ccsv7/tools/compiler/ti-cgt-arm_16.9.4.LTS/include
    2668                            .dwattr $C$DW$T$234, DW_AT_decl_line(0x4f)
    2669                            .dwattr $C$DW$T$234, DW_AT_decl_column(0x16)
    2670                    
    2671                    $C$DW$T$235     .dwtag  DW_TAG_typedef
    2672                            .dwattr $C$DW$T$235, DW_AT_name("uint_least64_t")
    2673                            .dwattr $C$DW$T$235, DW_AT_type(*$C$DW$T$233)
    2674                            .dwattr $C$DW$T$235, DW_AT_language(DW_LANG_C)
    2675                            .dwattr $C$DW$T$235, DW_AT_decl_file("C:/ti/ccsv7/tools/compiler/ti-cgt-arm_16.9.4.LTS/include
    2676                            .dwattr $C$DW$T$235, DW_AT_decl_line(0x41)
    2677                            .dwattr $C$DW$T$235, DW_AT_decl_column(0x16)
    2678                    
    2679                    $C$DW$T$236     .dwtag  DW_TAG_typedef
    2680                            .dwattr $C$DW$T$236, DW_AT_name("xdc_UInt64")
    2681                            .dwattr $C$DW$T$236, DW_AT_type(*$C$DW$T$235)
    2682                            .dwattr $C$DW$T$236, DW_AT_language(DW_LANG_C)
    2683                            .dwattr $C$DW$T$236, DW_AT_decl_file("C:/ti/simplelink_cc13x0_sdk_1_50_00_08/kernel/tirtos/pac
    2684                            .dwattr $C$DW$T$236, DW_AT_decl_line(0x75)
    2685                            .dwattr $C$DW$T$236, DW_AT_decl_column(0x1e)
    2686                    
    2687                    $C$DW$T$237     .dwtag  DW_TAG_typedef
    2688                            .dwattr $C$DW$T$237, DW_AT_name("UInt64")
    2689                            .dwattr $C$DW$T$237, DW_AT_type(*$C$DW$T$236)
    2690                            .dwattr $C$DW$T$237, DW_AT_language(DW_LANG_C)
    2691                            .dwattr $C$DW$T$237, DW_AT_decl_file("C:/ti/xdctools_3_50_03_33_core/packages/xdc/std.h")
    2692                            .dwattr $C$DW$T$237, DW_AT_decl_line(0x117)
    2693                            .dwattr $C$DW$T$237, DW_AT_decl_column(0x19)
    2694                    
    2695                    $C$DW$T$238     .dwtag  DW_TAG_typedef
TI ARM Assembler PC v16.9.4 Sat Nov 18 18:46:29 2017

Tools Copyright (c) 1996-2017 Texas Instruments Incorporated
C:\Users\Kevin\AppData\Local\Temp\{5E948145-182F-435E-8CCA-E077E24C2FF9} PAGE   50

    2696                            .dwattr $C$DW$T$238, DW_AT_name("xdc_Bits64")
    2697                            .dwattr $C$DW$T$238, DW_AT_type(*$C$DW$T$233)
    2698                            .dwattr $C$DW$T$238, DW_AT_language(DW_LANG_C)
    2699                            .dwattr $C$DW$T$238, DW_AT_decl_file("C:/ti/simplelink_cc13x0_sdk_1_50_00_08/kernel/tirtos/pac
    2700                            .dwattr $C$DW$T$238, DW_AT_decl_line(0x92)
    2701                            .dwattr $C$DW$T$238, DW_AT_decl_column(0x19)
    2702                    
    2703                    $C$DW$T$239     .dwtag  DW_TAG_typedef
    2704                            .dwattr $C$DW$T$239, DW_AT_name("Bits64")
    2705                            .dwattr $C$DW$T$239, DW_AT_type(*$C$DW$T$238)
    2706                            .dwattr $C$DW$T$239, DW_AT_language(DW_LANG_C)
    2707                            .dwattr $C$DW$T$239, DW_AT_decl_file("C:/ti/xdctools_3_50_03_33_core/packages/xdc/std.h")
    2708                            .dwattr $C$DW$T$239, DW_AT_decl_line(0x12b)
    2709                            .dwattr $C$DW$T$239, DW_AT_decl_column(0x19)
    2710                    
    2711                    $C$DW$T$240     .dwtag  DW_TAG_typedef
    2712                            .dwattr $C$DW$T$240, DW_AT_name("uintmax_t")
    2713                            .dwattr $C$DW$T$240, DW_AT_type(*$C$DW$T$15)
    2714                            .dwattr $C$DW$T$240, DW_AT_language(DW_LANG_C)
    2715                            .dwattr $C$DW$T$240, DW_AT_decl_file("C:/ti/ccsv7/tools/compiler/ti-cgt-arm_16.9.4.LTS/include
    2716                            .dwattr $C$DW$T$240, DW_AT_decl_line(0x57)
    2717                            .dwattr $C$DW$T$240, DW_AT_decl_column(0x20)
    2718                    
    2719                    $C$DW$T$241     .dwtag  DW_TAG_typedef
    2720                            .dwattr $C$DW$T$241, DW_AT_name("xdc_ULLong")
    2721                            .dwattr $C$DW$T$241, DW_AT_type(*$C$DW$T$15)
    2722                            .dwattr $C$DW$T$241, DW_AT_language(DW_LANG_C)
    2723                            .dwattr $C$DW$T$241, DW_AT_decl_file("C:/ti/xdctools_3_50_03_33_core/packages/xdc/std.h")
    2724                            .dwattr $C$DW$T$241, DW_AT_decl_line(0x89)
    2725                            .dwattr $C$DW$T$241, DW_AT_decl_column(0x21)
    2726                    
    2727                    $C$DW$T$242     .dwtag  DW_TAG_typedef
    2728                            .dwattr $C$DW$T$242, DW_AT_name("ULLong")
    2729                            .dwattr $C$DW$T$242, DW_AT_type(*$C$DW$T$241)
    2730                            .dwattr $C$DW$T$242, DW_AT_language(DW_LANG_C)
    2731                            .dwattr $C$DW$T$242, DW_AT_decl_file("C:/ti/xdctools_3_50_03_33_core/packages/xdc/std.h")
    2732                            .dwattr $C$DW$T$242, DW_AT_decl_line(0xe9)
    2733                            .dwattr $C$DW$T$242, DW_AT_decl_column(0x19)
    2734                    
    2735                    $C$DW$T$16      .dwtag  DW_TAG_base_type
    2736                            .dwattr $C$DW$T$16, DW_AT_encoding(DW_ATE_float)
    2737                            .dwattr $C$DW$T$16, DW_AT_name("float")
    2738                            .dwattr $C$DW$T$16, DW_AT_byte_size(0x04)
    2739                    
    2740                    $C$DW$T$61      .dwtag  DW_TAG_typedef
    2741                            .dwattr $C$DW$T$61, DW_AT_name("xdc_Float")
    2742                            .dwattr $C$DW$T$61, DW_AT_type(*$C$DW$T$16)
    2743                            .dwattr $C$DW$T$61, DW_AT_language(DW_LANG_C)
    2744                            .dwattr $C$DW$T$61, DW_AT_decl_file("C:/ti/xdctools_3_50_03_33_core/packages/xdc/std.h")
    2745                            .dwattr $C$DW$T$61, DW_AT_decl_line(0x25)
    2746                            .dwattr $C$DW$T$61, DW_AT_decl_column(0x19)
    2747                    
    2748                    $C$DW$T$243     .dwtag  DW_TAG_typedef
    2749                            .dwattr $C$DW$T$243, DW_AT_name("Float")
    2750                            .dwattr $C$DW$T$243, DW_AT_type(*$C$DW$T$61)
TI ARM Assembler PC v16.9.4 Sat Nov 18 18:46:29 2017

Tools Copyright (c) 1996-2017 Texas Instruments Incorporated
C:\Users\Kevin\AppData\Local\Temp\{5E948145-182F-435E-8CCA-E077E24C2FF9} PAGE   51

    2751                            .dwattr $C$DW$T$243, DW_AT_language(DW_LANG_C)
    2752                            .dwattr $C$DW$T$243, DW_AT_decl_file("C:/ti/xdctools_3_50_03_33_core/packages/xdc/std.h")
    2753                            .dwattr $C$DW$T$243, DW_AT_decl_line(0xea)
    2754                            .dwattr $C$DW$T$243, DW_AT_decl_column(0x19)
    2755                    
    2756                    $C$DW$T$17      .dwtag  DW_TAG_base_type
    2757                            .dwattr $C$DW$T$17, DW_AT_encoding(DW_ATE_float)
    2758                            .dwattr $C$DW$T$17, DW_AT_name("double")
    2759                            .dwattr $C$DW$T$17, DW_AT_byte_size(0x08)
    2760                    
    2761                    $C$DW$T$244     .dwtag  DW_TAG_typedef
    2762                            .dwattr $C$DW$T$244, DW_AT_name("xdc_Double")
    2763                            .dwattr $C$DW$T$244, DW_AT_type(*$C$DW$T$17)
    2764                            .dwattr $C$DW$T$244, DW_AT_language(DW_LANG_C)
    2765                            .dwattr $C$DW$T$244, DW_AT_decl_file("C:/ti/xdctools_3_50_03_33_core/packages/xdc/std.h")
    2766                            .dwattr $C$DW$T$244, DW_AT_decl_line(0x26)
    2767                            .dwattr $C$DW$T$244, DW_AT_decl_column(0x19)
    2768                    
    2769                    $C$DW$T$245     .dwtag  DW_TAG_typedef
    2770                            .dwattr $C$DW$T$245, DW_AT_name("Double")
    2771                            .dwattr $C$DW$T$245, DW_AT_type(*$C$DW$T$244)
    2772                            .dwattr $C$DW$T$245, DW_AT_language(DW_LANG_C)
    2773                            .dwattr $C$DW$T$245, DW_AT_decl_file("C:/ti/xdctools_3_50_03_33_core/packages/xdc/std.h")
    2774                            .dwattr $C$DW$T$245, DW_AT_decl_line(0xeb)
    2775                            .dwattr $C$DW$T$245, DW_AT_decl_column(0x19)
    2776                    
    2777                    $C$DW$T$18      .dwtag  DW_TAG_base_type
    2778                            .dwattr $C$DW$T$18, DW_AT_encoding(DW_ATE_float)
    2779                            .dwattr $C$DW$T$18, DW_AT_name("long double")
    2780                            .dwattr $C$DW$T$18, DW_AT_byte_size(0x08)
    2781                    
    2782                    $C$DW$T$246     .dwtag  DW_TAG_typedef
    2783                            .dwattr $C$DW$T$246, DW_AT_name("xdc_LDouble")
    2784                            .dwattr $C$DW$T$246, DW_AT_type(*$C$DW$T$18)
    2785                            .dwattr $C$DW$T$246, DW_AT_language(DW_LANG_C)
    2786                            .dwattr $C$DW$T$246, DW_AT_decl_file("C:/ti/xdctools_3_50_03_33_core/packages/xdc/std.h")
    2787                            .dwattr $C$DW$T$246, DW_AT_decl_line(0x27)
    2788                            .dwattr $C$DW$T$246, DW_AT_decl_column(0x19)
    2789                    
    2790                    $C$DW$T$247     .dwtag  DW_TAG_typedef
    2791                            .dwattr $C$DW$T$247, DW_AT_name("LDouble")
    2792                            .dwattr $C$DW$T$247, DW_AT_type(*$C$DW$T$246)
    2793                            .dwattr $C$DW$T$247, DW_AT_language(DW_LANG_C)
    2794                            .dwattr $C$DW$T$247, DW_AT_decl_file("C:/ti/xdctools_3_50_03_33_core/packages/xdc/std.h")
    2795                            .dwattr $C$DW$T$247, DW_AT_decl_line(0xec)
    2796                            .dwattr $C$DW$T$247, DW_AT_decl_column(0x19)
    2797                    
    2798                    $C$DW$T$69      .dwtag  DW_TAG_base_type
    2799                            .dwattr $C$DW$T$69, DW_AT_encoding(DW_ATE_unsigned_char)
    2800                            .dwattr $C$DW$T$69, DW_AT_name("unsigned char")
    2801                            .dwattr $C$DW$T$69, DW_AT_byte_size(0x01)
    2802                    
    2803                    
    2804                    $C$DW$T$72      .dwtag  DW_TAG_array_type
    2805                            .dwattr $C$DW$T$72, DW_AT_type(*$C$DW$T$6)
TI ARM Assembler PC v16.9.4 Sat Nov 18 18:46:29 2017

Tools Copyright (c) 1996-2017 Texas Instruments Incorporated
C:\Users\Kevin\AppData\Local\Temp\{5E948145-182F-435E-8CCA-E077E24C2FF9} PAGE   52

    2806                            .dwattr $C$DW$T$72, DW_AT_language(DW_LANG_C)
    2807                            .dwattr $C$DW$T$72, DW_AT_byte_size(0x1c)
    2808                    $C$DW$140       .dwtag  DW_TAG_subrange_type
    2809                            .dwattr $C$DW$140, DW_AT_upper_bound(0x1b)
    2810                    
    2811                            .dwendtag $C$DW$T$72
    2812                    
    2813                    $C$DW$T$248     .dwtag  DW_TAG_pointer_type
    2814                            .dwattr $C$DW$T$248, DW_AT_type(*$C$DW$T$6)
    2815                            .dwattr $C$DW$T$248, DW_AT_address_class(0x20)
    2816                    
    2817                    $C$DW$T$249     .dwtag  DW_TAG_typedef
    2818                            .dwattr $C$DW$T$249, DW_AT_name("xdc_String")
    2819                            .dwattr $C$DW$T$249, DW_AT_type(*$C$DW$T$248)
    2820                            .dwattr $C$DW$T$249, DW_AT_language(DW_LANG_C)
    2821                            .dwattr $C$DW$T$249, DW_AT_decl_file("C:/ti/xdctools_3_50_03_33_core/packages/xdc/std.h")
    2822                            .dwattr $C$DW$T$249, DW_AT_decl_line(0x30)
    2823                            .dwattr $C$DW$T$249, DW_AT_decl_column(0x1a)
    2824                    
    2825                    $C$DW$T$250     .dwtag  DW_TAG_typedef
    2826                            .dwattr $C$DW$T$250, DW_AT_name("String")
    2827                            .dwattr $C$DW$T$250, DW_AT_type(*$C$DW$T$249)
    2828                            .dwattr $C$DW$T$250, DW_AT_language(DW_LANG_C)
    2829                            .dwattr $C$DW$T$250, DW_AT_decl_file("C:/ti/xdctools_3_50_03_33_core/packages/xdc/std.h")
    2830                            .dwattr $C$DW$T$250, DW_AT_decl_line(0xfa)
    2831                            .dwattr $C$DW$T$250, DW_AT_decl_column(0x19)
    2832                    
    2833                    $C$DW$T$251     .dwtag  DW_TAG_const_type
    2834                            .dwattr $C$DW$T$251, DW_AT_type(*$C$DW$T$6)
    2835                    
    2836                    $C$DW$T$252     .dwtag  DW_TAG_pointer_type
    2837                            .dwattr $C$DW$T$252, DW_AT_type(*$C$DW$T$251)
    2838                            .dwattr $C$DW$T$252, DW_AT_address_class(0x20)
    2839                    
    2840                    $C$DW$T$253     .dwtag  DW_TAG_typedef
    2841                            .dwattr $C$DW$T$253, DW_AT_name("xdc_CString")
    2842                            .dwattr $C$DW$T$253, DW_AT_type(*$C$DW$T$252)
    2843                            .dwattr $C$DW$T$253, DW_AT_language(DW_LANG_C)
    2844                            .dwattr $C$DW$T$253, DW_AT_decl_file("C:/ti/xdctools_3_50_03_33_core/packages/xdc/std.h")
    2845                            .dwattr $C$DW$T$253, DW_AT_decl_line(0x31)
    2846                            .dwattr $C$DW$T$253, DW_AT_decl_column(0x1a)
    2847                    
    2848                    $C$DW$T$254     .dwtag  DW_TAG_typedef
    2849                            .dwattr $C$DW$T$254, DW_AT_name("CString")
    2850                            .dwattr $C$DW$T$254, DW_AT_type(*$C$DW$T$253)
    2851                            .dwattr $C$DW$T$254, DW_AT_language(DW_LANG_C)
    2852                            .dwattr $C$DW$T$254, DW_AT_decl_file("C:/ti/xdctools_3_50_03_33_core/packages/xdc/std.h")
    2853                            .dwattr $C$DW$T$254, DW_AT_decl_line(0xfc)
    2854                            .dwattr $C$DW$T$254, DW_AT_decl_column(0x19)
    2855                    
    2856                    $C$DW$T$255     .dwtag  DW_TAG_typedef
    2857                            .dwattr $C$DW$T$255, DW_AT_name("xdc_Char")
    2858                            .dwattr $C$DW$T$255, DW_AT_type(*$C$DW$T$6)
    2859                            .dwattr $C$DW$T$255, DW_AT_language(DW_LANG_C)
    2860                            .dwattr $C$DW$T$255, DW_AT_decl_file("C:/ti/xdctools_3_50_03_33_core/packages/xdc/std.h")
TI ARM Assembler PC v16.9.4 Sat Nov 18 18:46:29 2017

Tools Copyright (c) 1996-2017 Texas Instruments Incorporated
C:\Users\Kevin\AppData\Local\Temp\{5E948145-182F-435E-8CCA-E077E24C2FF9} PAGE   53

    2861                            .dwattr $C$DW$T$255, DW_AT_decl_line(0x1d)
    2862                            .dwattr $C$DW$T$255, DW_AT_decl_column(0x19)
    2863                    
    2864                    $C$DW$T$256     .dwtag  DW_TAG_typedef
    2865                            .dwattr $C$DW$T$256, DW_AT_name("Char")
    2866                            .dwattr $C$DW$T$256, DW_AT_type(*$C$DW$T$255)
    2867                            .dwattr $C$DW$T$256, DW_AT_language(DW_LANG_C)
    2868                            .dwattr $C$DW$T$256, DW_AT_decl_file("C:/ti/xdctools_3_50_03_33_core/packages/xdc/std.h")
    2869                            .dwattr $C$DW$T$256, DW_AT_decl_line(0xe0)
    2870                            .dwattr $C$DW$T$256, DW_AT_decl_column(0x19)
    2871                    
    2872                    
    2873                    $C$DW$T$95      .dwtag  DW_TAG_structure_type
    2874                            .dwattr $C$DW$T$95, DW_AT_name("__va_list")
    2875                            .dwattr $C$DW$T$95, DW_AT_byte_size(0x04)
    2876                    $C$DW$141       .dwtag  DW_TAG_member
    2877                            .dwattr $C$DW$141, DW_AT_type(*$C$DW$T$3)
    2878                            .dwattr $C$DW$141, DW_AT_name("__ap")
    2879                            .dwattr $C$DW$141, DW_AT_TI_symbol_name("__ap")
    2880                            .dwattr $C$DW$141, DW_AT_data_member_location[DW_OP_plus_uconst 0x0]
    2881                            .dwattr $C$DW$141, DW_AT_accessibility(DW_ACCESS_public)
    2882                            .dwattr $C$DW$141, DW_AT_decl_file("C:/ti/ccsv7/tools/compiler/ti-cgt-arm_16.9.4.LTS/include/s
    2883                            .dwattr $C$DW$141, DW_AT_decl_line(0x38)
    2884                            .dwattr $C$DW$141, DW_AT_decl_column(0x0c)
    2885                    
    2886                            .dwattr $C$DW$T$95, DW_AT_decl_file("C:/ti/ccsv7/tools/compiler/ti-cgt-arm_16.9.4.LTS/include/
    2887                            .dwattr $C$DW$T$95, DW_AT_decl_line(0x37)
    2888                            .dwattr $C$DW$T$95, DW_AT_decl_column(0x10)
    2889                            .dwendtag $C$DW$T$95
    2890                    
    2891                    $C$DW$T$257     .dwtag  DW_TAG_typedef
    2892                            .dwattr $C$DW$T$257, DW_AT_name("va_list")
    2893                            .dwattr $C$DW$T$257, DW_AT_type(*$C$DW$T$95)
    2894                            .dwattr $C$DW$T$257, DW_AT_language(DW_LANG_C)
    2895                            .dwattr $C$DW$T$257, DW_AT_decl_file("C:/ti/ccsv7/tools/compiler/ti-cgt-arm_16.9.4.LTS/include
    2896                            .dwattr $C$DW$T$257, DW_AT_decl_line(0x39)
    2897                            .dwattr $C$DW$T$257, DW_AT_decl_column(0x03)
    2898                    
    2899                    $C$DW$T$258     .dwtag  DW_TAG_typedef
    2900                            .dwattr $C$DW$T$258, DW_AT_name("xdc_VaList")
    2901                            .dwattr $C$DW$T$258, DW_AT_type(*$C$DW$T$257)
    2902                            .dwattr $C$DW$T$258, DW_AT_language(DW_LANG_C)
    2903                            .dwattr $C$DW$T$258, DW_AT_decl_file("C:/ti/xdctools_3_50_03_33_core/packages/xdc/std.h")
    2904                            .dwattr $C$DW$T$258, DW_AT_decl_line(0x29)
    2905                            .dwattr $C$DW$T$258, DW_AT_decl_column(0x19)
    2906                    
    2907                    $C$DW$T$259     .dwtag  DW_TAG_typedef
    2908                            .dwattr $C$DW$T$259, DW_AT_name("VaList")
    2909                            .dwattr $C$DW$T$259, DW_AT_type(*$C$DW$T$258)
    2910                            .dwattr $C$DW$T$259, DW_AT_language(DW_LANG_C)
    2911                            .dwattr $C$DW$T$259, DW_AT_decl_file("C:/ti/xdctools_3_50_03_33_core/packages/xdc/std.h")
    2912                            .dwattr $C$DW$T$259, DW_AT_decl_line(0xee)
    2913                            .dwattr $C$DW$T$259, DW_AT_decl_column(0x19)
    2914                    
    2915                            .dwattr $C$DW$CU, DW_AT_language(DW_LANG_C)
TI ARM Assembler PC v16.9.4 Sat Nov 18 18:46:29 2017

Tools Copyright (c) 1996-2017 Texas Instruments Incorporated
C:\Users\Kevin\AppData\Local\Temp\{5E948145-182F-435E-8CCA-E077E24C2FF9} PAGE   54

    2916                    
    2917                    ;***************************************************************
    2918                    ;* DWARF CIE ENTRIES                                           *
    2919                    ;***************************************************************
    2920                    
    2921                    $C$DW$CIE       .dwcie 14
    2922                            .dwcfi  cfa_register, 13
    2923                            .dwcfi  cfa_offset, 0
    2924                            .dwcfi  same_value, 4
    2925                            .dwcfi  same_value, 5
    2926                            .dwcfi  same_value, 6
    2927                            .dwcfi  same_value, 7
    2928                            .dwcfi  same_value, 8
    2929                            .dwcfi  same_value, 9
    2930                            .dwcfi  same_value, 10
    2931                            .dwcfi  same_value, 11
    2932                            .dwendentry
    2933                    
    2934                    ;***************************************************************
    2935                    ;* DWARF REGISTER MAP                                          *
    2936                    ;***************************************************************
    2937                    
    2938                    $C$DW$142       .dwtag  DW_TAG_TI_assign_register
    2939                            .dwattr $C$DW$142, DW_AT_name("A1")
    2940                            .dwattr $C$DW$142, DW_AT_location[DW_OP_reg0]
    2941                    
    2942                    $C$DW$143       .dwtag  DW_TAG_TI_assign_register
    2943                            .dwattr $C$DW$143, DW_AT_name("A2")
    2944                            .dwattr $C$DW$143, DW_AT_location[DW_OP_reg1]
    2945                    
    2946                    $C$DW$144       .dwtag  DW_TAG_TI_assign_register
    2947                            .dwattr $C$DW$144, DW_AT_name("A3")
    2948                            .dwattr $C$DW$144, DW_AT_location[DW_OP_reg2]
    2949                    
    2950                    $C$DW$145       .dwtag  DW_TAG_TI_assign_register
    2951                            .dwattr $C$DW$145, DW_AT_name("A4")
    2952                            .dwattr $C$DW$145, DW_AT_location[DW_OP_reg3]
    2953                    
    2954                    $C$DW$146       .dwtag  DW_TAG_TI_assign_register
    2955                            .dwattr $C$DW$146, DW_AT_name("V1")
    2956                            .dwattr $C$DW$146, DW_AT_location[DW_OP_reg4]
    2957                    
    2958                    $C$DW$147       .dwtag  DW_TAG_TI_assign_register
    2959                            .dwattr $C$DW$147, DW_AT_name("V2")
    2960                            .dwattr $C$DW$147, DW_AT_location[DW_OP_reg5]
    2961                    
    2962                    $C$DW$148       .dwtag  DW_TAG_TI_assign_register
    2963                            .dwattr $C$DW$148, DW_AT_name("V3")
    2964                            .dwattr $C$DW$148, DW_AT_location[DW_OP_reg6]
    2965                    
    2966                    $C$DW$149       .dwtag  DW_TAG_TI_assign_register
    2967                            .dwattr $C$DW$149, DW_AT_name("V4")
    2968                            .dwattr $C$DW$149, DW_AT_location[DW_OP_reg7]
    2969                    
    2970                    $C$DW$150       .dwtag  DW_TAG_TI_assign_register
TI ARM Assembler PC v16.9.4 Sat Nov 18 18:46:29 2017

Tools Copyright (c) 1996-2017 Texas Instruments Incorporated
C:\Users\Kevin\AppData\Local\Temp\{5E948145-182F-435E-8CCA-E077E24C2FF9} PAGE   55

    2971                            .dwattr $C$DW$150, DW_AT_name("V5")
    2972                            .dwattr $C$DW$150, DW_AT_location[DW_OP_reg8]
    2973                    
    2974                    $C$DW$151       .dwtag  DW_TAG_TI_assign_register
    2975                            .dwattr $C$DW$151, DW_AT_name("V6")
    2976                            .dwattr $C$DW$151, DW_AT_location[DW_OP_reg9]
    2977                    
    2978                    $C$DW$152       .dwtag  DW_TAG_TI_assign_register
    2979                            .dwattr $C$DW$152, DW_AT_name("V7")
    2980                            .dwattr $C$DW$152, DW_AT_location[DW_OP_reg10]
    2981                    
    2982                    $C$DW$153       .dwtag  DW_TAG_TI_assign_register
    2983                            .dwattr $C$DW$153, DW_AT_name("V8")
    2984                            .dwattr $C$DW$153, DW_AT_location[DW_OP_reg11]
    2985                    
    2986                    $C$DW$154       .dwtag  DW_TAG_TI_assign_register
    2987                            .dwattr $C$DW$154, DW_AT_name("V9")
    2988                            .dwattr $C$DW$154, DW_AT_location[DW_OP_reg12]
    2989                    
    2990                    $C$DW$155       .dwtag  DW_TAG_TI_assign_register
    2991                            .dwattr $C$DW$155, DW_AT_name("SP")
    2992                            .dwattr $C$DW$155, DW_AT_location[DW_OP_reg13]
    2993                    
    2994                    $C$DW$156       .dwtag  DW_TAG_TI_assign_register
    2995                            .dwattr $C$DW$156, DW_AT_name("LR")
    2996                            .dwattr $C$DW$156, DW_AT_location[DW_OP_reg14]
    2997                    
    2998                    $C$DW$157       .dwtag  DW_TAG_TI_assign_register
    2999                            .dwattr $C$DW$157, DW_AT_name("PC")
    3000                            .dwattr $C$DW$157, DW_AT_location[DW_OP_reg15]
    3001                    
    3002                    $C$DW$158       .dwtag  DW_TAG_TI_assign_register
    3003                            .dwattr $C$DW$158, DW_AT_name("SR")
    3004                            .dwattr $C$DW$158, DW_AT_location[DW_OP_reg17]
    3005                    
    3006                    $C$DW$159       .dwtag  DW_TAG_TI_assign_register
    3007                            .dwattr $C$DW$159, DW_AT_name("AP")
    3008                            .dwattr $C$DW$159, DW_AT_location[DW_OP_reg7]
    3009                    
    3010                            .dwendtag $C$DW$CU
    3011                    

--------------------------
Thumb2 Statistics
--------------------------
Number of Thumb2 ins converted to Thumb = 0 (0%)
Number of Thumb ins in input = 16 (72%)
Number of Thumb2 ins encoded as Thumb2 = 6 (100%)
Number of Thumb2 ins converted to 2 OPND Thumb = 0


No Assembly Errors, No Assembly Warnings
