TI ARM Assembler PC v16.9.4 Tue Apr 03 11:15:21 2018

Tools Copyright (c) 1996-2017 Texas Instruments Incorporated
C:\Users\Kevin\AppData\Local\Temp\{BD2815D5-01F3-43A2-98CD-B080CA14D9D7} PAGE    1

       1                    ;******************************************************************************
       2                    ;* TI ARM C/C++ Codegen                                        PC v16.9.4.LTS *
       3                    ;* Date/Time created: Tue Apr 03 11:15:20 2018                                *
       4                    ;******************************************************************************
       5                            .compiler_opts --abi=eabi --arm_vmrs_si_workaround=off --code_state=16 --diag_wrap=off --embed
       6 00000000                   .thumb
       7                    
       8                    $C$DW$CU        .dwtag  DW_TAG_compile_unit
       9                            .dwattr $C$DW$CU, DW_AT_name("../Application/LaunchPad/board_lcd.c")
      10                            .dwattr $C$DW$CU, DW_AT_producer("TI TI ARM C/C++ Codegen PC v16.9.4.LTS Copyright (c) 1996-20
      11                            .dwattr $C$DW$CU, DW_AT_TI_version(0x01)
      12                            .dwattr $C$DW$CU, DW_AT_comp_dir("C:\Users\Kevin\workspace_v7\sensor_cc1310lp\sensor_cc1310lp"
      13                    
      14                    $C$DW$1 .dwtag  DW_TAG_subprogram
      15                            .dwattr $C$DW$1, DW_AT_name("memcpy")
      16                            .dwattr $C$DW$1, DW_AT_TI_symbol_name("memcpy")
      17                            .dwattr $C$DW$1, DW_AT_type(*$C$DW$T$3)
      18                            .dwattr $C$DW$1, DW_AT_declaration
      19                            .dwattr $C$DW$1, DW_AT_external
      20                            .dwattr $C$DW$1, DW_AT_decl_file("C:/ti/ccsv7/tools/compiler/ti-cgt-arm_16.9.4.LTS/include/str
      21                            .dwattr $C$DW$1, DW_AT_decl_line(0x6b)
      22                            .dwattr $C$DW$1, DW_AT_decl_column(0x16)
      23                    $C$DW$2 .dwtag  DW_TAG_formal_parameter
      24                            .dwattr $C$DW$2, DW_AT_type(*$C$DW$T$3)
      25                    
      26                    $C$DW$3 .dwtag  DW_TAG_formal_parameter
      27                            .dwattr $C$DW$3, DW_AT_type(*$C$DW$T$152)
      28                    
      29                    $C$DW$4 .dwtag  DW_TAG_formal_parameter
      30                            .dwattr $C$DW$4, DW_AT_type(*$C$DW$T$297)
      31                    
      32                            .dwendtag $C$DW$1
      33                    
      34                    
      35                    $C$DW$5 .dwtag  DW_TAG_subprogram
      36                            .dwattr $C$DW$5, DW_AT_name("__builtin_strlen")
      37                            .dwattr $C$DW$5, DW_AT_TI_symbol_name("__builtin_strlen")
      38                            .dwattr $C$DW$5, DW_AT_type(*$C$DW$T$11)
      39                            .dwattr $C$DW$5, DW_AT_declaration
      40                            .dwattr $C$DW$5, DW_AT_external
      41                    $C$DW$6 .dwtag  DW_TAG_formal_parameter
      42                            .dwattr $C$DW$6, DW_AT_type(*$C$DW$T$319)
      43                    
      44                            .dwendtag $C$DW$5
      45                    
      46                    
      47                    $C$DW$7 .dwtag  DW_TAG_subprogram
      48                            .dwattr $C$DW$7, DW_AT_name("strlen")
      49                            .dwattr $C$DW$7, DW_AT_TI_symbol_name("strlen")
      50                            .dwattr $C$DW$7, DW_AT_type(*$C$DW$T$297)
      51                            .dwattr $C$DW$7, DW_AT_declaration
      52                            .dwattr $C$DW$7, DW_AT_external
      53                            .dwattr $C$DW$7, DW_AT_decl_file("C:/ti/ccsv7/tools/compiler/ti-cgt-arm_16.9.4.LTS/include/str
      54                            .dwattr $C$DW$7, DW_AT_decl_line(0x51)
      55                            .dwattr $C$DW$7, DW_AT_decl_column(0x14)
TI ARM Assembler PC v16.9.4 Tue Apr 03 11:15:21 2018

Tools Copyright (c) 1996-2017 Texas Instruments Incorporated
C:\Users\Kevin\AppData\Local\Temp\{BD2815D5-01F3-43A2-98CD-B080CA14D9D7} PAGE    2

      56                    $C$DW$8 .dwtag  DW_TAG_formal_parameter
      57                            .dwattr $C$DW$8, DW_AT_type(*$C$DW$T$319)
      58                    
      59                            .dwendtag $C$DW$7
      60                    
      61                    
      62                    $C$DW$9 .dwtag  DW_TAG_subprogram
      63                            .dwattr $C$DW$9, DW_AT_name("memset")
      64                            .dwattr $C$DW$9, DW_AT_TI_symbol_name("memset")
      65                            .dwattr $C$DW$9, DW_AT_type(*$C$DW$T$3)
      66                            .dwattr $C$DW$9, DW_AT_declaration
      67                            .dwattr $C$DW$9, DW_AT_external
      68                            .dwattr $C$DW$9, DW_AT_decl_file("C:/ti/ccsv7/tools/compiler/ti-cgt-arm_16.9.4.LTS/include/str
      69                            .dwattr $C$DW$9, DW_AT_decl_line(0x71)
      70                            .dwattr $C$DW$9, DW_AT_decl_column(0x16)
      71                    $C$DW$10        .dwtag  DW_TAG_formal_parameter
      72                            .dwattr $C$DW$10, DW_AT_type(*$C$DW$T$3)
      73                    
      74                    $C$DW$11        .dwtag  DW_TAG_formal_parameter
      75                            .dwattr $C$DW$11, DW_AT_type(*$C$DW$T$10)
      76                    
      77                    $C$DW$12        .dwtag  DW_TAG_formal_parameter
      78                            .dwattr $C$DW$12, DW_AT_type(*$C$DW$T$297)
      79                    
      80                            .dwendtag $C$DW$9
      81                    
      82                    
      83                    $C$DW$13        .dwtag  DW_TAG_subprogram
      84                            .dwattr $C$DW$13, DW_AT_name("xdc_runtime_System_printf__E")
      85                            .dwattr $C$DW$13, DW_AT_TI_symbol_name("xdc_runtime_System_printf__E")
      86                            .dwattr $C$DW$13, DW_AT_type(*$C$DW$T$337)
      87                            .dwattr $C$DW$13, DW_AT_declaration
      88                            .dwattr $C$DW$13, DW_AT_external
      89                            .dwattr $C$DW$13, DW_AT_decl_file("C:/ti/xdctools_3_50_03_33_core/packages/xdc/runtime/System.
      90                            .dwattr $C$DW$13, DW_AT_decl_line(0x17f)
      91                            .dwattr $C$DW$13, DW_AT_decl_column(0x12)
      92                    $C$DW$14        .dwtag  DW_TAG_formal_parameter
      93                            .dwattr $C$DW$14, DW_AT_type(*$C$DW$T$320)
      94                    
      95                    $C$DW$15        .dwtag  DW_TAG_unspecified_parameters
      96                    
      97                            .dwendtag $C$DW$13
      98                    
      99                    
     100                    $C$DW$16        .dwtag  DW_TAG_subprogram
     101                            .dwattr $C$DW$16, DW_AT_name("Util_itoa")
     102                            .dwattr $C$DW$16, DW_AT_TI_symbol_name("Util_itoa")
     103                            .dwattr $C$DW$16, DW_AT_declaration
     104                            .dwattr $C$DW$16, DW_AT_external
     105                            .dwattr $C$DW$16, DW_AT_decl_file("C:/Users/Kevin/workspace_v7/sensor_cc1310lp/Application/uti
     106                            .dwattr $C$DW$16, DW_AT_decl_line(0x8d)
     107                            .dwattr $C$DW$16, DW_AT_decl_column(0x0d)
     108                    $C$DW$17        .dwtag  DW_TAG_formal_parameter
     109                            .dwattr $C$DW$17, DW_AT_type(*$C$DW$T$105)
     110                    
TI ARM Assembler PC v16.9.4 Tue Apr 03 11:15:21 2018

Tools Copyright (c) 1996-2017 Texas Instruments Incorporated
C:\Users\Kevin\AppData\Local\Temp\{BD2815D5-01F3-43A2-98CD-B080CA14D9D7} PAGE    3

     111                    $C$DW$18        .dwtag  DW_TAG_formal_parameter
     112                            .dwattr $C$DW$18, DW_AT_type(*$C$DW$T$89)
     113                    
     114                    $C$DW$19        .dwtag  DW_TAG_formal_parameter
     115                            .dwattr $C$DW$19, DW_AT_type(*$C$DW$T$88)
     116                    
     117                            .dwendtag $C$DW$16
     118                    
     119 00000000           lcdBuf: .usect  ".bss:lcdBuf",40,1
     120                            .clink ".bss:lcdBuf"
     121                    $C$DW$20        .dwtag  DW_TAG_variable
     122                            .dwattr $C$DW$20, DW_AT_name("lcdBuf")
     123                            .dwattr $C$DW$20, DW_AT_TI_symbol_name("lcdBuf")
     124                            .dwattr $C$DW$20, DW_AT_type(*$C$DW$T$687)
     125                            .dwattr $C$DW$20, DW_AT_location[DW_OP_addr lcdBuf]
     126                            .dwattr $C$DW$20, DW_AT_decl_file("../Application/LaunchPad/board_lcd.c")
     127                            .dwattr $C$DW$20, DW_AT_decl_line(0x4b)
     128                            .dwattr $C$DW$20, DW_AT_decl_column(0x10)
     129                    
     130                    ;       C:\ti\ccsv7\tools\compiler\ti-cgt-arm_16.9.4.LTS\bin\armopt.exe C:/Users/Kevin/workspace_v7/se
     131 00000000                   .sect   ".text:Board_Lcd_writeStringValue"
     132                            .clink
     133                            .thumbfunc Board_Lcd_writeStringValue
     134 00000000                   .thumb
     135                            .global Board_Lcd_writeStringValue
     136                    
     137                    $C$DW$21        .dwtag  DW_TAG_subprogram
     138                            .dwattr $C$DW$21, DW_AT_name("Board_Lcd_writeStringValue")
     139                            .dwattr $C$DW$21, DW_AT_low_pc(Board_Lcd_writeStringValue)
     140                            .dwattr $C$DW$21, DW_AT_high_pc(0x00)
     141                            .dwattr $C$DW$21, DW_AT_TI_symbol_name("Board_Lcd_writeStringValue")
     142                            .dwattr $C$DW$21, DW_AT_external
     143                            .dwattr $C$DW$21, DW_AT_TI_begin_file("../Application/LaunchPad/board_lcd.c")
     144                            .dwattr $C$DW$21, DW_AT_TI_begin_line(0x87)
     145                            .dwattr $C$DW$21, DW_AT_TI_begin_column(0x06)
     146                            .dwattr $C$DW$21, DW_AT_decl_file("../Application/LaunchPad/board_lcd.c")
     147                            .dwattr $C$DW$21, DW_AT_decl_line(0x87)
     148                            .dwattr $C$DW$21, DW_AT_decl_column(0x06)
     149                            .dwattr $C$DW$21, DW_AT_TI_max_frame_size(0x18)
     150                            .dwpsn  file "../Application/LaunchPad/board_lcd.c",line 137,column 1,is_stmt,address Board_Lc
     151                    
     152                            .dwfde $C$DW$CIE, Board_Lcd_writeStringValue
     153                    $C$DW$22        .dwtag  DW_TAG_formal_parameter
     154                            .dwattr $C$DW$22, DW_AT_name("str")
     155                            .dwattr $C$DW$22, DW_AT_TI_symbol_name("str")
     156                            .dwattr $C$DW$22, DW_AT_type(*$C$DW$T$169)
     157                            .dwattr $C$DW$22, DW_AT_location[DW_OP_reg0]
     158                    
     159                    $C$DW$23        .dwtag  DW_TAG_formal_parameter
     160                            .dwattr $C$DW$23, DW_AT_name("value")
     161                            .dwattr $C$DW$23, DW_AT_TI_symbol_name("value")
     162                            .dwattr $C$DW$23, DW_AT_type(*$C$DW$T$105)
     163                            .dwattr $C$DW$23, DW_AT_location[DW_OP_reg1]
     164                    
     165                    $C$DW$24        .dwtag  DW_TAG_formal_parameter
TI ARM Assembler PC v16.9.4 Tue Apr 03 11:15:21 2018

Tools Copyright (c) 1996-2017 Texas Instruments Incorporated
C:\Users\Kevin\AppData\Local\Temp\{BD2815D5-01F3-43A2-98CD-B080CA14D9D7} PAGE    4

     166                            .dwattr $C$DW$24, DW_AT_name("format")
     167                            .dwattr $C$DW$24, DW_AT_TI_symbol_name("format")
     168                            .dwattr $C$DW$24, DW_AT_type(*$C$DW$T$88)
     169                            .dwattr $C$DW$24, DW_AT_location[DW_OP_reg2]
     170                    
     171                    $C$DW$25        .dwtag  DW_TAG_formal_parameter
     172                            .dwattr $C$DW$25, DW_AT_name("line")
     173                            .dwattr $C$DW$25, DW_AT_TI_symbol_name("line")
     174                            .dwattr $C$DW$25, DW_AT_type(*$C$DW$T$88)
     175                            .dwattr $C$DW$25, DW_AT_location[DW_OP_reg3]
     176                    
     177                    
     178                    ;*****************************************************************************
     179                    ;* FUNCTION NAME: Board_Lcd_writeStringValue                                 *
     180                    ;*                                                                           *
     181                    ;*   Regs Modified     : A1,A2,A3,A4,V1,V2,V3,V4,V5,V9,SP,LR,SR              *
     182                    ;*   Regs Used         : A1,A2,A3,A4,V1,V2,V3,V4,V5,V9,SP,LR,SR              *
     183                    ;*   Local Frame Size  : 0 Args + 0 Auto + 24 Save = 24 byte                 *
     184                    ;*****************************************************************************
     185                    Board_Lcd_writeStringValue:
     186                    ;* --------------------------------------------------------------------------*
     187                    ;* V1    assigned to $O$C1
     188                    ;* V3    assigned to str
     189                    $C$DW$26        .dwtag  DW_TAG_variable
     190                            .dwattr $C$DW$26, DW_AT_name("str")
     191                            .dwattr $C$DW$26, DW_AT_TI_symbol_name("str")
     192                            .dwattr $C$DW$26, DW_AT_type(*$C$DW$T$877)
     193                            .dwattr $C$DW$26, DW_AT_location[DW_OP_reg6]
     194                    
     195                    ;* V2    assigned to len
     196                    $C$DW$27        .dwtag  DW_TAG_variable
     197                            .dwattr $C$DW$27, DW_AT_name("len")
     198                            .dwattr $C$DW$27, DW_AT_TI_symbol_name("len")
     199                            .dwattr $C$DW$27, DW_AT_type(*$C$DW$T$10)
     200                            .dwattr $C$DW$27, DW_AT_location[DW_OP_reg5]
     201                    
     202                            .dwcfi  cfa_offset, 0
     203 00000000 41F0E92D          PUSH      {V1, V2, V3, V4, V5, LR} ; [DPU_3_PIPE]  ; [KEEP 32-BIT INS]
     204                            .dwcfi  cfa_offset, 24
     205                            .dwcfi  save_reg_to_mem, 14, -4
     206                            .dwcfi  save_reg_to_mem, 8, -8
     207                            .dwcfi  save_reg_to_mem, 7, -12
     208                            .dwcfi  save_reg_to_mem, 6, -16
     209                            .dwcfi  save_reg_to_mem, 5, -20
     210                            .dwcfi  save_reg_to_mem, 4, -24
     211 00000004 4617              MOV       V4, A3                ; [DPU_3_PIPE] |137|  ; [ORIG 16-BIT INS]
     212 00000006 4688              MOV       V5, A2                ; [DPU_3_PIPE] |137|  ; [ORIG 16-BIT INS]
     213 00000008 4606              MOV       V3, A1                ; [DPU_3_PIPE] |137|  ; [ORIG 16-BIT INS]
     214                            .dwpsn  file "../Application/LaunchPad/board_lcd.c",line 138,column 13,is_stmt,isa 1
     215                    $C$DW$28        .dwtag  DW_TAG_TI_branch
     216                            .dwattr $C$DW$28, DW_AT_low_pc(0x00)
     217                            .dwattr $C$DW$28, DW_AT_name("strlen")
     218                            .dwattr $C$DW$28, DW_AT_TI_call
     219                    
     220 0000000a FFFEF7FF!         BL        strlen                ; [DPU_3_PIPE] |138|  ; [KEEP 32-BIT INS]
TI ARM Assembler PC v16.9.4 Tue Apr 03 11:15:21 2018

Tools Copyright (c) 1996-2017 Texas Instruments Incorporated
C:\Users\Kevin\AppData\Local\Temp\{BD2815D5-01F3-43A2-98CD-B080CA14D9D7} PAGE    5

     221                            ; CALL OCCURS {strlen }          ; [] |138| 
     222                            .dwpsn  file "../Application/LaunchPad/board_lcd.c",line 139,column 5,is_stmt,isa 1
     223 0000000e 4C0D              LDR       V1, $C$CON1           ; [DPU_3_PIPE] |139|  ; [ORIG 16-BIT INS]
     224                            .dwpsn  file "../Application/LaunchPad/board_lcd.c",line 138,column 13,is_stmt,isa 1
     225 00000010 4605              MOV       V2, A1                ; [DPU_3_PIPE] |138|  ; [ORIG 16-BIT INS]
     226                            .dwpsn  file "../Application/LaunchPad/board_lcd.c",line 139,column 5,is_stmt,isa 1
     227 00000012 2100              MOVS      A2, #0                ; [DPU_3_PIPE] |139|  ; [ORIG 16-BIT INS]
     228 00000014 2228              MOVS      A3, #40               ; [DPU_3_PIPE] |139|  ; [ORIG 16-BIT INS]
     229 00000016 4620              MOV       A1, V1                ; [DPU_3_PIPE] |139|  ; [ORIG 16-BIT INS]
     230                    $C$DW$29        .dwtag  DW_TAG_TI_branch
     231                            .dwattr $C$DW$29, DW_AT_low_pc(0x00)
     232                            .dwattr $C$DW$29, DW_AT_name("memset")
     233                            .dwattr $C$DW$29, DW_AT_TI_call
     234                    
     235 00000018 FFFEF7FF!         BL        memset                ; [DPU_3_PIPE] |139|  ; [KEEP 32-BIT INS]
     236                            ; CALL OCCURS {memset }          ; [] |139| 
     237                            .dwpsn  file "../Application/LaunchPad/board_lcd.c",line 140,column 5,is_stmt,isa 1
     238 0000001c 4631              MOV       A2, V3                ; [DPU_3_PIPE] |140|  ; [ORIG 16-BIT INS]
     239 0000001e 462A              MOV       A3, V2                ; [DPU_3_PIPE] |140|  ; [ORIG 16-BIT INS]
     240 00000020 4620              MOV       A1, V1                ; [DPU_3_PIPE] |140|  ; [ORIG 16-BIT INS]
     241                    $C$DW$30        .dwtag  DW_TAG_TI_branch
     242                            .dwattr $C$DW$30, DW_AT_low_pc(0x00)
     243                            .dwattr $C$DW$30, DW_AT_name("memcpy")
     244                            .dwattr $C$DW$30, DW_AT_TI_call
     245                    
     246 00000022 FFFEF7FF!         BL        memcpy                ; [DPU_3_PIPE] |140|  ; [KEEP 32-BIT INS]
     247                            ; CALL OCCURS {memcpy }          ; [] |140| 
     248                            .dwpsn  file "../Application/LaunchPad/board_lcd.c",line 141,column 5,is_stmt,isa 1
     249 00000026 4640              MOV       A1, V5                ; [DPU_3_PIPE] |141|  ; [ORIG 16-BIT INS]
     250 00000028 463A              MOV       A3, V4                ; [DPU_3_PIPE] |141|  ; [ORIG 16-BIT INS]
     251 0000002a 1929              ADDS      A2, V2, V1            ; [DPU_3_PIPE] |141|  ; [ORIG 16-BIT INS]
     252                    $C$DW$31        .dwtag  DW_TAG_TI_branch
     253                            .dwattr $C$DW$31, DW_AT_low_pc(0x00)
     254                            .dwattr $C$DW$31, DW_AT_name("Util_itoa")
     255                            .dwattr $C$DW$31, DW_AT_TI_call
     256                    
     257 0000002c FFFEF7FF!         BL        Util_itoa             ; [DPU_3_PIPE] |141|  ; [KEEP 32-BIT INS]
     258                            ; CALL OCCURS {Util_itoa }       ; [] |141| 
     259                            .dwpsn  file "../Application/LaunchPad/board_lcd.c",line 144,column 5,is_stmt,isa 1
     260 00000030 4620              MOV       A1, V1                ; [DPU_3_PIPE] |144|  ; [ORIG 16-BIT INS]
     261                    $C$DW$32        .dwtag  DW_TAG_TI_branch
     262                            .dwattr $C$DW$32, DW_AT_low_pc(0x00)
     263                            .dwattr $C$DW$32, DW_AT_name("xdc_runtime_System_printf__E")
     264                            .dwattr $C$DW$32, DW_AT_TI_call
     265                    
     266 00000032 FFFEF7FF!         BL        xdc_runtime_System_printf__E ; [DPU_3_PIPE] |144|  ; [KEEP 32-BIT INS]
     267                            ; CALL OCCURS {xdc_runtime_System_printf__E }  ; [] |144| 
     268                            .dwpsn  file "../Application/LaunchPad/board_lcd.c",line 145,column 5,is_stmt,isa 1
     269 00000036 A002              ADR       A1, $C$SL1            ; [DPU_3_PIPE] |145|  ; [ORIG 16-BIT INS]
     270                    $C$DW$33        .dwtag  DW_TAG_TI_branch
     271                            .dwattr $C$DW$33, DW_AT_low_pc(0x00)
     272                            .dwattr $C$DW$33, DW_AT_name("xdc_runtime_System_printf__E")
     273                            .dwattr $C$DW$33, DW_AT_TI_call
     274                    
     275 00000038 FFFEF7FF!         BL        xdc_runtime_System_printf__E ; [DPU_3_PIPE] |145|  ; [KEEP 32-BIT INS]
TI ARM Assembler PC v16.9.4 Tue Apr 03 11:15:21 2018

Tools Copyright (c) 1996-2017 Texas Instruments Incorporated
C:\Users\Kevin\AppData\Local\Temp\{BD2815D5-01F3-43A2-98CD-B080CA14D9D7} PAGE    6

     276                            ; CALL OCCURS {xdc_runtime_System_printf__E }  ; [] |145| 
     277                    $C$DW$34        .dwtag  DW_TAG_TI_branch
     278                            .dwattr $C$DW$34, DW_AT_low_pc(0x00)
     279                            .dwattr $C$DW$34, DW_AT_TI_return
     280                    
     281 0000003c 81F0E8BD          POP       {V1, V2, V3, V4, V5, PC} ; [DPU_3_PIPE]  ; [KEEP 32-BIT INS]
     282                            .dwcfi  cfa_offset, 0
     283                            ; BRANCH OCCURS                  ; [] 
     284                            .dwattr $C$DW$21, DW_AT_TI_end_file("../Application/LaunchPad/board_lcd.c")
     285                            .dwattr $C$DW$21, DW_AT_TI_end_line(0x9c)
     286                            .dwattr $C$DW$21, DW_AT_TI_end_column(0x01)
     287                            .dwendentry
     288                            .dwendtag $C$DW$21
     289                    
     290 00000000                   .sect   ".text:Board_Lcd_writeString"
     291                            .clink
     292                            .thumbfunc Board_Lcd_writeString
     293 00000000                   .thumb
     294                            .global Board_Lcd_writeString
     295                    
     296                    $C$DW$35        .dwtag  DW_TAG_subprogram
     297                            .dwattr $C$DW$35, DW_AT_name("Board_Lcd_writeString")
     298                            .dwattr $C$DW$35, DW_AT_low_pc(Board_Lcd_writeString)
     299                            .dwattr $C$DW$35, DW_AT_high_pc(0x00)
     300                            .dwattr $C$DW$35, DW_AT_TI_symbol_name("Board_Lcd_writeString")
     301                            .dwattr $C$DW$35, DW_AT_external
     302                            .dwattr $C$DW$35, DW_AT_TI_begin_file("../Application/LaunchPad/board_lcd.c")
     303                            .dwattr $C$DW$35, DW_AT_TI_begin_line(0x71)
     304                            .dwattr $C$DW$35, DW_AT_TI_begin_column(0x06)
     305                            .dwattr $C$DW$35, DW_AT_decl_file("../Application/LaunchPad/board_lcd.c")
     306                            .dwattr $C$DW$35, DW_AT_decl_line(0x71)
     307                            .dwattr $C$DW$35, DW_AT_decl_column(0x06)
     308                            .dwattr $C$DW$35, DW_AT_TI_max_frame_size(0x08)
     309                            .dwpsn  file "../Application/LaunchPad/board_lcd.c",line 114,column 1,is_stmt,address Board_Lc
     310                    
     311                            .dwfde $C$DW$CIE, Board_Lcd_writeString
     312                    $C$DW$36        .dwtag  DW_TAG_formal_parameter
     313                            .dwattr $C$DW$36, DW_AT_name("str")
     314                            .dwattr $C$DW$36, DW_AT_TI_symbol_name("str")
     315                            .dwattr $C$DW$36, DW_AT_type(*$C$DW$T$169)
     316                            .dwattr $C$DW$36, DW_AT_location[DW_OP_reg0]
     317                    
     318                    $C$DW$37        .dwtag  DW_TAG_formal_parameter
     319                            .dwattr $C$DW$37, DW_AT_name("line")
     320                            .dwattr $C$DW$37, DW_AT_TI_symbol_name("line")
     321                            .dwattr $C$DW$37, DW_AT_type(*$C$DW$T$88)
     322                            .dwattr $C$DW$37, DW_AT_location[DW_OP_reg1]
     323                    
     324                    
     325                    ;*****************************************************************************
     326                    ;* FUNCTION NAME: Board_Lcd_writeString                                      *
     327                    ;*                                                                           *
     328                    ;*   Regs Modified     : A1,A2,A3,A4,V9,SP,LR,SR                             *
     329                    ;*   Regs Used         : A1,A2,A3,A4,V9,SP,LR,SR                             *
     330                    ;*   Local Frame Size  : 0 Args + 0 Auto + 4 Save = 4 byte                   *
TI ARM Assembler PC v16.9.4 Tue Apr 03 11:15:21 2018

Tools Copyright (c) 1996-2017 Texas Instruments Incorporated
C:\Users\Kevin\AppData\Local\Temp\{BD2815D5-01F3-43A2-98CD-B080CA14D9D7} PAGE    7

     331                    ;*****************************************************************************
     332 00000000           Board_Lcd_writeString:
     333                    ;* --------------------------------------------------------------------------*
     334                            .dwcfi  cfa_offset, 0
     335 00000000 B508              PUSH      {A4, LR}              ; [DPU_3_PIPE]  ; [ORIG 16-BIT INS]
     336                            .dwcfi  cfa_offset, 8
     337                            .dwcfi  save_reg_to_mem, 14, -4
     338                            .dwcfi  save_reg_to_mem, 3, -8
     339                            .dwpsn  file "../Application/LaunchPad/board_lcd.c",line 116,column 5,is_stmt,isa 1
     340                    $C$DW$38        .dwtag  DW_TAG_TI_branch
     341                            .dwattr $C$DW$38, DW_AT_low_pc(0x00)
     342                            .dwattr $C$DW$38, DW_AT_name("xdc_runtime_System_printf__E")
     343                            .dwattr $C$DW$38, DW_AT_TI_call
     344                    
     345 00000002 FFFEF7FF!         BL        xdc_runtime_System_printf__E ; [DPU_3_PIPE] |116|  ; [KEEP 32-BIT INS]
     346                            ; CALL OCCURS {xdc_runtime_System_printf__E }  ; [] |116| 
     347                            .dwpsn  file "../Application/LaunchPad/board_lcd.c",line 117,column 5,is_stmt,isa 1
     348 00000006 A002              ADR       A1, $C$SL2            ; [DPU_3_PIPE] |117|  ; [ORIG 16-BIT INS]
     349                    $C$DW$39        .dwtag  DW_TAG_TI_branch
     350                            .dwattr $C$DW$39, DW_AT_low_pc(0x00)
     351                            .dwattr $C$DW$39, DW_AT_name("xdc_runtime_System_printf__E")
     352                            .dwattr $C$DW$39, DW_AT_TI_call
     353                    
     354 00000008 FFFEF7FF!         BL        xdc_runtime_System_printf__E ; [DPU_3_PIPE] |117|  ; [KEEP 32-BIT INS]
     355                            ; CALL OCCURS {xdc_runtime_System_printf__E }  ; [] |117| 
     356                    $C$DW$40        .dwtag  DW_TAG_TI_branch
     357                            .dwattr $C$DW$40, DW_AT_low_pc(0x00)
     358                            .dwattr $C$DW$40, DW_AT_TI_return
     359                    
     360 0000000c BD08              POP       {A4, PC}              ; [DPU_3_PIPE]  ; [ORIG 16-BIT INS]
     361                            .dwcfi  cfa_offset, 0
     362                            ; BRANCH OCCURS                  ; [] 
     363                            .dwattr $C$DW$35, DW_AT_TI_end_file("../Application/LaunchPad/board_lcd.c")
     364                            .dwattr $C$DW$35, DW_AT_TI_end_line(0x80)
     365                            .dwattr $C$DW$35, DW_AT_TI_end_column(0x01)
     366                            .dwendentry
     367                            .dwendtag $C$DW$35
     368                    
     369 00000000                   .sect   ".text:Board_LCD_open"
     370                            .clink
     371                            .thumbfunc Board_LCD_open
     372 00000000                   .thumb
     373                            .global Board_LCD_open
     374                    
     375                    $C$DW$41        .dwtag  DW_TAG_subprogram
     376                            .dwattr $C$DW$41, DW_AT_name("Board_LCD_open")
     377                            .dwattr $C$DW$41, DW_AT_low_pc(Board_LCD_open)
     378                            .dwattr $C$DW$41, DW_AT_high_pc(0x00)
     379                            .dwattr $C$DW$41, DW_AT_TI_symbol_name("Board_LCD_open")
     380                            .dwattr $C$DW$41, DW_AT_external
     381                            .dwattr $C$DW$41, DW_AT_TI_begin_file("../Application/LaunchPad/board_lcd.c")
     382                            .dwattr $C$DW$41, DW_AT_TI_begin_line(0x5f)
     383                            .dwattr $C$DW$41, DW_AT_TI_begin_column(0x06)
     384                            .dwattr $C$DW$41, DW_AT_decl_file("../Application/LaunchPad/board_lcd.c")
     385                            .dwattr $C$DW$41, DW_AT_decl_line(0x5f)
TI ARM Assembler PC v16.9.4 Tue Apr 03 11:15:21 2018

Tools Copyright (c) 1996-2017 Texas Instruments Incorporated
C:\Users\Kevin\AppData\Local\Temp\{BD2815D5-01F3-43A2-98CD-B080CA14D9D7} PAGE    8

     386                            .dwattr $C$DW$41, DW_AT_decl_column(0x06)
     387                            .dwattr $C$DW$41, DW_AT_TI_max_frame_size(0x00)
     388                            .dwpsn  file "../Application/LaunchPad/board_lcd.c",line 96,column 1,is_stmt,address Board_LCD
     389                    
     390                            .dwfde $C$DW$CIE, Board_LCD_open
     391                    
     392                    ;*****************************************************************************
     393                    ;* FUNCTION NAME: Board_LCD_open                                             *
     394                    ;*                                                                           *
     395                    ;*   Regs Modified     :                                                     *
     396                    ;*   Regs Used         : LR                                                  *
     397                    ;*   Local Frame Size  : 0 Args + 0 Auto + 0 Save = 0 byte                   *
     398                    ;*****************************************************************************
     399 00000000           Board_LCD_open:
     400                    ;* --------------------------------------------------------------------------*
     401                            .dwcfi  cfa_offset, 0
     402                    $C$DW$42        .dwtag  DW_TAG_TI_branch
     403                            .dwattr $C$DW$42, DW_AT_low_pc(0x00)
     404                            .dwattr $C$DW$42, DW_AT_TI_return
     405                    
     406 00000000 4770              BX        LR                    ; [DPU_3_PIPE]  ; [ORIG 16-BIT INS]
     407                            ; BRANCH OCCURS                  ; [] 
     408                            .dwattr $C$DW$41, DW_AT_TI_end_file("../Application/LaunchPad/board_lcd.c")
     409                            .dwattr $C$DW$41, DW_AT_TI_end_line(0x69)
     410                            .dwattr $C$DW$41, DW_AT_TI_end_column(0x01)
     411                            .dwendentry
     412                            .dwendtag $C$DW$41
     413                    
     414                    ;******************************************************************************
     415                    ;* STRINGS                                                                    *
     416                    ;******************************************************************************
     417 00000040                   .sect   ".text:Board_Lcd_writeStringValue"
     418                            .align  4
     419 00000040 0D        ||$C$SL1||:     .string 13,10,0
         00000041 0A       
         00000042 00       
     420                    ;******************************************************************************
     421                    ;* CONSTANT TABLE                                                             *
     422                    ;******************************************************************************
     423 00000043                   .sect   ".text:Board_Lcd_writeStringValue"
     424                            .align  4
     425 00000044 00000000! ||$C$CON1||:    .bits   lcdBuf,32
     426                    ;******************************************************************************
     427                    ;* STRINGS                                                                    *
     428                    ;******************************************************************************
     429 0000000e                   .sect   ".text:Board_Lcd_writeString"
     430                            .align  4
     431 00000010 0D        ||$C$SL2||:     .string 13,10,0
         00000011 0A       
         00000012 00       
     432                    ;*****************************************************************************
     433                    ;* UNDEFINED EXTERNAL REFERENCES                                             *
     434                    ;*****************************************************************************
     435                            .global strlen
     436                            .global memset
TI ARM Assembler PC v16.9.4 Tue Apr 03 11:15:21 2018

Tools Copyright (c) 1996-2017 Texas Instruments Incorporated
C:\Users\Kevin\AppData\Local\Temp\{BD2815D5-01F3-43A2-98CD-B080CA14D9D7} PAGE    9

     437                            .global xdc_runtime_System_printf__E
     438                            .global Util_itoa
     439                            .global memcpy
     440                    
     441                    ;******************************************************************************
     442                    ;* BUILD ATTRIBUTES                                                           *
     443                    ;******************************************************************************
     444                            .battr "aeabi", Tag_File, 1, Tag_ABI_PCS_wchar_t(2)
     445                            .battr "aeabi", Tag_File, 1, Tag_ABI_FP_rounding(0)
     446                            .battr "aeabi", Tag_File, 1, Tag_ABI_FP_denormal(0)
     447                            .battr "aeabi", Tag_File, 1, Tag_ABI_FP_exceptions(0)
     448                            .battr "aeabi", Tag_File, 1, Tag_ABI_FP_number_model(1)
     449                            .battr "aeabi", Tag_File, 1, Tag_ABI_enum_size(1)
     450                            .battr "aeabi", Tag_File, 1, Tag_ABI_optimization_goals(0)
     451                            .battr "aeabi", Tag_File, 1, Tag_ABI_FP_optimization_goals(0)
     452                            .battr "TI", Tag_File, 1, Tag_Bitfield_layout(2)
     453                            .battr "aeabi", Tag_File, 1, Tag_ABI_VFP_args(3)
     454                            .battr "TI", Tag_File, 1, Tag_FP_interface(1)
     455                    
     456                    ;******************************************************************************
     457                    ;* TYPE INFORMATION                                                           *
     458                    ;******************************************************************************
     459                    
     460                    $C$DW$T$465     .dwtag  DW_TAG_enumeration_type
     461                            .dwattr $C$DW$T$465, DW_AT_byte_size(0x01)
     462                    $C$DW$43        .dwtag  DW_TAG_enumerator
     463                            .dwattr $C$DW$43, DW_AT_name("PIN_SUCCESS")
     464                            .dwattr $C$DW$43, DW_AT_const_value(0x00)
     465                            .dwattr $C$DW$43, DW_AT_decl_file("C:/ti/simplelink_cc13x0_sdk_1_50_00_08/source/ti/drivers/PI
     466                            .dwattr $C$DW$43, DW_AT_decl_line(0x2b2)
     467                            .dwattr $C$DW$43, DW_AT_decl_column(0x05)
     468                    
     469                    $C$DW$44        .dwtag  DW_TAG_enumerator
     470                            .dwattr $C$DW$44, DW_AT_name("PIN_ALREADY_ALLOCATED")
     471                            .dwattr $C$DW$44, DW_AT_const_value(0x01)
     472                            .dwattr $C$DW$44, DW_AT_decl_file("C:/ti/simplelink_cc13x0_sdk_1_50_00_08/source/ti/drivers/PI
     473                            .dwattr $C$DW$44, DW_AT_decl_line(0x2b3)
     474                            .dwattr $C$DW$44, DW_AT_decl_column(0x05)
     475                    
     476                    $C$DW$45        .dwtag  DW_TAG_enumerator
     477                            .dwattr $C$DW$45, DW_AT_name("PIN_NO_ACCESS")
     478                            .dwattr $C$DW$45, DW_AT_const_value(0x02)
     479                            .dwattr $C$DW$45, DW_AT_decl_file("C:/ti/simplelink_cc13x0_sdk_1_50_00_08/source/ti/drivers/PI
     480                            .dwattr $C$DW$45, DW_AT_decl_line(0x2b4)
     481                            .dwattr $C$DW$45, DW_AT_decl_column(0x05)
     482                    
     483                    $C$DW$46        .dwtag  DW_TAG_enumerator
     484                            .dwattr $C$DW$46, DW_AT_name("PIN_UNSUPPORTED")
     485                            .dwattr $C$DW$46, DW_AT_const_value(0x03)
     486                            .dwattr $C$DW$46, DW_AT_decl_file("C:/ti/simplelink_cc13x0_sdk_1_50_00_08/source/ti/drivers/PI
     487                            .dwattr $C$DW$46, DW_AT_decl_line(0x2b5)
     488                            .dwattr $C$DW$46, DW_AT_decl_column(0x05)
     489                    
     490                            .dwattr $C$DW$T$465, DW_AT_decl_file("C:/ti/simplelink_cc13x0_sdk_1_50_00_08/source/ti/drivers
     491                            .dwattr $C$DW$T$465, DW_AT_decl_line(0x2b1)
TI ARM Assembler PC v16.9.4 Tue Apr 03 11:15:21 2018

Tools Copyright (c) 1996-2017 Texas Instruments Incorporated
C:\Users\Kevin\AppData\Local\Temp\{BD2815D5-01F3-43A2-98CD-B080CA14D9D7} PAGE   10

     492                            .dwattr $C$DW$T$465, DW_AT_decl_column(0x0e)
     493                            .dwendtag $C$DW$T$465
     494                    
     495                    $C$DW$T$466     .dwtag  DW_TAG_typedef
     496                            .dwattr $C$DW$T$466, DW_AT_name("PIN_Status")
     497                            .dwattr $C$DW$T$466, DW_AT_type(*$C$DW$T$465)
     498                            .dwattr $C$DW$T$466, DW_AT_language(DW_LANG_C)
     499                            .dwattr $C$DW$T$466, DW_AT_decl_file("C:/ti/simplelink_cc13x0_sdk_1_50_00_08/source/ti/drivers
     500                            .dwattr $C$DW$T$466, DW_AT_decl_line(0x2b6)
     501                            .dwattr $C$DW$T$466, DW_AT_decl_column(0x03)
     502                    
     503                    
     504                    $C$DW$T$87      .dwtag  DW_TAG_structure_type
     505                            .dwattr $C$DW$T$87, DW_AT_byte_size(0x08)
     506                    $C$DW$47        .dwtag  DW_TAG_member
     507                            .dwattr $C$DW$47, DW_AT_type(*$C$DW$T$86)
     508                            .dwattr $C$DW$47, DW_AT_name("fg")
     509                            .dwattr $C$DW$47, DW_AT_TI_symbol_name("fg")
     510                            .dwattr $C$DW$47, DW_AT_data_member_location[DW_OP_plus_uconst 0x0]
     511                            .dwattr $C$DW$47, DW_AT_accessibility(DW_ACCESS_public)
     512                            .dwattr $C$DW$47, DW_AT_decl_file("C:/ti/simplelink_cc13x0_sdk_1_50_00_08/source/ti/display/Di
     513                            .dwattr $C$DW$47, DW_AT_decl_line(0x53)
     514                            .dwattr $C$DW$47, DW_AT_decl_column(0x0e)
     515                    
     516                    $C$DW$48        .dwtag  DW_TAG_member
     517                            .dwattr $C$DW$48, DW_AT_type(*$C$DW$T$86)
     518                            .dwattr $C$DW$48, DW_AT_name("bg")
     519                            .dwattr $C$DW$48, DW_AT_TI_symbol_name("bg")
     520                            .dwattr $C$DW$48, DW_AT_data_member_location[DW_OP_plus_uconst 0x4]
     521                            .dwattr $C$DW$48, DW_AT_accessibility(DW_ACCESS_public)
     522                            .dwattr $C$DW$48, DW_AT_decl_file("C:/ti/simplelink_cc13x0_sdk_1_50_00_08/source/ti/display/Di
     523                            .dwattr $C$DW$48, DW_AT_decl_line(0x54)
     524                            .dwattr $C$DW$48, DW_AT_decl_column(0x0e)
     525                    
     526                            .dwattr $C$DW$T$87, DW_AT_decl_file("C:/ti/simplelink_cc13x0_sdk_1_50_00_08/source/ti/display/
     527                            .dwattr $C$DW$T$87, DW_AT_decl_line(0x52)
     528                            .dwattr $C$DW$T$87, DW_AT_decl_column(0x01)
     529                            .dwendtag $C$DW$T$87
     530                    
     531                    $C$DW$T$145     .dwtag  DW_TAG_typedef
     532                            .dwattr $C$DW$T$145, DW_AT_name("DisplaySharpColor_t")
     533                            .dwattr $C$DW$T$145, DW_AT_type(*$C$DW$T$87)
     534                            .dwattr $C$DW$T$145, DW_AT_language(DW_LANG_C)
     535                            .dwattr $C$DW$T$145, DW_AT_decl_file("C:/ti/simplelink_cc13x0_sdk_1_50_00_08/source/ti/display
     536                            .dwattr $C$DW$T$145, DW_AT_decl_line(0x55)
     537                            .dwattr $C$DW$T$145, DW_AT_decl_column(0x03)
     538                    
     539                    
     540                    $C$DW$T$128     .dwtag  DW_TAG_structure_type
     541                            .dwattr $C$DW$T$128, DW_AT_byte_size(0x4c)
     542                    $C$DW$49        .dwtag  DW_TAG_member
     543                            .dwattr $C$DW$49, DW_AT_type(*$C$DW$T$92)
     544                            .dwattr $C$DW$49, DW_AT_name("Crc32")
     545                            .dwattr $C$DW$49, DW_AT_TI_symbol_name("Crc32")
     546                            .dwattr $C$DW$49, DW_AT_data_member_location[DW_OP_plus_uconst 0x0]
TI ARM Assembler PC v16.9.4 Tue Apr 03 11:15:21 2018

Tools Copyright (c) 1996-2017 Texas Instruments Incorporated
C:\Users\Kevin\AppData\Local\Temp\{BD2815D5-01F3-43A2-98CD-B080CA14D9D7} PAGE   11

     547                            .dwattr $C$DW$49, DW_AT_accessibility(DW_ACCESS_public)
     548                            .dwattr $C$DW$49, DW_AT_decl_file("C:\ti\simplelink_cc13x0_sdk_1_50_00_08\source\ti\devices\cc
     549                            .dwattr $C$DW$49, DW_AT_decl_line(0x76)
     550                            .dwattr $C$DW$49, DW_AT_decl_column(0x25)
     551                    
     552                    $C$DW$50        .dwtag  DW_TAG_member
     553                            .dwattr $C$DW$50, DW_AT_type(*$C$DW$T$95)
     554                            .dwattr $C$DW$50, DW_AT_name("FlashGetSize")
     555                            .dwattr $C$DW$50, DW_AT_TI_symbol_name("FlashGetSize")
     556                            .dwattr $C$DW$50, DW_AT_data_member_location[DW_OP_plus_uconst 0x4]
     557                            .dwattr $C$DW$50, DW_AT_accessibility(DW_ACCESS_public)
     558                            .dwattr $C$DW$50, DW_AT_decl_file("C:\ti\simplelink_cc13x0_sdk_1_50_00_08\source\ti\devices\cc
     559                            .dwattr $C$DW$50, DW_AT_decl_line(0x77)
     560                            .dwattr $C$DW$50, DW_AT_decl_column(0x25)
     561                    
     562                    $C$DW$51        .dwtag  DW_TAG_member
     563                            .dwattr $C$DW$51, DW_AT_type(*$C$DW$T$96)
     564                            .dwattr $C$DW$51, DW_AT_name("GetChipId")
     565                            .dwattr $C$DW$51, DW_AT_TI_symbol_name("GetChipId")
     566                            .dwattr $C$DW$51, DW_AT_data_member_location[DW_OP_plus_uconst 0x8]
     567                            .dwattr $C$DW$51, DW_AT_accessibility(DW_ACCESS_public)
     568                            .dwattr $C$DW$51, DW_AT_decl_file("C:\ti\simplelink_cc13x0_sdk_1_50_00_08\source\ti\devices\cc
     569                            .dwattr $C$DW$51, DW_AT_decl_line(0x78)
     570                            .dwattr $C$DW$51, DW_AT_decl_column(0x25)
     571                    
     572                    $C$DW$52        .dwtag  DW_TAG_member
     573                            .dwattr $C$DW$52, DW_AT_type(*$C$DW$T$99)
     574                            .dwattr $C$DW$52, DW_AT_name("ReservedLocation1")
     575                            .dwattr $C$DW$52, DW_AT_TI_symbol_name("ReservedLocation1")
     576                            .dwattr $C$DW$52, DW_AT_data_member_location[DW_OP_plus_uconst 0xc]
     577                            .dwattr $C$DW$52, DW_AT_accessibility(DW_ACCESS_public)
     578                            .dwattr $C$DW$52, DW_AT_decl_file("C:\ti\simplelink_cc13x0_sdk_1_50_00_08\source\ti\devices\cc
     579                            .dwattr $C$DW$52, DW_AT_decl_line(0x79)
     580                            .dwattr $C$DW$52, DW_AT_decl_column(0x25)
     581                    
     582                    $C$DW$53        .dwtag  DW_TAG_member
     583                            .dwattr $C$DW$53, DW_AT_type(*$C$DW$T$100)
     584                            .dwattr $C$DW$53, DW_AT_name("ReservedLocation2")
     585                            .dwattr $C$DW$53, DW_AT_TI_symbol_name("ReservedLocation2")
     586                            .dwattr $C$DW$53, DW_AT_data_member_location[DW_OP_plus_uconst 0x10]
     587                            .dwattr $C$DW$53, DW_AT_accessibility(DW_ACCESS_public)
     588                            .dwattr $C$DW$53, DW_AT_decl_file("C:\ti\simplelink_cc13x0_sdk_1_50_00_08\source\ti\devices\cc
     589                            .dwattr $C$DW$53, DW_AT_decl_line(0x7a)
     590                            .dwattr $C$DW$53, DW_AT_decl_column(0x25)
     591                    
     592                    $C$DW$54        .dwtag  DW_TAG_member
     593                            .dwattr $C$DW$54, DW_AT_type(*$C$DW$T$101)
     594                            .dwattr $C$DW$54, DW_AT_name("ReservedLocation3")
     595                            .dwattr $C$DW$54, DW_AT_TI_symbol_name("ReservedLocation3")
     596                            .dwattr $C$DW$54, DW_AT_data_member_location[DW_OP_plus_uconst 0x14]
     597                            .dwattr $C$DW$54, DW_AT_accessibility(DW_ACCESS_public)
     598                            .dwattr $C$DW$54, DW_AT_decl_file("C:\ti\simplelink_cc13x0_sdk_1_50_00_08\source\ti\devices\cc
     599                            .dwattr $C$DW$54, DW_AT_decl_line(0x7b)
     600                            .dwattr $C$DW$54, DW_AT_decl_column(0x25)
     601                    
TI ARM Assembler PC v16.9.4 Tue Apr 03 11:15:21 2018

Tools Copyright (c) 1996-2017 Texas Instruments Incorporated
C:\Users\Kevin\AppData\Local\Temp\{BD2815D5-01F3-43A2-98CD-B080CA14D9D7} PAGE   12

     602                    $C$DW$55        .dwtag  DW_TAG_member
     603                            .dwattr $C$DW$55, DW_AT_type(*$C$DW$T$104)
     604                            .dwattr $C$DW$55, DW_AT_name("ResetDevice")
     605                            .dwattr $C$DW$55, DW_AT_TI_symbol_name("ResetDevice")
     606                            .dwattr $C$DW$55, DW_AT_data_member_location[DW_OP_plus_uconst 0x18]
     607                            .dwattr $C$DW$55, DW_AT_accessibility(DW_ACCESS_public)
     608                            .dwattr $C$DW$55, DW_AT_decl_file("C:\ti\simplelink_cc13x0_sdk_1_50_00_08\source\ti\devices\cc
     609                            .dwattr $C$DW$55, DW_AT_decl_line(0x7c)
     610                            .dwattr $C$DW$55, DW_AT_decl_column(0x25)
     611                    
     612                    $C$DW$56        .dwtag  DW_TAG_member
     613                            .dwattr $C$DW$56, DW_AT_type(*$C$DW$T$109)
     614                            .dwattr $C$DW$56, DW_AT_name("Fletcher32")
     615                            .dwattr $C$DW$56, DW_AT_TI_symbol_name("Fletcher32")
     616                            .dwattr $C$DW$56, DW_AT_data_member_location[DW_OP_plus_uconst 0x1c]
     617                            .dwattr $C$DW$56, DW_AT_accessibility(DW_ACCESS_public)
     618                            .dwattr $C$DW$56, DW_AT_decl_file("C:\ti\simplelink_cc13x0_sdk_1_50_00_08\source\ti\devices\cc
     619                            .dwattr $C$DW$56, DW_AT_decl_line(0x7d)
     620                            .dwattr $C$DW$56, DW_AT_decl_column(0x25)
     621                    
     622                    $C$DW$57        .dwtag  DW_TAG_member
     623                            .dwattr $C$DW$57, DW_AT_type(*$C$DW$T$113)
     624                            .dwattr $C$DW$57, DW_AT_name("MinValue")
     625                            .dwattr $C$DW$57, DW_AT_TI_symbol_name("MinValue")
     626                            .dwattr $C$DW$57, DW_AT_data_member_location[DW_OP_plus_uconst 0x20]
     627                            .dwattr $C$DW$57, DW_AT_accessibility(DW_ACCESS_public)
     628                            .dwattr $C$DW$57, DW_AT_decl_file("C:\ti\simplelink_cc13x0_sdk_1_50_00_08\source\ti\devices\cc
     629                            .dwattr $C$DW$57, DW_AT_decl_line(0x7e)
     630                            .dwattr $C$DW$57, DW_AT_decl_column(0x25)
     631                    
     632                    $C$DW$58        .dwtag  DW_TAG_member
     633                            .dwattr $C$DW$58, DW_AT_type(*$C$DW$T$114)
     634                            .dwattr $C$DW$58, DW_AT_name("MaxValue")
     635                            .dwattr $C$DW$58, DW_AT_TI_symbol_name("MaxValue")
     636                            .dwattr $C$DW$58, DW_AT_data_member_location[DW_OP_plus_uconst 0x24]
     637                            .dwattr $C$DW$58, DW_AT_accessibility(DW_ACCESS_public)
     638                            .dwattr $C$DW$58, DW_AT_decl_file("C:\ti\simplelink_cc13x0_sdk_1_50_00_08\source\ti\devices\cc
     639                            .dwattr $C$DW$58, DW_AT_decl_line(0x7f)
     640                            .dwattr $C$DW$58, DW_AT_decl_column(0x25)
     641                    
     642                    $C$DW$59        .dwtag  DW_TAG_member
     643                            .dwattr $C$DW$59, DW_AT_type(*$C$DW$T$115)
     644                            .dwattr $C$DW$59, DW_AT_name("MeanValue")
     645                            .dwattr $C$DW$59, DW_AT_TI_symbol_name("MeanValue")
     646                            .dwattr $C$DW$59, DW_AT_data_member_location[DW_OP_plus_uconst 0x28]
     647                            .dwattr $C$DW$59, DW_AT_accessibility(DW_ACCESS_public)
     648                            .dwattr $C$DW$59, DW_AT_decl_file("C:\ti\simplelink_cc13x0_sdk_1_50_00_08\source\ti\devices\cc
     649                            .dwattr $C$DW$59, DW_AT_decl_line(0x80)
     650                            .dwattr $C$DW$59, DW_AT_decl_column(0x25)
     651                    
     652                    $C$DW$60        .dwtag  DW_TAG_member
     653                            .dwattr $C$DW$60, DW_AT_type(*$C$DW$T$116)
     654                            .dwattr $C$DW$60, DW_AT_name("StandDeviationValue")
     655                            .dwattr $C$DW$60, DW_AT_TI_symbol_name("StandDeviationValue")
     656                            .dwattr $C$DW$60, DW_AT_data_member_location[DW_OP_plus_uconst 0x2c]
TI ARM Assembler PC v16.9.4 Tue Apr 03 11:15:21 2018

Tools Copyright (c) 1996-2017 Texas Instruments Incorporated
C:\Users\Kevin\AppData\Local\Temp\{BD2815D5-01F3-43A2-98CD-B080CA14D9D7} PAGE   13

     657                            .dwattr $C$DW$60, DW_AT_accessibility(DW_ACCESS_public)
     658                            .dwattr $C$DW$60, DW_AT_decl_file("C:\ti\simplelink_cc13x0_sdk_1_50_00_08\source\ti\devices\cc
     659                            .dwattr $C$DW$60, DW_AT_decl_line(0x81)
     660                            .dwattr $C$DW$60, DW_AT_decl_column(0x25)
     661                    
     662                    $C$DW$61        .dwtag  DW_TAG_member
     663                            .dwattr $C$DW$61, DW_AT_type(*$C$DW$T$119)
     664                            .dwattr $C$DW$61, DW_AT_name("ReservedLocation4")
     665                            .dwattr $C$DW$61, DW_AT_TI_symbol_name("ReservedLocation4")
     666                            .dwattr $C$DW$61, DW_AT_data_member_location[DW_OP_plus_uconst 0x30]
     667                            .dwattr $C$DW$61, DW_AT_accessibility(DW_ACCESS_public)
     668                            .dwattr $C$DW$61, DW_AT_decl_file("C:\ti\simplelink_cc13x0_sdk_1_50_00_08\source\ti\devices\cc
     669                            .dwattr $C$DW$61, DW_AT_decl_line(0x82)
     670                            .dwattr $C$DW$61, DW_AT_decl_column(0x25)
     671                    
     672                    $C$DW$62        .dwtag  DW_TAG_member
     673                            .dwattr $C$DW$62, DW_AT_type(*$C$DW$T$120)
     674                            .dwattr $C$DW$62, DW_AT_name("ReservedLocation5")
     675                            .dwattr $C$DW$62, DW_AT_TI_symbol_name("ReservedLocation5")
     676                            .dwattr $C$DW$62, DW_AT_data_member_location[DW_OP_plus_uconst 0x34]
     677                            .dwattr $C$DW$62, DW_AT_accessibility(DW_ACCESS_public)
     678                            .dwattr $C$DW$62, DW_AT_decl_file("C:\ti\simplelink_cc13x0_sdk_1_50_00_08\source\ti\devices\cc
     679                            .dwattr $C$DW$62, DW_AT_decl_line(0x83)
     680                            .dwattr $C$DW$62, DW_AT_decl_column(0x25)
     681                    
     682                    $C$DW$63        .dwtag  DW_TAG_member
     683                            .dwattr $C$DW$63, DW_AT_type(*$C$DW$T$121)
     684                            .dwattr $C$DW$63, DW_AT_name("HFSourceSafeSwitch")
     685                            .dwattr $C$DW$63, DW_AT_TI_symbol_name("HFSourceSafeSwitch")
     686                            .dwattr $C$DW$63, DW_AT_data_member_location[DW_OP_plus_uconst 0x38]
     687                            .dwattr $C$DW$63, DW_AT_accessibility(DW_ACCESS_public)
     688                            .dwattr $C$DW$63, DW_AT_decl_file("C:\ti\simplelink_cc13x0_sdk_1_50_00_08\source\ti\devices\cc
     689                            .dwattr $C$DW$63, DW_AT_decl_line(0x84)
     690                            .dwattr $C$DW$63, DW_AT_decl_column(0x25)
     691                    
     692                    $C$DW$64        .dwtag  DW_TAG_member
     693                            .dwattr $C$DW$64, DW_AT_type(*$C$DW$T$124)
     694                            .dwattr $C$DW$64, DW_AT_name("SelectCompAInput")
     695                            .dwattr $C$DW$64, DW_AT_TI_symbol_name("SelectCompAInput")
     696                            .dwattr $C$DW$64, DW_AT_data_member_location[DW_OP_plus_uconst 0x3c]
     697                            .dwattr $C$DW$64, DW_AT_accessibility(DW_ACCESS_public)
     698                            .dwattr $C$DW$64, DW_AT_decl_file("C:\ti\simplelink_cc13x0_sdk_1_50_00_08\source\ti\devices\cc
     699                            .dwattr $C$DW$64, DW_AT_decl_line(0x85)
     700                            .dwattr $C$DW$64, DW_AT_decl_column(0x25)
     701                    
     702                    $C$DW$65        .dwtag  DW_TAG_member
     703                            .dwattr $C$DW$65, DW_AT_type(*$C$DW$T$125)
     704                            .dwattr $C$DW$65, DW_AT_name("SelectCompARef")
     705                            .dwattr $C$DW$65, DW_AT_TI_symbol_name("SelectCompARef")
     706                            .dwattr $C$DW$65, DW_AT_data_member_location[DW_OP_plus_uconst 0x40]
     707                            .dwattr $C$DW$65, DW_AT_accessibility(DW_ACCESS_public)
     708                            .dwattr $C$DW$65, DW_AT_decl_file("C:\ti\simplelink_cc13x0_sdk_1_50_00_08\source\ti\devices\cc
     709                            .dwattr $C$DW$65, DW_AT_decl_line(0x86)
     710                            .dwattr $C$DW$65, DW_AT_decl_column(0x25)
     711                    
TI ARM Assembler PC v16.9.4 Tue Apr 03 11:15:21 2018

Tools Copyright (c) 1996-2017 Texas Instruments Incorporated
C:\Users\Kevin\AppData\Local\Temp\{BD2815D5-01F3-43A2-98CD-B080CA14D9D7} PAGE   14

     712                    $C$DW$66        .dwtag  DW_TAG_member
     713                            .dwattr $C$DW$66, DW_AT_type(*$C$DW$T$126)
     714                            .dwattr $C$DW$66, DW_AT_name("SelectADCCompBInput")
     715                            .dwattr $C$DW$66, DW_AT_TI_symbol_name("SelectADCCompBInput")
     716                            .dwattr $C$DW$66, DW_AT_data_member_location[DW_OP_plus_uconst 0x44]
     717                            .dwattr $C$DW$66, DW_AT_accessibility(DW_ACCESS_public)
     718                            .dwattr $C$DW$66, DW_AT_decl_file("C:\ti\simplelink_cc13x0_sdk_1_50_00_08\source\ti\devices\cc
     719                            .dwattr $C$DW$66, DW_AT_decl_line(0x87)
     720                            .dwattr $C$DW$66, DW_AT_decl_column(0x25)
     721                    
     722                    $C$DW$67        .dwtag  DW_TAG_member
     723                            .dwattr $C$DW$67, DW_AT_type(*$C$DW$T$127)
     724                            .dwattr $C$DW$67, DW_AT_name("SelectCompBRef")
     725                            .dwattr $C$DW$67, DW_AT_TI_symbol_name("SelectCompBRef")
     726                            .dwattr $C$DW$67, DW_AT_data_member_location[DW_OP_plus_uconst 0x48]
     727                            .dwattr $C$DW$67, DW_AT_accessibility(DW_ACCESS_public)
     728                            .dwattr $C$DW$67, DW_AT_decl_file("C:\ti\simplelink_cc13x0_sdk_1_50_00_08\source\ti\devices\cc
     729                            .dwattr $C$DW$67, DW_AT_decl_line(0x88)
     730                            .dwattr $C$DW$67, DW_AT_decl_column(0x25)
     731                    
     732                            .dwattr $C$DW$T$128, DW_AT_decl_file("C:\ti\simplelink_cc13x0_sdk_1_50_00_08\source\ti\devices
     733                            .dwattr $C$DW$T$128, DW_AT_decl_line(0x75)
     734                            .dwattr $C$DW$T$128, DW_AT_decl_column(0x01)
     735                            .dwendtag $C$DW$T$128
     736                    
     737                    $C$DW$T$467     .dwtag  DW_TAG_typedef
     738                            .dwattr $C$DW$T$467, DW_AT_name("HARD_API_T")
     739                            .dwattr $C$DW$T$467, DW_AT_type(*$C$DW$T$128)
     740                            .dwattr $C$DW$T$467, DW_AT_language(DW_LANG_C)
     741                            .dwattr $C$DW$T$467, DW_AT_decl_file("C:\ti\simplelink_cc13x0_sdk_1_50_00_08\source\ti\devices
     742                            .dwattr $C$DW$T$467, DW_AT_decl_line(0x89)
     743                            .dwattr $C$DW$T$467, DW_AT_decl_column(0x03)
     744                    
     745                    
     746                    $C$DW$T$132     .dwtag  DW_TAG_union_type
     747                            .dwattr $C$DW$T$132, DW_AT_byte_size(0x04)
     748                    $C$DW$68        .dwtag  DW_TAG_member
     749                            .dwattr $C$DW$68, DW_AT_type(*$C$DW$T$129)
     750                            .dwattr $C$DW$68, DW_AT_name("f")
     751                            .dwattr $C$DW$68, DW_AT_TI_symbol_name("f")
     752                            .dwattr $C$DW$68, DW_AT_data_member_location[DW_OP_plus_uconst 0x0]
     753                            .dwattr $C$DW$68, DW_AT_accessibility(DW_ACCESS_public)
     754                            .dwattr $C$DW$68, DW_AT_decl_file("C:/ti/xdctools_3_50_03_33_core/packages/xdc/std.h")
     755                            .dwattr $C$DW$68, DW_AT_decl_line(0xb7)
     756                            .dwattr $C$DW$68, DW_AT_decl_column(0x0f)
     757                    
     758                    $C$DW$69        .dwtag  DW_TAG_member
     759                            .dwattr $C$DW$69, DW_AT_type(*$C$DW$T$131)
     760                            .dwattr $C$DW$69, DW_AT_name("a")
     761                            .dwattr $C$DW$69, DW_AT_TI_symbol_name("a")
     762                            .dwattr $C$DW$69, DW_AT_data_member_location[DW_OP_plus_uconst 0x0]
     763                            .dwattr $C$DW$69, DW_AT_accessibility(DW_ACCESS_public)
     764                            .dwattr $C$DW$69, DW_AT_decl_file("C:/ti/xdctools_3_50_03_33_core/packages/xdc/std.h")
     765                            .dwattr $C$DW$69, DW_AT_decl_line(0xb8)
     766                            .dwattr $C$DW$69, DW_AT_decl_column(0x0f)
TI ARM Assembler PC v16.9.4 Tue Apr 03 11:15:21 2018

Tools Copyright (c) 1996-2017 Texas Instruments Incorporated
C:\Users\Kevin\AppData\Local\Temp\{BD2815D5-01F3-43A2-98CD-B080CA14D9D7} PAGE   15

     767                    
     768                            .dwattr $C$DW$T$132, DW_AT_decl_file("C:/ti/xdctools_3_50_03_33_core/packages/xdc/std.h")
     769                            .dwattr $C$DW$T$132, DW_AT_decl_line(0xb6)
     770                            .dwattr $C$DW$T$132, DW_AT_decl_column(0x0f)
     771                            .dwendtag $C$DW$T$132
     772                    
     773                    $C$DW$T$468     .dwtag  DW_TAG_typedef
     774                            .dwattr $C$DW$T$468, DW_AT_name("xdc_FloatData")
     775                            .dwattr $C$DW$T$468, DW_AT_type(*$C$DW$T$132)
     776                            .dwattr $C$DW$T$468, DW_AT_language(DW_LANG_C)
     777                            .dwattr $C$DW$T$468, DW_AT_decl_file("C:/ti/xdctools_3_50_03_33_core/packages/xdc/std.h")
     778                            .dwattr $C$DW$T$468, DW_AT_decl_line(0xb9)
     779                            .dwattr $C$DW$T$468, DW_AT_decl_column(0x03)
     780                    
     781                    
     782                    $C$DW$T$469     .dwtag  DW_TAG_enumeration_type
     783                            .dwattr $C$DW$T$469, DW_AT_name("CC13X0_LAUNCHXL_ADCBufName")
     784                            .dwattr $C$DW$T$469, DW_AT_byte_size(0x01)
     785                    $C$DW$70        .dwtag  DW_TAG_enumerator
     786                            .dwattr $C$DW$70, DW_AT_name("CC13X0_LAUNCHXL_ADCBuf0")
     787                            .dwattr $C$DW$70, DW_AT_const_value(0x00)
     788                            .dwattr $C$DW$70, DW_AT_decl_file("C:\ti\simplelink_cc13x0_sdk_1_50_00_08\examples\rtos\CC1310
     789                            .dwattr $C$DW$70, DW_AT_decl_line(0x129)
     790                            .dwattr $C$DW$70, DW_AT_decl_column(0x05)
     791                    
     792                    $C$DW$71        .dwtag  DW_TAG_enumerator
     793                            .dwattr $C$DW$71, DW_AT_name("CC13X0_LAUNCHXL_ADCBufCOUNT")
     794                            .dwattr $C$DW$71, DW_AT_const_value(0x01)
     795                            .dwattr $C$DW$71, DW_AT_decl_file("C:\ti\simplelink_cc13x0_sdk_1_50_00_08\examples\rtos\CC1310
     796                            .dwattr $C$DW$71, DW_AT_decl_line(0x12a)
     797                            .dwattr $C$DW$71, DW_AT_decl_column(0x05)
     798                    
     799                            .dwattr $C$DW$T$469, DW_AT_decl_file("C:\ti\simplelink_cc13x0_sdk_1_50_00_08\examples\rtos\CC1
     800                            .dwattr $C$DW$T$469, DW_AT_decl_line(0x128)
     801                            .dwattr $C$DW$T$469, DW_AT_decl_column(0x0e)
     802                            .dwendtag $C$DW$T$469
     803                    
     804                    $C$DW$T$470     .dwtag  DW_TAG_typedef
     805                            .dwattr $C$DW$T$470, DW_AT_name("CC13X0_LAUNCHXL_ADCBufName")
     806                            .dwattr $C$DW$T$470, DW_AT_type(*$C$DW$T$469)
     807                            .dwattr $C$DW$T$470, DW_AT_language(DW_LANG_C)
     808                            .dwattr $C$DW$T$470, DW_AT_decl_file("C:\ti\simplelink_cc13x0_sdk_1_50_00_08\examples\rtos\CC1
     809                            .dwattr $C$DW$T$470, DW_AT_decl_line(0x12b)
     810                            .dwattr $C$DW$T$470, DW_AT_decl_column(0x03)
     811                    
     812                    
     813                    $C$DW$T$471     .dwtag  DW_TAG_enumeration_type
     814                            .dwattr $C$DW$T$471, DW_AT_name("CC13X0_LAUNCHXL_ADCName")
     815                            .dwattr $C$DW$T$471, DW_AT_byte_size(0x01)
     816                    $C$DW$72        .dwtag  DW_TAG_enumerator
     817                            .dwattr $C$DW$72, DW_AT_name("CC13X0_LAUNCHXL_ADC0")
     818                            .dwattr $C$DW$72, DW_AT_const_value(0x00)
     819                            .dwattr $C$DW$72, DW_AT_decl_file("C:\ti\simplelink_cc13x0_sdk_1_50_00_08\examples\rtos\CC1310
     820                            .dwattr $C$DW$72, DW_AT_decl_line(0x133)
     821                            .dwattr $C$DW$72, DW_AT_decl_column(0x05)
TI ARM Assembler PC v16.9.4 Tue Apr 03 11:15:21 2018

Tools Copyright (c) 1996-2017 Texas Instruments Incorporated
C:\Users\Kevin\AppData\Local\Temp\{BD2815D5-01F3-43A2-98CD-B080CA14D9D7} PAGE   16

     822                    
     823                    $C$DW$73        .dwtag  DW_TAG_enumerator
     824                            .dwattr $C$DW$73, DW_AT_name("CC13X0_LAUNCHXL_ADC1")
     825                            .dwattr $C$DW$73, DW_AT_const_value(0x01)
     826                            .dwattr $C$DW$73, DW_AT_decl_file("C:\ti\simplelink_cc13x0_sdk_1_50_00_08\examples\rtos\CC1310
     827                            .dwattr $C$DW$73, DW_AT_decl_line(0x134)
     828                            .dwattr $C$DW$73, DW_AT_decl_column(0x05)
     829                    
     830                    $C$DW$74        .dwtag  DW_TAG_enumerator
     831                            .dwattr $C$DW$74, DW_AT_name("CC13X0_LAUNCHXL_ADC2")
     832                            .dwattr $C$DW$74, DW_AT_const_value(0x02)
     833                            .dwattr $C$DW$74, DW_AT_decl_file("C:\ti\simplelink_cc13x0_sdk_1_50_00_08\examples\rtos\CC1310
     834                            .dwattr $C$DW$74, DW_AT_decl_line(0x135)
     835                            .dwattr $C$DW$74, DW_AT_decl_column(0x05)
     836                    
     837                    $C$DW$75        .dwtag  DW_TAG_enumerator
     838                            .dwattr $C$DW$75, DW_AT_name("CC13X0_LAUNCHXL_ADC3")
     839                            .dwattr $C$DW$75, DW_AT_const_value(0x03)
     840                            .dwattr $C$DW$75, DW_AT_decl_file("C:\ti\simplelink_cc13x0_sdk_1_50_00_08\examples\rtos\CC1310
     841                            .dwattr $C$DW$75, DW_AT_decl_line(0x136)
     842                            .dwattr $C$DW$75, DW_AT_decl_column(0x05)
     843                    
     844                    $C$DW$76        .dwtag  DW_TAG_enumerator
     845                            .dwattr $C$DW$76, DW_AT_name("CC13X0_LAUNCHXL_ADC4")
     846                            .dwattr $C$DW$76, DW_AT_const_value(0x04)
     847                            .dwattr $C$DW$76, DW_AT_decl_file("C:\ti\simplelink_cc13x0_sdk_1_50_00_08\examples\rtos\CC1310
     848                            .dwattr $C$DW$76, DW_AT_decl_line(0x137)
     849                            .dwattr $C$DW$76, DW_AT_decl_column(0x05)
     850                    
     851                    $C$DW$77        .dwtag  DW_TAG_enumerator
     852                            .dwattr $C$DW$77, DW_AT_name("CC13X0_LAUNCHXL_ADC5")
     853                            .dwattr $C$DW$77, DW_AT_const_value(0x05)
     854                            .dwattr $C$DW$77, DW_AT_decl_file("C:\ti\simplelink_cc13x0_sdk_1_50_00_08\examples\rtos\CC1310
     855                            .dwattr $C$DW$77, DW_AT_decl_line(0x138)
     856                            .dwattr $C$DW$77, DW_AT_decl_column(0x05)
     857                    
     858                    $C$DW$78        .dwtag  DW_TAG_enumerator
     859                            .dwattr $C$DW$78, DW_AT_name("CC13X0_LAUNCHXL_ADC6")
     860                            .dwattr $C$DW$78, DW_AT_const_value(0x06)
     861                            .dwattr $C$DW$78, DW_AT_decl_file("C:\ti\simplelink_cc13x0_sdk_1_50_00_08\examples\rtos\CC1310
     862                            .dwattr $C$DW$78, DW_AT_decl_line(0x139)
     863                            .dwattr $C$DW$78, DW_AT_decl_column(0x05)
     864                    
     865                    $C$DW$79        .dwtag  DW_TAG_enumerator
     866                            .dwattr $C$DW$79, DW_AT_name("CC13X0_LAUNCHXL_ADC7")
     867                            .dwattr $C$DW$79, DW_AT_const_value(0x07)
     868                            .dwattr $C$DW$79, DW_AT_decl_file("C:\ti\simplelink_cc13x0_sdk_1_50_00_08\examples\rtos\CC1310
     869                            .dwattr $C$DW$79, DW_AT_decl_line(0x13a)
     870                            .dwattr $C$DW$79, DW_AT_decl_column(0x05)
     871                    
     872                    $C$DW$80        .dwtag  DW_TAG_enumerator
     873                            .dwattr $C$DW$80, DW_AT_name("CC13X0_LAUNCHXL_ADCDCOUPL")
     874                            .dwattr $C$DW$80, DW_AT_const_value(0x08)
     875                            .dwattr $C$DW$80, DW_AT_decl_file("C:\ti\simplelink_cc13x0_sdk_1_50_00_08\examples\rtos\CC1310
     876                            .dwattr $C$DW$80, DW_AT_decl_line(0x13b)
TI ARM Assembler PC v16.9.4 Tue Apr 03 11:15:21 2018

Tools Copyright (c) 1996-2017 Texas Instruments Incorporated
C:\Users\Kevin\AppData\Local\Temp\{BD2815D5-01F3-43A2-98CD-B080CA14D9D7} PAGE   17

     877                            .dwattr $C$DW$80, DW_AT_decl_column(0x05)
     878                    
     879                    $C$DW$81        .dwtag  DW_TAG_enumerator
     880                            .dwattr $C$DW$81, DW_AT_name("CC13X0_LAUNCHXL_ADCVSS")
     881                            .dwattr $C$DW$81, DW_AT_const_value(0x09)
     882                            .dwattr $C$DW$81, DW_AT_decl_file("C:\ti\simplelink_cc13x0_sdk_1_50_00_08\examples\rtos\CC1310
     883                            .dwattr $C$DW$81, DW_AT_decl_line(0x13c)
     884                            .dwattr $C$DW$81, DW_AT_decl_column(0x05)
     885                    
     886                    $C$DW$82        .dwtag  DW_TAG_enumerator
     887                            .dwattr $C$DW$82, DW_AT_name("CC13X0_LAUNCHXL_ADCVDDS")
     888                            .dwattr $C$DW$82, DW_AT_const_value(0x0a)
     889                            .dwattr $C$DW$82, DW_AT_decl_file("C:\ti\simplelink_cc13x0_sdk_1_50_00_08\examples\rtos\CC1310
     890                            .dwattr $C$DW$82, DW_AT_decl_line(0x13d)
     891                            .dwattr $C$DW$82, DW_AT_decl_column(0x05)
     892                    
     893                    $C$DW$83        .dwtag  DW_TAG_enumerator
     894                            .dwattr $C$DW$83, DW_AT_name("CC13X0_LAUNCHXL_ADCCOUNT")
     895                            .dwattr $C$DW$83, DW_AT_const_value(0x0b)
     896                            .dwattr $C$DW$83, DW_AT_decl_file("C:\ti\simplelink_cc13x0_sdk_1_50_00_08\examples\rtos\CC1310
     897                            .dwattr $C$DW$83, DW_AT_decl_line(0x13e)
     898                            .dwattr $C$DW$83, DW_AT_decl_column(0x05)
     899                    
     900                            .dwattr $C$DW$T$471, DW_AT_decl_file("C:\ti\simplelink_cc13x0_sdk_1_50_00_08\examples\rtos\CC1
     901                            .dwattr $C$DW$T$471, DW_AT_decl_line(0x132)
     902                            .dwattr $C$DW$T$471, DW_AT_decl_column(0x0e)
     903                            .dwendtag $C$DW$T$471
     904                    
     905                    $C$DW$T$472     .dwtag  DW_TAG_typedef
     906                            .dwattr $C$DW$T$472, DW_AT_name("CC13X0_LAUNCHXL_ADCName")
     907                            .dwattr $C$DW$T$472, DW_AT_type(*$C$DW$T$471)
     908                            .dwattr $C$DW$T$472, DW_AT_language(DW_LANG_C)
     909                            .dwattr $C$DW$T$472, DW_AT_decl_file("C:\ti\simplelink_cc13x0_sdk_1_50_00_08\examples\rtos\CC1
     910                            .dwattr $C$DW$T$472, DW_AT_decl_line(0x13f)
     911                            .dwattr $C$DW$T$472, DW_AT_decl_column(0x03)
     912                    
     913                    
     914                    $C$DW$T$473     .dwtag  DW_TAG_enumeration_type
     915                            .dwattr $C$DW$T$473, DW_AT_name("CC13X0_LAUNCHXL_CryptoName")
     916                            .dwattr $C$DW$T$473, DW_AT_byte_size(0x01)
     917                    $C$DW$84        .dwtag  DW_TAG_enumerator
     918                            .dwattr $C$DW$84, DW_AT_name("CC13X0_LAUNCHXL_CRYPTO0")
     919                            .dwattr $C$DW$84, DW_AT_const_value(0x00)
     920                            .dwattr $C$DW$84, DW_AT_decl_file("C:\ti\simplelink_cc13x0_sdk_1_50_00_08\examples\rtos\CC1310
     921                            .dwattr $C$DW$84, DW_AT_decl_line(0xd0)
     922                            .dwattr $C$DW$84, DW_AT_decl_column(0x05)
     923                    
     924                    $C$DW$85        .dwtag  DW_TAG_enumerator
     925                            .dwattr $C$DW$85, DW_AT_name("CC13X0_LAUNCHXL_CRYPTOCOUNT")
     926                            .dwattr $C$DW$85, DW_AT_const_value(0x01)
     927                            .dwattr $C$DW$85, DW_AT_decl_file("C:\ti\simplelink_cc13x0_sdk_1_50_00_08\examples\rtos\CC1310
     928                            .dwattr $C$DW$85, DW_AT_decl_line(0xd2)
     929                            .dwattr $C$DW$85, DW_AT_decl_column(0x05)
     930                    
     931                            .dwattr $C$DW$T$473, DW_AT_decl_file("C:\ti\simplelink_cc13x0_sdk_1_50_00_08\examples\rtos\CC1
TI ARM Assembler PC v16.9.4 Tue Apr 03 11:15:21 2018

Tools Copyright (c) 1996-2017 Texas Instruments Incorporated
C:\Users\Kevin\AppData\Local\Temp\{BD2815D5-01F3-43A2-98CD-B080CA14D9D7} PAGE   18

     932                            .dwattr $C$DW$T$473, DW_AT_decl_line(0xcf)
     933                            .dwattr $C$DW$T$473, DW_AT_decl_column(0x0e)
     934                            .dwendtag $C$DW$T$473
     935                    
     936                    $C$DW$T$474     .dwtag  DW_TAG_typedef
     937                            .dwattr $C$DW$T$474, DW_AT_name("CC13X0_LAUNCHXL_CryptoName")
     938                            .dwattr $C$DW$T$474, DW_AT_type(*$C$DW$T$473)
     939                            .dwattr $C$DW$T$474, DW_AT_language(DW_LANG_C)
     940                            .dwattr $C$DW$T$474, DW_AT_decl_file("C:\ti\simplelink_cc13x0_sdk_1_50_00_08\examples\rtos\CC1
     941                            .dwattr $C$DW$T$474, DW_AT_decl_line(0xd3)
     942                            .dwattr $C$DW$T$474, DW_AT_decl_column(0x03)
     943                    
     944                    
     945                    $C$DW$T$475     .dwtag  DW_TAG_enumeration_type
     946                            .dwattr $C$DW$T$475, DW_AT_name("CC13X0_LAUNCHXL_GPTimerName")
     947                            .dwattr $C$DW$T$475, DW_AT_byte_size(0x01)
     948                    $C$DW$86        .dwtag  DW_TAG_enumerator
     949                            .dwattr $C$DW$86, DW_AT_name("CC13X0_LAUNCHXL_GPTIMER0A")
     950                            .dwattr $C$DW$86, DW_AT_const_value(0x00)
     951                            .dwattr $C$DW$86, DW_AT_decl_file("C:\ti\simplelink_cc13x0_sdk_1_50_00_08\examples\rtos\CC1310
     952                            .dwattr $C$DW$86, DW_AT_decl_line(0xfb)
     953                            .dwattr $C$DW$86, DW_AT_decl_column(0x05)
     954                    
     955                    $C$DW$87        .dwtag  DW_TAG_enumerator
     956                            .dwattr $C$DW$87, DW_AT_name("CC13X0_LAUNCHXL_GPTIMER0B")
     957                            .dwattr $C$DW$87, DW_AT_const_value(0x01)
     958                            .dwattr $C$DW$87, DW_AT_decl_file("C:\ti\simplelink_cc13x0_sdk_1_50_00_08\examples\rtos\CC1310
     959                            .dwattr $C$DW$87, DW_AT_decl_line(0xfc)
     960                            .dwattr $C$DW$87, DW_AT_decl_column(0x05)
     961                    
     962                    $C$DW$88        .dwtag  DW_TAG_enumerator
     963                            .dwattr $C$DW$88, DW_AT_name("CC13X0_LAUNCHXL_GPTIMER1A")
     964                            .dwattr $C$DW$88, DW_AT_const_value(0x02)
     965                            .dwattr $C$DW$88, DW_AT_decl_file("C:\ti\simplelink_cc13x0_sdk_1_50_00_08\examples\rtos\CC1310
     966                            .dwattr $C$DW$88, DW_AT_decl_line(0xfd)
     967                            .dwattr $C$DW$88, DW_AT_decl_column(0x05)
     968                    
     969                    $C$DW$89        .dwtag  DW_TAG_enumerator
     970                            .dwattr $C$DW$89, DW_AT_name("CC13X0_LAUNCHXL_GPTIMER1B")
     971                            .dwattr $C$DW$89, DW_AT_const_value(0x03)
     972                            .dwattr $C$DW$89, DW_AT_decl_file("C:\ti\simplelink_cc13x0_sdk_1_50_00_08\examples\rtos\CC1310
     973                            .dwattr $C$DW$89, DW_AT_decl_line(0xfe)
     974                            .dwattr $C$DW$89, DW_AT_decl_column(0x05)
     975                    
     976                    $C$DW$90        .dwtag  DW_TAG_enumerator
     977                            .dwattr $C$DW$90, DW_AT_name("CC13X0_LAUNCHXL_GPTIMER2A")
     978                            .dwattr $C$DW$90, DW_AT_const_value(0x04)
     979                            .dwattr $C$DW$90, DW_AT_decl_file("C:\ti\simplelink_cc13x0_sdk_1_50_00_08\examples\rtos\CC1310
     980                            .dwattr $C$DW$90, DW_AT_decl_line(0xff)
     981                            .dwattr $C$DW$90, DW_AT_decl_column(0x05)
     982                    
     983                    $C$DW$91        .dwtag  DW_TAG_enumerator
     984                            .dwattr $C$DW$91, DW_AT_name("CC13X0_LAUNCHXL_GPTIMER2B")
     985                            .dwattr $C$DW$91, DW_AT_const_value(0x05)
     986                            .dwattr $C$DW$91, DW_AT_decl_file("C:\ti\simplelink_cc13x0_sdk_1_50_00_08\examples\rtos\CC1310
TI ARM Assembler PC v16.9.4 Tue Apr 03 11:15:21 2018

Tools Copyright (c) 1996-2017 Texas Instruments Incorporated
C:\Users\Kevin\AppData\Local\Temp\{BD2815D5-01F3-43A2-98CD-B080CA14D9D7} PAGE   19

     987                            .dwattr $C$DW$91, DW_AT_decl_line(0x100)
     988                            .dwattr $C$DW$91, DW_AT_decl_column(0x05)
     989                    
     990                    $C$DW$92        .dwtag  DW_TAG_enumerator
     991                            .dwattr $C$DW$92, DW_AT_name("CC13X0_LAUNCHXL_GPTIMER3A")
     992                            .dwattr $C$DW$92, DW_AT_const_value(0x06)
     993                            .dwattr $C$DW$92, DW_AT_decl_file("C:\ti\simplelink_cc13x0_sdk_1_50_00_08\examples\rtos\CC1310
     994                            .dwattr $C$DW$92, DW_AT_decl_line(0x101)
     995                            .dwattr $C$DW$92, DW_AT_decl_column(0x05)
     996                    
     997                    $C$DW$93        .dwtag  DW_TAG_enumerator
     998                            .dwattr $C$DW$93, DW_AT_name("CC13X0_LAUNCHXL_GPTIMER3B")
     999                            .dwattr $C$DW$93, DW_AT_const_value(0x07)
    1000                            .dwattr $C$DW$93, DW_AT_decl_file("C:\ti\simplelink_cc13x0_sdk_1_50_00_08\examples\rtos\CC1310
    1001                            .dwattr $C$DW$93, DW_AT_decl_line(0x102)
    1002                            .dwattr $C$DW$93, DW_AT_decl_column(0x05)
    1003                    
    1004                    $C$DW$94        .dwtag  DW_TAG_enumerator
    1005                            .dwattr $C$DW$94, DW_AT_name("CC13X0_LAUNCHXL_GPTIMERPARTSCOUNT")
    1006                            .dwattr $C$DW$94, DW_AT_const_value(0x08)
    1007                            .dwattr $C$DW$94, DW_AT_decl_file("C:\ti\simplelink_cc13x0_sdk_1_50_00_08\examples\rtos\CC1310
    1008                            .dwattr $C$DW$94, DW_AT_decl_line(0x103)
    1009                            .dwattr $C$DW$94, DW_AT_decl_column(0x05)
    1010                    
    1011                            .dwattr $C$DW$T$475, DW_AT_decl_file("C:\ti\simplelink_cc13x0_sdk_1_50_00_08\examples\rtos\CC1
    1012                            .dwattr $C$DW$T$475, DW_AT_decl_line(0xf9)
    1013                            .dwattr $C$DW$T$475, DW_AT_decl_column(0x0e)
    1014                            .dwendtag $C$DW$T$475
    1015                    
    1016                    $C$DW$T$476     .dwtag  DW_TAG_typedef
    1017                            .dwattr $C$DW$T$476, DW_AT_name("CC13X0_LAUNCHXL_GPTimerName")
    1018                            .dwattr $C$DW$T$476, DW_AT_type(*$C$DW$T$475)
    1019                            .dwattr $C$DW$T$476, DW_AT_language(DW_LANG_C)
    1020                            .dwattr $C$DW$T$476, DW_AT_decl_file("C:\ti\simplelink_cc13x0_sdk_1_50_00_08\examples\rtos\CC1
    1021                            .dwattr $C$DW$T$476, DW_AT_decl_line(0x104)
    1022                            .dwattr $C$DW$T$476, DW_AT_decl_column(0x03)
    1023                    
    1024                    
    1025                    $C$DW$T$477     .dwtag  DW_TAG_enumeration_type
    1026                            .dwattr $C$DW$T$477, DW_AT_name("CC13X0_LAUNCHXL_GPTimers")
    1027                            .dwattr $C$DW$T$477, DW_AT_byte_size(0x01)
    1028                    $C$DW$95        .dwtag  DW_TAG_enumerator
    1029                            .dwattr $C$DW$95, DW_AT_name("CC13X0_LAUNCHXL_GPTIMER0")
    1030                            .dwattr $C$DW$95, DW_AT_const_value(0x00)
    1031                            .dwattr $C$DW$95, DW_AT_decl_file("C:\ti\simplelink_cc13x0_sdk_1_50_00_08\examples\rtos\CC1310
    1032                            .dwattr $C$DW$95, DW_AT_decl_line(0x10c)
    1033                            .dwattr $C$DW$95, DW_AT_decl_column(0x05)
    1034                    
    1035                    $C$DW$96        .dwtag  DW_TAG_enumerator
    1036                            .dwattr $C$DW$96, DW_AT_name("CC13X0_LAUNCHXL_GPTIMER1")
    1037                            .dwattr $C$DW$96, DW_AT_const_value(0x01)
    1038                            .dwattr $C$DW$96, DW_AT_decl_file("C:\ti\simplelink_cc13x0_sdk_1_50_00_08\examples\rtos\CC1310
    1039                            .dwattr $C$DW$96, DW_AT_decl_line(0x10d)
    1040                            .dwattr $C$DW$96, DW_AT_decl_column(0x05)
    1041                    
TI ARM Assembler PC v16.9.4 Tue Apr 03 11:15:21 2018

Tools Copyright (c) 1996-2017 Texas Instruments Incorporated
C:\Users\Kevin\AppData\Local\Temp\{BD2815D5-01F3-43A2-98CD-B080CA14D9D7} PAGE   20

    1042                    $C$DW$97        .dwtag  DW_TAG_enumerator
    1043                            .dwattr $C$DW$97, DW_AT_name("CC13X0_LAUNCHXL_GPTIMER2")
    1044                            .dwattr $C$DW$97, DW_AT_const_value(0x02)
    1045                            .dwattr $C$DW$97, DW_AT_decl_file("C:\ti\simplelink_cc13x0_sdk_1_50_00_08\examples\rtos\CC1310
    1046                            .dwattr $C$DW$97, DW_AT_decl_line(0x10e)
    1047                            .dwattr $C$DW$97, DW_AT_decl_column(0x05)
    1048                    
    1049                    $C$DW$98        .dwtag  DW_TAG_enumerator
    1050                            .dwattr $C$DW$98, DW_AT_name("CC13X0_LAUNCHXL_GPTIMER3")
    1051                            .dwattr $C$DW$98, DW_AT_const_value(0x03)
    1052                            .dwattr $C$DW$98, DW_AT_decl_file("C:\ti\simplelink_cc13x0_sdk_1_50_00_08\examples\rtos\CC1310
    1053                            .dwattr $C$DW$98, DW_AT_decl_line(0x10f)
    1054                            .dwattr $C$DW$98, DW_AT_decl_column(0x05)
    1055                    
    1056                    $C$DW$99        .dwtag  DW_TAG_enumerator
    1057                            .dwattr $C$DW$99, DW_AT_name("CC13X0_LAUNCHXL_GPTIMERCOUNT")
    1058                            .dwattr $C$DW$99, DW_AT_const_value(0x04)
    1059                            .dwattr $C$DW$99, DW_AT_decl_file("C:\ti\simplelink_cc13x0_sdk_1_50_00_08\examples\rtos\CC1310
    1060                            .dwattr $C$DW$99, DW_AT_decl_line(0x110)
    1061                            .dwattr $C$DW$99, DW_AT_decl_column(0x05)
    1062                    
    1063                            .dwattr $C$DW$T$477, DW_AT_decl_file("C:\ti\simplelink_cc13x0_sdk_1_50_00_08\examples\rtos\CC1
    1064                            .dwattr $C$DW$T$477, DW_AT_decl_line(0x10a)
    1065                            .dwattr $C$DW$T$477, DW_AT_decl_column(0x0e)
    1066                            .dwendtag $C$DW$T$477
    1067                    
    1068                    $C$DW$T$478     .dwtag  DW_TAG_typedef
    1069                            .dwattr $C$DW$T$478, DW_AT_name("CC13X0_LAUNCHXL_GPTimers")
    1070                            .dwattr $C$DW$T$478, DW_AT_type(*$C$DW$T$477)
    1071                            .dwattr $C$DW$T$478, DW_AT_language(DW_LANG_C)
    1072                            .dwattr $C$DW$T$478, DW_AT_decl_file("C:\ti\simplelink_cc13x0_sdk_1_50_00_08\examples\rtos\CC1
    1073                            .dwattr $C$DW$T$478, DW_AT_decl_line(0x111)
    1074                            .dwattr $C$DW$T$478, DW_AT_decl_column(0x03)
    1075                    
    1076                    
    1077                    $C$DW$T$479     .dwtag  DW_TAG_enumeration_type
    1078                            .dwattr $C$DW$T$479, DW_AT_name("CC13X0_LAUNCHXL_I2CName")
    1079                            .dwattr $C$DW$T$479, DW_AT_byte_size(0x01)
    1080                    $C$DW$100       .dwtag  DW_TAG_enumerator
    1081                            .dwattr $C$DW$100, DW_AT_name("CC13X0_LAUNCHXL_I2C0")
    1082                            .dwattr $C$DW$100, DW_AT_const_value(0x00)
    1083                            .dwattr $C$DW$100, DW_AT_decl_file("C:\ti\simplelink_cc13x0_sdk_1_50_00_08\examples\rtos\CC131
    1084                            .dwattr $C$DW$100, DW_AT_decl_line(0xc6)
    1085                            .dwattr $C$DW$100, DW_AT_decl_column(0x05)
    1086                    
    1087                    $C$DW$101       .dwtag  DW_TAG_enumerator
    1088                            .dwattr $C$DW$101, DW_AT_name("CC13X0_LAUNCHXL_I2CCOUNT")
    1089                            .dwattr $C$DW$101, DW_AT_const_value(0x01)
    1090                            .dwattr $C$DW$101, DW_AT_decl_file("C:\ti\simplelink_cc13x0_sdk_1_50_00_08\examples\rtos\CC131
    1091                            .dwattr $C$DW$101, DW_AT_decl_line(0xc8)
    1092                            .dwattr $C$DW$101, DW_AT_decl_column(0x05)
    1093                    
    1094                            .dwattr $C$DW$T$479, DW_AT_decl_file("C:\ti\simplelink_cc13x0_sdk_1_50_00_08\examples\rtos\CC1
    1095                            .dwattr $C$DW$T$479, DW_AT_decl_line(0xc5)
    1096                            .dwattr $C$DW$T$479, DW_AT_decl_column(0x0e)
TI ARM Assembler PC v16.9.4 Tue Apr 03 11:15:21 2018

Tools Copyright (c) 1996-2017 Texas Instruments Incorporated
C:\Users\Kevin\AppData\Local\Temp\{BD2815D5-01F3-43A2-98CD-B080CA14D9D7} PAGE   21

    1097                            .dwendtag $C$DW$T$479
    1098                    
    1099                    $C$DW$T$480     .dwtag  DW_TAG_typedef
    1100                            .dwattr $C$DW$T$480, DW_AT_name("CC13X0_LAUNCHXL_I2CName")
    1101                            .dwattr $C$DW$T$480, DW_AT_type(*$C$DW$T$479)
    1102                            .dwattr $C$DW$T$480, DW_AT_language(DW_LANG_C)
    1103                            .dwattr $C$DW$T$480, DW_AT_decl_file("C:\ti\simplelink_cc13x0_sdk_1_50_00_08\examples\rtos\CC1
    1104                            .dwattr $C$DW$T$480, DW_AT_decl_line(0xc9)
    1105                            .dwattr $C$DW$T$480, DW_AT_decl_column(0x03)
    1106                    
    1107                    
    1108                    $C$DW$T$481     .dwtag  DW_TAG_enumeration_type
    1109                            .dwattr $C$DW$T$481, DW_AT_name("CC13X0_LAUNCHXL_PWM")
    1110                            .dwattr $C$DW$T$481, DW_AT_byte_size(0x01)
    1111                    $C$DW$102       .dwtag  DW_TAG_enumerator
    1112                            .dwattr $C$DW$102, DW_AT_name("CC13X0_LAUNCHXL_PWM0")
    1113                            .dwattr $C$DW$102, DW_AT_const_value(0x00)
    1114                            .dwattr $C$DW$102, DW_AT_decl_file("C:\ti\simplelink_cc13x0_sdk_1_50_00_08\examples\rtos\CC131
    1115                            .dwattr $C$DW$102, DW_AT_decl_line(0x119)
    1116                            .dwattr $C$DW$102, DW_AT_decl_column(0x05)
    1117                    
    1118                    $C$DW$103       .dwtag  DW_TAG_enumerator
    1119                            .dwattr $C$DW$103, DW_AT_name("CC13X0_LAUNCHXL_PWM1")
    1120                            .dwattr $C$DW$103, DW_AT_const_value(0x01)
    1121                            .dwattr $C$DW$103, DW_AT_decl_file("C:\ti\simplelink_cc13x0_sdk_1_50_00_08\examples\rtos\CC131
    1122                            .dwattr $C$DW$103, DW_AT_decl_line(0x11a)
    1123                            .dwattr $C$DW$103, DW_AT_decl_column(0x05)
    1124                    
    1125                    $C$DW$104       .dwtag  DW_TAG_enumerator
    1126                            .dwattr $C$DW$104, DW_AT_name("CC13X0_LAUNCHXL_PWM2")
    1127                            .dwattr $C$DW$104, DW_AT_const_value(0x02)
    1128                            .dwattr $C$DW$104, DW_AT_decl_file("C:\ti\simplelink_cc13x0_sdk_1_50_00_08\examples\rtos\CC131
    1129                            .dwattr $C$DW$104, DW_AT_decl_line(0x11b)
    1130                            .dwattr $C$DW$104, DW_AT_decl_column(0x05)
    1131                    
    1132                    $C$DW$105       .dwtag  DW_TAG_enumerator
    1133                            .dwattr $C$DW$105, DW_AT_name("CC13X0_LAUNCHXL_PWM3")
    1134                            .dwattr $C$DW$105, DW_AT_const_value(0x03)
    1135                            .dwattr $C$DW$105, DW_AT_decl_file("C:\ti\simplelink_cc13x0_sdk_1_50_00_08\examples\rtos\CC131
    1136                            .dwattr $C$DW$105, DW_AT_decl_line(0x11c)
    1137                            .dwattr $C$DW$105, DW_AT_decl_column(0x05)
    1138                    
    1139                    $C$DW$106       .dwtag  DW_TAG_enumerator
    1140                            .dwattr $C$DW$106, DW_AT_name("CC13X0_LAUNCHXL_PWM4")
    1141                            .dwattr $C$DW$106, DW_AT_const_value(0x04)
    1142                            .dwattr $C$DW$106, DW_AT_decl_file("C:\ti\simplelink_cc13x0_sdk_1_50_00_08\examples\rtos\CC131
    1143                            .dwattr $C$DW$106, DW_AT_decl_line(0x11d)
    1144                            .dwattr $C$DW$106, DW_AT_decl_column(0x05)
    1145                    
    1146                    $C$DW$107       .dwtag  DW_TAG_enumerator
    1147                            .dwattr $C$DW$107, DW_AT_name("CC13X0_LAUNCHXL_PWM5")
    1148                            .dwattr $C$DW$107, DW_AT_const_value(0x05)
    1149                            .dwattr $C$DW$107, DW_AT_decl_file("C:\ti\simplelink_cc13x0_sdk_1_50_00_08\examples\rtos\CC131
    1150                            .dwattr $C$DW$107, DW_AT_decl_line(0x11e)
    1151                            .dwattr $C$DW$107, DW_AT_decl_column(0x05)
TI ARM Assembler PC v16.9.4 Tue Apr 03 11:15:21 2018

Tools Copyright (c) 1996-2017 Texas Instruments Incorporated
C:\Users\Kevin\AppData\Local\Temp\{BD2815D5-01F3-43A2-98CD-B080CA14D9D7} PAGE   22

    1152                    
    1153                    $C$DW$108       .dwtag  DW_TAG_enumerator
    1154                            .dwattr $C$DW$108, DW_AT_name("CC13X0_LAUNCHXL_PWM6")
    1155                            .dwattr $C$DW$108, DW_AT_const_value(0x06)
    1156                            .dwattr $C$DW$108, DW_AT_decl_file("C:\ti\simplelink_cc13x0_sdk_1_50_00_08\examples\rtos\CC131
    1157                            .dwattr $C$DW$108, DW_AT_decl_line(0x11f)
    1158                            .dwattr $C$DW$108, DW_AT_decl_column(0x05)
    1159                    
    1160                    $C$DW$109       .dwtag  DW_TAG_enumerator
    1161                            .dwattr $C$DW$109, DW_AT_name("CC13X0_LAUNCHXL_PWM7")
    1162                            .dwattr $C$DW$109, DW_AT_const_value(0x07)
    1163                            .dwattr $C$DW$109, DW_AT_decl_file("C:\ti\simplelink_cc13x0_sdk_1_50_00_08\examples\rtos\CC131
    1164                            .dwattr $C$DW$109, DW_AT_decl_line(0x120)
    1165                            .dwattr $C$DW$109, DW_AT_decl_column(0x05)
    1166                    
    1167                    $C$DW$110       .dwtag  DW_TAG_enumerator
    1168                            .dwattr $C$DW$110, DW_AT_name("CC13X0_LAUNCHXL_PWMCOUNT")
    1169                            .dwattr $C$DW$110, DW_AT_const_value(0x08)
    1170                            .dwattr $C$DW$110, DW_AT_decl_file("C:\ti\simplelink_cc13x0_sdk_1_50_00_08\examples\rtos\CC131
    1171                            .dwattr $C$DW$110, DW_AT_decl_line(0x121)
    1172                            .dwattr $C$DW$110, DW_AT_decl_column(0x05)
    1173                    
    1174                            .dwattr $C$DW$T$481, DW_AT_decl_file("C:\ti\simplelink_cc13x0_sdk_1_50_00_08\examples\rtos\CC1
    1175                            .dwattr $C$DW$T$481, DW_AT_decl_line(0x117)
    1176                            .dwattr $C$DW$T$481, DW_AT_decl_column(0x0e)
    1177                            .dwendtag $C$DW$T$481
    1178                    
    1179                    $C$DW$T$482     .dwtag  DW_TAG_typedef
    1180                            .dwattr $C$DW$T$482, DW_AT_name("CC13X0_LAUNCHXL_PWM")
    1181                            .dwattr $C$DW$T$482, DW_AT_type(*$C$DW$T$481)
    1182                            .dwattr $C$DW$T$482, DW_AT_language(DW_LANG_C)
    1183                            .dwattr $C$DW$T$482, DW_AT_decl_file("C:\ti\simplelink_cc13x0_sdk_1_50_00_08\examples\rtos\CC1
    1184                            .dwattr $C$DW$T$482, DW_AT_decl_line(0x122)
    1185                            .dwattr $C$DW$T$482, DW_AT_decl_column(0x03)
    1186                    
    1187                    
    1188                    $C$DW$T$483     .dwtag  DW_TAG_enumeration_type
    1189                            .dwattr $C$DW$T$483, DW_AT_name("CC13X0_LAUNCHXL_SPIName")
    1190                            .dwattr $C$DW$T$483, DW_AT_byte_size(0x01)
    1191                    $C$DW$111       .dwtag  DW_TAG_enumerator
    1192                            .dwattr $C$DW$111, DW_AT_name("CC13X0_LAUNCHXL_SPI0")
    1193                            .dwattr $C$DW$111, DW_AT_const_value(0x00)
    1194                            .dwattr $C$DW$111, DW_AT_decl_file("C:\ti\simplelink_cc13x0_sdk_1_50_00_08\examples\rtos\CC131
    1195                            .dwattr $C$DW$111, DW_AT_decl_line(0xdb)
    1196                            .dwattr $C$DW$111, DW_AT_decl_column(0x05)
    1197                    
    1198                    $C$DW$112       .dwtag  DW_TAG_enumerator
    1199                            .dwattr $C$DW$112, DW_AT_name("CC13X0_LAUNCHXL_SPI1")
    1200                            .dwattr $C$DW$112, DW_AT_const_value(0x01)
    1201                            .dwattr $C$DW$112, DW_AT_decl_file("C:\ti\simplelink_cc13x0_sdk_1_50_00_08\examples\rtos\CC131
    1202                            .dwattr $C$DW$112, DW_AT_decl_line(0xdc)
    1203                            .dwattr $C$DW$112, DW_AT_decl_column(0x05)
    1204                    
    1205                    $C$DW$113       .dwtag  DW_TAG_enumerator
    1206                            .dwattr $C$DW$113, DW_AT_name("CC13X0_LAUNCHXL_SPICOUNT")
TI ARM Assembler PC v16.9.4 Tue Apr 03 11:15:21 2018

Tools Copyright (c) 1996-2017 Texas Instruments Incorporated
C:\Users\Kevin\AppData\Local\Temp\{BD2815D5-01F3-43A2-98CD-B080CA14D9D7} PAGE   23

    1207                            .dwattr $C$DW$113, DW_AT_const_value(0x02)
    1208                            .dwattr $C$DW$113, DW_AT_decl_file("C:\ti\simplelink_cc13x0_sdk_1_50_00_08\examples\rtos\CC131
    1209                            .dwattr $C$DW$113, DW_AT_decl_line(0xde)
    1210                            .dwattr $C$DW$113, DW_AT_decl_column(0x05)
    1211                    
    1212                            .dwattr $C$DW$T$483, DW_AT_decl_file("C:\ti\simplelink_cc13x0_sdk_1_50_00_08\examples\rtos\CC1
    1213                            .dwattr $C$DW$T$483, DW_AT_decl_line(0xda)
    1214                            .dwattr $C$DW$T$483, DW_AT_decl_column(0x0e)
    1215                            .dwendtag $C$DW$T$483
    1216                    
    1217                    $C$DW$T$484     .dwtag  DW_TAG_typedef
    1218                            .dwattr $C$DW$T$484, DW_AT_name("CC13X0_LAUNCHXL_SPIName")
    1219                            .dwattr $C$DW$T$484, DW_AT_type(*$C$DW$T$483)
    1220                            .dwattr $C$DW$T$484, DW_AT_language(DW_LANG_C)
    1221                            .dwattr $C$DW$T$484, DW_AT_decl_file("C:\ti\simplelink_cc13x0_sdk_1_50_00_08\examples\rtos\CC1
    1222                            .dwattr $C$DW$T$484, DW_AT_decl_line(0xdf)
    1223                            .dwattr $C$DW$T$484, DW_AT_decl_column(0x03)
    1224                    
    1225                    
    1226                    $C$DW$T$485     .dwtag  DW_TAG_enumeration_type
    1227                            .dwattr $C$DW$T$485, DW_AT_name("CC13X0_LAUNCHXL_UARTName")
    1228                            .dwattr $C$DW$T$485, DW_AT_byte_size(0x01)
    1229                    $C$DW$114       .dwtag  DW_TAG_enumerator
    1230                            .dwattr $C$DW$114, DW_AT_name("CC13X0_LAUNCHXL_UART0")
    1231                            .dwattr $C$DW$114, DW_AT_const_value(0x00)
    1232                            .dwattr $C$DW$114, DW_AT_decl_file("C:\ti\simplelink_cc13x0_sdk_1_50_00_08\examples\rtos\CC131
    1233                            .dwattr $C$DW$114, DW_AT_decl_line(0xe6)
    1234                            .dwattr $C$DW$114, DW_AT_decl_column(0x05)
    1235                    
    1236                    $C$DW$115       .dwtag  DW_TAG_enumerator
    1237                            .dwattr $C$DW$115, DW_AT_name("CC13X0_LAUNCHXL_UARTCOUNT")
    1238                            .dwattr $C$DW$115, DW_AT_const_value(0x01)
    1239                            .dwattr $C$DW$115, DW_AT_decl_file("C:\ti\simplelink_cc13x0_sdk_1_50_00_08\examples\rtos\CC131
    1240                            .dwattr $C$DW$115, DW_AT_decl_line(0xe8)
    1241                            .dwattr $C$DW$115, DW_AT_decl_column(0x05)
    1242                    
    1243                            .dwattr $C$DW$T$485, DW_AT_decl_file("C:\ti\simplelink_cc13x0_sdk_1_50_00_08\examples\rtos\CC1
    1244                            .dwattr $C$DW$T$485, DW_AT_decl_line(0xe5)
    1245                            .dwattr $C$DW$T$485, DW_AT_decl_column(0x0e)
    1246                            .dwendtag $C$DW$T$485
    1247                    
    1248                    $C$DW$T$486     .dwtag  DW_TAG_typedef
    1249                            .dwattr $C$DW$T$486, DW_AT_name("CC13X0_LAUNCHXL_UARTName")
    1250                            .dwattr $C$DW$T$486, DW_AT_type(*$C$DW$T$485)
    1251                            .dwattr $C$DW$T$486, DW_AT_language(DW_LANG_C)
    1252                            .dwattr $C$DW$T$486, DW_AT_decl_file("C:\ti\simplelink_cc13x0_sdk_1_50_00_08\examples\rtos\CC1
    1253                            .dwattr $C$DW$T$486, DW_AT_decl_line(0xe9)
    1254                            .dwattr $C$DW$T$486, DW_AT_decl_column(0x03)
    1255                    
    1256                    
    1257                    $C$DW$T$487     .dwtag  DW_TAG_enumeration_type
    1258                            .dwattr $C$DW$T$487, DW_AT_name("CC13X0_LAUNCHXL_UdmaName")
    1259                            .dwattr $C$DW$T$487, DW_AT_byte_size(0x01)
    1260                    $C$DW$116       .dwtag  DW_TAG_enumerator
    1261                            .dwattr $C$DW$116, DW_AT_name("CC13X0_LAUNCHXL_UDMA0")
TI ARM Assembler PC v16.9.4 Tue Apr 03 11:15:21 2018

Tools Copyright (c) 1996-2017 Texas Instruments Incorporated
C:\Users\Kevin\AppData\Local\Temp\{BD2815D5-01F3-43A2-98CD-B080CA14D9D7} PAGE   24

    1262                            .dwattr $C$DW$116, DW_AT_const_value(0x00)
    1263                            .dwattr $C$DW$116, DW_AT_decl_file("C:\ti\simplelink_cc13x0_sdk_1_50_00_08\examples\rtos\CC131
    1264                            .dwattr $C$DW$116, DW_AT_decl_line(0xf0)
    1265                            .dwattr $C$DW$116, DW_AT_decl_column(0x05)
    1266                    
    1267                    $C$DW$117       .dwtag  DW_TAG_enumerator
    1268                            .dwattr $C$DW$117, DW_AT_name("CC13X0_LAUNCHXL_UDMACOUNT")
    1269                            .dwattr $C$DW$117, DW_AT_const_value(0x01)
    1270                            .dwattr $C$DW$117, DW_AT_decl_file("C:\ti\simplelink_cc13x0_sdk_1_50_00_08\examples\rtos\CC131
    1271                            .dwattr $C$DW$117, DW_AT_decl_line(0xf2)
    1272                            .dwattr $C$DW$117, DW_AT_decl_column(0x05)
    1273                    
    1274                            .dwattr $C$DW$T$487, DW_AT_decl_file("C:\ti\simplelink_cc13x0_sdk_1_50_00_08\examples\rtos\CC1
    1275                            .dwattr $C$DW$T$487, DW_AT_decl_line(0xef)
    1276                            .dwattr $C$DW$T$487, DW_AT_decl_column(0x0e)
    1277                            .dwendtag $C$DW$T$487
    1278                    
    1279                    $C$DW$T$488     .dwtag  DW_TAG_typedef
    1280                            .dwattr $C$DW$T$488, DW_AT_name("CC13X0_LAUNCHXL_UdmaName")
    1281                            .dwattr $C$DW$T$488, DW_AT_type(*$C$DW$T$487)
    1282                            .dwattr $C$DW$T$488, DW_AT_language(DW_LANG_C)
    1283                            .dwattr $C$DW$T$488, DW_AT_decl_file("C:\ti\simplelink_cc13x0_sdk_1_50_00_08\examples\rtos\CC1
    1284                            .dwattr $C$DW$T$488, DW_AT_decl_line(0xf3)
    1285                            .dwattr $C$DW$T$488, DW_AT_decl_column(0x03)
    1286                    
    1287                    
    1288                    $C$DW$T$489     .dwtag  DW_TAG_enumeration_type
    1289                            .dwattr $C$DW$T$489, DW_AT_name("CC13X0_LAUNCHXL_WatchdogName")
    1290                            .dwattr $C$DW$T$489, DW_AT_byte_size(0x01)
    1291                    $C$DW$118       .dwtag  DW_TAG_enumerator
    1292                            .dwattr $C$DW$118, DW_AT_name("CC13X0_LAUNCHXL_WATCHDOG0")
    1293                            .dwattr $C$DW$118, DW_AT_const_value(0x00)
    1294                            .dwattr $C$DW$118, DW_AT_decl_file("C:\ti\simplelink_cc13x0_sdk_1_50_00_08\examples\rtos\CC131
    1295                            .dwattr $C$DW$118, DW_AT_decl_line(0x146)
    1296                            .dwattr $C$DW$118, DW_AT_decl_column(0x05)
    1297                    
    1298                    $C$DW$119       .dwtag  DW_TAG_enumerator
    1299                            .dwattr $C$DW$119, DW_AT_name("CC13X0_LAUNCHXL_WATCHDOGCOUNT")
    1300                            .dwattr $C$DW$119, DW_AT_const_value(0x01)
    1301                            .dwattr $C$DW$119, DW_AT_decl_file("C:\ti\simplelink_cc13x0_sdk_1_50_00_08\examples\rtos\CC131
    1302                            .dwattr $C$DW$119, DW_AT_decl_line(0x148)
    1303                            .dwattr $C$DW$119, DW_AT_decl_column(0x05)
    1304                    
    1305                            .dwattr $C$DW$T$489, DW_AT_decl_file("C:\ti\simplelink_cc13x0_sdk_1_50_00_08\examples\rtos\CC1
    1306                            .dwattr $C$DW$T$489, DW_AT_decl_line(0x145)
    1307                            .dwattr $C$DW$T$489, DW_AT_decl_column(0x0e)
    1308                            .dwendtag $C$DW$T$489
    1309                    
    1310                    $C$DW$T$490     .dwtag  DW_TAG_typedef
    1311                            .dwattr $C$DW$T$490, DW_AT_name("CC13X0_LAUNCHXL_WatchdogName")
    1312                            .dwattr $C$DW$T$490, DW_AT_type(*$C$DW$T$489)
    1313                            .dwattr $C$DW$T$490, DW_AT_language(DW_LANG_C)
    1314                            .dwattr $C$DW$T$490, DW_AT_decl_file("C:\ti\simplelink_cc13x0_sdk_1_50_00_08\examples\rtos\CC1
    1315                            .dwattr $C$DW$T$490, DW_AT_decl_line(0x149)
    1316                            .dwattr $C$DW$T$490, DW_AT_decl_column(0x03)
TI ARM Assembler PC v16.9.4 Tue Apr 03 11:15:21 2018

Tools Copyright (c) 1996-2017 Texas Instruments Incorporated
C:\Users\Kevin\AppData\Local\Temp\{BD2815D5-01F3-43A2-98CD-B080CA14D9D7} PAGE   25

    1317                    
    1318                    
    1319                    $C$DW$T$134     .dwtag  DW_TAG_structure_type
    1320                            .dwattr $C$DW$T$134, DW_AT_name("DisplayGrLib_Object")
    1321                            .dwattr $C$DW$T$134, DW_AT_byte_size(0x1c)
    1322                    $C$DW$120       .dwtag  DW_TAG_member
    1323                            .dwattr $C$DW$120, DW_AT_type(*$C$DW$T$133)
    1324                            .dwattr $C$DW$120, DW_AT_name("g_sContext")
    1325                            .dwattr $C$DW$120, DW_AT_TI_symbol_name("g_sContext")
    1326                            .dwattr $C$DW$120, DW_AT_data_member_location[DW_OP_plus_uconst 0x0]
    1327                            .dwattr $C$DW$120, DW_AT_accessibility(DW_ACCESS_public)
    1328                            .dwattr $C$DW$120, DW_AT_decl_file("C:/ti/simplelink_cc13x0_sdk_1_50_00_08/source/ti/display/D
    1329                            .dwattr $C$DW$120, DW_AT_decl_line(0x94)
    1330                            .dwattr $C$DW$120, DW_AT_decl_column(0x16)
    1331                    
    1332                            .dwattr $C$DW$T$134, DW_AT_decl_file("C:/ti/simplelink_cc13x0_sdk_1_50_00_08/source/ti/display
    1333                            .dwattr $C$DW$T$134, DW_AT_decl_line(0x92)
    1334                            .dwattr $C$DW$T$134, DW_AT_decl_column(0x10)
    1335                            .dwendtag $C$DW$T$134
    1336                    
    1337                    $C$DW$T$491     .dwtag  DW_TAG_typedef
    1338                            .dwattr $C$DW$T$491, DW_AT_name("DisplayGrLib_Object")
    1339                            .dwattr $C$DW$T$491, DW_AT_type(*$C$DW$T$134)
    1340                            .dwattr $C$DW$T$491, DW_AT_language(DW_LANG_C)
    1341                            .dwattr $C$DW$T$491, DW_AT_decl_file("C:/ti/simplelink_cc13x0_sdk_1_50_00_08/source/ti/display
    1342                            .dwattr $C$DW$T$491, DW_AT_decl_line(0x95)
    1343                            .dwattr $C$DW$T$491, DW_AT_decl_column(0x03)
    1344                    
    1345                    $C$DW$T$492     .dwtag  DW_TAG_pointer_type
    1346                            .dwattr $C$DW$T$492, DW_AT_type(*$C$DW$T$134)
    1347                            .dwattr $C$DW$T$492, DW_AT_address_class(0x20)
    1348                    
    1349                    $C$DW$T$493     .dwtag  DW_TAG_typedef
    1350                            .dwattr $C$DW$T$493, DW_AT_name("DisplayGrLib_Handle")
    1351                            .dwattr $C$DW$T$493, DW_AT_type(*$C$DW$T$492)
    1352                            .dwattr $C$DW$T$493, DW_AT_language(DW_LANG_C)
    1353                            .dwattr $C$DW$T$493, DW_AT_decl_file("C:/ti/simplelink_cc13x0_sdk_1_50_00_08/source/ti/display
    1354                            .dwattr $C$DW$T$493, DW_AT_decl_line(0x95)
    1355                            .dwattr $C$DW$T$493, DW_AT_decl_column(0x19)
    1356                    
    1357                    
    1358                    $C$DW$T$136     .dwtag  DW_TAG_structure_type
    1359                            .dwattr $C$DW$T$136, DW_AT_name("DisplaySharp_HWAttrs")
    1360                            .dwattr $C$DW$T$136, DW_AT_byte_size(0x10)
    1361                    $C$DW$121       .dwtag  DW_TAG_member
    1362                            .dwattr $C$DW$121, DW_AT_type(*$C$DW$T$86)
    1363                            .dwattr $C$DW$121, DW_AT_name("spiIndex")
    1364                            .dwattr $C$DW$121, DW_AT_TI_symbol_name("spiIndex")
    1365                            .dwattr $C$DW$121, DW_AT_data_member_location[DW_OP_plus_uconst 0x0]
    1366                            .dwattr $C$DW$121, DW_AT_accessibility(DW_ACCESS_public)
    1367                            .dwattr $C$DW$121, DW_AT_decl_file("C:/ti/simplelink_cc13x0_sdk_1_50_00_08/source/ti/display/D
    1368                            .dwattr $C$DW$121, DW_AT_decl_line(0x59)
    1369                            .dwattr $C$DW$121, DW_AT_decl_column(0x0e)
    1370                    
    1371                    $C$DW$122       .dwtag  DW_TAG_member
TI ARM Assembler PC v16.9.4 Tue Apr 03 11:15:21 2018

Tools Copyright (c) 1996-2017 Texas Instruments Incorporated
C:\Users\Kevin\AppData\Local\Temp\{BD2815D5-01F3-43A2-98CD-B080CA14D9D7} PAGE   26

    1372                            .dwattr $C$DW$122, DW_AT_type(*$C$DW$T$135)
    1373                            .dwattr $C$DW$122, DW_AT_name("csPin")
    1374                            .dwattr $C$DW$122, DW_AT_TI_symbol_name("csPin")
    1375                            .dwattr $C$DW$122, DW_AT_data_member_location[DW_OP_plus_uconst 0x4]
    1376                            .dwattr $C$DW$122, DW_AT_accessibility(DW_ACCESS_public)
    1377                            .dwattr $C$DW$122, DW_AT_decl_file("C:/ti/simplelink_cc13x0_sdk_1_50_00_08/source/ti/display/D
    1378                            .dwattr $C$DW$122, DW_AT_decl_line(0x5a)
    1379                            .dwattr $C$DW$122, DW_AT_decl_column(0x0e)
    1380                    
    1381                    $C$DW$123       .dwtag  DW_TAG_member
    1382                            .dwattr $C$DW$123, DW_AT_type(*$C$DW$T$135)
    1383                            .dwattr $C$DW$123, DW_AT_name("extcominPin")
    1384                            .dwattr $C$DW$123, DW_AT_TI_symbol_name("extcominPin")
    1385                            .dwattr $C$DW$123, DW_AT_data_member_location[DW_OP_plus_uconst 0x5]
    1386                            .dwattr $C$DW$123, DW_AT_accessibility(DW_ACCESS_public)
    1387                            .dwattr $C$DW$123, DW_AT_decl_file("C:/ti/simplelink_cc13x0_sdk_1_50_00_08/source/ti/display/D
    1388                            .dwattr $C$DW$123, DW_AT_decl_line(0x5b)
    1389                            .dwattr $C$DW$123, DW_AT_decl_column(0x0e)
    1390                    
    1391                    $C$DW$124       .dwtag  DW_TAG_member
    1392                            .dwattr $C$DW$124, DW_AT_type(*$C$DW$T$135)
    1393                            .dwattr $C$DW$124, DW_AT_name("powerPin")
    1394                            .dwattr $C$DW$124, DW_AT_TI_symbol_name("powerPin")
    1395                            .dwattr $C$DW$124, DW_AT_data_member_location[DW_OP_plus_uconst 0x6]
    1396                            .dwattr $C$DW$124, DW_AT_accessibility(DW_ACCESS_public)
    1397                            .dwattr $C$DW$124, DW_AT_decl_file("C:/ti/simplelink_cc13x0_sdk_1_50_00_08/source/ti/display/D
    1398                            .dwattr $C$DW$124, DW_AT_decl_line(0x5c)
    1399                            .dwattr $C$DW$124, DW_AT_decl_column(0x0e)
    1400                    
    1401                    $C$DW$125       .dwtag  DW_TAG_member
    1402                            .dwattr $C$DW$125, DW_AT_type(*$C$DW$T$135)
    1403                            .dwattr $C$DW$125, DW_AT_name("enablePin")
    1404                            .dwattr $C$DW$125, DW_AT_TI_symbol_name("enablePin")
    1405                            .dwattr $C$DW$125, DW_AT_data_member_location[DW_OP_plus_uconst 0x7]
    1406                            .dwattr $C$DW$125, DW_AT_accessibility(DW_ACCESS_public)
    1407                            .dwattr $C$DW$125, DW_AT_decl_file("C:/ti/simplelink_cc13x0_sdk_1_50_00_08/source/ti/display/D
    1408                            .dwattr $C$DW$125, DW_AT_decl_line(0x5d)
    1409                            .dwattr $C$DW$125, DW_AT_decl_column(0x0e)
    1410                    
    1411                    $C$DW$126       .dwtag  DW_TAG_member
    1412                            .dwattr $C$DW$126, DW_AT_type(*$C$DW$T$105)
    1413                            .dwattr $C$DW$126, DW_AT_name("pixelHeight")
    1414                            .dwattr $C$DW$126, DW_AT_TI_symbol_name("pixelHeight")
    1415                            .dwattr $C$DW$126, DW_AT_data_member_location[DW_OP_plus_uconst 0x8]
    1416                            .dwattr $C$DW$126, DW_AT_accessibility(DW_ACCESS_public)
    1417                            .dwattr $C$DW$126, DW_AT_decl_file("C:/ti/simplelink_cc13x0_sdk_1_50_00_08/source/ti/display/D
    1418                            .dwattr $C$DW$126, DW_AT_decl_line(0x5e)
    1419                            .dwattr $C$DW$126, DW_AT_decl_column(0x0e)
    1420                    
    1421                    $C$DW$127       .dwtag  DW_TAG_member
    1422                            .dwattr $C$DW$127, DW_AT_type(*$C$DW$T$105)
    1423                            .dwattr $C$DW$127, DW_AT_name("pixelWidth")
    1424                            .dwattr $C$DW$127, DW_AT_TI_symbol_name("pixelWidth")
    1425                            .dwattr $C$DW$127, DW_AT_data_member_location[DW_OP_plus_uconst 0xa]
    1426                            .dwattr $C$DW$127, DW_AT_accessibility(DW_ACCESS_public)
TI ARM Assembler PC v16.9.4 Tue Apr 03 11:15:21 2018

Tools Copyright (c) 1996-2017 Texas Instruments Incorporated
C:\Users\Kevin\AppData\Local\Temp\{BD2815D5-01F3-43A2-98CD-B080CA14D9D7} PAGE   27

    1427                            .dwattr $C$DW$127, DW_AT_decl_file("C:/ti/simplelink_cc13x0_sdk_1_50_00_08/source/ti/display/D
    1428                            .dwattr $C$DW$127, DW_AT_decl_line(0x5f)
    1429                            .dwattr $C$DW$127, DW_AT_decl_column(0x0e)
    1430                    
    1431                    $C$DW$128       .dwtag  DW_TAG_member
    1432                            .dwattr $C$DW$128, DW_AT_type(*$C$DW$T$3)
    1433                            .dwattr $C$DW$128, DW_AT_name("displayBuf")
    1434                            .dwattr $C$DW$128, DW_AT_TI_symbol_name("displayBuf")
    1435                            .dwattr $C$DW$128, DW_AT_data_member_location[DW_OP_plus_uconst 0xc]
    1436                            .dwattr $C$DW$128, DW_AT_accessibility(DW_ACCESS_public)
    1437                            .dwattr $C$DW$128, DW_AT_decl_file("C:/ti/simplelink_cc13x0_sdk_1_50_00_08/source/ti/display/D
    1438                            .dwattr $C$DW$128, DW_AT_decl_line(0x60)
    1439                            .dwattr $C$DW$128, DW_AT_decl_column(0x0e)
    1440                    
    1441                            .dwattr $C$DW$T$136, DW_AT_decl_file("C:/ti/simplelink_cc13x0_sdk_1_50_00_08/source/ti/display
    1442                            .dwattr $C$DW$T$136, DW_AT_decl_line(0x57)
    1443                            .dwattr $C$DW$T$136, DW_AT_decl_column(0x10)
    1444                            .dwendtag $C$DW$T$136
    1445                    
    1446                    $C$DW$T$494     .dwtag  DW_TAG_typedef
    1447                            .dwattr $C$DW$T$494, DW_AT_name("DisplaySharp_HWAttrs")
    1448                            .dwattr $C$DW$T$494, DW_AT_type(*$C$DW$T$136)
    1449                            .dwattr $C$DW$T$494, DW_AT_language(DW_LANG_C)
    1450                            .dwattr $C$DW$T$494, DW_AT_decl_file("C:/ti/simplelink_cc13x0_sdk_1_50_00_08/source/ti/display
    1451                            .dwattr $C$DW$T$494, DW_AT_decl_line(0x61)
    1452                            .dwattr $C$DW$T$494, DW_AT_decl_column(0x03)
    1453                    
    1454                    
    1455                    $C$DW$T$147     .dwtag  DW_TAG_structure_type
    1456                            .dwattr $C$DW$T$147, DW_AT_name("DisplaySharp_Object")
    1457                            .dwattr $C$DW$T$147, DW_AT_byte_size(0x6c)
    1458                    $C$DW$129       .dwtag  DW_TAG_member
    1459                            .dwattr $C$DW$129, DW_AT_type(*$C$DW$T$133)
    1460                            .dwattr $C$DW$129, DW_AT_name("g_sContext")
    1461                            .dwattr $C$DW$129, DW_AT_TI_symbol_name("g_sContext")
    1462                            .dwattr $C$DW$129, DW_AT_data_member_location[DW_OP_plus_uconst 0x0]
    1463                            .dwattr $C$DW$129, DW_AT_accessibility(DW_ACCESS_public)
    1464                            .dwattr $C$DW$129, DW_AT_decl_file("C:/ti/simplelink_cc13x0_sdk_1_50_00_08/source/ti/display/D
    1465                            .dwattr $C$DW$129, DW_AT_decl_line(0x68)
    1466                            .dwattr $C$DW$129, DW_AT_decl_column(0x1b)
    1467                    
    1468                    $C$DW$130       .dwtag  DW_TAG_member
    1469                            .dwattr $C$DW$130, DW_AT_type(*$C$DW$T$138)
    1470                            .dwattr $C$DW$130, DW_AT_name("hSpi")
    1471                            .dwattr $C$DW$130, DW_AT_TI_symbol_name("hSpi")
    1472                            .dwattr $C$DW$130, DW_AT_data_member_location[DW_OP_plus_uconst 0x1c]
    1473                            .dwattr $C$DW$130, DW_AT_accessibility(DW_ACCESS_public)
    1474                            .dwattr $C$DW$130, DW_AT_decl_file("C:/ti/simplelink_cc13x0_sdk_1_50_00_08/source/ti/display/D
    1475                            .dwattr $C$DW$130, DW_AT_decl_line(0x69)
    1476                            .dwattr $C$DW$130, DW_AT_decl_column(0x1b)
    1477                    
    1478                    $C$DW$131       .dwtag  DW_TAG_member
    1479                            .dwattr $C$DW$131, DW_AT_type(*$C$DW$T$139)
    1480                            .dwattr $C$DW$131, DW_AT_name("pinState")
    1481                            .dwattr $C$DW$131, DW_AT_TI_symbol_name("pinState")
TI ARM Assembler PC v16.9.4 Tue Apr 03 11:15:21 2018

Tools Copyright (c) 1996-2017 Texas Instruments Incorporated
C:\Users\Kevin\AppData\Local\Temp\{BD2815D5-01F3-43A2-98CD-B080CA14D9D7} PAGE   28

    1482                            .dwattr $C$DW$131, DW_AT_data_member_location[DW_OP_plus_uconst 0x20]
    1483                            .dwattr $C$DW$131, DW_AT_accessibility(DW_ACCESS_public)
    1484                            .dwattr $C$DW$131, DW_AT_decl_file("C:/ti/simplelink_cc13x0_sdk_1_50_00_08/source/ti/display/D
    1485                            .dwattr $C$DW$131, DW_AT_decl_line(0x6a)
    1486                            .dwattr $C$DW$131, DW_AT_decl_column(0x1b)
    1487                    
    1488                    $C$DW$132       .dwtag  DW_TAG_member
    1489                            .dwattr $C$DW$132, DW_AT_type(*$C$DW$T$141)
    1490                            .dwattr $C$DW$132, DW_AT_name("hPins")
    1491                            .dwattr $C$DW$132, DW_AT_TI_symbol_name("hPins")
    1492                            .dwattr $C$DW$132, DW_AT_data_member_location[DW_OP_plus_uconst 0x2c]
    1493                            .dwattr $C$DW$132, DW_AT_accessibility(DW_ACCESS_public)
    1494                            .dwattr $C$DW$132, DW_AT_decl_file("C:/ti/simplelink_cc13x0_sdk_1_50_00_08/source/ti/display/D
    1495                            .dwattr $C$DW$132, DW_AT_decl_line(0x6b)
    1496                            .dwattr $C$DW$132, DW_AT_decl_column(0x1b)
    1497                    
    1498                    $C$DW$133       .dwtag  DW_TAG_member
    1499                            .dwattr $C$DW$133, DW_AT_type(*$C$DW$T$143)
    1500                            .dwattr $C$DW$133, DW_AT_name("lineClearMode")
    1501                            .dwattr $C$DW$133, DW_AT_TI_symbol_name("lineClearMode")
    1502                            .dwattr $C$DW$133, DW_AT_data_member_location[DW_OP_plus_uconst 0x30]
    1503                            .dwattr $C$DW$133, DW_AT_accessibility(DW_ACCESS_public)
    1504                            .dwattr $C$DW$133, DW_AT_decl_file("C:/ti/simplelink_cc13x0_sdk_1_50_00_08/source/ti/display/D
    1505                            .dwattr $C$DW$133, DW_AT_decl_line(0x6c)
    1506                            .dwattr $C$DW$133, DW_AT_decl_column(0x1b)
    1507                    
    1508                    $C$DW$134       .dwtag  DW_TAG_member
    1509                            .dwattr $C$DW$134, DW_AT_type(*$C$DW$T$144)
    1510                            .dwattr $C$DW$134, DW_AT_name("g_sDisplay")
    1511                            .dwattr $C$DW$134, DW_AT_TI_symbol_name("g_sDisplay")
    1512                            .dwattr $C$DW$134, DW_AT_data_member_location[DW_OP_plus_uconst 0x34]
    1513                            .dwattr $C$DW$134, DW_AT_accessibility(DW_ACCESS_public)
    1514                            .dwattr $C$DW$134, DW_AT_decl_file("C:/ti/simplelink_cc13x0_sdk_1_50_00_08/source/ti/display/D
    1515                            .dwattr $C$DW$134, DW_AT_decl_line(0x6d)
    1516                            .dwattr $C$DW$134, DW_AT_decl_column(0x1b)
    1517                    
    1518                    $C$DW$135       .dwtag  DW_TAG_member
    1519                            .dwattr $C$DW$135, DW_AT_type(*$C$DW$T$145)
    1520                            .dwattr $C$DW$135, DW_AT_name("displayColor")
    1521                            .dwattr $C$DW$135, DW_AT_TI_symbol_name("displayColor")
    1522                            .dwattr $C$DW$135, DW_AT_data_member_location[DW_OP_plus_uconst 0x44]
    1523                            .dwattr $C$DW$135, DW_AT_accessibility(DW_ACCESS_public)
    1524                            .dwattr $C$DW$135, DW_AT_decl_file("C:/ti/simplelink_cc13x0_sdk_1_50_00_08/source/ti/display/D
    1525                            .dwattr $C$DW$135, DW_AT_decl_line(0x6e)
    1526                            .dwattr $C$DW$135, DW_AT_decl_column(0x1b)
    1527                    
    1528                    $C$DW$136       .dwtag  DW_TAG_member
    1529                            .dwattr $C$DW$136, DW_AT_type(*$C$DW$T$146)
    1530                            .dwattr $C$DW$136, DW_AT_name("semLCD")
    1531                            .dwattr $C$DW$136, DW_AT_TI_symbol_name("semLCD")
    1532                            .dwattr $C$DW$136, DW_AT_data_member_location[DW_OP_plus_uconst 0x4c]
    1533                            .dwattr $C$DW$136, DW_AT_accessibility(DW_ACCESS_public)
    1534                            .dwattr $C$DW$136, DW_AT_decl_file("C:/ti/simplelink_cc13x0_sdk_1_50_00_08/source/ti/display/D
    1535                            .dwattr $C$DW$136, DW_AT_decl_line(0x6f)
    1536                            .dwattr $C$DW$136, DW_AT_decl_column(0x1b)
TI ARM Assembler PC v16.9.4 Tue Apr 03 11:15:21 2018

Tools Copyright (c) 1996-2017 Texas Instruments Incorporated
C:\Users\Kevin\AppData\Local\Temp\{BD2815D5-01F3-43A2-98CD-B080CA14D9D7} PAGE   29

    1537                    
    1538                    $C$DW$137       .dwtag  DW_TAG_member
    1539                            .dwattr $C$DW$137, DW_AT_type(*$C$DW$T$89)
    1540                            .dwattr $C$DW$137, DW_AT_name("displayBuffer")
    1541                            .dwattr $C$DW$137, DW_AT_TI_symbol_name("displayBuffer")
    1542                            .dwattr $C$DW$137, DW_AT_data_member_location[DW_OP_plus_uconst 0x68]
    1543                            .dwattr $C$DW$137, DW_AT_accessibility(DW_ACCESS_public)
    1544                            .dwattr $C$DW$137, DW_AT_decl_file("C:/ti/simplelink_cc13x0_sdk_1_50_00_08/source/ti/display/D
    1545                            .dwattr $C$DW$137, DW_AT_decl_line(0x70)
    1546                            .dwattr $C$DW$137, DW_AT_decl_column(0x1b)
    1547                    
    1548                            .dwattr $C$DW$T$147, DW_AT_decl_file("C:/ti/simplelink_cc13x0_sdk_1_50_00_08/source/ti/display
    1549                            .dwattr $C$DW$T$147, DW_AT_decl_line(0x66)
    1550                            .dwattr $C$DW$T$147, DW_AT_decl_column(0x10)
    1551                            .dwendtag $C$DW$T$147
    1552                    
    1553                    $C$DW$T$495     .dwtag  DW_TAG_typedef
    1554                            .dwattr $C$DW$T$495, DW_AT_name("DisplaySharp_Object")
    1555                            .dwattr $C$DW$T$495, DW_AT_type(*$C$DW$T$147)
    1556                            .dwattr $C$DW$T$495, DW_AT_language(DW_LANG_C)
    1557                            .dwattr $C$DW$T$495, DW_AT_decl_file("C:/ti/simplelink_cc13x0_sdk_1_50_00_08/source/ti/display
    1558                            .dwattr $C$DW$T$495, DW_AT_decl_line(0x71)
    1559                            .dwattr $C$DW$T$495, DW_AT_decl_column(0x03)
    1560                    
    1561                    $C$DW$T$496     .dwtag  DW_TAG_pointer_type
    1562                            .dwattr $C$DW$T$496, DW_AT_type(*$C$DW$T$147)
    1563                            .dwattr $C$DW$T$496, DW_AT_address_class(0x20)
    1564                    
    1565                    $C$DW$T$497     .dwtag  DW_TAG_typedef
    1566                            .dwattr $C$DW$T$497, DW_AT_name("DisplaySharp_Handle")
    1567                            .dwattr $C$DW$T$497, DW_AT_type(*$C$DW$T$496)
    1568                            .dwattr $C$DW$T$497, DW_AT_language(DW_LANG_C)
    1569                            .dwattr $C$DW$T$497, DW_AT_decl_file("C:/ti/simplelink_cc13x0_sdk_1_50_00_08/source/ti/display
    1570                            .dwattr $C$DW$T$497, DW_AT_decl_line(0x71)
    1571                            .dwattr $C$DW$T$497, DW_AT_decl_column(0x19)
    1572                    
    1573                    
    1574                    $C$DW$T$153     .dwtag  DW_TAG_structure_type
    1575                            .dwattr $C$DW$T$153, DW_AT_name("Display_Config")
    1576                            .dwattr $C$DW$T$153, DW_AT_byte_size(0x0c)
    1577                    $C$DW$138       .dwtag  DW_TAG_member
    1578                            .dwattr $C$DW$138, DW_AT_type(*$C$DW$T$150)
    1579                            .dwattr $C$DW$138, DW_AT_name("fxnTablePtr")
    1580                            .dwattr $C$DW$138, DW_AT_TI_symbol_name("fxnTablePtr")
    1581                            .dwattr $C$DW$138, DW_AT_data_member_location[DW_OP_plus_uconst 0x0]
    1582                            .dwattr $C$DW$138, DW_AT_accessibility(DW_ACCESS_public)
    1583                            .dwattr $C$DW$138, DW_AT_decl_file("C:/ti/simplelink_cc13x0_sdk_1_50_00_08/source/ti/display/D
    1584                            .dwattr $C$DW$138, DW_AT_decl_line(0x210)
    1585                            .dwattr $C$DW$138, DW_AT_decl_column(0x1d)
    1586                    
    1587                    $C$DW$139       .dwtag  DW_TAG_member
    1588                            .dwattr $C$DW$139, DW_AT_type(*$C$DW$T$3)
    1589                            .dwattr $C$DW$139, DW_AT_name("object")
    1590                            .dwattr $C$DW$139, DW_AT_TI_symbol_name("object")
    1591                            .dwattr $C$DW$139, DW_AT_data_member_location[DW_OP_plus_uconst 0x4]
TI ARM Assembler PC v16.9.4 Tue Apr 03 11:15:21 2018

Tools Copyright (c) 1996-2017 Texas Instruments Incorporated
C:\Users\Kevin\AppData\Local\Temp\{BD2815D5-01F3-43A2-98CD-B080CA14D9D7} PAGE   30

    1592                            .dwattr $C$DW$139, DW_AT_accessibility(DW_ACCESS_public)
    1593                            .dwattr $C$DW$139, DW_AT_decl_file("C:/ti/simplelink_cc13x0_sdk_1_50_00_08/source/ti/display/D
    1594                            .dwattr $C$DW$139, DW_AT_decl_line(0x213)
    1595                            .dwattr $C$DW$139, DW_AT_decl_column(0x1d)
    1596                    
    1597                    $C$DW$140       .dwtag  DW_TAG_member
    1598                            .dwattr $C$DW$140, DW_AT_type(*$C$DW$T$152)
    1599                            .dwattr $C$DW$140, DW_AT_name("hwAttrs")
    1600                            .dwattr $C$DW$140, DW_AT_TI_symbol_name("hwAttrs")
    1601                            .dwattr $C$DW$140, DW_AT_data_member_location[DW_OP_plus_uconst 0x8]
    1602                            .dwattr $C$DW$140, DW_AT_accessibility(DW_ACCESS_public)
    1603                            .dwattr $C$DW$140, DW_AT_decl_file("C:/ti/simplelink_cc13x0_sdk_1_50_00_08/source/ti/display/D
    1604                            .dwattr $C$DW$140, DW_AT_decl_line(0x216)
    1605                            .dwattr $C$DW$140, DW_AT_decl_column(0x1d)
    1606                    
    1607                            .dwattr $C$DW$T$153, DW_AT_decl_file("C:/ti/simplelink_cc13x0_sdk_1_50_00_08/source/ti/display
    1608                            .dwattr $C$DW$T$153, DW_AT_decl_line(0x20d)
    1609                            .dwattr $C$DW$T$153, DW_AT_decl_column(0x10)
    1610                            .dwendtag $C$DW$T$153
    1611                    
    1612                    $C$DW$T$498     .dwtag  DW_TAG_typedef
    1613                            .dwattr $C$DW$T$498, DW_AT_name("Display_Config")
    1614                            .dwattr $C$DW$T$498, DW_AT_type(*$C$DW$T$153)
    1615                            .dwattr $C$DW$T$498, DW_AT_language(DW_LANG_C)
    1616                            .dwattr $C$DW$T$498, DW_AT_decl_file("C:/ti/simplelink_cc13x0_sdk_1_50_00_08/source/ti/display
    1617                            .dwattr $C$DW$T$498, DW_AT_decl_line(0x217)
    1618                            .dwattr $C$DW$T$498, DW_AT_decl_column(0x03)
    1619                    
    1620                    $C$DW$T$154     .dwtag  DW_TAG_pointer_type
    1621                            .dwattr $C$DW$T$154, DW_AT_type(*$C$DW$T$153)
    1622                            .dwattr $C$DW$T$154, DW_AT_address_class(0x20)
    1623                    
    1624                    $C$DW$T$155     .dwtag  DW_TAG_typedef
    1625                            .dwattr $C$DW$T$155, DW_AT_name("Display_Handle")
    1626                            .dwattr $C$DW$T$155, DW_AT_type(*$C$DW$T$154)
    1627                            .dwattr $C$DW$T$155, DW_AT_language(DW_LANG_C)
    1628                            .dwattr $C$DW$T$155, DW_AT_decl_file("C:/ti/simplelink_cc13x0_sdk_1_50_00_08/source/ti/display
    1629                            .dwattr $C$DW$T$155, DW_AT_decl_line(0x1a0)
    1630                            .dwattr $C$DW$T$155, DW_AT_decl_column(0x21)
    1631                    
    1632                    
    1633                    $C$DW$T$161     .dwtag  DW_TAG_subroutine_type
    1634                            .dwattr $C$DW$T$161, DW_AT_type(*$C$DW$T$155)
    1635                            .dwattr $C$DW$T$161, DW_AT_language(DW_LANG_C)
    1636                    $C$DW$141       .dwtag  DW_TAG_formal_parameter
    1637                            .dwattr $C$DW$141, DW_AT_type(*$C$DW$T$155)
    1638                    
    1639                    $C$DW$142       .dwtag  DW_TAG_formal_parameter
    1640                            .dwattr $C$DW$142, DW_AT_type(*$C$DW$T$160)
    1641                    
    1642                            .dwendtag $C$DW$T$161
    1643                    
    1644                    $C$DW$T$162     .dwtag  DW_TAG_pointer_type
    1645                            .dwattr $C$DW$T$162, DW_AT_type(*$C$DW$T$161)
    1646                            .dwattr $C$DW$T$162, DW_AT_address_class(0x20)
TI ARM Assembler PC v16.9.4 Tue Apr 03 11:15:21 2018

Tools Copyright (c) 1996-2017 Texas Instruments Incorporated
C:\Users\Kevin\AppData\Local\Temp\{BD2815D5-01F3-43A2-98CD-B080CA14D9D7} PAGE   31

    1647                    
    1648                    $C$DW$T$163     .dwtag  DW_TAG_typedef
    1649                            .dwattr $C$DW$T$163, DW_AT_name("Display_openFxn")
    1650                            .dwattr $C$DW$T$163, DW_AT_type(*$C$DW$T$162)
    1651                            .dwattr $C$DW$T$163, DW_AT_language(DW_LANG_C)
    1652                            .dwattr $C$DW$T$163, DW_AT_decl_file("C:/ti/simplelink_cc13x0_sdk_1_50_00_08/source/ti/display
    1653                            .dwattr $C$DW$T$163, DW_AT_decl_line(0x1c4)
    1654                            .dwattr $C$DW$T$163, DW_AT_decl_column(0x1a)
    1655                    
    1656                    
    1657                    $C$DW$T$181     .dwtag  DW_TAG_structure_type
    1658                            .dwattr $C$DW$T$181, DW_AT_name("Display_FxnTable")
    1659                            .dwattr $C$DW$T$181, DW_AT_byte_size(0x20)
    1660                    $C$DW$143       .dwtag  DW_TAG_member
    1661                            .dwattr $C$DW$143, DW_AT_type(*$C$DW$T$158)
    1662                            .dwattr $C$DW$143, DW_AT_name("initFxn")
    1663                            .dwattr $C$DW$143, DW_AT_TI_symbol_name("initFxn")
    1664                            .dwattr $C$DW$143, DW_AT_data_member_location[DW_OP_plus_uconst 0x0]
    1665                            .dwattr $C$DW$143, DW_AT_accessibility(DW_ACCESS_public)
    1666                            .dwattr $C$DW$143, DW_AT_decl_file("C:/ti/simplelink_cc13x0_sdk_1_50_00_08/source/ti/display/D
    1667                            .dwattr $C$DW$143, DW_AT_decl_line(0x1f8)
    1668                            .dwattr $C$DW$143, DW_AT_decl_column(0x1b)
    1669                    
    1670                    $C$DW$144       .dwtag  DW_TAG_member
    1671                            .dwattr $C$DW$144, DW_AT_type(*$C$DW$T$163)
    1672                            .dwattr $C$DW$144, DW_AT_name("openFxn")
    1673                            .dwattr $C$DW$144, DW_AT_TI_symbol_name("openFxn")
    1674                            .dwattr $C$DW$144, DW_AT_data_member_location[DW_OP_plus_uconst 0x4]
    1675                            .dwattr $C$DW$144, DW_AT_accessibility(DW_ACCESS_public)
    1676                            .dwattr $C$DW$144, DW_AT_decl_file("C:/ti/simplelink_cc13x0_sdk_1_50_00_08/source/ti/display/D
    1677                            .dwattr $C$DW$144, DW_AT_decl_line(0x1f9)
    1678                            .dwattr $C$DW$144, DW_AT_decl_column(0x1b)
    1679                    
    1680                    $C$DW$145       .dwtag  DW_TAG_member
    1681                            .dwattr $C$DW$145, DW_AT_type(*$C$DW$T$164)
    1682                            .dwattr $C$DW$145, DW_AT_name("clearFxn")
    1683                            .dwattr $C$DW$145, DW_AT_TI_symbol_name("clearFxn")
    1684                            .dwattr $C$DW$145, DW_AT_data_member_location[DW_OP_plus_uconst 0x8]
    1685                            .dwattr $C$DW$145, DW_AT_accessibility(DW_ACCESS_public)
    1686                            .dwattr $C$DW$145, DW_AT_decl_file("C:/ti/simplelink_cc13x0_sdk_1_50_00_08/source/ti/display/D
    1687                            .dwattr $C$DW$145, DW_AT_decl_line(0x1fa)
    1688                            .dwattr $C$DW$145, DW_AT_decl_column(0x1b)
    1689                    
    1690                    $C$DW$146       .dwtag  DW_TAG_member
    1691                            .dwattr $C$DW$146, DW_AT_type(*$C$DW$T$167)
    1692                            .dwattr $C$DW$146, DW_AT_name("clearLinesFxn")
    1693                            .dwattr $C$DW$146, DW_AT_TI_symbol_name("clearLinesFxn")
    1694                            .dwattr $C$DW$146, DW_AT_data_member_location[DW_OP_plus_uconst 0xc]
    1695                            .dwattr $C$DW$146, DW_AT_accessibility(DW_ACCESS_public)
    1696                            .dwattr $C$DW$146, DW_AT_decl_file("C:/ti/simplelink_cc13x0_sdk_1_50_00_08/source/ti/display/D
    1697                            .dwattr $C$DW$146, DW_AT_decl_line(0x1fb)
    1698                            .dwattr $C$DW$146, DW_AT_decl_column(0x1b)
    1699                    
    1700                    $C$DW$147       .dwtag  DW_TAG_member
    1701                            .dwattr $C$DW$147, DW_AT_type(*$C$DW$T$173)
TI ARM Assembler PC v16.9.4 Tue Apr 03 11:15:21 2018

Tools Copyright (c) 1996-2017 Texas Instruments Incorporated
C:\Users\Kevin\AppData\Local\Temp\{BD2815D5-01F3-43A2-98CD-B080CA14D9D7} PAGE   32

    1702                            .dwattr $C$DW$147, DW_AT_name("vprintfFxn")
    1703                            .dwattr $C$DW$147, DW_AT_TI_symbol_name("vprintfFxn")
    1704                            .dwattr $C$DW$147, DW_AT_data_member_location[DW_OP_plus_uconst 0x10]
    1705                            .dwattr $C$DW$147, DW_AT_accessibility(DW_ACCESS_public)
    1706                            .dwattr $C$DW$147, DW_AT_decl_file("C:/ti/simplelink_cc13x0_sdk_1_50_00_08/source/ti/display/D
    1707                            .dwattr $C$DW$147, DW_AT_decl_line(0x1fc)
    1708                            .dwattr $C$DW$147, DW_AT_decl_column(0x1b)
    1709                    
    1710                    $C$DW$148       .dwtag  DW_TAG_member
    1711                            .dwattr $C$DW$148, DW_AT_type(*$C$DW$T$174)
    1712                            .dwattr $C$DW$148, DW_AT_name("closeFxn")
    1713                            .dwattr $C$DW$148, DW_AT_TI_symbol_name("closeFxn")
    1714                            .dwattr $C$DW$148, DW_AT_data_member_location[DW_OP_plus_uconst 0x14]
    1715                            .dwattr $C$DW$148, DW_AT_accessibility(DW_ACCESS_public)
    1716                            .dwattr $C$DW$148, DW_AT_decl_file("C:/ti/simplelink_cc13x0_sdk_1_50_00_08/source/ti/display/D
    1717                            .dwattr $C$DW$148, DW_AT_decl_line(0x1fd)
    1718                            .dwattr $C$DW$148, DW_AT_decl_column(0x1b)
    1719                    
    1720                    $C$DW$149       .dwtag  DW_TAG_member
    1721                            .dwattr $C$DW$149, DW_AT_type(*$C$DW$T$177)
    1722                            .dwattr $C$DW$149, DW_AT_name("controlFxn")
    1723                            .dwattr $C$DW$149, DW_AT_TI_symbol_name("controlFxn")
    1724                            .dwattr $C$DW$149, DW_AT_data_member_location[DW_OP_plus_uconst 0x18]
    1725                            .dwattr $C$DW$149, DW_AT_accessibility(DW_ACCESS_public)
    1726                            .dwattr $C$DW$149, DW_AT_decl_file("C:/ti/simplelink_cc13x0_sdk_1_50_00_08/source/ti/display/D
    1727                            .dwattr $C$DW$149, DW_AT_decl_line(0x1fe)
    1728                            .dwattr $C$DW$149, DW_AT_decl_column(0x1b)
    1729                    
    1730                    $C$DW$150       .dwtag  DW_TAG_member
    1731                            .dwattr $C$DW$150, DW_AT_type(*$C$DW$T$180)
    1732                            .dwattr $C$DW$150, DW_AT_name("getTypeFxn")
    1733                            .dwattr $C$DW$150, DW_AT_TI_symbol_name("getTypeFxn")
    1734                            .dwattr $C$DW$150, DW_AT_data_member_location[DW_OP_plus_uconst 0x1c]
    1735                            .dwattr $C$DW$150, DW_AT_accessibility(DW_ACCESS_public)
    1736                            .dwattr $C$DW$150, DW_AT_decl_file("C:/ti/simplelink_cc13x0_sdk_1_50_00_08/source/ti/display/D
    1737                            .dwattr $C$DW$150, DW_AT_decl_line(0x1ff)
    1738                            .dwattr $C$DW$150, DW_AT_decl_column(0x1b)
    1739                    
    1740                            .dwattr $C$DW$T$181, DW_AT_decl_file("C:/ti/simplelink_cc13x0_sdk_1_50_00_08/source/ti/display
    1741                            .dwattr $C$DW$T$181, DW_AT_decl_line(0x1f6)
    1742                            .dwattr $C$DW$T$181, DW_AT_decl_column(0x10)
    1743                            .dwendtag $C$DW$T$181
    1744                    
    1745                    $C$DW$T$148     .dwtag  DW_TAG_typedef
    1746                            .dwattr $C$DW$T$148, DW_AT_name("Display_FxnTable")
    1747                            .dwattr $C$DW$T$148, DW_AT_type(*$C$DW$T$181)
    1748                            .dwattr $C$DW$T$148, DW_AT_language(DW_LANG_C)
    1749                            .dwattr $C$DW$T$148, DW_AT_decl_file("C:/ti/simplelink_cc13x0_sdk_1_50_00_08/source/ti/display
    1750                            .dwattr $C$DW$T$148, DW_AT_decl_line(0x200)
    1751                            .dwattr $C$DW$T$148, DW_AT_decl_column(0x03)
    1752                    
    1753                    $C$DW$T$149     .dwtag  DW_TAG_const_type
    1754                            .dwattr $C$DW$T$149, DW_AT_type(*$C$DW$T$148)
    1755                    
    1756                    $C$DW$T$150     .dwtag  DW_TAG_pointer_type
TI ARM Assembler PC v16.9.4 Tue Apr 03 11:15:21 2018

Tools Copyright (c) 1996-2017 Texas Instruments Incorporated
C:\Users\Kevin\AppData\Local\Temp\{BD2815D5-01F3-43A2-98CD-B080CA14D9D7} PAGE   33

    1757                            .dwattr $C$DW$T$150, DW_AT_type(*$C$DW$T$149)
    1758                            .dwattr $C$DW$T$150, DW_AT_address_class(0x20)
    1759                    
    1760                    
    1761                    $C$DW$T$142     .dwtag  DW_TAG_enumeration_type
    1762                            .dwattr $C$DW$T$142, DW_AT_name("Display_LineClearMode")
    1763                            .dwattr $C$DW$T$142, DW_AT_byte_size(0x01)
    1764                    $C$DW$151       .dwtag  DW_TAG_enumerator
    1765                            .dwattr $C$DW$151, DW_AT_name("DISPLAY_CLEAR_NONE")
    1766                            .dwattr $C$DW$151, DW_AT_const_value(0x00)
    1767                            .dwattr $C$DW$151, DW_AT_decl_file("C:/ti/simplelink_cc13x0_sdk_1_50_00_08/source/ti/display/D
    1768                            .dwattr $C$DW$151, DW_AT_decl_line(0x1ad)
    1769                            .dwattr $C$DW$151, DW_AT_decl_column(0x05)
    1770                    
    1771                    $C$DW$152       .dwtag  DW_TAG_enumerator
    1772                            .dwattr $C$DW$152, DW_AT_name("DISPLAY_CLEAR_LEFT")
    1773                            .dwattr $C$DW$152, DW_AT_const_value(0x01)
    1774                            .dwattr $C$DW$152, DW_AT_decl_file("C:/ti/simplelink_cc13x0_sdk_1_50_00_08/source/ti/display/D
    1775                            .dwattr $C$DW$152, DW_AT_decl_line(0x1ae)
    1776                            .dwattr $C$DW$152, DW_AT_decl_column(0x05)
    1777                    
    1778                    $C$DW$153       .dwtag  DW_TAG_enumerator
    1779                            .dwattr $C$DW$153, DW_AT_name("DISPLAY_CLEAR_RIGHT")
    1780                            .dwattr $C$DW$153, DW_AT_const_value(0x02)
    1781                            .dwattr $C$DW$153, DW_AT_decl_file("C:/ti/simplelink_cc13x0_sdk_1_50_00_08/source/ti/display/D
    1782                            .dwattr $C$DW$153, DW_AT_decl_line(0x1af)
    1783                            .dwattr $C$DW$153, DW_AT_decl_column(0x05)
    1784                    
    1785                    $C$DW$154       .dwtag  DW_TAG_enumerator
    1786                            .dwattr $C$DW$154, DW_AT_name("DISPLAY_CLEAR_BOTH")
    1787                            .dwattr $C$DW$154, DW_AT_const_value(0x03)
    1788                            .dwattr $C$DW$154, DW_AT_decl_file("C:/ti/simplelink_cc13x0_sdk_1_50_00_08/source/ti/display/D
    1789                            .dwattr $C$DW$154, DW_AT_decl_line(0x1b0)
    1790                            .dwattr $C$DW$154, DW_AT_decl_column(0x05)
    1791                    
    1792                            .dwattr $C$DW$T$142, DW_AT_decl_file("C:/ti/simplelink_cc13x0_sdk_1_50_00_08/source/ti/display
    1793                            .dwattr $C$DW$T$142, DW_AT_decl_line(0x1ab)
    1794                            .dwattr $C$DW$T$142, DW_AT_decl_column(0x0e)
    1795                            .dwendtag $C$DW$T$142
    1796                    
    1797                    $C$DW$T$143     .dwtag  DW_TAG_typedef
    1798                            .dwattr $C$DW$T$143, DW_AT_name("Display_LineClearMode")
    1799                            .dwattr $C$DW$T$143, DW_AT_type(*$C$DW$T$142)
    1800                            .dwattr $C$DW$T$143, DW_AT_language(DW_LANG_C)
    1801                            .dwattr $C$DW$T$143, DW_AT_decl_file("C:/ti/simplelink_cc13x0_sdk_1_50_00_08/source/ti/display
    1802                            .dwattr $C$DW$T$143, DW_AT_decl_line(0x1b1)
    1803                            .dwattr $C$DW$T$143, DW_AT_decl_column(0x03)
    1804                    
    1805                    
    1806                    $C$DW$T$182     .dwtag  DW_TAG_structure_type
    1807                            .dwattr $C$DW$T$182, DW_AT_name("Display_Params")
    1808                            .dwattr $C$DW$T$182, DW_AT_byte_size(0x01)
    1809                    $C$DW$155       .dwtag  DW_TAG_member
    1810                            .dwattr $C$DW$155, DW_AT_type(*$C$DW$T$143)
    1811                            .dwattr $C$DW$155, DW_AT_name("lineClearMode")
TI ARM Assembler PC v16.9.4 Tue Apr 03 11:15:21 2018

Tools Copyright (c) 1996-2017 Texas Instruments Incorporated
C:\Users\Kevin\AppData\Local\Temp\{BD2815D5-01F3-43A2-98CD-B080CA14D9D7} PAGE   34

    1812                            .dwattr $C$DW$155, DW_AT_TI_symbol_name("lineClearMode")
    1813                            .dwattr $C$DW$155, DW_AT_data_member_location[DW_OP_plus_uconst 0x0]
    1814                            .dwattr $C$DW$155, DW_AT_accessibility(DW_ACCESS_public)
    1815                            .dwattr $C$DW$155, DW_AT_decl_file("C:/ti/simplelink_cc13x0_sdk_1_50_00_08/source/ti/display/D
    1816                            .dwattr $C$DW$155, DW_AT_decl_line(0x1bd)
    1817                            .dwattr $C$DW$155, DW_AT_decl_column(0x1b)
    1818                    
    1819                            .dwattr $C$DW$T$182, DW_AT_decl_file("C:/ti/simplelink_cc13x0_sdk_1_50_00_08/source/ti/display
    1820                            .dwattr $C$DW$T$182, DW_AT_decl_line(0x1bb)
    1821                            .dwattr $C$DW$T$182, DW_AT_decl_column(0x10)
    1822                            .dwendtag $C$DW$T$182
    1823                    
    1824                    $C$DW$T$159     .dwtag  DW_TAG_typedef
    1825                            .dwattr $C$DW$T$159, DW_AT_name("Display_Params")
    1826                            .dwattr $C$DW$T$159, DW_AT_type(*$C$DW$T$182)
    1827                            .dwattr $C$DW$T$159, DW_AT_language(DW_LANG_C)
    1828                            .dwattr $C$DW$T$159, DW_AT_decl_file("C:/ti/simplelink_cc13x0_sdk_1_50_00_08/source/ti/display
    1829                            .dwattr $C$DW$T$159, DW_AT_decl_line(0x1be)
    1830                            .dwattr $C$DW$T$159, DW_AT_decl_column(0x03)
    1831                    
    1832                    $C$DW$T$160     .dwtag  DW_TAG_pointer_type
    1833                            .dwattr $C$DW$T$160, DW_AT_type(*$C$DW$T$159)
    1834                            .dwattr $C$DW$T$160, DW_AT_address_class(0x20)
    1835                    
    1836                    
    1837                    $C$DW$T$190     .dwtag  DW_TAG_structure_type
    1838                            .dwattr $C$DW$T$190, DW_AT_name("Graphics_Context")
    1839                            .dwattr $C$DW$T$190, DW_AT_byte_size(0x1c)
    1840                    $C$DW$156       .dwtag  DW_TAG_member
    1841                            .dwattr $C$DW$156, DW_AT_type(*$C$DW$T$183)
    1842                            .dwattr $C$DW$156, DW_AT_name("size")
    1843                            .dwattr $C$DW$156, DW_AT_TI_symbol_name("size")
    1844                            .dwattr $C$DW$156, DW_AT_data_member_location[DW_OP_plus_uconst 0x0]
    1845                            .dwattr $C$DW$156, DW_AT_accessibility(DW_ACCESS_public)
    1846                            .dwattr $C$DW$156, DW_AT_decl_file("C:/ti/simplelink_cc13x0_sdk_1_50_00_08/source/ti/grlib/grl
    1847                            .dwattr $C$DW$156, DW_AT_decl_line(0xe8)
    1848                            .dwattr $C$DW$156, DW_AT_decl_column(0x0d)
    1849                    
    1850                    $C$DW$157       .dwtag  DW_TAG_member
    1851                            .dwattr $C$DW$157, DW_AT_type(*$C$DW$T$185)
    1852                            .dwattr $C$DW$157, DW_AT_name("display")
    1853                            .dwattr $C$DW$157, DW_AT_TI_symbol_name("display")
    1854                            .dwattr $C$DW$157, DW_AT_data_member_location[DW_OP_plus_uconst 0x4]
    1855                            .dwattr $C$DW$157, DW_AT_accessibility(DW_ACCESS_public)
    1856                            .dwattr $C$DW$157, DW_AT_decl_file("C:/ti/simplelink_cc13x0_sdk_1_50_00_08/source/ti/grlib/grl
    1857                            .dwattr $C$DW$157, DW_AT_decl_line(0xe9)
    1858                            .dwattr $C$DW$157, DW_AT_decl_column(0x1d)
    1859                    
    1860                    $C$DW$158       .dwtag  DW_TAG_member
    1861                            .dwattr $C$DW$158, DW_AT_type(*$C$DW$T$186)
    1862                            .dwattr $C$DW$158, DW_AT_name("clipRegion")
    1863                            .dwattr $C$DW$158, DW_AT_TI_symbol_name("clipRegion")
    1864                            .dwattr $C$DW$158, DW_AT_data_member_location[DW_OP_plus_uconst 0x8]
    1865                            .dwattr $C$DW$158, DW_AT_accessibility(DW_ACCESS_public)
    1866                            .dwattr $C$DW$158, DW_AT_decl_file("C:/ti/simplelink_cc13x0_sdk_1_50_00_08/source/ti/grlib/grl
TI ARM Assembler PC v16.9.4 Tue Apr 03 11:15:21 2018

Tools Copyright (c) 1996-2017 Texas Instruments Incorporated
C:\Users\Kevin\AppData\Local\Temp\{BD2815D5-01F3-43A2-98CD-B080CA14D9D7} PAGE   35

    1867                            .dwattr $C$DW$158, DW_AT_decl_line(0xea)
    1868                            .dwattr $C$DW$158, DW_AT_decl_column(0x18)
    1869                    
    1870                    $C$DW$159       .dwtag  DW_TAG_member
    1871                            .dwattr $C$DW$159, DW_AT_type(*$C$DW$T$86)
    1872                            .dwattr $C$DW$159, DW_AT_name("foreground")
    1873                            .dwattr $C$DW$159, DW_AT_TI_symbol_name("foreground")
    1874                            .dwattr $C$DW$159, DW_AT_data_member_location[DW_OP_plus_uconst 0x10]
    1875                            .dwattr $C$DW$159, DW_AT_accessibility(DW_ACCESS_public)
    1876                            .dwattr $C$DW$159, DW_AT_decl_file("C:/ti/simplelink_cc13x0_sdk_1_50_00_08/source/ti/grlib/grl
    1877                            .dwattr $C$DW$159, DW_AT_decl_line(0xeb)
    1878                            .dwattr $C$DW$159, DW_AT_decl_column(0x0e)
    1879                    
    1880                    $C$DW$160       .dwtag  DW_TAG_member
    1881                            .dwattr $C$DW$160, DW_AT_type(*$C$DW$T$86)
    1882                            .dwattr $C$DW$160, DW_AT_name("background")
    1883                            .dwattr $C$DW$160, DW_AT_TI_symbol_name("background")
    1884                            .dwattr $C$DW$160, DW_AT_data_member_location[DW_OP_plus_uconst 0x14]
    1885                            .dwattr $C$DW$160, DW_AT_accessibility(DW_ACCESS_public)
    1886                            .dwattr $C$DW$160, DW_AT_decl_file("C:/ti/simplelink_cc13x0_sdk_1_50_00_08/source/ti/grlib/grl
    1887                            .dwattr $C$DW$160, DW_AT_decl_line(0xec)
    1888                            .dwattr $C$DW$160, DW_AT_decl_column(0x0e)
    1889                    
    1890                    $C$DW$161       .dwtag  DW_TAG_member
    1891                            .dwattr $C$DW$161, DW_AT_type(*$C$DW$T$189)
    1892                            .dwattr $C$DW$161, DW_AT_name("font")
    1893                            .dwattr $C$DW$161, DW_AT_TI_symbol_name("font")
    1894                            .dwattr $C$DW$161, DW_AT_data_member_location[DW_OP_plus_uconst 0x18]
    1895                            .dwattr $C$DW$161, DW_AT_accessibility(DW_ACCESS_public)
    1896                            .dwattr $C$DW$161, DW_AT_decl_file("C:/ti/simplelink_cc13x0_sdk_1_50_00_08/source/ti/grlib/grl
    1897                            .dwattr $C$DW$161, DW_AT_decl_line(0xed)
    1898                            .dwattr $C$DW$161, DW_AT_decl_column(0x1a)
    1899                    
    1900                            .dwattr $C$DW$T$190, DW_AT_decl_file("C:/ti/simplelink_cc13x0_sdk_1_50_00_08/source/ti/grlib/g
    1901                            .dwattr $C$DW$T$190, DW_AT_decl_line(0xe6)
    1902                            .dwattr $C$DW$T$190, DW_AT_decl_column(0x10)
    1903                            .dwendtag $C$DW$T$190
    1904                    
    1905                    $C$DW$T$133     .dwtag  DW_TAG_typedef
    1906                            .dwattr $C$DW$T$133, DW_AT_name("Graphics_Context")
    1907                            .dwattr $C$DW$T$133, DW_AT_type(*$C$DW$T$190)
    1908                            .dwattr $C$DW$T$133, DW_AT_language(DW_LANG_C)
    1909                            .dwattr $C$DW$T$133, DW_AT_decl_file("C:/ti/simplelink_cc13x0_sdk_1_50_00_08/source/ti/grlib/g
    1910                            .dwattr $C$DW$T$133, DW_AT_decl_line(0xee)
    1911                            .dwattr $C$DW$T$133, DW_AT_decl_column(0x03)
    1912                    
    1913                    
    1914                    $C$DW$T$194     .dwtag  DW_TAG_structure_type
    1915                            .dwattr $C$DW$T$194, DW_AT_name("Graphics_Display")
    1916                            .dwattr $C$DW$T$194, DW_AT_byte_size(0x10)
    1917                    $C$DW$162       .dwtag  DW_TAG_member
    1918                            .dwattr $C$DW$162, DW_AT_type(*$C$DW$T$183)
    1919                            .dwattr $C$DW$162, DW_AT_name("size")
    1920                            .dwattr $C$DW$162, DW_AT_TI_symbol_name("size")
    1921                            .dwattr $C$DW$162, DW_AT_data_member_location[DW_OP_plus_uconst 0x0]
TI ARM Assembler PC v16.9.4 Tue Apr 03 11:15:21 2018

Tools Copyright (c) 1996-2017 Texas Instruments Incorporated
C:\Users\Kevin\AppData\Local\Temp\{BD2815D5-01F3-43A2-98CD-B080CA14D9D7} PAGE   36

    1922                            .dwattr $C$DW$162, DW_AT_accessibility(DW_ACCESS_public)
    1923                            .dwattr $C$DW$162, DW_AT_decl_file("C:/ti/simplelink_cc13x0_sdk_1_50_00_08/source/ti/grlib/grl
    1924                            .dwattr $C$DW$162, DW_AT_decl_line(0xb2)
    1925                            .dwattr $C$DW$162, DW_AT_decl_column(0x0d)
    1926                    
    1927                    $C$DW$163       .dwtag  DW_TAG_member
    1928                            .dwattr $C$DW$163, DW_AT_type(*$C$DW$T$3)
    1929                            .dwattr $C$DW$163, DW_AT_name("displayData")
    1930                            .dwattr $C$DW$163, DW_AT_TI_symbol_name("displayData")
    1931                            .dwattr $C$DW$163, DW_AT_data_member_location[DW_OP_plus_uconst 0x4]
    1932                            .dwattr $C$DW$163, DW_AT_accessibility(DW_ACCESS_public)
    1933                            .dwattr $C$DW$163, DW_AT_decl_file("C:/ti/simplelink_cc13x0_sdk_1_50_00_08/source/ti/grlib/grl
    1934                            .dwattr $C$DW$163, DW_AT_decl_line(0xb3)
    1935                            .dwattr $C$DW$163, DW_AT_decl_column(0x0b)
    1936                    
    1937                    $C$DW$164       .dwtag  DW_TAG_member
    1938                            .dwattr $C$DW$164, DW_AT_type(*$C$DW$T$105)
    1939                            .dwattr $C$DW$164, DW_AT_name("width")
    1940                            .dwattr $C$DW$164, DW_AT_TI_symbol_name("width")
    1941                            .dwattr $C$DW$164, DW_AT_data_member_location[DW_OP_plus_uconst 0x8]
    1942                            .dwattr $C$DW$164, DW_AT_accessibility(DW_ACCESS_public)
    1943                            .dwattr $C$DW$164, DW_AT_decl_file("C:/ti/simplelink_cc13x0_sdk_1_50_00_08/source/ti/grlib/grl
    1944                            .dwattr $C$DW$164, DW_AT_decl_line(0xb4)
    1945                            .dwattr $C$DW$164, DW_AT_decl_column(0x0e)
    1946                    
    1947                    $C$DW$165       .dwtag  DW_TAG_member
    1948                            .dwattr $C$DW$165, DW_AT_type(*$C$DW$T$105)
    1949                            .dwattr $C$DW$165, DW_AT_name("heigth")
    1950                            .dwattr $C$DW$165, DW_AT_TI_symbol_name("heigth")
    1951                            .dwattr $C$DW$165, DW_AT_data_member_location[DW_OP_plus_uconst 0xa]
    1952                            .dwattr $C$DW$165, DW_AT_accessibility(DW_ACCESS_public)
    1953                            .dwattr $C$DW$165, DW_AT_decl_file("C:/ti/simplelink_cc13x0_sdk_1_50_00_08/source/ti/grlib/grl
    1954                            .dwattr $C$DW$165, DW_AT_decl_line(0xb5)
    1955                            .dwattr $C$DW$165, DW_AT_decl_column(0x0e)
    1956                    
    1957                    $C$DW$166       .dwtag  DW_TAG_member
    1958                            .dwattr $C$DW$166, DW_AT_type(*$C$DW$T$193)
    1959                            .dwattr $C$DW$166, DW_AT_name("pFxns")
    1960                            .dwattr $C$DW$166, DW_AT_TI_symbol_name("pFxns")
    1961                            .dwattr $C$DW$166, DW_AT_data_member_location[DW_OP_plus_uconst 0xc]
    1962                            .dwattr $C$DW$166, DW_AT_accessibility(DW_ACCESS_public)
    1963                            .dwattr $C$DW$166, DW_AT_decl_file("C:/ti/simplelink_cc13x0_sdk_1_50_00_08/source/ti/grlib/grl
    1964                            .dwattr $C$DW$166, DW_AT_decl_line(0xb6)
    1965                            .dwattr $C$DW$166, DW_AT_decl_column(0x27)
    1966                    
    1967                            .dwattr $C$DW$T$194, DW_AT_decl_file("C:/ti/simplelink_cc13x0_sdk_1_50_00_08/source/ti/grlib/g
    1968                            .dwattr $C$DW$T$194, DW_AT_decl_line(0xb0)
    1969                            .dwattr $C$DW$T$194, DW_AT_decl_column(0x08)
    1970                            .dwendtag $C$DW$T$194
    1971                    
    1972                    $C$DW$T$144     .dwtag  DW_TAG_typedef
    1973                            .dwattr $C$DW$T$144, DW_AT_name("Graphics_Display")
    1974                            .dwattr $C$DW$T$144, DW_AT_type(*$C$DW$T$194)
    1975                            .dwattr $C$DW$T$144, DW_AT_language(DW_LANG_C)
    1976                            .dwattr $C$DW$T$144, DW_AT_decl_file("C:/ti/simplelink_cc13x0_sdk_1_50_00_08/source/ti/grlib/g
TI ARM Assembler PC v16.9.4 Tue Apr 03 11:15:21 2018

Tools Copyright (c) 1996-2017 Texas Instruments Incorporated
C:\Users\Kevin\AppData\Local\Temp\{BD2815D5-01F3-43A2-98CD-B080CA14D9D7} PAGE   37

    1977                            .dwattr $C$DW$T$144, DW_AT_decl_line(0x66)
    1978                            .dwattr $C$DW$T$144, DW_AT_decl_column(0x21)
    1979                    
    1980                    $C$DW$T$184     .dwtag  DW_TAG_const_type
    1981                            .dwattr $C$DW$T$184, DW_AT_type(*$C$DW$T$144)
    1982                    
    1983                    $C$DW$T$185     .dwtag  DW_TAG_pointer_type
    1984                            .dwattr $C$DW$T$185, DW_AT_type(*$C$DW$T$184)
    1985                            .dwattr $C$DW$T$185, DW_AT_address_class(0x20)
    1986                    
    1987                    
    1988                    $C$DW$T$223     .dwtag  DW_TAG_structure_type
    1989                            .dwattr $C$DW$T$223, DW_AT_name("Graphics_Display_Functions")
    1990                            .dwattr $C$DW$T$223, DW_AT_byte_size(0x20)
    1991                    $C$DW$167       .dwtag  DW_TAG_member
    1992                            .dwattr $C$DW$167, DW_AT_type(*$C$DW$T$198)
    1993                            .dwattr $C$DW$167, DW_AT_name("pfnPixelDraw")
    1994                            .dwattr $C$DW$167, DW_AT_TI_symbol_name("pfnPixelDraw")
    1995                            .dwattr $C$DW$167, DW_AT_data_member_location[DW_OP_plus_uconst 0x0]
    1996                            .dwattr $C$DW$167, DW_AT_accessibility(DW_ACCESS_public)
    1997                            .dwattr $C$DW$167, DW_AT_decl_file("C:/ti/simplelink_cc13x0_sdk_1_50_00_08/source/ti/grlib/grl
    1998                            .dwattr $C$DW$167, DW_AT_decl_line(0x72)
    1999                            .dwattr $C$DW$167, DW_AT_decl_column(0x12)
    2000                    
    2001                    $C$DW$168       .dwtag  DW_TAG_member
    2002                            .dwattr $C$DW$168, DW_AT_type(*$C$DW$T$205)
    2003                            .dwattr $C$DW$168, DW_AT_name("pfnPixelDrawMultiple")
    2004                            .dwattr $C$DW$168, DW_AT_TI_symbol_name("pfnPixelDrawMultiple")
    2005                            .dwattr $C$DW$168, DW_AT_data_member_location[DW_OP_plus_uconst 0x4]
    2006                            .dwattr $C$DW$168, DW_AT_accessibility(DW_ACCESS_public)
    2007                            .dwattr $C$DW$168, DW_AT_decl_file("C:/ti/simplelink_cc13x0_sdk_1_50_00_08/source/ti/grlib/grl
    2008                            .dwattr $C$DW$168, DW_AT_decl_line(0x79)
    2009                            .dwattr $C$DW$168, DW_AT_decl_column(0x12)
    2010                    
    2011                    $C$DW$169       .dwtag  DW_TAG_member
    2012                            .dwattr $C$DW$169, DW_AT_type(*$C$DW$T$208)
    2013                            .dwattr $C$DW$169, DW_AT_name("pfnLineDrawH")
    2014                            .dwattr $C$DW$169, DW_AT_TI_symbol_name("pfnLineDrawH")
    2015                            .dwattr $C$DW$169, DW_AT_data_member_location[DW_OP_plus_uconst 0x8]
    2016                            .dwattr $C$DW$169, DW_AT_accessibility(DW_ACCESS_public)
    2017                            .dwattr $C$DW$169, DW_AT_decl_file("C:/ti/simplelink_cc13x0_sdk_1_50_00_08/source/ti/grlib/grl
    2018                            .dwattr $C$DW$169, DW_AT_decl_line(0x83)
    2019                            .dwattr $C$DW$169, DW_AT_decl_column(0x12)
    2020                    
    2021                    $C$DW$170       .dwtag  DW_TAG_member
    2022                            .dwattr $C$DW$170, DW_AT_type(*$C$DW$T$208)
    2023                            .dwattr $C$DW$170, DW_AT_name("pfnLineDrawV")
    2024                            .dwattr $C$DW$170, DW_AT_TI_symbol_name("pfnLineDrawV")
    2025                            .dwattr $C$DW$170, DW_AT_data_member_location[DW_OP_plus_uconst 0xc]
    2026                            .dwattr $C$DW$170, DW_AT_accessibility(DW_ACCESS_public)
    2027                            .dwattr $C$DW$170, DW_AT_decl_file("C:/ti/simplelink_cc13x0_sdk_1_50_00_08/source/ti/grlib/grl
    2028                            .dwattr $C$DW$170, DW_AT_decl_line(0x8a)
    2029                            .dwattr $C$DW$170, DW_AT_decl_column(0x12)
    2030                    
    2031                    $C$DW$171       .dwtag  DW_TAG_member
TI ARM Assembler PC v16.9.4 Tue Apr 03 11:15:21 2018

Tools Copyright (c) 1996-2017 Texas Instruments Incorporated
C:\Users\Kevin\AppData\Local\Temp\{BD2815D5-01F3-43A2-98CD-B080CA14D9D7} PAGE   38

    2032                            .dwattr $C$DW$171, DW_AT_type(*$C$DW$T$213)
    2033                            .dwattr $C$DW$171, DW_AT_name("pfnRectFill")
    2034                            .dwattr $C$DW$171, DW_AT_TI_symbol_name("pfnRectFill")
    2035                            .dwattr $C$DW$171, DW_AT_data_member_location[DW_OP_plus_uconst 0x10]
    2036                            .dwattr $C$DW$171, DW_AT_accessibility(DW_ACCESS_public)
    2037                            .dwattr $C$DW$171, DW_AT_decl_file("C:/ti/simplelink_cc13x0_sdk_1_50_00_08/source/ti/grlib/grl
    2038                            .dwattr $C$DW$171, DW_AT_decl_line(0x91)
    2039                            .dwattr $C$DW$171, DW_AT_decl_column(0x12)
    2040                    
    2041                    $C$DW$172       .dwtag  DW_TAG_member
    2042                            .dwattr $C$DW$172, DW_AT_type(*$C$DW$T$216)
    2043                            .dwattr $C$DW$172, DW_AT_name("pfnColorTranslate")
    2044                            .dwattr $C$DW$172, DW_AT_TI_symbol_name("pfnColorTranslate")
    2045                            .dwattr $C$DW$172, DW_AT_data_member_location[DW_OP_plus_uconst 0x14]
    2046                            .dwattr $C$DW$172, DW_AT_accessibility(DW_ACCESS_public)
    2047                            .dwattr $C$DW$172, DW_AT_decl_file("C:/ti/simplelink_cc13x0_sdk_1_50_00_08/source/ti/grlib/grl
    2048                            .dwattr $C$DW$172, DW_AT_decl_line(0x99)
    2049                            .dwattr $C$DW$172, DW_AT_decl_column(0x16)
    2050                    
    2051                    $C$DW$173       .dwtag  DW_TAG_member
    2052                            .dwattr $C$DW$173, DW_AT_type(*$C$DW$T$219)
    2053                            .dwattr $C$DW$173, DW_AT_name("pfnFlush")
    2054                            .dwattr $C$DW$173, DW_AT_TI_symbol_name("pfnFlush")
    2055                            .dwattr $C$DW$173, DW_AT_data_member_location[DW_OP_plus_uconst 0x18]
    2056                            .dwattr $C$DW$173, DW_AT_accessibility(DW_ACCESS_public)
    2057                            .dwattr $C$DW$173, DW_AT_decl_file("C:/ti/simplelink_cc13x0_sdk_1_50_00_08/source/ti/grlib/grl
    2058                            .dwattr $C$DW$173, DW_AT_decl_line(0xa0)
    2059                            .dwattr $C$DW$173, DW_AT_decl_column(0x12)
    2060                    
    2061                    $C$DW$174       .dwtag  DW_TAG_member
    2062                            .dwattr $C$DW$174, DW_AT_type(*$C$DW$T$222)
    2063                            .dwattr $C$DW$174, DW_AT_name("pfnClearDisplay")
    2064                            .dwattr $C$DW$174, DW_AT_TI_symbol_name("pfnClearDisplay")
    2065                            .dwattr $C$DW$174, DW_AT_data_member_location[DW_OP_plus_uconst 0x1c]
    2066                            .dwattr $C$DW$174, DW_AT_accessibility(DW_ACCESS_public)
    2067                            .dwattr $C$DW$174, DW_AT_decl_file("C:/ti/simplelink_cc13x0_sdk_1_50_00_08/source/ti/grlib/grl
    2068                            .dwattr $C$DW$174, DW_AT_decl_line(0xa6)
    2069                            .dwattr $C$DW$174, DW_AT_decl_column(0x12)
    2070                    
    2071                            .dwattr $C$DW$T$223, DW_AT_decl_file("C:/ti/simplelink_cc13x0_sdk_1_50_00_08/source/ti/grlib/g
    2072                            .dwattr $C$DW$T$223, DW_AT_decl_line(0x6d)
    2073                            .dwattr $C$DW$T$223, DW_AT_decl_column(0x10)
    2074                            .dwendtag $C$DW$T$223
    2075                    
    2076                    $C$DW$T$191     .dwtag  DW_TAG_typedef
    2077                            .dwattr $C$DW$T$191, DW_AT_name("Graphics_Display_Functions")
    2078                            .dwattr $C$DW$T$191, DW_AT_type(*$C$DW$T$223)
    2079                            .dwattr $C$DW$T$191, DW_AT_language(DW_LANG_C)
    2080                            .dwattr $C$DW$T$191, DW_AT_decl_file("C:/ti/simplelink_cc13x0_sdk_1_50_00_08/source/ti/grlib/g
    2081                            .dwattr $C$DW$T$191, DW_AT_decl_line(0xa9)
    2082                            .dwattr $C$DW$T$191, DW_AT_decl_column(0x01)
    2083                    
    2084                    $C$DW$T$192     .dwtag  DW_TAG_const_type
    2085                            .dwattr $C$DW$T$192, DW_AT_type(*$C$DW$T$191)
    2086                    
TI ARM Assembler PC v16.9.4 Tue Apr 03 11:15:21 2018

Tools Copyright (c) 1996-2017 Texas Instruments Incorporated
C:\Users\Kevin\AppData\Local\Temp\{BD2815D5-01F3-43A2-98CD-B080CA14D9D7} PAGE   39

    2087                    $C$DW$T$193     .dwtag  DW_TAG_pointer_type
    2088                            .dwattr $C$DW$T$193, DW_AT_type(*$C$DW$T$192)
    2089                            .dwattr $C$DW$T$193, DW_AT_address_class(0x20)
    2090                    
    2091                    
    2092                    $C$DW$T$225     .dwtag  DW_TAG_structure_type
    2093                            .dwattr $C$DW$T$225, DW_AT_name("Graphics_Font")
    2094                            .dwattr $C$DW$T$225, DW_AT_byte_size(0xc8)
    2095                    $C$DW$175       .dwtag  DW_TAG_member
    2096                            .dwattr $C$DW$175, DW_AT_type(*$C$DW$T$88)
    2097                            .dwattr $C$DW$175, DW_AT_name("format")
    2098                            .dwattr $C$DW$175, DW_AT_TI_symbol_name("format")
    2099                            .dwattr $C$DW$175, DW_AT_data_member_location[DW_OP_plus_uconst 0x0]
    2100                            .dwattr $C$DW$175, DW_AT_accessibility(DW_ACCESS_public)
    2101                            .dwattr $C$DW$175, DW_AT_decl_file("C:/ti/simplelink_cc13x0_sdk_1_50_00_08/source/ti/grlib/grl
    2102                            .dwattr $C$DW$175, DW_AT_decl_line(0xc0)
    2103                            .dwattr $C$DW$175, DW_AT_decl_column(0x0d)
    2104                    
    2105                    $C$DW$176       .dwtag  DW_TAG_member
    2106                            .dwattr $C$DW$176, DW_AT_type(*$C$DW$T$88)
    2107                            .dwattr $C$DW$176, DW_AT_name("maxWidth")
    2108                            .dwattr $C$DW$176, DW_AT_TI_symbol_name("maxWidth")
    2109                            .dwattr $C$DW$176, DW_AT_data_member_location[DW_OP_plus_uconst 0x1]
    2110                            .dwattr $C$DW$176, DW_AT_accessibility(DW_ACCESS_public)
    2111                            .dwattr $C$DW$176, DW_AT_decl_file("C:/ti/simplelink_cc13x0_sdk_1_50_00_08/source/ti/grlib/grl
    2112                            .dwattr $C$DW$176, DW_AT_decl_line(0xc1)
    2113                            .dwattr $C$DW$176, DW_AT_decl_column(0x0d)
    2114                    
    2115                    $C$DW$177       .dwtag  DW_TAG_member
    2116                            .dwattr $C$DW$177, DW_AT_type(*$C$DW$T$88)
    2117                            .dwattr $C$DW$177, DW_AT_name("height")
    2118                            .dwattr $C$DW$177, DW_AT_TI_symbol_name("height")
    2119                            .dwattr $C$DW$177, DW_AT_data_member_location[DW_OP_plus_uconst 0x2]
    2120                            .dwattr $C$DW$177, DW_AT_accessibility(DW_ACCESS_public)
    2121                            .dwattr $C$DW$177, DW_AT_decl_file("C:/ti/simplelink_cc13x0_sdk_1_50_00_08/source/ti/grlib/grl
    2122                            .dwattr $C$DW$177, DW_AT_decl_line(0xc2)
    2123                            .dwattr $C$DW$177, DW_AT_decl_column(0x0d)
    2124                    
    2125                    $C$DW$178       .dwtag  DW_TAG_member
    2126                            .dwattr $C$DW$178, DW_AT_type(*$C$DW$T$88)
    2127                            .dwattr $C$DW$178, DW_AT_name("baseline")
    2128                            .dwattr $C$DW$178, DW_AT_TI_symbol_name("baseline")
    2129                            .dwattr $C$DW$178, DW_AT_data_member_location[DW_OP_plus_uconst 0x3]
    2130                            .dwattr $C$DW$178, DW_AT_accessibility(DW_ACCESS_public)
    2131                            .dwattr $C$DW$178, DW_AT_decl_file("C:/ti/simplelink_cc13x0_sdk_1_50_00_08/source/ti/grlib/grl
    2132                            .dwattr $C$DW$178, DW_AT_decl_line(0xc3)
    2133                            .dwattr $C$DW$178, DW_AT_decl_column(0x0d)
    2134                    
    2135                    $C$DW$179       .dwtag  DW_TAG_member
    2136                            .dwattr $C$DW$179, DW_AT_type(*$C$DW$T$224)
    2137                            .dwattr $C$DW$179, DW_AT_name("offset")
    2138                            .dwattr $C$DW$179, DW_AT_TI_symbol_name("offset")
    2139                            .dwattr $C$DW$179, DW_AT_data_member_location[DW_OP_plus_uconst 0x4]
    2140                            .dwattr $C$DW$179, DW_AT_accessibility(DW_ACCESS_public)
    2141                            .dwattr $C$DW$179, DW_AT_decl_file("C:/ti/simplelink_cc13x0_sdk_1_50_00_08/source/ti/grlib/grl
TI ARM Assembler PC v16.9.4 Tue Apr 03 11:15:21 2018

Tools Copyright (c) 1996-2017 Texas Instruments Incorporated
C:\Users\Kevin\AppData\Local\Temp\{BD2815D5-01F3-43A2-98CD-B080CA14D9D7} PAGE   40

    2142                            .dwattr $C$DW$179, DW_AT_decl_line(0xc4)
    2143                            .dwattr $C$DW$179, DW_AT_decl_column(0x0e)
    2144                    
    2145                    $C$DW$180       .dwtag  DW_TAG_member
    2146                            .dwattr $C$DW$180, DW_AT_type(*$C$DW$T$200)
    2147                            .dwattr $C$DW$180, DW_AT_name("data")
    2148                            .dwattr $C$DW$180, DW_AT_TI_symbol_name("data")
    2149                            .dwattr $C$DW$180, DW_AT_data_member_location[DW_OP_plus_uconst 0xc4]
    2150                            .dwattr $C$DW$180, DW_AT_accessibility(DW_ACCESS_public)
    2151                            .dwattr $C$DW$180, DW_AT_decl_file("C:/ti/simplelink_cc13x0_sdk_1_50_00_08/source/ti/grlib/grl
    2152                            .dwattr $C$DW$180, DW_AT_decl_line(0xc5)
    2153                            .dwattr $C$DW$180, DW_AT_decl_column(0x14)
    2154                    
    2155                            .dwattr $C$DW$T$225, DW_AT_decl_file("C:/ti/simplelink_cc13x0_sdk_1_50_00_08/source/ti/grlib/g
    2156                            .dwattr $C$DW$T$225, DW_AT_decl_line(0xbe)
    2157                            .dwattr $C$DW$T$225, DW_AT_decl_column(0x10)
    2158                            .dwendtag $C$DW$T$225
    2159                    
    2160                    $C$DW$T$187     .dwtag  DW_TAG_typedef
    2161                            .dwattr $C$DW$T$187, DW_AT_name("Graphics_Font")
    2162                            .dwattr $C$DW$T$187, DW_AT_type(*$C$DW$T$225)
    2163                            .dwattr $C$DW$T$187, DW_AT_language(DW_LANG_C)
    2164                            .dwattr $C$DW$T$187, DW_AT_decl_file("C:/ti/simplelink_cc13x0_sdk_1_50_00_08/source/ti/grlib/g
    2165                            .dwattr $C$DW$T$187, DW_AT_decl_line(0xc6)
    2166                            .dwattr $C$DW$T$187, DW_AT_decl_column(0x03)
    2167                    
    2168                    $C$DW$T$188     .dwtag  DW_TAG_const_type
    2169                            .dwattr $C$DW$T$188, DW_AT_type(*$C$DW$T$187)
    2170                    
    2171                    $C$DW$T$189     .dwtag  DW_TAG_pointer_type
    2172                            .dwattr $C$DW$T$189, DW_AT_type(*$C$DW$T$188)
    2173                            .dwattr $C$DW$T$189, DW_AT_address_class(0x20)
    2174                    
    2175                    
    2176                    $C$DW$T$228     .dwtag  DW_TAG_structure_type
    2177                            .dwattr $C$DW$T$228, DW_AT_name("Graphics_FontEx")
    2178                            .dwattr $C$DW$T$228, DW_AT_byte_size(0x10)
    2179                    $C$DW$181       .dwtag  DW_TAG_member
    2180                            .dwattr $C$DW$181, DW_AT_type(*$C$DW$T$88)
    2181                            .dwattr $C$DW$181, DW_AT_name("format")
    2182                            .dwattr $C$DW$181, DW_AT_TI_symbol_name("format")
    2183                            .dwattr $C$DW$181, DW_AT_data_member_location[DW_OP_plus_uconst 0x0]
    2184                            .dwattr $C$DW$181, DW_AT_accessibility(DW_ACCESS_public)
    2185                            .dwattr $C$DW$181, DW_AT_decl_file("C:/ti/simplelink_cc13x0_sdk_1_50_00_08/source/ti/grlib/grl
    2186                            .dwattr $C$DW$181, DW_AT_decl_line(0xd6)
    2187                            .dwattr $C$DW$181, DW_AT_decl_column(0x0d)
    2188                    
    2189                    $C$DW$182       .dwtag  DW_TAG_member
    2190                            .dwattr $C$DW$182, DW_AT_type(*$C$DW$T$88)
    2191                            .dwattr $C$DW$182, DW_AT_name("maxWidth")
    2192                            .dwattr $C$DW$182, DW_AT_TI_symbol_name("maxWidth")
    2193                            .dwattr $C$DW$182, DW_AT_data_member_location[DW_OP_plus_uconst 0x1]
    2194                            .dwattr $C$DW$182, DW_AT_accessibility(DW_ACCESS_public)
    2195                            .dwattr $C$DW$182, DW_AT_decl_file("C:/ti/simplelink_cc13x0_sdk_1_50_00_08/source/ti/grlib/grl
    2196                            .dwattr $C$DW$182, DW_AT_decl_line(0xd7)
TI ARM Assembler PC v16.9.4 Tue Apr 03 11:15:21 2018

Tools Copyright (c) 1996-2017 Texas Instruments Incorporated
C:\Users\Kevin\AppData\Local\Temp\{BD2815D5-01F3-43A2-98CD-B080CA14D9D7} PAGE   41

    2197                            .dwattr $C$DW$182, DW_AT_decl_column(0x0d)
    2198                    
    2199                    $C$DW$183       .dwtag  DW_TAG_member
    2200                            .dwattr $C$DW$183, DW_AT_type(*$C$DW$T$88)
    2201                            .dwattr $C$DW$183, DW_AT_name("height")
    2202                            .dwattr $C$DW$183, DW_AT_TI_symbol_name("height")
    2203                            .dwattr $C$DW$183, DW_AT_data_member_location[DW_OP_plus_uconst 0x2]
    2204                            .dwattr $C$DW$183, DW_AT_accessibility(DW_ACCESS_public)
    2205                            .dwattr $C$DW$183, DW_AT_decl_file("C:/ti/simplelink_cc13x0_sdk_1_50_00_08/source/ti/grlib/grl
    2206                            .dwattr $C$DW$183, DW_AT_decl_line(0xd8)
    2207                            .dwattr $C$DW$183, DW_AT_decl_column(0x0d)
    2208                    
    2209                    $C$DW$184       .dwtag  DW_TAG_member
    2210                            .dwattr $C$DW$184, DW_AT_type(*$C$DW$T$88)
    2211                            .dwattr $C$DW$184, DW_AT_name("baseline")
    2212                            .dwattr $C$DW$184, DW_AT_TI_symbol_name("baseline")
    2213                            .dwattr $C$DW$184, DW_AT_data_member_location[DW_OP_plus_uconst 0x3]
    2214                            .dwattr $C$DW$184, DW_AT_accessibility(DW_ACCESS_public)
    2215                            .dwattr $C$DW$184, DW_AT_decl_file("C:/ti/simplelink_cc13x0_sdk_1_50_00_08/source/ti/grlib/grl
    2216                            .dwattr $C$DW$184, DW_AT_decl_line(0xd9)
    2217                            .dwattr $C$DW$184, DW_AT_decl_column(0x0d)
    2218                    
    2219                    $C$DW$185       .dwtag  DW_TAG_member
    2220                            .dwattr $C$DW$185, DW_AT_type(*$C$DW$T$88)
    2221                            .dwattr $C$DW$185, DW_AT_name("first")
    2222                            .dwattr $C$DW$185, DW_AT_TI_symbol_name("first")
    2223                            .dwattr $C$DW$185, DW_AT_data_member_location[DW_OP_plus_uconst 0x4]
    2224                            .dwattr $C$DW$185, DW_AT_accessibility(DW_ACCESS_public)
    2225                            .dwattr $C$DW$185, DW_AT_decl_file("C:/ti/simplelink_cc13x0_sdk_1_50_00_08/source/ti/grlib/grl
    2226                            .dwattr $C$DW$185, DW_AT_decl_line(0xda)
    2227                            .dwattr $C$DW$185, DW_AT_decl_column(0x0d)
    2228                    
    2229                    $C$DW$186       .dwtag  DW_TAG_member
    2230                            .dwattr $C$DW$186, DW_AT_type(*$C$DW$T$88)
    2231                            .dwattr $C$DW$186, DW_AT_name("last")
    2232                            .dwattr $C$DW$186, DW_AT_TI_symbol_name("last")
    2233                            .dwattr $C$DW$186, DW_AT_data_member_location[DW_OP_plus_uconst 0x5]
    2234                            .dwattr $C$DW$186, DW_AT_accessibility(DW_ACCESS_public)
    2235                            .dwattr $C$DW$186, DW_AT_decl_file("C:/ti/simplelink_cc13x0_sdk_1_50_00_08/source/ti/grlib/grl
    2236                            .dwattr $C$DW$186, DW_AT_decl_line(0xdb)
    2237                            .dwattr $C$DW$186, DW_AT_decl_column(0x0d)
    2238                    
    2239                    $C$DW$187       .dwtag  DW_TAG_member
    2240                            .dwattr $C$DW$187, DW_AT_type(*$C$DW$T$227)
    2241                            .dwattr $C$DW$187, DW_AT_name("offset")
    2242                            .dwattr $C$DW$187, DW_AT_TI_symbol_name("offset")
    2243                            .dwattr $C$DW$187, DW_AT_data_member_location[DW_OP_plus_uconst 0x8]
    2244                            .dwattr $C$DW$187, DW_AT_accessibility(DW_ACCESS_public)
    2245                            .dwattr $C$DW$187, DW_AT_decl_file("C:/ti/simplelink_cc13x0_sdk_1_50_00_08/source/ti/grlib/grl
    2246                            .dwattr $C$DW$187, DW_AT_decl_line(0xdc)
    2247                            .dwattr $C$DW$187, DW_AT_decl_column(0x15)
    2248                    
    2249                    $C$DW$188       .dwtag  DW_TAG_member
    2250                            .dwattr $C$DW$188, DW_AT_type(*$C$DW$T$200)
    2251                            .dwattr $C$DW$188, DW_AT_name("data")
TI ARM Assembler PC v16.9.4 Tue Apr 03 11:15:21 2018

Tools Copyright (c) 1996-2017 Texas Instruments Incorporated
C:\Users\Kevin\AppData\Local\Temp\{BD2815D5-01F3-43A2-98CD-B080CA14D9D7} PAGE   42

    2252                            .dwattr $C$DW$188, DW_AT_TI_symbol_name("data")
    2253                            .dwattr $C$DW$188, DW_AT_data_member_location[DW_OP_plus_uconst 0xc]
    2254                            .dwattr $C$DW$188, DW_AT_accessibility(DW_ACCESS_public)
    2255                            .dwattr $C$DW$188, DW_AT_decl_file("C:/ti/simplelink_cc13x0_sdk_1_50_00_08/source/ti/grlib/grl
    2256                            .dwattr $C$DW$188, DW_AT_decl_line(0xdd)
    2257                            .dwattr $C$DW$188, DW_AT_decl_column(0x14)
    2258                    
    2259                            .dwattr $C$DW$T$228, DW_AT_decl_file("C:/ti/simplelink_cc13x0_sdk_1_50_00_08/source/ti/grlib/g
    2260                            .dwattr $C$DW$T$228, DW_AT_decl_line(0xd4)
    2261                            .dwattr $C$DW$T$228, DW_AT_decl_column(0x10)
    2262                            .dwendtag $C$DW$T$228
    2263                    
    2264                    $C$DW$T$499     .dwtag  DW_TAG_typedef
    2265                            .dwattr $C$DW$T$499, DW_AT_name("Graphics_FontEx")
    2266                            .dwattr $C$DW$T$499, DW_AT_type(*$C$DW$T$228)
    2267                            .dwattr $C$DW$T$499, DW_AT_language(DW_LANG_C)
    2268                            .dwattr $C$DW$T$499, DW_AT_decl_file("C:/ti/simplelink_cc13x0_sdk_1_50_00_08/source/ti/grlib/g
    2269                            .dwattr $C$DW$T$499, DW_AT_decl_line(0xde)
    2270                            .dwattr $C$DW$T$499, DW_AT_decl_column(0x03)
    2271                    
    2272                    
    2273                    $C$DW$T$229     .dwtag  DW_TAG_structure_type
    2274                            .dwattr $C$DW$T$229, DW_AT_name("Graphics_Image")
    2275                            .dwattr $C$DW$T$229, DW_AT_byte_size(0x10)
    2276                    $C$DW$189       .dwtag  DW_TAG_member
    2277                            .dwattr $C$DW$189, DW_AT_type(*$C$DW$T$88)
    2278                            .dwattr $C$DW$189, DW_AT_name("bPP")
    2279                            .dwattr $C$DW$189, DW_AT_TI_symbol_name("bPP")
    2280                            .dwattr $C$DW$189, DW_AT_data_member_location[DW_OP_plus_uconst 0x0]
    2281                            .dwattr $C$DW$189, DW_AT_accessibility(DW_ACCESS_public)
    2282                            .dwattr $C$DW$189, DW_AT_decl_file("C:/ti/simplelink_cc13x0_sdk_1_50_00_08/source/ti/grlib/grl
    2283                            .dwattr $C$DW$189, DW_AT_decl_line(0x4f)
    2284                            .dwattr $C$DW$189, DW_AT_decl_column(0x0d)
    2285                    
    2286                    $C$DW$190       .dwtag  DW_TAG_member
    2287                            .dwattr $C$DW$190, DW_AT_type(*$C$DW$T$105)
    2288                            .dwattr $C$DW$190, DW_AT_name("xSize")
    2289                            .dwattr $C$DW$190, DW_AT_TI_symbol_name("xSize")
    2290                            .dwattr $C$DW$190, DW_AT_data_member_location[DW_OP_plus_uconst 0x2]
    2291                            .dwattr $C$DW$190, DW_AT_accessibility(DW_ACCESS_public)
    2292                            .dwattr $C$DW$190, DW_AT_decl_file("C:/ti/simplelink_cc13x0_sdk_1_50_00_08/source/ti/grlib/grl
    2293                            .dwattr $C$DW$190, DW_AT_decl_line(0x50)
    2294                            .dwattr $C$DW$190, DW_AT_decl_column(0x0e)
    2295                    
    2296                    $C$DW$191       .dwtag  DW_TAG_member
    2297                            .dwattr $C$DW$191, DW_AT_type(*$C$DW$T$105)
    2298                            .dwattr $C$DW$191, DW_AT_name("ySize")
    2299                            .dwattr $C$DW$191, DW_AT_TI_symbol_name("ySize")
    2300                            .dwattr $C$DW$191, DW_AT_data_member_location[DW_OP_plus_uconst 0x4]
    2301                            .dwattr $C$DW$191, DW_AT_accessibility(DW_ACCESS_public)
    2302                            .dwattr $C$DW$191, DW_AT_decl_file("C:/ti/simplelink_cc13x0_sdk_1_50_00_08/source/ti/grlib/grl
    2303                            .dwattr $C$DW$191, DW_AT_decl_line(0x51)
    2304                            .dwattr $C$DW$191, DW_AT_decl_column(0x0e)
    2305                    
    2306                    $C$DW$192       .dwtag  DW_TAG_member
TI ARM Assembler PC v16.9.4 Tue Apr 03 11:15:21 2018

Tools Copyright (c) 1996-2017 Texas Instruments Incorporated
C:\Users\Kevin\AppData\Local\Temp\{BD2815D5-01F3-43A2-98CD-B080CA14D9D7} PAGE   43

    2307                            .dwattr $C$DW$192, DW_AT_type(*$C$DW$T$105)
    2308                            .dwattr $C$DW$192, DW_AT_name("numColors")
    2309                            .dwattr $C$DW$192, DW_AT_TI_symbol_name("numColors")
    2310                            .dwattr $C$DW$192, DW_AT_data_member_location[DW_OP_plus_uconst 0x6]
    2311                            .dwattr $C$DW$192, DW_AT_accessibility(DW_ACCESS_public)
    2312                            .dwattr $C$DW$192, DW_AT_decl_file("C:/ti/simplelink_cc13x0_sdk_1_50_00_08/source/ti/grlib/grl
    2313                            .dwattr $C$DW$192, DW_AT_decl_line(0x52)
    2314                            .dwattr $C$DW$192, DW_AT_decl_column(0x0e)
    2315                    
    2316                    $C$DW$193       .dwtag  DW_TAG_member
    2317                            .dwattr $C$DW$193, DW_AT_type(*$C$DW$T$202)
    2318                            .dwattr $C$DW$193, DW_AT_name("pPalette")
    2319                            .dwattr $C$DW$193, DW_AT_TI_symbol_name("pPalette")
    2320                            .dwattr $C$DW$193, DW_AT_data_member_location[DW_OP_plus_uconst 0x8]
    2321                            .dwattr $C$DW$193, DW_AT_accessibility(DW_ACCESS_public)
    2322                            .dwattr $C$DW$193, DW_AT_decl_file("C:/ti/simplelink_cc13x0_sdk_1_50_00_08/source/ti/grlib/grl
    2323                            .dwattr $C$DW$193, DW_AT_decl_line(0x53)
    2324                            .dwattr $C$DW$193, DW_AT_decl_column(0x17)
    2325                    
    2326                    $C$DW$194       .dwtag  DW_TAG_member
    2327                            .dwattr $C$DW$194, DW_AT_type(*$C$DW$T$200)
    2328                            .dwattr $C$DW$194, DW_AT_name("pPixel")
    2329                            .dwattr $C$DW$194, DW_AT_TI_symbol_name("pPixel")
    2330                            .dwattr $C$DW$194, DW_AT_data_member_location[DW_OP_plus_uconst 0xc]
    2331                            .dwattr $C$DW$194, DW_AT_accessibility(DW_ACCESS_public)
    2332                            .dwattr $C$DW$194, DW_AT_decl_file("C:/ti/simplelink_cc13x0_sdk_1_50_00_08/source/ti/grlib/grl
    2333                            .dwattr $C$DW$194, DW_AT_decl_line(0x54)
    2334                            .dwattr $C$DW$194, DW_AT_decl_column(0x15)
    2335                    
    2336                            .dwattr $C$DW$T$229, DW_AT_decl_file("C:/ti/simplelink_cc13x0_sdk_1_50_00_08/source/ti/grlib/g
    2337                            .dwattr $C$DW$T$229, DW_AT_decl_line(0x4d)
    2338                            .dwattr $C$DW$T$229, DW_AT_decl_column(0x10)
    2339                            .dwendtag $C$DW$T$229
    2340                    
    2341                    $C$DW$T$500     .dwtag  DW_TAG_typedef
    2342                            .dwattr $C$DW$T$500, DW_AT_name("Graphics_Image")
    2343                            .dwattr $C$DW$T$500, DW_AT_type(*$C$DW$T$229)
    2344                            .dwattr $C$DW$T$500, DW_AT_language(DW_LANG_C)
    2345                            .dwattr $C$DW$T$500, DW_AT_decl_file("C:/ti/simplelink_cc13x0_sdk_1_50_00_08/source/ti/grlib/g
    2346                            .dwattr $C$DW$T$500, DW_AT_decl_line(0x55)
    2347                            .dwattr $C$DW$T$500, DW_AT_decl_column(0x03)
    2348                    
    2349                    
    2350                    $C$DW$T$230     .dwtag  DW_TAG_structure_type
    2351                            .dwattr $C$DW$T$230, DW_AT_name("Graphics_Rectangle")
    2352                            .dwattr $C$DW$T$230, DW_AT_byte_size(0x08)
    2353                    $C$DW$195       .dwtag  DW_TAG_member
    2354                            .dwattr $C$DW$195, DW_AT_type(*$C$DW$T$195)
    2355                            .dwattr $C$DW$195, DW_AT_name("xMin")
    2356                            .dwattr $C$DW$195, DW_AT_TI_symbol_name("xMin")
    2357                            .dwattr $C$DW$195, DW_AT_data_member_location[DW_OP_plus_uconst 0x0]
    2358                            .dwattr $C$DW$195, DW_AT_accessibility(DW_ACCESS_public)
    2359                            .dwattr $C$DW$195, DW_AT_decl_file("C:/ti/simplelink_cc13x0_sdk_1_50_00_08/source/ti/grlib/grl
    2360                            .dwattr $C$DW$195, DW_AT_decl_line(0x60)
    2361                            .dwattr $C$DW$195, DW_AT_decl_column(0x0d)
TI ARM Assembler PC v16.9.4 Tue Apr 03 11:15:21 2018

Tools Copyright (c) 1996-2017 Texas Instruments Incorporated
C:\Users\Kevin\AppData\Local\Temp\{BD2815D5-01F3-43A2-98CD-B080CA14D9D7} PAGE   44

    2362                    
    2363                    $C$DW$196       .dwtag  DW_TAG_member
    2364                            .dwattr $C$DW$196, DW_AT_type(*$C$DW$T$195)
    2365                            .dwattr $C$DW$196, DW_AT_name("yMin")
    2366                            .dwattr $C$DW$196, DW_AT_TI_symbol_name("yMin")
    2367                            .dwattr $C$DW$196, DW_AT_data_member_location[DW_OP_plus_uconst 0x2]
    2368                            .dwattr $C$DW$196, DW_AT_accessibility(DW_ACCESS_public)
    2369                            .dwattr $C$DW$196, DW_AT_decl_file("C:/ti/simplelink_cc13x0_sdk_1_50_00_08/source/ti/grlib/grl
    2370                            .dwattr $C$DW$196, DW_AT_decl_line(0x61)
    2371                            .dwattr $C$DW$196, DW_AT_decl_column(0x0d)
    2372                    
    2373                    $C$DW$197       .dwtag  DW_TAG_member
    2374                            .dwattr $C$DW$197, DW_AT_type(*$C$DW$T$195)
    2375                            .dwattr $C$DW$197, DW_AT_name("xMax")
    2376                            .dwattr $C$DW$197, DW_AT_TI_symbol_name("xMax")
    2377                            .dwattr $C$DW$197, DW_AT_data_member_location[DW_OP_plus_uconst 0x4]
    2378                            .dwattr $C$DW$197, DW_AT_accessibility(DW_ACCESS_public)
    2379                            .dwattr $C$DW$197, DW_AT_decl_file("C:/ti/simplelink_cc13x0_sdk_1_50_00_08/source/ti/grlib/grl
    2380                            .dwattr $C$DW$197, DW_AT_decl_line(0x62)
    2381                            .dwattr $C$DW$197, DW_AT_decl_column(0x0d)
    2382                    
    2383                    $C$DW$198       .dwtag  DW_TAG_member
    2384                            .dwattr $C$DW$198, DW_AT_type(*$C$DW$T$195)
    2385                            .dwattr $C$DW$198, DW_AT_name("yMax")
    2386                            .dwattr $C$DW$198, DW_AT_TI_symbol_name("yMax")
    2387                            .dwattr $C$DW$198, DW_AT_data_member_location[DW_OP_plus_uconst 0x6]
    2388                            .dwattr $C$DW$198, DW_AT_accessibility(DW_ACCESS_public)
    2389                            .dwattr $C$DW$198, DW_AT_decl_file("C:/ti/simplelink_cc13x0_sdk_1_50_00_08/source/ti/grlib/grl
    2390                            .dwattr $C$DW$198, DW_AT_decl_line(0x63)
    2391                            .dwattr $C$DW$198, DW_AT_decl_column(0x0d)
    2392                    
    2393                            .dwattr $C$DW$T$230, DW_AT_decl_file("C:/ti/simplelink_cc13x0_sdk_1_50_00_08/source/ti/grlib/g
    2394                            .dwattr $C$DW$T$230, DW_AT_decl_line(0x5e)
    2395                            .dwattr $C$DW$T$230, DW_AT_decl_column(0x10)
    2396                            .dwendtag $C$DW$T$230
    2397                    
    2398                    $C$DW$T$186     .dwtag  DW_TAG_typedef
    2399                            .dwattr $C$DW$T$186, DW_AT_name("Graphics_Rectangle")
    2400                            .dwattr $C$DW$T$186, DW_AT_type(*$C$DW$T$230)
    2401                            .dwattr $C$DW$T$186, DW_AT_language(DW_LANG_C)
    2402                            .dwattr $C$DW$T$186, DW_AT_decl_file("C:/ti/simplelink_cc13x0_sdk_1_50_00_08/source/ti/grlib/g
    2403                            .dwattr $C$DW$T$186, DW_AT_decl_line(0x64)
    2404                            .dwattr $C$DW$T$186, DW_AT_decl_column(0x03)
    2405                    
    2406                    $C$DW$T$209     .dwtag  DW_TAG_const_type
    2407                            .dwattr $C$DW$T$209, DW_AT_type(*$C$DW$T$186)
    2408                    
    2409                    $C$DW$T$210     .dwtag  DW_TAG_pointer_type
    2410                            .dwattr $C$DW$T$210, DW_AT_type(*$C$DW$T$209)
    2411                            .dwattr $C$DW$T$210, DW_AT_address_class(0x20)
    2412                    
    2413                    
    2414                    $C$DW$T$501     .dwtag  DW_TAG_enumeration_type
    2415                            .dwattr $C$DW$T$501, DW_AT_name("LCD_Align")
    2416                            .dwattr $C$DW$T$501, DW_AT_byte_size(0x01)
TI ARM Assembler PC v16.9.4 Tue Apr 03 11:15:21 2018

Tools Copyright (c) 1996-2017 Texas Instruments Incorporated
C:\Users\Kevin\AppData\Local\Temp\{BD2815D5-01F3-43A2-98CD-B080CA14D9D7} PAGE   45

    2417                    $C$DW$199       .dwtag  DW_TAG_enumerator
    2418                            .dwattr $C$DW$199, DW_AT_name("LCD_ALIGN_LEFT")
    2419                            .dwattr $C$DW$199, DW_AT_const_value(0x00)
    2420                            .dwattr $C$DW$199, DW_AT_decl_file("C:/ti/simplelink_cc13x0_sdk_1_50_00_08/source/ti/mw/lcd/LC
    2421                            .dwattr $C$DW$199, DW_AT_decl_line(0x131)
    2422                            .dwattr $C$DW$199, DW_AT_decl_column(0x05)
    2423                    
    2424                    $C$DW$200       .dwtag  DW_TAG_enumerator
    2425                            .dwattr $C$DW$200, DW_AT_name("LCD_ALIGN_CENTER")
    2426                            .dwattr $C$DW$200, DW_AT_const_value(0x01)
    2427                            .dwattr $C$DW$200, DW_AT_decl_file("C:/ti/simplelink_cc13x0_sdk_1_50_00_08/source/ti/mw/lcd/LC
    2428                            .dwattr $C$DW$200, DW_AT_decl_line(0x132)
    2429                            .dwattr $C$DW$200, DW_AT_decl_column(0x05)
    2430                    
    2431                    $C$DW$201       .dwtag  DW_TAG_enumerator
    2432                            .dwattr $C$DW$201, DW_AT_name("LCD_ALIGN_RIGHT")
    2433                            .dwattr $C$DW$201, DW_AT_const_value(0x02)
    2434                            .dwattr $C$DW$201, DW_AT_decl_file("C:/ti/simplelink_cc13x0_sdk_1_50_00_08/source/ti/mw/lcd/LC
    2435                            .dwattr $C$DW$201, DW_AT_decl_line(0x133)
    2436                            .dwattr $C$DW$201, DW_AT_decl_column(0x05)
    2437                    
    2438                            .dwattr $C$DW$T$501, DW_AT_decl_file("C:/ti/simplelink_cc13x0_sdk_1_50_00_08/source/ti/mw/lcd/
    2439                            .dwattr $C$DW$T$501, DW_AT_decl_line(0x12f)
    2440                            .dwattr $C$DW$T$501, DW_AT_decl_column(0x0e)
    2441                            .dwendtag $C$DW$T$501
    2442                    
    2443                    $C$DW$T$502     .dwtag  DW_TAG_typedef
    2444                            .dwattr $C$DW$T$502, DW_AT_name("LCD_Align")
    2445                            .dwattr $C$DW$T$502, DW_AT_type(*$C$DW$T$501)
    2446                            .dwattr $C$DW$T$502, DW_AT_language(DW_LANG_C)
    2447                            .dwattr $C$DW$T$502, DW_AT_decl_file("C:/ti/simplelink_cc13x0_sdk_1_50_00_08/source/ti/mw/lcd/
    2448                            .dwattr $C$DW$T$502, DW_AT_decl_line(0x134)
    2449                            .dwattr $C$DW$T$502, DW_AT_decl_column(0x03)
    2450                    
    2451                    
    2452                    $C$DW$T$231     .dwtag  DW_TAG_structure_type
    2453                            .dwattr $C$DW$T$231, DW_AT_name("LCD_Buffer")
    2454                            .dwattr $C$DW$T$231, DW_AT_byte_size(0x24)
    2455                    $C$DW$202       .dwtag  DW_TAG_member
    2456                            .dwattr $C$DW$202, DW_AT_type(*$C$DW$T$169)
    2457                            .dwattr $C$DW$202, DW_AT_name("pcBuffer")
    2458                            .dwattr $C$DW$202, DW_AT_TI_symbol_name("pcBuffer")
    2459                            .dwattr $C$DW$202, DW_AT_data_member_location[DW_OP_plus_uconst 0x0]
    2460                            .dwattr $C$DW$202, DW_AT_accessibility(DW_ACCESS_public)
    2461                            .dwattr $C$DW$202, DW_AT_decl_file("C:/ti/simplelink_cc13x0_sdk_1_50_00_08/source/ti/mw/lcd/LC
    2462                            .dwattr $C$DW$202, DW_AT_decl_line(0x19a)
    2463                            .dwattr $C$DW$202, DW_AT_decl_column(0x1a)
    2464                    
    2465                    $C$DW$203       .dwtag  DW_TAG_member
    2466                            .dwattr $C$DW$203, DW_AT_type(*$C$DW$T$11)
    2467                            .dwattr $C$DW$203, DW_AT_name("bufSize")
    2468                            .dwattr $C$DW$203, DW_AT_TI_symbol_name("bufSize")
    2469                            .dwattr $C$DW$203, DW_AT_data_member_location[DW_OP_plus_uconst 0x4]
    2470                            .dwattr $C$DW$203, DW_AT_accessibility(DW_ACCESS_public)
    2471                            .dwattr $C$DW$203, DW_AT_decl_file("C:/ti/simplelink_cc13x0_sdk_1_50_00_08/source/ti/mw/lcd/LC
TI ARM Assembler PC v16.9.4 Tue Apr 03 11:15:21 2018

Tools Copyright (c) 1996-2017 Texas Instruments Incorporated
C:\Users\Kevin\AppData\Local\Temp\{BD2815D5-01F3-43A2-98CD-B080CA14D9D7} PAGE   46

    2472                            .dwattr $C$DW$203, DW_AT_decl_line(0x19b)
    2473                            .dwattr $C$DW$203, DW_AT_decl_column(0x19)
    2474                    
    2475                    $C$DW$204       .dwtag  DW_TAG_member
    2476                            .dwattr $C$DW$204, DW_AT_type(*$C$DW$T$146)
    2477                            .dwattr $C$DW$204, DW_AT_name("bufMutex")
    2478                            .dwattr $C$DW$204, DW_AT_TI_symbol_name("bufMutex")
    2479                            .dwattr $C$DW$204, DW_AT_data_member_location[DW_OP_plus_uconst 0x8]
    2480                            .dwattr $C$DW$204, DW_AT_accessibility(DW_ACCESS_public)
    2481                            .dwattr $C$DW$204, DW_AT_decl_file("C:/ti/simplelink_cc13x0_sdk_1_50_00_08/source/ti/mw/lcd/LC
    2482                            .dwattr $C$DW$204, DW_AT_decl_line(0x19c)
    2483                            .dwattr $C$DW$204, DW_AT_decl_column(0x19)
    2484                    
    2485                            .dwattr $C$DW$T$231, DW_AT_decl_file("C:/ti/simplelink_cc13x0_sdk_1_50_00_08/source/ti/mw/lcd/
    2486                            .dwattr $C$DW$T$231, DW_AT_decl_line(0x198)
    2487                            .dwattr $C$DW$T$231, DW_AT_decl_column(0x10)
    2488                            .dwendtag $C$DW$T$231
    2489                    
    2490                    $C$DW$T$244     .dwtag  DW_TAG_typedef
    2491                            .dwattr $C$DW$T$244, DW_AT_name("LCD_Buffer")
    2492                            .dwattr $C$DW$T$244, DW_AT_type(*$C$DW$T$231)
    2493                            .dwattr $C$DW$T$244, DW_AT_language(DW_LANG_C)
    2494                            .dwattr $C$DW$T$244, DW_AT_decl_file("C:/ti/simplelink_cc13x0_sdk_1_50_00_08/source/ti/mw/lcd/
    2495                            .dwattr $C$DW$T$244, DW_AT_decl_line(0x19d)
    2496                            .dwattr $C$DW$T$244, DW_AT_decl_column(0x03)
    2497                    
    2498                    $C$DW$T$245     .dwtag  DW_TAG_pointer_type
    2499                            .dwattr $C$DW$T$245, DW_AT_type(*$C$DW$T$244)
    2500                            .dwattr $C$DW$T$245, DW_AT_address_class(0x20)
    2501                    
    2502                    
    2503                    $C$DW$T$232     .dwtag  DW_TAG_structure_type
    2504                            .dwattr $C$DW$T$232, DW_AT_name("LCD_Command")
    2505                            .dwattr $C$DW$T$232, DW_AT_byte_size(0x11)
    2506                    $C$DW$205       .dwtag  DW_TAG_member
    2507                            .dwattr $C$DW$205, DW_AT_type(*$C$DW$T$6)
    2508                            .dwattr $C$DW$205, DW_AT_name("displayStartLine")
    2509                            .dwattr $C$DW$205, DW_AT_TI_symbol_name("displayStartLine")
    2510                            .dwattr $C$DW$205, DW_AT_data_member_location[DW_OP_plus_uconst 0x0]
    2511                            .dwattr $C$DW$205, DW_AT_accessibility(DW_ACCESS_public)
    2512                            .dwattr $C$DW$205, DW_AT_decl_file("C:/ti/simplelink_cc13x0_sdk_1_50_00_08/source/ti/mw/lcd/LC
    2513                            .dwattr $C$DW$205, DW_AT_decl_line(0x17a)
    2514                            .dwattr $C$DW$205, DW_AT_decl_column(0x0b)
    2515                    
    2516                    $C$DW$206       .dwtag  DW_TAG_member
    2517                            .dwattr $C$DW$206, DW_AT_type(*$C$DW$T$6)
    2518                            .dwattr $C$DW$206, DW_AT_name("adcSet")
    2519                            .dwattr $C$DW$206, DW_AT_TI_symbol_name("adcSet")
    2520                            .dwattr $C$DW$206, DW_AT_data_member_location[DW_OP_plus_uconst 0x1]
    2521                            .dwattr $C$DW$206, DW_AT_accessibility(DW_ACCESS_public)
    2522                            .dwattr $C$DW$206, DW_AT_decl_file("C:/ti/simplelink_cc13x0_sdk_1_50_00_08/source/ti/mw/lcd/LC
    2523                            .dwattr $C$DW$206, DW_AT_decl_line(0x17b)
    2524                            .dwattr $C$DW$206, DW_AT_decl_column(0x0b)
    2525                    
    2526                    $C$DW$207       .dwtag  DW_TAG_member
TI ARM Assembler PC v16.9.4 Tue Apr 03 11:15:21 2018

Tools Copyright (c) 1996-2017 Texas Instruments Incorporated
C:\Users\Kevin\AppData\Local\Temp\{BD2815D5-01F3-43A2-98CD-B080CA14D9D7} PAGE   47

    2527                            .dwattr $C$DW$207, DW_AT_type(*$C$DW$T$6)
    2528                            .dwattr $C$DW$207, DW_AT_name("outputMode")
    2529                            .dwattr $C$DW$207, DW_AT_TI_symbol_name("outputMode")
    2530                            .dwattr $C$DW$207, DW_AT_data_member_location[DW_OP_plus_uconst 0x2]
    2531                            .dwattr $C$DW$207, DW_AT_accessibility(DW_ACCESS_public)
    2532                            .dwattr $C$DW$207, DW_AT_decl_file("C:/ti/simplelink_cc13x0_sdk_1_50_00_08/source/ti/mw/lcd/LC
    2533                            .dwattr $C$DW$207, DW_AT_decl_line(0x17c)
    2534                            .dwattr $C$DW$207, DW_AT_decl_column(0x0b)
    2535                    
    2536                    $C$DW$208       .dwtag  DW_TAG_member
    2537                            .dwattr $C$DW$208, DW_AT_type(*$C$DW$T$6)
    2538                            .dwattr $C$DW$208, DW_AT_name("displayType")
    2539                            .dwattr $C$DW$208, DW_AT_TI_symbol_name("displayType")
    2540                            .dwattr $C$DW$208, DW_AT_data_member_location[DW_OP_plus_uconst 0x3]
    2541                            .dwattr $C$DW$208, DW_AT_accessibility(DW_ACCESS_public)
    2542                            .dwattr $C$DW$208, DW_AT_decl_file("C:/ti/simplelink_cc13x0_sdk_1_50_00_08/source/ti/mw/lcd/LC
    2543                            .dwattr $C$DW$208, DW_AT_decl_line(0x17d)
    2544                            .dwattr $C$DW$208, DW_AT_decl_column(0x0b)
    2545                    
    2546                    $C$DW$209       .dwtag  DW_TAG_member
    2547                            .dwattr $C$DW$209, DW_AT_type(*$C$DW$T$6)
    2548                            .dwattr $C$DW$209, DW_AT_name("lcdBias")
    2549                            .dwattr $C$DW$209, DW_AT_TI_symbol_name("lcdBias")
    2550                            .dwattr $C$DW$209, DW_AT_data_member_location[DW_OP_plus_uconst 0x4]
    2551                            .dwattr $C$DW$209, DW_AT_accessibility(DW_ACCESS_public)
    2552                            .dwattr $C$DW$209, DW_AT_decl_file("C:/ti/simplelink_cc13x0_sdk_1_50_00_08/source/ti/mw/lcd/LC
    2553                            .dwattr $C$DW$209, DW_AT_decl_line(0x17e)
    2554                            .dwattr $C$DW$209, DW_AT_decl_column(0x0b)
    2555                    
    2556                    $C$DW$210       .dwtag  DW_TAG_member
    2557                            .dwattr $C$DW$210, DW_AT_type(*$C$DW$T$6)
    2558                            .dwattr $C$DW$210, DW_AT_name("powerControl")
    2559                            .dwattr $C$DW$210, DW_AT_TI_symbol_name("powerControl")
    2560                            .dwattr $C$DW$210, DW_AT_data_member_location[DW_OP_plus_uconst 0x5]
    2561                            .dwattr $C$DW$210, DW_AT_accessibility(DW_ACCESS_public)
    2562                            .dwattr $C$DW$210, DW_AT_decl_file("C:/ti/simplelink_cc13x0_sdk_1_50_00_08/source/ti/mw/lcd/LC
    2563                            .dwattr $C$DW$210, DW_AT_decl_line(0x17f)
    2564                            .dwattr $C$DW$210, DW_AT_decl_column(0x0b)
    2565                    
    2566                    $C$DW$211       .dwtag  DW_TAG_member
    2567                            .dwattr $C$DW$211, DW_AT_type(*$C$DW$T$6)
    2568                            .dwattr $C$DW$211, DW_AT_name("boosterRadio0")
    2569                            .dwattr $C$DW$211, DW_AT_TI_symbol_name("boosterRadio0")
    2570                            .dwattr $C$DW$211, DW_AT_data_member_location[DW_OP_plus_uconst 0x6]
    2571                            .dwattr $C$DW$211, DW_AT_accessibility(DW_ACCESS_public)
    2572                            .dwattr $C$DW$211, DW_AT_decl_file("C:/ti/simplelink_cc13x0_sdk_1_50_00_08/source/ti/mw/lcd/LC
    2573                            .dwattr $C$DW$211, DW_AT_decl_line(0x180)
    2574                            .dwattr $C$DW$211, DW_AT_decl_column(0x0b)
    2575                    
    2576                    $C$DW$212       .dwtag  DW_TAG_member
    2577                            .dwattr $C$DW$212, DW_AT_type(*$C$DW$T$6)
    2578                            .dwattr $C$DW$212, DW_AT_name("boosterRadio1")
    2579                            .dwattr $C$DW$212, DW_AT_TI_symbol_name("boosterRadio1")
    2580                            .dwattr $C$DW$212, DW_AT_data_member_location[DW_OP_plus_uconst 0x7]
    2581                            .dwattr $C$DW$212, DW_AT_accessibility(DW_ACCESS_public)
TI ARM Assembler PC v16.9.4 Tue Apr 03 11:15:21 2018

Tools Copyright (c) 1996-2017 Texas Instruments Incorporated
C:\Users\Kevin\AppData\Local\Temp\{BD2815D5-01F3-43A2-98CD-B080CA14D9D7} PAGE   48

    2582                            .dwattr $C$DW$212, DW_AT_decl_file("C:/ti/simplelink_cc13x0_sdk_1_50_00_08/source/ti/mw/lcd/LC
    2583                            .dwattr $C$DW$212, DW_AT_decl_line(0x181)
    2584                            .dwattr $C$DW$212, DW_AT_decl_column(0x0b)
    2585                    
    2586                    $C$DW$213       .dwtag  DW_TAG_member
    2587                            .dwattr $C$DW$213, DW_AT_type(*$C$DW$T$6)
    2588                            .dwattr $C$DW$213, DW_AT_name("contrastSet0")
    2589                            .dwattr $C$DW$213, DW_AT_TI_symbol_name("contrastSet0")
    2590                            .dwattr $C$DW$213, DW_AT_data_member_location[DW_OP_plus_uconst 0x8]
    2591                            .dwattr $C$DW$213, DW_AT_accessibility(DW_ACCESS_public)
    2592                            .dwattr $C$DW$213, DW_AT_decl_file("C:/ti/simplelink_cc13x0_sdk_1_50_00_08/source/ti/mw/lcd/LC
    2593                            .dwattr $C$DW$213, DW_AT_decl_line(0x182)
    2594                            .dwattr $C$DW$213, DW_AT_decl_column(0x0b)
    2595                    
    2596                    $C$DW$214       .dwtag  DW_TAG_member
    2597                            .dwattr $C$DW$214, DW_AT_type(*$C$DW$T$6)
    2598                            .dwattr $C$DW$214, DW_AT_name("contrastSet1")
    2599                            .dwattr $C$DW$214, DW_AT_TI_symbol_name("contrastSet1")
    2600                            .dwattr $C$DW$214, DW_AT_data_member_location[DW_OP_plus_uconst 0x9]
    2601                            .dwattr $C$DW$214, DW_AT_accessibility(DW_ACCESS_public)
    2602                            .dwattr $C$DW$214, DW_AT_decl_file("C:/ti/simplelink_cc13x0_sdk_1_50_00_08/source/ti/mw/lcd/LC
    2603                            .dwattr $C$DW$214, DW_AT_decl_line(0x183)
    2604                            .dwattr $C$DW$214, DW_AT_decl_column(0x0b)
    2605                    
    2606                    $C$DW$215       .dwtag  DW_TAG_member
    2607                            .dwattr $C$DW$215, DW_AT_type(*$C$DW$T$6)
    2608                            .dwattr $C$DW$215, DW_AT_name("contrastSet2")
    2609                            .dwattr $C$DW$215, DW_AT_TI_symbol_name("contrastSet2")
    2610                            .dwattr $C$DW$215, DW_AT_data_member_location[DW_OP_plus_uconst 0xa]
    2611                            .dwattr $C$DW$215, DW_AT_accessibility(DW_ACCESS_public)
    2612                            .dwattr $C$DW$215, DW_AT_decl_file("C:/ti/simplelink_cc13x0_sdk_1_50_00_08/source/ti/mw/lcd/LC
    2613                            .dwattr $C$DW$215, DW_AT_decl_line(0x184)
    2614                            .dwattr $C$DW$215, DW_AT_decl_column(0x0b)
    2615                    
    2616                    $C$DW$216       .dwtag  DW_TAG_member
    2617                            .dwattr $C$DW$216, DW_AT_type(*$C$DW$T$6)
    2618                            .dwattr $C$DW$216, DW_AT_name("staticIndicator0")
    2619                            .dwattr $C$DW$216, DW_AT_TI_symbol_name("staticIndicator0")
    2620                            .dwattr $C$DW$216, DW_AT_data_member_location[DW_OP_plus_uconst 0xb]
    2621                            .dwattr $C$DW$216, DW_AT_accessibility(DW_ACCESS_public)
    2622                            .dwattr $C$DW$216, DW_AT_decl_file("C:/ti/simplelink_cc13x0_sdk_1_50_00_08/source/ti/mw/lcd/LC
    2623                            .dwattr $C$DW$216, DW_AT_decl_line(0x185)
    2624                            .dwattr $C$DW$216, DW_AT_decl_column(0x0b)
    2625                    
    2626                    $C$DW$217       .dwtag  DW_TAG_member
    2627                            .dwattr $C$DW$217, DW_AT_type(*$C$DW$T$6)
    2628                            .dwattr $C$DW$217, DW_AT_name("staticIndicator1")
    2629                            .dwattr $C$DW$217, DW_AT_TI_symbol_name("staticIndicator1")
    2630                            .dwattr $C$DW$217, DW_AT_data_member_location[DW_OP_plus_uconst 0xc]
    2631                            .dwattr $C$DW$217, DW_AT_accessibility(DW_ACCESS_public)
    2632                            .dwattr $C$DW$217, DW_AT_decl_file("C:/ti/simplelink_cc13x0_sdk_1_50_00_08/source/ti/mw/lcd/LC
    2633                            .dwattr $C$DW$217, DW_AT_decl_line(0x186)
    2634                            .dwattr $C$DW$217, DW_AT_decl_column(0x0b)
    2635                    
    2636                    $C$DW$218       .dwtag  DW_TAG_member
TI ARM Assembler PC v16.9.4 Tue Apr 03 11:15:21 2018

Tools Copyright (c) 1996-2017 Texas Instruments Incorporated
C:\Users\Kevin\AppData\Local\Temp\{BD2815D5-01F3-43A2-98CD-B080CA14D9D7} PAGE   49

    2637                            .dwattr $C$DW$218, DW_AT_type(*$C$DW$T$6)
    2638                            .dwattr $C$DW$218, DW_AT_name("displayEn")
    2639                            .dwattr $C$DW$218, DW_AT_TI_symbol_name("displayEn")
    2640                            .dwattr $C$DW$218, DW_AT_data_member_location[DW_OP_plus_uconst 0xd]
    2641                            .dwattr $C$DW$218, DW_AT_accessibility(DW_ACCESS_public)
    2642                            .dwattr $C$DW$218, DW_AT_decl_file("C:/ti/simplelink_cc13x0_sdk_1_50_00_08/source/ti/mw/lcd/LC
    2643                            .dwattr $C$DW$218, DW_AT_decl_line(0x187)
    2644                            .dwattr $C$DW$218, DW_AT_decl_column(0x0b)
    2645                    
    2646                    $C$DW$219       .dwtag  DW_TAG_member
    2647                            .dwattr $C$DW$219, DW_AT_type(*$C$DW$T$6)
    2648                            .dwattr $C$DW$219, DW_AT_name("setPage")
    2649                            .dwattr $C$DW$219, DW_AT_TI_symbol_name("setPage")
    2650                            .dwattr $C$DW$219, DW_AT_data_member_location[DW_OP_plus_uconst 0xe]
    2651                            .dwattr $C$DW$219, DW_AT_accessibility(DW_ACCESS_public)
    2652                            .dwattr $C$DW$219, DW_AT_decl_file("C:/ti/simplelink_cc13x0_sdk_1_50_00_08/source/ti/mw/lcd/LC
    2653                            .dwattr $C$DW$219, DW_AT_decl_line(0x188)
    2654                            .dwattr $C$DW$219, DW_AT_decl_column(0x0b)
    2655                    
    2656                    $C$DW$220       .dwtag  DW_TAG_member
    2657                            .dwattr $C$DW$220, DW_AT_type(*$C$DW$T$6)
    2658                            .dwattr $C$DW$220, DW_AT_name("columnHi")
    2659                            .dwattr $C$DW$220, DW_AT_TI_symbol_name("columnHi")
    2660                            .dwattr $C$DW$220, DW_AT_data_member_location[DW_OP_plus_uconst 0xf]
    2661                            .dwattr $C$DW$220, DW_AT_accessibility(DW_ACCESS_public)
    2662                            .dwattr $C$DW$220, DW_AT_decl_file("C:/ti/simplelink_cc13x0_sdk_1_50_00_08/source/ti/mw/lcd/LC
    2663                            .dwattr $C$DW$220, DW_AT_decl_line(0x189)
    2664                            .dwattr $C$DW$220, DW_AT_decl_column(0x0b)
    2665                    
    2666                    $C$DW$221       .dwtag  DW_TAG_member
    2667                            .dwattr $C$DW$221, DW_AT_type(*$C$DW$T$6)
    2668                            .dwattr $C$DW$221, DW_AT_name("columnLo")
    2669                            .dwattr $C$DW$221, DW_AT_TI_symbol_name("columnLo")
    2670                            .dwattr $C$DW$221, DW_AT_data_member_location[DW_OP_plus_uconst 0x10]
    2671                            .dwattr $C$DW$221, DW_AT_accessibility(DW_ACCESS_public)
    2672                            .dwattr $C$DW$221, DW_AT_decl_file("C:/ti/simplelink_cc13x0_sdk_1_50_00_08/source/ti/mw/lcd/LC
    2673                            .dwattr $C$DW$221, DW_AT_decl_line(0x18a)
    2674                            .dwattr $C$DW$221, DW_AT_decl_column(0x0b)
    2675                    
    2676                            .dwattr $C$DW$T$232, DW_AT_decl_file("C:/ti/simplelink_cc13x0_sdk_1_50_00_08/source/ti/mw/lcd/
    2677                            .dwattr $C$DW$T$232, DW_AT_decl_line(0x178)
    2678                            .dwattr $C$DW$T$232, DW_AT_decl_column(0x10)
    2679                            .dwendtag $C$DW$T$232
    2680                    
    2681                    $C$DW$T$239     .dwtag  DW_TAG_typedef
    2682                            .dwattr $C$DW$T$239, DW_AT_name("LCD_Command")
    2683                            .dwattr $C$DW$T$239, DW_AT_type(*$C$DW$T$232)
    2684                            .dwattr $C$DW$T$239, DW_AT_language(DW_LANG_C)
    2685                            .dwattr $C$DW$T$239, DW_AT_decl_file("C:/ti/simplelink_cc13x0_sdk_1_50_00_08/source/ti/mw/lcd/
    2686                            .dwattr $C$DW$T$239, DW_AT_decl_line(0x18b)
    2687                            .dwattr $C$DW$T$239, DW_AT_decl_column(0x03)
    2688                    
    2689                    $C$DW$T$240     .dwtag  DW_TAG_const_type
    2690                            .dwattr $C$DW$T$240, DW_AT_type(*$C$DW$T$239)
    2691                    
TI ARM Assembler PC v16.9.4 Tue Apr 03 11:15:21 2018

Tools Copyright (c) 1996-2017 Texas Instruments Incorporated
C:\Users\Kevin\AppData\Local\Temp\{BD2815D5-01F3-43A2-98CD-B080CA14D9D7} PAGE   50

    2692                    $C$DW$T$241     .dwtag  DW_TAG_pointer_type
    2693                            .dwattr $C$DW$T$241, DW_AT_type(*$C$DW$T$240)
    2694                            .dwattr $C$DW$T$241, DW_AT_address_class(0x20)
    2695                    
    2696                    
    2697                    $C$DW$T$238     .dwtag  DW_TAG_structure_type
    2698                            .dwattr $C$DW$T$238, DW_AT_name("LCD_Config")
    2699                            .dwattr $C$DW$T$238, DW_AT_byte_size(0x08)
    2700                    $C$DW$222       .dwtag  DW_TAG_member
    2701                            .dwattr $C$DW$222, DW_AT_type(*$C$DW$T$234)
    2702                            .dwattr $C$DW$222, DW_AT_name("object")
    2703                            .dwattr $C$DW$222, DW_AT_TI_symbol_name("object")
    2704                            .dwattr $C$DW$222, DW_AT_data_member_location[DW_OP_plus_uconst 0x0]
    2705                            .dwattr $C$DW$222, DW_AT_accessibility(DW_ACCESS_public)
    2706                            .dwattr $C$DW$222, DW_AT_decl_file("C:/ti/simplelink_cc13x0_sdk_1_50_00_08/source/ti/mw/lcd/LC
    2707                            .dwattr $C$DW$222, DW_AT_decl_line(0x1d6)
    2708                            .dwattr $C$DW$222, DW_AT_decl_column(0x1a)
    2709                    
    2710                    $C$DW$223       .dwtag  DW_TAG_member
    2711                            .dwattr $C$DW$223, DW_AT_type(*$C$DW$T$237)
    2712                            .dwattr $C$DW$223, DW_AT_name("hwAttrs")
    2713                            .dwattr $C$DW$223, DW_AT_TI_symbol_name("hwAttrs")
    2714                            .dwattr $C$DW$223, DW_AT_data_member_location[DW_OP_plus_uconst 0x4]
    2715                            .dwattr $C$DW$223, DW_AT_accessibility(DW_ACCESS_public)
    2716                            .dwattr $C$DW$223, DW_AT_decl_file("C:/ti/simplelink_cc13x0_sdk_1_50_00_08/source/ti/mw/lcd/LC
    2717                            .dwattr $C$DW$223, DW_AT_decl_line(0x1d8)
    2718                            .dwattr $C$DW$223, DW_AT_decl_column(0x1a)
    2719                    
    2720                            .dwattr $C$DW$T$238, DW_AT_decl_file("C:/ti/simplelink_cc13x0_sdk_1_50_00_08/source/ti/mw/lcd/
    2721                            .dwattr $C$DW$T$238, DW_AT_decl_line(0x1d3)
    2722                            .dwattr $C$DW$T$238, DW_AT_decl_column(0x10)
    2723                            .dwendtag $C$DW$T$238
    2724                    
    2725                    $C$DW$T$503     .dwtag  DW_TAG_typedef
    2726                            .dwattr $C$DW$T$503, DW_AT_name("LCD_Config")
    2727                            .dwattr $C$DW$T$503, DW_AT_type(*$C$DW$T$238)
    2728                            .dwattr $C$DW$T$503, DW_AT_language(DW_LANG_C)
    2729                            .dwattr $C$DW$T$503, DW_AT_decl_file("C:/ti/simplelink_cc13x0_sdk_1_50_00_08/source/ti/mw/lcd/
    2730                            .dwattr $C$DW$T$503, DW_AT_decl_line(0x1d9)
    2731                            .dwattr $C$DW$T$503, DW_AT_decl_column(0x03)
    2732                    
    2733                    $C$DW$T$504     .dwtag  DW_TAG_pointer_type
    2734                            .dwattr $C$DW$T$504, DW_AT_type(*$C$DW$T$238)
    2735                            .dwattr $C$DW$T$504, DW_AT_address_class(0x20)
    2736                    
    2737                    $C$DW$T$505     .dwtag  DW_TAG_typedef
    2738                            .dwattr $C$DW$T$505, DW_AT_name("LCD_Handle")
    2739                            .dwattr $C$DW$T$505, DW_AT_type(*$C$DW$T$504)
    2740                            .dwattr $C$DW$T$505, DW_AT_language(DW_LANG_C)
    2741                            .dwattr $C$DW$T$505, DW_AT_decl_file("C:/ti/simplelink_cc13x0_sdk_1_50_00_08/source/ti/mw/lcd/
    2742                            .dwattr $C$DW$T$505, DW_AT_decl_line(0x126)
    2743                            .dwattr $C$DW$T$505, DW_AT_decl_column(0x1e)
    2744                    
    2745                    
    2746                    $C$DW$T$242     .dwtag  DW_TAG_structure_type
TI ARM Assembler PC v16.9.4 Tue Apr 03 11:15:21 2018

Tools Copyright (c) 1996-2017 Texas Instruments Incorporated
C:\Users\Kevin\AppData\Local\Temp\{BD2815D5-01F3-43A2-98CD-B080CA14D9D7} PAGE   51

    2747                            .dwattr $C$DW$T$242, DW_AT_name("LCD_HWAttrs")
    2748                            .dwattr $C$DW$T$242, DW_AT_byte_size(0x08)
    2749                    $C$DW$224       .dwtag  DW_TAG_member
    2750                            .dwattr $C$DW$224, DW_AT_type(*$C$DW$T$241)
    2751                            .dwattr $C$DW$224, DW_AT_name("LCD_initCmd")
    2752                            .dwattr $C$DW$224, DW_AT_TI_symbol_name("LCD_initCmd")
    2753                            .dwattr $C$DW$224, DW_AT_data_member_location[DW_OP_plus_uconst 0x0]
    2754                            .dwattr $C$DW$224, DW_AT_accessibility(DW_ACCESS_public)
    2755                            .dwattr $C$DW$224, DW_AT_decl_file("C:/ti/simplelink_cc13x0_sdk_1_50_00_08/source/ti/mw/lcd/LC
    2756                            .dwattr $C$DW$224, DW_AT_decl_line(0x1c1)
    2757                            .dwattr $C$DW$224, DW_AT_decl_column(0x18)
    2758                    
    2759                    $C$DW$225       .dwtag  DW_TAG_member
    2760                            .dwattr $C$DW$225, DW_AT_type(*$C$DW$T$88)
    2761                            .dwattr $C$DW$225, DW_AT_name("lcdModePin")
    2762                            .dwattr $C$DW$225, DW_AT_TI_symbol_name("lcdModePin")
    2763                            .dwattr $C$DW$225, DW_AT_data_member_location[DW_OP_plus_uconst 0x4]
    2764                            .dwattr $C$DW$225, DW_AT_accessibility(DW_ACCESS_public)
    2765                            .dwattr $C$DW$225, DW_AT_decl_file("C:/ti/simplelink_cc13x0_sdk_1_50_00_08/source/ti/mw/lcd/LC
    2766                            .dwattr $C$DW$225, DW_AT_decl_line(0x1c3)
    2767                            .dwattr $C$DW$225, DW_AT_decl_column(0x17)
    2768                    
    2769                    $C$DW$226       .dwtag  DW_TAG_member
    2770                            .dwattr $C$DW$226, DW_AT_type(*$C$DW$T$88)
    2771                            .dwattr $C$DW$226, DW_AT_name("lcdResetPin")
    2772                            .dwattr $C$DW$226, DW_AT_TI_symbol_name("lcdResetPin")
    2773                            .dwattr $C$DW$226, DW_AT_data_member_location[DW_OP_plus_uconst 0x5]
    2774                            .dwattr $C$DW$226, DW_AT_accessibility(DW_ACCESS_public)
    2775                            .dwattr $C$DW$226, DW_AT_decl_file("C:/ti/simplelink_cc13x0_sdk_1_50_00_08/source/ti/mw/lcd/LC
    2776                            .dwattr $C$DW$226, DW_AT_decl_line(0x1c5)
    2777                            .dwattr $C$DW$226, DW_AT_decl_column(0x17)
    2778                    
    2779                    $C$DW$227       .dwtag  DW_TAG_member
    2780                            .dwattr $C$DW$227, DW_AT_type(*$C$DW$T$88)
    2781                            .dwattr $C$DW$227, DW_AT_name("lcdCsnPin")
    2782                            .dwattr $C$DW$227, DW_AT_TI_symbol_name("lcdCsnPin")
    2783                            .dwattr $C$DW$227, DW_AT_data_member_location[DW_OP_plus_uconst 0x6]
    2784                            .dwattr $C$DW$227, DW_AT_accessibility(DW_ACCESS_public)
    2785                            .dwattr $C$DW$227, DW_AT_decl_file("C:/ti/simplelink_cc13x0_sdk_1_50_00_08/source/ti/mw/lcd/LC
    2786                            .dwattr $C$DW$227, DW_AT_decl_line(0x1c7)
    2787                            .dwattr $C$DW$227, DW_AT_decl_column(0x17)
    2788                    
    2789                    $C$DW$228       .dwtag  DW_TAG_member
    2790                            .dwattr $C$DW$228, DW_AT_type(*$C$DW$T$88)
    2791                            .dwattr $C$DW$228, DW_AT_name("spiIndex")
    2792                            .dwattr $C$DW$228, DW_AT_TI_symbol_name("spiIndex")
    2793                            .dwattr $C$DW$228, DW_AT_data_member_location[DW_OP_plus_uconst 0x7]
    2794                            .dwattr $C$DW$228, DW_AT_accessibility(DW_ACCESS_public)
    2795                            .dwattr $C$DW$228, DW_AT_decl_file("C:/ti/simplelink_cc13x0_sdk_1_50_00_08/source/ti/mw/lcd/LC
    2796                            .dwattr $C$DW$228, DW_AT_decl_line(0x1ca)
    2797                            .dwattr $C$DW$228, DW_AT_decl_column(0x17)
    2798                    
    2799                            .dwattr $C$DW$T$242, DW_AT_decl_file("C:/ti/simplelink_cc13x0_sdk_1_50_00_08/source/ti/mw/lcd/
    2800                            .dwattr $C$DW$T$242, DW_AT_decl_line(0x1be)
    2801                            .dwattr $C$DW$T$242, DW_AT_decl_column(0x10)
TI ARM Assembler PC v16.9.4 Tue Apr 03 11:15:21 2018

Tools Copyright (c) 1996-2017 Texas Instruments Incorporated
C:\Users\Kevin\AppData\Local\Temp\{BD2815D5-01F3-43A2-98CD-B080CA14D9D7} PAGE   52

    2802                            .dwendtag $C$DW$T$242
    2803                    
    2804                    $C$DW$T$235     .dwtag  DW_TAG_typedef
    2805                            .dwattr $C$DW$T$235, DW_AT_name("LCD_HWAttrs")
    2806                            .dwattr $C$DW$T$235, DW_AT_type(*$C$DW$T$242)
    2807                            .dwattr $C$DW$T$235, DW_AT_language(DW_LANG_C)
    2808                            .dwattr $C$DW$T$235, DW_AT_decl_file("C:/ti/simplelink_cc13x0_sdk_1_50_00_08/source/ti/mw/lcd/
    2809                            .dwattr $C$DW$T$235, DW_AT_decl_line(0x1cc)
    2810                            .dwattr $C$DW$T$235, DW_AT_decl_column(0x03)
    2811                    
    2812                    $C$DW$T$236     .dwtag  DW_TAG_const_type
    2813                            .dwattr $C$DW$T$236, DW_AT_type(*$C$DW$T$235)
    2814                    
    2815                    $C$DW$T$237     .dwtag  DW_TAG_pointer_type
    2816                            .dwattr $C$DW$T$237, DW_AT_type(*$C$DW$T$236)
    2817                            .dwattr $C$DW$T$237, DW_AT_address_class(0x20)
    2818                    
    2819                    
    2820                    $C$DW$T$246     .dwtag  DW_TAG_structure_type
    2821                            .dwattr $C$DW$T$246, DW_AT_name("LCD_Object")
    2822                            .dwattr $C$DW$T$246, DW_AT_byte_size(0x30)
    2823                    $C$DW$229       .dwtag  DW_TAG_member
    2824                            .dwattr $C$DW$229, DW_AT_type(*$C$DW$T$243)
    2825                            .dwattr $C$DW$229, DW_AT_name("isOpen")
    2826                            .dwattr $C$DW$229, DW_AT_TI_symbol_name("isOpen")
    2827                            .dwattr $C$DW$229, DW_AT_data_member_location[DW_OP_plus_uconst 0x0]
    2828                            .dwattr $C$DW$229, DW_AT_accessibility(DW_ACCESS_public)
    2829                            .dwattr $C$DW$229, DW_AT_decl_file("C:/ti/simplelink_cc13x0_sdk_1_50_00_08/source/ti/mw/lcd/LC
    2830                            .dwattr $C$DW$229, DW_AT_decl_line(0x1a7)
    2831                            .dwattr $C$DW$229, DW_AT_decl_column(0x1a)
    2832                    
    2833                    $C$DW$230       .dwtag  DW_TAG_member
    2834                            .dwattr $C$DW$230, DW_AT_type(*$C$DW$T$138)
    2835                            .dwattr $C$DW$230, DW_AT_name("spiHandle")
    2836                            .dwattr $C$DW$230, DW_AT_TI_symbol_name("spiHandle")
    2837                            .dwattr $C$DW$230, DW_AT_data_member_location[DW_OP_plus_uconst 0x4]
    2838                            .dwattr $C$DW$230, DW_AT_accessibility(DW_ACCESS_public)
    2839                            .dwattr $C$DW$230, DW_AT_decl_file("C:/ti/simplelink_cc13x0_sdk_1_50_00_08/source/ti/mw/lcd/LC
    2840                            .dwattr $C$DW$230, DW_AT_decl_line(0x1a8)
    2841                            .dwattr $C$DW$230, DW_AT_decl_column(0x1a)
    2842                    
    2843                    $C$DW$231       .dwtag  DW_TAG_member
    2844                            .dwattr $C$DW$231, DW_AT_type(*$C$DW$T$11)
    2845                            .dwattr $C$DW$231, DW_AT_name("lcdWriteTimeout")
    2846                            .dwattr $C$DW$231, DW_AT_TI_symbol_name("lcdWriteTimeout")
    2847                            .dwattr $C$DW$231, DW_AT_data_member_location[DW_OP_plus_uconst 0x8]
    2848                            .dwattr $C$DW$231, DW_AT_accessibility(DW_ACCESS_public)
    2849                            .dwattr $C$DW$231, DW_AT_decl_file("C:/ti/simplelink_cc13x0_sdk_1_50_00_08/source/ti/mw/lcd/LC
    2850                            .dwattr $C$DW$231, DW_AT_decl_line(0x1a9)
    2851                            .dwattr $C$DW$231, DW_AT_decl_column(0x1a)
    2852                    
    2853                    $C$DW$232       .dwtag  DW_TAG_member
    2854                            .dwattr $C$DW$232, DW_AT_type(*$C$DW$T$146)
    2855                            .dwattr $C$DW$232, DW_AT_name("lcdMutex")
    2856                            .dwattr $C$DW$232, DW_AT_TI_symbol_name("lcdMutex")
TI ARM Assembler PC v16.9.4 Tue Apr 03 11:15:21 2018

Tools Copyright (c) 1996-2017 Texas Instruments Incorporated
C:\Users\Kevin\AppData\Local\Temp\{BD2815D5-01F3-43A2-98CD-B080CA14D9D7} PAGE   53

    2857                            .dwattr $C$DW$232, DW_AT_data_member_location[DW_OP_plus_uconst 0xc]
    2858                            .dwattr $C$DW$232, DW_AT_accessibility(DW_ACCESS_public)
    2859                            .dwattr $C$DW$232, DW_AT_decl_file("C:/ti/simplelink_cc13x0_sdk_1_50_00_08/source/ti/mw/lcd/LC
    2860                            .dwattr $C$DW$232, DW_AT_decl_line(0x1aa)
    2861                            .dwattr $C$DW$232, DW_AT_decl_column(0x1a)
    2862                    
    2863                    $C$DW$233       .dwtag  DW_TAG_member
    2864                            .dwattr $C$DW$233, DW_AT_type(*$C$DW$T$245)
    2865                            .dwattr $C$DW$233, DW_AT_name("lcdBuffers")
    2866                            .dwattr $C$DW$233, DW_AT_TI_symbol_name("lcdBuffers")
    2867                            .dwattr $C$DW$233, DW_AT_data_member_location[DW_OP_plus_uconst 0x28]
    2868                            .dwattr $C$DW$233, DW_AT_accessibility(DW_ACCESS_public)
    2869                            .dwattr $C$DW$233, DW_AT_decl_file("C:/ti/simplelink_cc13x0_sdk_1_50_00_08/source/ti/mw/lcd/LC
    2870                            .dwattr $C$DW$233, DW_AT_decl_line(0x1ab)
    2871                            .dwattr $C$DW$233, DW_AT_decl_column(0x1b)
    2872                    
    2873                    $C$DW$234       .dwtag  DW_TAG_member
    2874                            .dwattr $C$DW$234, DW_AT_type(*$C$DW$T$88)
    2875                            .dwattr $C$DW$234, DW_AT_name("nBuffers")
    2876                            .dwattr $C$DW$234, DW_AT_TI_symbol_name("nBuffers")
    2877                            .dwattr $C$DW$234, DW_AT_data_member_location[DW_OP_plus_uconst 0x2c]
    2878                            .dwattr $C$DW$234, DW_AT_accessibility(DW_ACCESS_public)
    2879                            .dwattr $C$DW$234, DW_AT_decl_file("C:/ti/simplelink_cc13x0_sdk_1_50_00_08/source/ti/mw/lcd/LC
    2880                            .dwattr $C$DW$234, DW_AT_decl_line(0x1ad)
    2881                            .dwattr $C$DW$234, DW_AT_decl_column(0x1a)
    2882                    
    2883                            .dwattr $C$DW$T$246, DW_AT_decl_file("C:/ti/simplelink_cc13x0_sdk_1_50_00_08/source/ti/mw/lcd/
    2884                            .dwattr $C$DW$T$246, DW_AT_decl_line(0x1a4)
    2885                            .dwattr $C$DW$T$246, DW_AT_decl_column(0x10)
    2886                            .dwendtag $C$DW$T$246
    2887                    
    2888                    $C$DW$T$233     .dwtag  DW_TAG_typedef
    2889                            .dwattr $C$DW$T$233, DW_AT_name("LCD_Object")
    2890                            .dwattr $C$DW$T$233, DW_AT_type(*$C$DW$T$246)
    2891                            .dwattr $C$DW$T$233, DW_AT_language(DW_LANG_C)
    2892                            .dwattr $C$DW$T$233, DW_AT_decl_file("C:/ti/simplelink_cc13x0_sdk_1_50_00_08/source/ti/mw/lcd/
    2893                            .dwattr $C$DW$T$233, DW_AT_decl_line(0x1ae)
    2894                            .dwattr $C$DW$T$233, DW_AT_decl_column(0x03)
    2895                    
    2896                    $C$DW$T$234     .dwtag  DW_TAG_pointer_type
    2897                            .dwattr $C$DW$T$234, DW_AT_type(*$C$DW$T$233)
    2898                            .dwattr $C$DW$T$234, DW_AT_address_class(0x20)
    2899                    
    2900                    
    2901                    $C$DW$T$506     .dwtag  DW_TAG_enumeration_type
    2902                            .dwattr $C$DW$T$506, DW_AT_name("LCD_Page")
    2903                            .dwattr $C$DW$T$506, DW_AT_byte_size(0x01)
    2904                    $C$DW$235       .dwtag  DW_TAG_enumerator
    2905                            .dwattr $C$DW$235, DW_AT_name("LCD_PAGE0")
    2906                            .dwattr $C$DW$235, DW_AT_const_value(0x00)
    2907                            .dwattr $C$DW$235, DW_AT_decl_file("C:/ti/simplelink_cc13x0_sdk_1_50_00_08/source/ti/mw/lcd/LC
    2908                            .dwattr $C$DW$235, DW_AT_decl_line(0x13f)
    2909                            .dwattr $C$DW$235, DW_AT_decl_column(0x05)
    2910                    
    2911                    $C$DW$236       .dwtag  DW_TAG_enumerator
TI ARM Assembler PC v16.9.4 Tue Apr 03 11:15:21 2018

Tools Copyright (c) 1996-2017 Texas Instruments Incorporated
C:\Users\Kevin\AppData\Local\Temp\{BD2815D5-01F3-43A2-98CD-B080CA14D9D7} PAGE   54

    2912                            .dwattr $C$DW$236, DW_AT_name("LCD_PAGE1")
    2913                            .dwattr $C$DW$236, DW_AT_const_value(0x01)
    2914                            .dwattr $C$DW$236, DW_AT_decl_file("C:/ti/simplelink_cc13x0_sdk_1_50_00_08/source/ti/mw/lcd/LC
    2915                            .dwattr $C$DW$236, DW_AT_decl_line(0x140)
    2916                            .dwattr $C$DW$236, DW_AT_decl_column(0x05)
    2917                    
    2918                    $C$DW$237       .dwtag  DW_TAG_enumerator
    2919                            .dwattr $C$DW$237, DW_AT_name("LCD_PAGE2")
    2920                            .dwattr $C$DW$237, DW_AT_const_value(0x02)
    2921                            .dwattr $C$DW$237, DW_AT_decl_file("C:/ti/simplelink_cc13x0_sdk_1_50_00_08/source/ti/mw/lcd/LC
    2922                            .dwattr $C$DW$237, DW_AT_decl_line(0x141)
    2923                            .dwattr $C$DW$237, DW_AT_decl_column(0x05)
    2924                    
    2925                    $C$DW$238       .dwtag  DW_TAG_enumerator
    2926                            .dwattr $C$DW$238, DW_AT_name("LCD_PAGE3")
    2927                            .dwattr $C$DW$238, DW_AT_const_value(0x03)
    2928                            .dwattr $C$DW$238, DW_AT_decl_file("C:/ti/simplelink_cc13x0_sdk_1_50_00_08/source/ti/mw/lcd/LC
    2929                            .dwattr $C$DW$238, DW_AT_decl_line(0x142)
    2930                            .dwattr $C$DW$238, DW_AT_decl_column(0x05)
    2931                    
    2932                    $C$DW$239       .dwtag  DW_TAG_enumerator
    2933                            .dwattr $C$DW$239, DW_AT_name("LCD_PAGE4")
    2934                            .dwattr $C$DW$239, DW_AT_const_value(0x04)
    2935                            .dwattr $C$DW$239, DW_AT_decl_file("C:/ti/simplelink_cc13x0_sdk_1_50_00_08/source/ti/mw/lcd/LC
    2936                            .dwattr $C$DW$239, DW_AT_decl_line(0x143)
    2937                            .dwattr $C$DW$239, DW_AT_decl_column(0x05)
    2938                    
    2939                    $C$DW$240       .dwtag  DW_TAG_enumerator
    2940                            .dwattr $C$DW$240, DW_AT_name("LCD_PAGE5")
    2941                            .dwattr $C$DW$240, DW_AT_const_value(0x05)
    2942                            .dwattr $C$DW$240, DW_AT_decl_file("C:/ti/simplelink_cc13x0_sdk_1_50_00_08/source/ti/mw/lcd/LC
    2943                            .dwattr $C$DW$240, DW_AT_decl_line(0x144)
    2944                            .dwattr $C$DW$240, DW_AT_decl_column(0x05)
    2945                    
    2946                    $C$DW$241       .dwtag  DW_TAG_enumerator
    2947                            .dwattr $C$DW$241, DW_AT_name("LCD_PAGE6")
    2948                            .dwattr $C$DW$241, DW_AT_const_value(0x06)
    2949                            .dwattr $C$DW$241, DW_AT_decl_file("C:/ti/simplelink_cc13x0_sdk_1_50_00_08/source/ti/mw/lcd/LC
    2950                            .dwattr $C$DW$241, DW_AT_decl_line(0x145)
    2951                            .dwattr $C$DW$241, DW_AT_decl_column(0x05)
    2952                    
    2953                    $C$DW$242       .dwtag  DW_TAG_enumerator
    2954                            .dwattr $C$DW$242, DW_AT_name("LCD_PAGE7")
    2955                            .dwattr $C$DW$242, DW_AT_const_value(0x07)
    2956                            .dwattr $C$DW$242, DW_AT_decl_file("C:/ti/simplelink_cc13x0_sdk_1_50_00_08/source/ti/mw/lcd/LC
    2957                            .dwattr $C$DW$242, DW_AT_decl_line(0x146)
    2958                            .dwattr $C$DW$242, DW_AT_decl_column(0x05)
    2959                    
    2960                    $C$DW$243       .dwtag  DW_TAG_enumerator
    2961                            .dwattr $C$DW$243, DW_AT_name("LCD_PAGE_COUNT")
    2962                            .dwattr $C$DW$243, DW_AT_const_value(0x08)
    2963                            .dwattr $C$DW$243, DW_AT_decl_file("C:/ti/simplelink_cc13x0_sdk_1_50_00_08/source/ti/mw/lcd/LC
    2964                            .dwattr $C$DW$243, DW_AT_decl_line(0x147)
    2965                            .dwattr $C$DW$243, DW_AT_decl_column(0x05)
    2966                    
TI ARM Assembler PC v16.9.4 Tue Apr 03 11:15:21 2018

Tools Copyright (c) 1996-2017 Texas Instruments Incorporated
C:\Users\Kevin\AppData\Local\Temp\{BD2815D5-01F3-43A2-98CD-B080CA14D9D7} PAGE   55

    2967                            .dwattr $C$DW$T$506, DW_AT_decl_file("C:/ti/simplelink_cc13x0_sdk_1_50_00_08/source/ti/mw/lcd/
    2968                            .dwattr $C$DW$T$506, DW_AT_decl_line(0x13d)
    2969                            .dwattr $C$DW$T$506, DW_AT_decl_column(0x0e)
    2970                            .dwendtag $C$DW$T$506
    2971                    
    2972                    $C$DW$T$507     .dwtag  DW_TAG_typedef
    2973                            .dwattr $C$DW$T$507, DW_AT_name("LCD_Page")
    2974                            .dwattr $C$DW$T$507, DW_AT_type(*$C$DW$T$506)
    2975                            .dwattr $C$DW$T$507, DW_AT_language(DW_LANG_C)
    2976                            .dwattr $C$DW$T$507, DW_AT_decl_file("C:/ti/simplelink_cc13x0_sdk_1_50_00_08/source/ti/mw/lcd/
    2977                            .dwattr $C$DW$T$507, DW_AT_decl_line(0x148)
    2978                            .dwattr $C$DW$T$507, DW_AT_decl_column(0x03)
    2979                    
    2980                    
    2981                    $C$DW$T$249     .dwtag  DW_TAG_structure_type
    2982                            .dwattr $C$DW$T$249, DW_AT_name("LCD_Params")
    2983                            .dwattr $C$DW$T$249, DW_AT_byte_size(0x0c)
    2984                    $C$DW$244       .dwtag  DW_TAG_member
    2985                            .dwattr $C$DW$244, DW_AT_type(*$C$DW$T$11)
    2986                            .dwattr $C$DW$244, DW_AT_name("lcdWriteTimeout")
    2987                            .dwattr $C$DW$244, DW_AT_TI_symbol_name("lcdWriteTimeout")
    2988                            .dwattr $C$DW$244, DW_AT_data_member_location[DW_OP_plus_uconst 0x0]
    2989                            .dwattr $C$DW$244, DW_AT_accessibility(DW_ACCESS_public)
    2990                            .dwattr $C$DW$244, DW_AT_decl_file("C:/ti/simplelink_cc13x0_sdk_1_50_00_08/source/ti/mw/lcd/LC
    2991                            .dwattr $C$DW$244, DW_AT_decl_line(0x16d)
    2992                            .dwattr $C$DW$244, DW_AT_decl_column(0x19)
    2993                    
    2994                    $C$DW$245       .dwtag  DW_TAG_member
    2995                            .dwattr $C$DW$245, DW_AT_type(*$C$DW$T$11)
    2996                            .dwattr $C$DW$245, DW_AT_name("spiBitRate")
    2997                            .dwattr $C$DW$245, DW_AT_TI_symbol_name("spiBitRate")
    2998                            .dwattr $C$DW$245, DW_AT_data_member_location[DW_OP_plus_uconst 0x4]
    2999                            .dwattr $C$DW$245, DW_AT_accessibility(DW_ACCESS_public)
    3000                            .dwattr $C$DW$245, DW_AT_decl_file("C:/ti/simplelink_cc13x0_sdk_1_50_00_08/source/ti/mw/lcd/LC
    3001                            .dwattr $C$DW$245, DW_AT_decl_line(0x170)
    3002                            .dwattr $C$DW$245, DW_AT_decl_column(0x19)
    3003                    
    3004                    $C$DW$246       .dwtag  DW_TAG_member
    3005                            .dwattr $C$DW$246, DW_AT_type(*$C$DW$T$248)
    3006                            .dwattr $C$DW$246, DW_AT_name("spiFrameFormat")
    3007                            .dwattr $C$DW$246, DW_AT_TI_symbol_name("spiFrameFormat")
    3008                            .dwattr $C$DW$246, DW_AT_data_member_location[DW_OP_plus_uconst 0x8]
    3009                            .dwattr $C$DW$246, DW_AT_accessibility(DW_ACCESS_public)
    3010                            .dwattr $C$DW$246, DW_AT_decl_file("C:/ti/simplelink_cc13x0_sdk_1_50_00_08/source/ti/mw/lcd/LC
    3011                            .dwattr $C$DW$246, DW_AT_decl_line(0x171)
    3012                            .dwattr $C$DW$246, DW_AT_decl_column(0x19)
    3013                    
    3014                            .dwattr $C$DW$T$249, DW_AT_decl_file("C:/ti/simplelink_cc13x0_sdk_1_50_00_08/source/ti/mw/lcd/
