TI ARM Assembler PC v16.9.4 Sat Nov 18 18:46:18 2017

Tools Copyright (c) 1996-2017 Texas Instruments Incorporated
C:\Users\Kevin\AppData\Local\Temp\{5A8B501C-33CF-4805-A507-0ACBE2D1F927} PAGE    1

       1                    ;******************************************************************************
       2                    ;* TI ARM C/C++ Codegen                                        PC v16.9.4.LTS *
       3                    ;* Date/Time created: Sat Nov 18 18:46:18 2017                                *
       4                    ;******************************************************************************
       5                            .compiler_opts --abi=eabi --arm_vmrs_si_workaround=off --code_state=16 --diag_wrap=off --embed
       6 00000000                   .thumb
       7                    
       8                    $C$DW$CU        .dwtag  DW_TAG_compile_unit
       9                            .dwattr $C$DW$CU, DW_AT_name("../Application/LaunchPad/board_key.c")
      10                            .dwattr $C$DW$CU, DW_AT_producer("TI TI ARM C/C++ Codegen PC v16.9.4.LTS Copyright (c) 1996-20
      11                            .dwattr $C$DW$CU, DW_AT_TI_version(0x01)
      12                            .dwattr $C$DW$CU, DW_AT_comp_dir("C:\Users\Kevin\workspace_v7\sensor_cc1310lp\sensor_cc1310lp"
      13                    
      14                    $C$DW$1 .dwtag  DW_TAG_subprogram
      15                            .dwattr $C$DW$1, DW_AT_name("Timer_construct")
      16                            .dwattr $C$DW$1, DW_AT_TI_symbol_name("Timer_construct")
      17                            .dwattr $C$DW$1, DW_AT_type(*$C$DW$T$1048)
      18                            .dwattr $C$DW$1, DW_AT_declaration
      19                            .dwattr $C$DW$1, DW_AT_external
      20                            .dwattr $C$DW$1, DW_AT_decl_file("C:/Users/Kevin/workspace_v7/sensor_cc1310lp/Application/time
      21                            .dwattr $C$DW$1, DW_AT_decl_line(0x5d)
      22                            .dwattr $C$DW$1, DW_AT_decl_column(0x15)
      23                    $C$DW$2 .dwtag  DW_TAG_formal_parameter
      24                            .dwattr $C$DW$2, DW_AT_type(*$C$DW$T$609)
      25                    
      26                    $C$DW$3 .dwtag  DW_TAG_formal_parameter
      27                            .dwattr $C$DW$3, DW_AT_type(*$C$DW$T$277)
      28                    
      29                    $C$DW$4 .dwtag  DW_TAG_formal_parameter
      30                            .dwattr $C$DW$4, DW_AT_type(*$C$DW$T$143)
      31                    
      32                    $C$DW$5 .dwtag  DW_TAG_formal_parameter
      33                            .dwattr $C$DW$5, DW_AT_type(*$C$DW$T$143)
      34                    
      35                    $C$DW$6 .dwtag  DW_TAG_formal_parameter
      36                            .dwattr $C$DW$6, DW_AT_type(*$C$DW$T$144)
      37                    
      38                    $C$DW$7 .dwtag  DW_TAG_formal_parameter
      39                            .dwattr $C$DW$7, DW_AT_type(*$C$DW$T$612)
      40                    
      41                            .dwendtag $C$DW$1
      42                    
      43                    
      44                    $C$DW$8 .dwtag  DW_TAG_subprogram
      45                            .dwattr $C$DW$8, DW_AT_name("Timer_start")
      46                            .dwattr $C$DW$8, DW_AT_TI_symbol_name("Timer_start")
      47                            .dwattr $C$DW$8, DW_AT_declaration
      48                            .dwattr $C$DW$8, DW_AT_external
      49                            .dwattr $C$DW$8, DW_AT_decl_file("C:/Users/Kevin/workspace_v7/sensor_cc1310lp/Application/time
      50                            .dwattr $C$DW$8, DW_AT_decl_line(0x69)
      51                            .dwattr $C$DW$8, DW_AT_decl_column(0x0d)
      52                    $C$DW$9 .dwtag  DW_TAG_formal_parameter
      53                            .dwattr $C$DW$9, DW_AT_type(*$C$DW$T$609)
      54                    
      55                            .dwendtag $C$DW$8
TI ARM Assembler PC v16.9.4 Sat Nov 18 18:46:18 2017

Tools Copyright (c) 1996-2017 Texas Instruments Incorporated
C:\Users\Kevin\AppData\Local\Temp\{5A8B501C-33CF-4805-A507-0ACBE2D1F927} PAGE    2

      56                    
      57                    
      58                    $C$DW$10        .dwtag  DW_TAG_subprogram
      59                            .dwattr $C$DW$10, DW_AT_name("Timer_isActive")
      60                            .dwattr $C$DW$10, DW_AT_TI_symbol_name("Timer_isActive")
      61                            .dwattr $C$DW$10, DW_AT_type(*$C$DW$T$980)
      62                            .dwattr $C$DW$10, DW_AT_declaration
      63                            .dwattr $C$DW$10, DW_AT_external
      64                            .dwattr $C$DW$10, DW_AT_decl_file("C:/Users/Kevin/workspace_v7/sensor_cc1310lp/Application/tim
      65                            .dwattr $C$DW$10, DW_AT_decl_line(0x72)
      66                            .dwattr $C$DW$10, DW_AT_decl_column(0x0d)
      67                    $C$DW$11        .dwtag  DW_TAG_formal_parameter
      68                            .dwattr $C$DW$11, DW_AT_type(*$C$DW$T$609)
      69                    
      70                            .dwendtag $C$DW$10
      71                    
      72                    
      73                    $C$DW$12        .dwtag  DW_TAG_subprogram
      74                            .dwattr $C$DW$12, DW_AT_name("PIN_open")
      75                            .dwattr $C$DW$12, DW_AT_TI_symbol_name("PIN_open")
      76                            .dwattr $C$DW$12, DW_AT_type(*$C$DW$T$199)
      77                            .dwattr $C$DW$12, DW_AT_declaration
      78                            .dwattr $C$DW$12, DW_AT_external
      79                            .dwattr $C$DW$12, DW_AT_decl_file("C:/ti/simplelink_cc13x0_sdk_1_50_00_08/source/ti/drivers/PI
      80                            .dwattr $C$DW$12, DW_AT_decl_line(0x2da)
      81                            .dwattr $C$DW$12, DW_AT_decl_column(0x13)
      82                    $C$DW$13        .dwtag  DW_TAG_formal_parameter
      83                            .dwattr $C$DW$13, DW_AT_type(*$C$DW$T$198)
      84                    
      85                    $C$DW$14        .dwtag  DW_TAG_formal_parameter
      86                            .dwattr $C$DW$14, DW_AT_type(*$C$DW$T$517)
      87                    
      88                            .dwendtag $C$DW$12
      89                    
      90                    
      91                    $C$DW$15        .dwtag  DW_TAG_subprogram
      92                            .dwattr $C$DW$15, DW_AT_name("PIN_getInputValue")
      93                            .dwattr $C$DW$15, DW_AT_TI_symbol_name("PIN_getInputValue")
      94                            .dwattr $C$DW$15, DW_AT_type(*$C$DW$T$143)
      95                            .dwattr $C$DW$15, DW_AT_declaration
      96                            .dwattr $C$DW$15, DW_AT_external
      97                            .dwattr $C$DW$15, DW_AT_decl_file("C:/ti/simplelink_cc13x0_sdk_1_50_00_08/source/ti/drivers/PI
      98                            .dwattr $C$DW$15, DW_AT_decl_line(0x329)
      99                            .dwattr $C$DW$15, DW_AT_decl_column(0x11)
     100                    $C$DW$16        .dwtag  DW_TAG_formal_parameter
     101                            .dwattr $C$DW$16, DW_AT_type(*$C$DW$T$200)
     102                    
     103                            .dwendtag $C$DW$15
     104                    
     105                    
     106                    $C$DW$17        .dwtag  DW_TAG_subprogram
     107                            .dwattr $C$DW$17, DW_AT_name("PIN_registerIntCb")
     108                            .dwattr $C$DW$17, DW_AT_TI_symbol_name("PIN_registerIntCb")
     109                            .dwattr $C$DW$17, DW_AT_type(*$C$DW$T$481)
     110                            .dwattr $C$DW$17, DW_AT_declaration
TI ARM Assembler PC v16.9.4 Sat Nov 18 18:46:18 2017

Tools Copyright (c) 1996-2017 Texas Instruments Incorporated
C:\Users\Kevin\AppData\Local\Temp\{5A8B501C-33CF-4805-A507-0ACBE2D1F927} PAGE    3

     111                            .dwattr $C$DW$17, DW_AT_external
     112                            .dwattr $C$DW$17, DW_AT_decl_file("C:/ti/simplelink_cc13x0_sdk_1_50_00_08/source/ti/drivers/PI
     113                            .dwattr $C$DW$17, DW_AT_decl_line(0x393)
     114                            .dwattr $C$DW$17, DW_AT_decl_column(0x13)
     115                    $C$DW$18        .dwtag  DW_TAG_formal_parameter
     116                            .dwattr $C$DW$18, DW_AT_type(*$C$DW$T$199)
     117                    
     118                    $C$DW$19        .dwtag  DW_TAG_formal_parameter
     119                            .dwattr $C$DW$19, DW_AT_type(*$C$DW$T$203)
     120                    
     121                            .dwendtag $C$DW$17
     122                    
     123 00000000                   .sect   ".data:$O1$$", RW
     124                            .clink
     125                            .align  4
     126                            .elfsym ||$O1$$||,SYM_SIZE(72)
     127 00000000           ||$O1$$||:
     128 00000000 00000000          .bits   0,32
     129 00000004 00000000          .bits   0,32                    ; $O1$$.appKeyChangeHandler @ 32
     130 00000008 00000000          .bits   0,32
     131 0000000c 8005200D          .bits   -2147147763,32                  ; $O1$$.keyPinTable[0] @ 96
     132 00000010 8005200E          .bits   -2147147762,32                  ; $O1$$.keyPinTable[1] @ 128
     133 00000014 000000FE          .bits   254,32                  ; $O1$$.keyPinTable[2] @ 160
     134 00000018                   .space  48
     135                    
     136                    
     137                    ;*********************************************************************
     138                    ;* GROUPED GLOBALS FOR $O1$$                                         *
     139                    ;*********************************************************************
     140          00000000! keysPressed:    .set    ||$O1$$||+0
     141                    $C$DW$20        .dwtag  DW_TAG_variable
     142                            .dwattr $C$DW$20, DW_AT_name("keysPressed")
     143                            .dwattr $C$DW$20, DW_AT_TI_symbol_name("keysPressed")
     144                            .dwattr $C$DW$20, DW_AT_type(*$C$DW$T$144)
     145                            .dwattr $C$DW$20, DW_AT_location[DW_OP_addr keysPressed]
     146                            .dwattr $C$DW$20, DW_AT_decl_file("../Application/LaunchPad/board_key.c")
     147                            .dwattr $C$DW$20, DW_AT_decl_line(0x41)
     148                            .dwattr $C$DW$20, DW_AT_decl_column(0x10)
     149                    
     150          00000004! appKeyChangeHandler:    .set    ||$O1$$||+4
     151                    $C$DW$21        .dwtag  DW_TAG_variable
     152                            .dwattr $C$DW$21, DW_AT_name("appKeyChangeHandler")
     153                            .dwattr $C$DW$21, DW_AT_TI_symbol_name("appKeyChangeHandler")
     154                            .dwattr $C$DW$21, DW_AT_type(*$C$DW$T$589)
     155                            .dwattr $C$DW$21, DW_AT_location[DW_OP_addr appKeyChangeHandler]
     156                            .dwattr $C$DW$21, DW_AT_decl_file("../Application/LaunchPad/board_key.c")
     157                            .dwattr $C$DW$21, DW_AT_decl_line(0x47)
     158                            .dwattr $C$DW$21, DW_AT_decl_column(0x22)
     159                    
     160          00000008! keyPinHandle:   .set    ||$O1$$||+8
     161                    $C$DW$22        .dwtag  DW_TAG_variable
     162                            .dwattr $C$DW$22, DW_AT_name("keyPinHandle")
     163                            .dwattr $C$DW$22, DW_AT_TI_symbol_name("keyPinHandle")
     164                            .dwattr $C$DW$22, DW_AT_type(*$C$DW$T$199)
     165                            .dwattr $C$DW$22, DW_AT_location[DW_OP_addr keyPinHandle]
TI ARM Assembler PC v16.9.4 Sat Nov 18 18:46:18 2017

Tools Copyright (c) 1996-2017 Texas Instruments Incorporated
C:\Users\Kevin\AppData\Local\Temp\{5A8B501C-33CF-4805-A507-0ACBE2D1F927} PAGE    4

     166                            .dwattr $C$DW$22, DW_AT_decl_file("../Application/LaunchPad/board_key.c")
     167                            .dwattr $C$DW$22, DW_AT_decl_line(0x57)
     168                            .dwattr $C$DW$22, DW_AT_decl_column(0x13)
     169                    
     170          0000000C! keyPinTable:    .set    ||$O1$$||+12
     171                    $C$DW$23        .dwtag  DW_TAG_variable
     172                            .dwattr $C$DW$23, DW_AT_name("keyPinTable")
     173                            .dwattr $C$DW$23, DW_AT_TI_symbol_name("keyPinTable")
     174                            .dwattr $C$DW$23, DW_AT_type(*$C$DW$T$862)
     175                            .dwattr $C$DW$23, DW_AT_location[DW_OP_addr keyPinTable]
     176                            .dwattr $C$DW$23, DW_AT_decl_file("../Application/LaunchPad/board_key.c")
     177                            .dwattr $C$DW$23, DW_AT_decl_line(0x4d)
     178                            .dwattr $C$DW$23, DW_AT_decl_column(0x13)
     179                    
     180          00000018! keyPinState:    .set    ||$O1$$||+24
     181                    $C$DW$24        .dwtag  DW_TAG_variable
     182                            .dwattr $C$DW$24, DW_AT_name("keyPinState")
     183                            .dwattr $C$DW$24, DW_AT_TI_symbol_name("keyPinState")
     184                            .dwattr $C$DW$24, DW_AT_type(*$C$DW$T$197)
     185                            .dwattr $C$DW$24, DW_AT_location[DW_OP_addr keyPinState]
     186                            .dwattr $C$DW$24, DW_AT_decl_file("../Application/LaunchPad/board_key.c")
     187                            .dwattr $C$DW$24, DW_AT_decl_line(0x54)
     188                            .dwattr $C$DW$24, DW_AT_decl_column(0x12)
     189                    
     190          00000024! keyChangeClock: .set    ||$O1$$||+36
     191                    $C$DW$25        .dwtag  DW_TAG_variable
     192                            .dwattr $C$DW$25, DW_AT_name("keyChangeClock")
     193                            .dwattr $C$DW$25, DW_AT_TI_symbol_name("keyChangeClock")
     194                            .dwattr $C$DW$25, DW_AT_type(*$C$DW$T$608)
     195                            .dwattr $C$DW$25, DW_AT_location[DW_OP_addr keyChangeClock]
     196                            .dwattr $C$DW$25, DW_AT_decl_file("../Application/LaunchPad/board_key.c")
     197                            .dwattr $C$DW$25, DW_AT_decl_line(0x44)
     198                            .dwattr $C$DW$25, DW_AT_decl_column(0x15)
     199                    
     200                    ;       C:\ti\ccsv7\tools\compiler\ti-cgt-arm_16.9.4.LTS\bin\armopt.exe C:/Users/Kevin/workspace_v7/se
     201 00000000                   .sect   ".text:board_key_keyFxn"
     202                            .clink
     203                            .thumbfunc board_key_keyFxn
     204 00000000                   .thumb
     205                    
     206                    $C$DW$26        .dwtag  DW_TAG_subprogram
     207                            .dwattr $C$DW$26, DW_AT_name("board_key_keyFxn")
     208                            .dwattr $C$DW$26, DW_AT_low_pc(board_key_keyFxn)
     209                            .dwattr $C$DW$26, DW_AT_high_pc(0x00)
     210                            .dwattr $C$DW$26, DW_AT_TI_symbol_name("board_key_keyFxn")
     211                            .dwattr $C$DW$26, DW_AT_TI_begin_file("../Application/LaunchPad/board_key.c")
     212                            .dwattr $C$DW$26, DW_AT_TI_begin_line(0x87)
     213                            .dwattr $C$DW$26, DW_AT_TI_begin_column(0x0d)
     214                            .dwattr $C$DW$26, DW_AT_decl_file("../Application/LaunchPad/board_key.c")
     215                            .dwattr $C$DW$26, DW_AT_decl_line(0x87)
     216                            .dwattr $C$DW$26, DW_AT_decl_column(0x0d)
     217                            .dwattr $C$DW$26, DW_AT_TI_max_frame_size(0x08)
     218                            .dwpsn  file "../Application/LaunchPad/board_key.c",line 136,column 1,is_stmt,address board_ke
     219                    
     220                            .dwfde $C$DW$CIE, board_key_keyFxn
TI ARM Assembler PC v16.9.4 Sat Nov 18 18:46:18 2017

Tools Copyright (c) 1996-2017 Texas Instruments Incorporated
C:\Users\Kevin\AppData\Local\Temp\{5A8B501C-33CF-4805-A507-0ACBE2D1F927} PAGE    5

     221                    $C$DW$27        .dwtag  DW_TAG_formal_parameter
     222                            .dwattr $C$DW$27, DW_AT_name("keyPinHandle")
     223                            .dwattr $C$DW$27, DW_AT_TI_symbol_name("keyPinHandle")
     224                            .dwattr $C$DW$27, DW_AT_type(*$C$DW$T$199)
     225                            .dwattr $C$DW$27, DW_AT_location[DW_OP_reg0]
     226                    
     227                    $C$DW$28        .dwtag  DW_TAG_formal_parameter
     228                            .dwattr $C$DW$28, DW_AT_name("keyPinId")
     229                            .dwattr $C$DW$28, DW_AT_TI_symbol_name("keyPinId")
     230                            .dwattr $C$DW$28, DW_AT_type(*$C$DW$T$200)
     231                            .dwattr $C$DW$28, DW_AT_location[DW_OP_reg1]
     232                    
     233                    
     234                    ;*****************************************************************************
     235                    ;* FUNCTION NAME: board_key_keyFxn                                           *
     236                    ;*                                                                           *
     237                    ;*   Regs Modified     : A1,A2,A3,A4,V1,V9,SP,LR,SR                          *
     238                    ;*   Regs Used         : A1,A2,A3,A4,V1,V9,SP,LR,SR                          *
     239                    ;*   Local Frame Size  : 0 Args + 0 Auto + 8 Save = 8 byte                   *
     240                    ;*****************************************************************************
     241                    board_key_keyFxn:
     242                    ;* --------------------------------------------------------------------------*
     243                    ;* A1    assigned to $O$C1
     244                    ;* A1    assigned to $O$C2
     245                    ;* A1    assigned to $O$K3
     246                    ;* V1    assigned to $O$K17
     247                    ;* A3    assigned to $O$v1
     248                    ;* A2    assigned to keyPinId
     249                    $C$DW$29        .dwtag  DW_TAG_variable
     250                            .dwattr $C$DW$29, DW_AT_name("keyPinId")
     251                            .dwattr $C$DW$29, DW_AT_TI_symbol_name("keyPinId")
     252                            .dwattr $C$DW$29, DW_AT_type(*$C$DW$T$734)
     253                            .dwattr $C$DW$29, DW_AT_location[DW_OP_reg1]
     254                    
     255                            .dwcfi  cfa_offset, 0
     256                            .dwpsn  file "../Application/LaunchPad/board_key.c",line 139,column 5,is_stmt,isa 1
     257 00000000 480B              LDR       A1, $C$CON1           ; [DPU_3_PIPE] |139|  ; [ORIG 16-BIT INS]
     258 00000002 B510              PUSH      {V1, LR}              ; [DPU_3_PIPE]  ; [ORIG 16-BIT INS]
     259                            .dwcfi  cfa_offset, 8
     260                            .dwcfi  save_reg_to_mem, 14, -4
     261                            .dwcfi  save_reg_to_mem, 4, -8
     262 00000004 7802              LDRB      A3, [A1, #0]          ; [DPU_3_PIPE] |139|  ; [ORIG 16-BIT INS]
     263 00000006 290D              CMP       A2, #13               ; [DPU_3_PIPE] |139|  ; [ORIG 16-BIT INS]
     264 00000008 D004              BEQ       ||$C$L1||             ; [DPU_3_PIPE] |139|  ; [ORIG 16-BIT INS]
     265                            ; BRANCHCC OCCURS {||$C$L1||}    ; [] |139| 
     266                    ;* --------------------------------------------------------------------------*
     267                            .dwpsn  file "../Application/LaunchPad/board_key.c",line 143,column 10,is_stmt,isa 1
     268 0000000a 290E              CMP       A2, #14               ; [DPU_3_PIPE] |143|  ; [ORIG 16-BIT INS]
     269 0000000c D105              BNE       ||$C$L3||             ; [DPU_3_PIPE] |143|  ; [ORIG 16-BIT INS]
     270                            ; BRANCHCC OCCURS {||$C$L3||}    ; [] |143| 
     271                    ;* --------------------------------------------------------------------------*
     272                            .dwpsn  file "../Application/LaunchPad/board_key.c",line 145,column 9,is_stmt,isa 1
     273 0000000e 0210F042          ORR       A3, A3, #16           ; [DPU_3_PIPE] |145|  ; [KEEP 32-BIT INS]
     274 00000012 E001              B         ||$C$L2||             ; [DPU_3_PIPE] |145|  ; [ORIG 16-BIT INS]
     275                            ; BRANCH OCCURS {||$C$L2||}      ; [] |145| 
TI ARM Assembler PC v16.9.4 Sat Nov 18 18:46:18 2017

Tools Copyright (c) 1996-2017 Texas Instruments Incorporated
C:\Users\Kevin\AppData\Local\Temp\{5A8B501C-33CF-4805-A507-0ACBE2D1F927} PAGE    6

     276                    ;* --------------------------------------------------------------------------*
     277 00000014           ||$C$L1||:    
     278                            .dwpsn  file "../Application/LaunchPad/board_key.c",line 141,column 9,is_stmt,isa 1
     279 00000014 0208F042          ORR       A3, A3, #8            ; [DPU_3_PIPE] |141|  ; [KEEP 32-BIT INS]
     280                    ;* --------------------------------------------------------------------------*
     281 00000018           ||$C$L2||:    
     282 00000018 7002              STRB      A3, [A1, #0]          ; [DPU_3_PIPE] |141|  ; [ORIG 16-BIT INS]
     283                    ;* --------------------------------------------------------------------------*
     284 0000001a           ||$C$L3||:    
     285 0000001a 3024              ADDS      A1, A1, #36           ; [DPU_3_PIPE]  ; [ORIG 16-BIT INS]
     286                            .dwpsn  file "../Application/LaunchPad/board_key.c",line 148,column 5,is_stmt,isa 1
     287 0000001c 4604              MOV       V1, A1                ; [DPU_3_PIPE] |148|  ; [ORIG 16-BIT INS]
     288                    $C$DW$30        .dwtag  DW_TAG_TI_branch
     289                            .dwattr $C$DW$30, DW_AT_low_pc(0x00)
     290                            .dwattr $C$DW$30, DW_AT_name("Timer_isActive")
     291                            .dwattr $C$DW$30, DW_AT_TI_call
     292                    
     293 0000001e FFFEF7FF!         BL        Timer_isActive        ; [DPU_3_PIPE] |148|  ; [KEEP 32-BIT INS]
     294                            ; CALL OCCURS {Timer_isActive }  ; [] |148| 
     295 00000022 2801              CMP       A1, #1                ; [DPU_3_PIPE] |148|  ; [ORIG 16-BIT INS]
     296 00000024 D002              BEQ       ||$C$L4||             ; [DPU_3_PIPE] |148|  ; [ORIG 16-BIT INS]
     297                            ; BRANCHCC OCCURS {||$C$L4||}    ; [] |148| 
     298                    ;* --------------------------------------------------------------------------*
     299                            .dwpsn  file "../Application/LaunchPad/board_key.c",line 150,column 9,is_stmt,isa 1
     300 00000026 4620              MOV       A1, V1                ; [DPU_3_PIPE] |150|  ; [ORIG 16-BIT INS]
     301                    $C$DW$31        .dwtag  DW_TAG_TI_branch
     302                            .dwattr $C$DW$31, DW_AT_low_pc(0x00)
     303                            .dwattr $C$DW$31, DW_AT_name("Timer_start")
     304                            .dwattr $C$DW$31, DW_AT_TI_call
     305                    
     306 00000028 FFFEF7FF!         BL        Timer_start           ; [DPU_3_PIPE] |150|  ; [KEEP 32-BIT INS]
     307                            ; CALL OCCURS {Timer_start }     ; [] |150| 
     308                    ;* --------------------------------------------------------------------------*
     309                    ||$C$L4||:    
     310                    $C$DW$32        .dwtag  DW_TAG_TI_branch
     311                            .dwattr $C$DW$32, DW_AT_low_pc(0x00)
     312                            .dwattr $C$DW$32, DW_AT_TI_return
     313                    
     314 0000002c BD10              POP       {V1, PC}              ; [DPU_3_PIPE]  ; [ORIG 16-BIT INS]
     315                            .dwcfi  cfa_offset, 0
     316                            ; BRANCH OCCURS                  ; [] 
     317                            .dwattr $C$DW$26, DW_AT_TI_end_file("../Application/LaunchPad/board_key.c")
     318                            .dwattr $C$DW$26, DW_AT_TI_end_line(0x98)
     319                            .dwattr $C$DW$26, DW_AT_TI_end_column(0x01)
     320                            .dwendentry
     321                            .dwendtag $C$DW$26
     322                    
     323 00000000                   .sect   ".text:board_key_changeHandler"
     324                            .clink
     325                            .thumbfunc board_key_changeHandler
     326 00000000                   .thumb
     327                    
     328                    $C$DW$33        .dwtag  DW_TAG_subprogram
     329                            .dwattr $C$DW$33, DW_AT_name("board_key_changeHandler")
     330                            .dwattr $C$DW$33, DW_AT_low_pc(board_key_changeHandler)
TI ARM Assembler PC v16.9.4 Sat Nov 18 18:46:18 2017

Tools Copyright (c) 1996-2017 Texas Instruments Incorporated
C:\Users\Kevin\AppData\Local\Temp\{5A8B501C-33CF-4805-A507-0ACBE2D1F927} PAGE    7

     331                            .dwattr $C$DW$33, DW_AT_high_pc(0x00)
     332                            .dwattr $C$DW$33, DW_AT_TI_symbol_name("board_key_changeHandler")
     333                            .dwattr $C$DW$33, DW_AT_TI_begin_file("../Application/LaunchPad/board_key.c")
     334                            .dwattr $C$DW$33, DW_AT_TI_begin_line(0x9f)
     335                            .dwattr $C$DW$33, DW_AT_TI_begin_column(0x0d)
     336                            .dwattr $C$DW$33, DW_AT_decl_file("../Application/LaunchPad/board_key.c")
     337                            .dwattr $C$DW$33, DW_AT_decl_line(0x9f)
     338                            .dwattr $C$DW$33, DW_AT_decl_column(0x0d)
     339                            .dwattr $C$DW$33, DW_AT_TI_max_frame_size(0x08)
     340                            .dwpsn  file "../Application/LaunchPad/board_key.c",line 160,column 1,is_stmt,address board_ke
     341                    
     342                            .dwfde $C$DW$CIE, board_key_changeHandler
     343                    $C$DW$34        .dwtag  DW_TAG_formal_parameter
     344                            .dwattr $C$DW$34, DW_AT_name("a0")
     345                            .dwattr $C$DW$34, DW_AT_TI_symbol_name("a0")
     346                            .dwattr $C$DW$34, DW_AT_type(*$C$DW$T$612)
     347                            .dwattr $C$DW$34, DW_AT_location[DW_OP_reg0]
     348                    
     349                    
     350                    ;*****************************************************************************
     351                    ;* FUNCTION NAME: board_key_changeHandler                                    *
     352                    ;*                                                                           *
     353                    ;*   Regs Modified     : A1,A2,A3,A4,V1,V9,SP,LR,SR                          *
     354                    ;*   Regs Used         : A1,A2,A3,A4,V1,V9,SP,LR,SR                          *
     355                    ;*   Local Frame Size  : 0 Args + 0 Auto + 8 Save = 8 byte                   *
     356                    ;*****************************************************************************
     357 00000000           board_key_changeHandler:
     358                    ;* --------------------------------------------------------------------------*
     359                    ;* A2    assigned to $O$C1
     360                    ;* V1    assigned to $O$C2
     361                    ;* V1    assigned to $O$K2
     362                            .dwcfi  cfa_offset, 0
     363 00000000 B510              PUSH      {V1, LR}              ; [DPU_3_PIPE]  ; [ORIG 16-BIT INS]
     364                            .dwcfi  cfa_offset, 8
     365                            .dwcfi  save_reg_to_mem, 14, -4
     366                            .dwcfi  save_reg_to_mem, 4, -8
     367                            .dwpsn  file "../Application/LaunchPad/board_key.c",line 161,column 5,is_stmt,isa 1
     368 00000002 4C04              LDR       V1, $C$CON4           ; [DPU_3_PIPE] |161|  ; [ORIG 16-BIT INS]
     369 00000004 6861              LDR       A2, [V1, #4]          ; [DPU_3_PIPE] |161|  ; [ORIG 16-BIT INS]
     370 00000006 B119              CBZ       A2, ||$C$L5||         ; []  ; [ORIG 16-BIT INS]
     371                            ; BRANCHCC OCCURS {||$C$L5||}    ; [] |161| 
     372                    ;* --------------------------------------------------------------------------*
     373                            .dwpsn  file "../Application/LaunchPad/board_key.c",line 164,column 9,is_stmt,isa 1
     374 00000008 7820              LDRB      A1, [V1, #0]          ; [DPU_3_PIPE] |164|  ; [ORIG 16-BIT INS]
     375                    $C$DW$35        .dwtag  DW_TAG_TI_branch
     376                            .dwattr $C$DW$35, DW_AT_low_pc(0x00)
     377                            .dwattr $C$DW$35, DW_AT_TI_call
     378                            .dwattr $C$DW$35, DW_AT_TI_indirect
     379                    
     380 0000000a 4788              BLX       A2                    ; [DPU_3_PIPE] |164|  ; [ORIG 16-BIT INS]
     381                            ; CALL OCCURS {}                 ; [] |164| 
     382                            .dwpsn  file "../Application/LaunchPad/board_key.c",line 167,column 9,is_stmt,isa 1
     383 0000000c 2000              MOVS      A1, #0                ; [DPU_3_PIPE] |167|  ; [ORIG 16-BIT INS]
     384 0000000e 7020              STRB      A1, [V1, #0]          ; [DPU_3_PIPE] |167|  ; [ORIG 16-BIT INS]
     385                    ;* --------------------------------------------------------------------------*
TI ARM Assembler PC v16.9.4 Sat Nov 18 18:46:18 2017

Tools Copyright (c) 1996-2017 Texas Instruments Incorporated
C:\Users\Kevin\AppData\Local\Temp\{5A8B501C-33CF-4805-A507-0ACBE2D1F927} PAGE    8

     386                    ||$C$L5||:    
     387                    $C$DW$36        .dwtag  DW_TAG_TI_branch
     388                            .dwattr $C$DW$36, DW_AT_low_pc(0x00)
     389                            .dwattr $C$DW$36, DW_AT_TI_return
     390                    
     391 00000010 BD10              POP       {V1, PC}              ; [DPU_3_PIPE]  ; [ORIG 16-BIT INS]
     392                            .dwcfi  cfa_offset, 0
     393                            ; BRANCH OCCURS                  ; [] 
     394                            .dwattr $C$DW$33, DW_AT_TI_end_file("../Application/LaunchPad/board_key.c")
     395                            .dwattr $C$DW$33, DW_AT_TI_end_line(0xa9)
     396                            .dwattr $C$DW$33, DW_AT_TI_end_column(0x01)
     397                            .dwendentry
     398                            .dwendtag $C$DW$33
     399                    
     400 00000000                   .sect   ".text:Board_Key_initialize"
     401                            .clink
     402                            .thumbfunc Board_Key_initialize
     403 00000000                   .thumb
     404                            .global Board_Key_initialize
     405                    
     406                    $C$DW$37        .dwtag  DW_TAG_subprogram
     407                            .dwattr $C$DW$37, DW_AT_name("Board_Key_initialize")
     408                            .dwattr $C$DW$37, DW_AT_low_pc(Board_Key_initialize)
     409                            .dwattr $C$DW$37, DW_AT_high_pc(0x00)
     410                            .dwattr $C$DW$37, DW_AT_TI_symbol_name("Board_Key_initialize")
     411                            .dwattr $C$DW$37, DW_AT_external
     412                            .dwattr $C$DW$37, DW_AT_type(*$C$DW$T$144)
     413                            .dwattr $C$DW$37, DW_AT_TI_begin_file("../Application/LaunchPad/board_key.c")
     414                            .dwattr $C$DW$37, DW_AT_TI_begin_line(0x69)
     415                            .dwattr $C$DW$37, DW_AT_TI_begin_column(0x09)
     416                            .dwattr $C$DW$37, DW_AT_decl_file("../Application/LaunchPad/board_key.c")
     417                            .dwattr $C$DW$37, DW_AT_decl_line(0x69)
     418                            .dwattr $C$DW$37, DW_AT_decl_column(0x09)
     419                            .dwattr $C$DW$37, DW_AT_TI_max_frame_size(0x18)
     420                            .dwpsn  file "../Application/LaunchPad/board_key.c",line 106,column 1,is_stmt,address Board_Ke
     421                    
     422                            .dwfde $C$DW$CIE, Board_Key_initialize
     423                    $C$DW$38        .dwtag  DW_TAG_formal_parameter
     424                            .dwattr $C$DW$38, DW_AT_name("appKeyCB")
     425                            .dwattr $C$DW$38, DW_AT_TI_symbol_name("appKeyCB")
     426                            .dwattr $C$DW$38, DW_AT_type(*$C$DW$T$589)
     427                            .dwattr $C$DW$38, DW_AT_location[DW_OP_reg0]
     428                    
     429                    
     430                    ;*****************************************************************************
     431                    ;* FUNCTION NAME: Board_Key_initialize                                       *
     432                    ;*                                                                           *
     433                    ;*   Regs Modified     : A1,A2,A3,A4,V1,V2,V3,V9,SP,LR,SR                    *
     434                    ;*   Regs Used         : A1,A2,A3,A4,V1,V2,V3,V9,SP,LR,SR                    *
     435                    ;*   Local Frame Size  : 8 Args + 0 Auto + 16 Save = 24 byte                 *
     436                    ;*****************************************************************************
     437                    Board_Key_initialize:
     438                    ;* --------------------------------------------------------------------------*
     439                    ;* V1    assigned to $O$C16
     440                    ;* V1    assigned to $O$K3
TI ARM Assembler PC v16.9.4 Sat Nov 18 18:46:18 2017

Tools Copyright (c) 1996-2017 Texas Instruments Incorporated
C:\Users\Kevin\AppData\Local\Temp\{5A8B501C-33CF-4805-A507-0ACBE2D1F927} PAGE    9

     441                    ;* V3    assigned to appKeyCB
     442                    $C$DW$39        .dwtag  DW_TAG_variable
     443                            .dwattr $C$DW$39, DW_AT_name("appKeyCB")
     444                            .dwattr $C$DW$39, DW_AT_TI_symbol_name("appKeyCB")
     445                            .dwattr $C$DW$39, DW_AT_type(*$C$DW$T$590)
     446                            .dwattr $C$DW$39, DW_AT_location[DW_OP_reg6]
     447                    
     448                    ;* V2    assigned to keys
     449                    $C$DW$40        .dwtag  DW_TAG_variable
     450                            .dwattr $C$DW$40, DW_AT_name("keys")
     451                            .dwattr $C$DW$40, DW_AT_TI_symbol_name("keys")
     452                            .dwattr $C$DW$40, DW_AT_type(*$C$DW$T$10)
     453                            .dwattr $C$DW$40, DW_AT_location[DW_OP_reg5]
     454                    
     455                            .dwcfi  cfa_offset, 0
     456 00000000 B57C              PUSH      {A3, A4, V1, V2, V3, LR} ; [DPU_3_PIPE]  ; [ORIG 16-BIT INS]
     457                            .dwcfi  cfa_offset, 24
     458                            .dwcfi  save_reg_to_mem, 14, -4
     459                            .dwcfi  save_reg_to_mem, 6, -8
     460                            .dwcfi  save_reg_to_mem, 5, -12
     461                            .dwcfi  save_reg_to_mem, 4, -16
     462                            .dwcfi  save_reg_to_mem, 3, -20
     463                            .dwcfi  save_reg_to_mem, 2, -24
     464                            .dwpsn  file "../Application/LaunchPad/board_key.c",line 110,column 5,is_stmt,isa 1
     465 00000002 4C13              LDR       V1, $C$CON5           ; [DPU_3_PIPE] |110|  ; [ORIG 16-BIT INS]
     466                            .dwpsn  file "../Application/LaunchPad/board_key.c",line 106,column 1,is_stmt,isa 1
     467 00000004 4606              MOV       V3, A1                ; [DPU_3_PIPE] |106|  ; [ORIG 16-BIT INS]
     468 00000006 010CF104          ADD       A2, V1, #12           ; [DPU_3_PIPE]  ; [KEEP 32-BIT INS]
     469 0000000a 0018F104          ADD       A1, V1, #24           ; [DPU_3_PIPE]  ; [KEEP 32-BIT INS]
     470                            .dwpsn  file "../Application/LaunchPad/board_key.c",line 110,column 5,is_stmt,isa 1
     471                    $C$DW$41        .dwtag  DW_TAG_TI_branch
     472                            .dwattr $C$DW$41, DW_AT_low_pc(0x00)
     473                            .dwattr $C$DW$41, DW_AT_name("PIN_open")
     474                            .dwattr $C$DW$41, DW_AT_TI_call
     475                    
     476 0000000e FFFEF7FF!         BL        PIN_open              ; [DPU_3_PIPE] |110|  ; [KEEP 32-BIT INS]
     477                            ; CALL OCCURS {PIN_open }        ; [] |110| 
     478 00000012 60A0              STR       A1, [V1, #8]          ; [DPU_3_PIPE] |110|  ; [ORIG 16-BIT INS]
     479                            .dwpsn  file "../Application/LaunchPad/board_key.c",line 180,column 5,is_stmt,isa 1
     480 00000014 200D              MOVS      A1, #13               ; [DPU_3_PIPE] |180|  ; [ORIG 16-BIT INS]
     481                    $C$DW$42        .dwtag  DW_TAG_TI_branch
     482                            .dwattr $C$DW$42, DW_AT_low_pc(0x00)
     483                            .dwattr $C$DW$42, DW_AT_name("PIN_getInputValue")
     484                            .dwattr $C$DW$42, DW_AT_TI_call
     485                    
     486 00000016 FFFEF7FF!         BL        PIN_getInputValue     ; [DPU_3_PIPE] |180|  ; [KEEP 32-BIT INS]
     487                            ; CALL OCCURS {PIN_getInputValue }  ; [] |180| 
     488 0000001a 2800              CMP       A1, #0                ; [DPU_3_PIPE] |180|  ; [ORIG 16-BIT INS]
     489 0000001c BF0C              ITE       EQ                    ; [DPU_3_PIPE]  ; [ORIG 16-BIT INS]
     490                            .dwpsn  file "../Application/LaunchPad/board_key.c",line 182,column 9,is_stmt,isa 1
     491 0000001e 2508              MOVEQ     V2, #8                ; [DPU_3_PIPE] |182|  ; [ORIG 16-BIT INS]
     492                            .dwpsn  file "../Application/LaunchPad/board_key.c",line 178,column 18,is_stmt,isa 1
     493 00000020 2500              MOVNE     V2, #0                ; [DPU_3_PIPE] |178|  ; [ORIG 16-BIT INS]
     494                            .dwpsn  file "../Application/LaunchPad/board_key.c",line 185,column 5,is_stmt,isa 1
     495 00000022 200E              MOVS      A1, #14               ; [DPU_3_PIPE] |185|  ; [ORIG 16-BIT INS]
TI ARM Assembler PC v16.9.4 Sat Nov 18 18:46:18 2017

Tools Copyright (c) 1996-2017 Texas Instruments Incorporated
C:\Users\Kevin\AppData\Local\Temp\{5A8B501C-33CF-4805-A507-0ACBE2D1F927} PAGE   10

     496                    $C$DW$43        .dwtag  DW_TAG_TI_branch
     497                            .dwattr $C$DW$43, DW_AT_low_pc(0x00)
     498                            .dwattr $C$DW$43, DW_AT_name("PIN_getInputValue")
     499                            .dwattr $C$DW$43, DW_AT_TI_call
     500                    
     501 00000024 FFFEF7FF!         BL        PIN_getInputValue     ; [DPU_3_PIPE] |185|  ; [KEEP 32-BIT INS]
     502                            ; CALL OCCURS {PIN_getInputValue }  ; [] |185| 
     503 00000028 B908              CBNZ      A1, ||$C$L6||         ; []  ; [ORIG 16-BIT INS]
     504                            .dwpsn  file "../Application/LaunchPad/board_key.c",line 187,column 9,is_stmt,isa 1
     505 0000002a 0510F045          ORR       V2, V2, #16           ; [DPU_3_PIPE] |187|  ; [KEEP 32-BIT INS]
     506                    ;* --------------------------------------------------------------------------*
     507 0000002e           ||$C$L6||:    
     508                            .dwpsn  file "../Application/LaunchPad/board_key.c",line 116,column 5,is_stmt,isa 1
     509 0000002e 4909              LDR       A2, $C$CON6           ; [DPU_3_PIPE] |116|  ; [ORIG 16-BIT INS]
     510 00000030 68A0              LDR       A1, [V1, #8]          ; [DPU_3_PIPE] |116|  ; [ORIG 16-BIT INS]
     511                    $C$DW$44        .dwtag  DW_TAG_TI_branch
     512                            .dwattr $C$DW$44, DW_AT_low_pc(0x00)
     513                            .dwattr $C$DW$44, DW_AT_name("PIN_registerIntCb")
     514                            .dwattr $C$DW$44, DW_AT_TI_call
     515                    
     516 00000032 FFFEF7FF!         BL        PIN_registerIntCb     ; [DPU_3_PIPE] |116|  ; [KEEP 32-BIT INS]
     517                            ; CALL OCCURS {PIN_registerIntCb }  ; [] |116| 
     518                            .dwpsn  file "../Application/LaunchPad/board_key.c",line 119,column 5,is_stmt,isa 1
     519 00000036 2300              MOVS      A4, #0                ; [DPU_3_PIPE] |119|  ; [ORIG 16-BIT INS]
     520 00000038 22C8              MOVS      A3, #200              ; [DPU_3_PIPE] |119|  ; [ORIG 16-BIT INS]
     521 0000003a 4907              LDR       A2, $C$CON7           ; [DPU_3_PIPE] |119|  ; [ORIG 16-BIT INS]
     522 0000003c 9300              STR       A4, [SP, #0]          ; [DPU_3_PIPE] |119|  ; [ORIG 16-BIT INS]
     523 0000003e 0024F104          ADD       A1, V1, #36           ; [DPU_3_PIPE]  ; [KEEP 32-BIT INS]
     524 00000042 9301              STR       A4, [SP, #4]          ; [DPU_3_PIPE] |119|  ; [ORIG 16-BIT INS]
     525                    $C$DW$45        .dwtag  DW_TAG_TI_branch
     526                            .dwattr $C$DW$45, DW_AT_low_pc(0x00)
     527                            .dwattr $C$DW$45, DW_AT_name("Timer_construct")
     528                            .dwattr $C$DW$45, DW_AT_TI_call
     529                    
     530 00000044 FFFEF7FF!         BL        Timer_construct       ; [DPU_3_PIPE] |119|  ; [KEEP 32-BIT INS]
     531                            ; CALL OCCURS {Timer_construct }  ; [] |119| 
     532                            .dwpsn  file "../Application/LaunchPad/board_key.c",line 124,column 5,is_stmt,isa 1
     533 00000048 6066              STR       V3, [V1, #4]          ; [DPU_3_PIPE] |124|  ; [ORIG 16-BIT INS]
     534                            .dwpsn  file "../Application/LaunchPad/board_key.c",line 126,column 5,is_stmt,isa 1
     535 0000004a 4628              MOV       A1, V2                ; [DPU_3_PIPE] |126|  ; [ORIG 16-BIT INS]
     536                    $C$DW$46        .dwtag  DW_TAG_TI_branch
     537                            .dwattr $C$DW$46, DW_AT_low_pc(0x00)
     538                            .dwattr $C$DW$46, DW_AT_TI_return
     539                    
     540 0000004c BD7C              POP       {A3, A4, V1, V2, V3, PC} ; [DPU_3_PIPE]  ; [ORIG 16-BIT INS]
     541                            .dwcfi  cfa_offset, 0
     542                            ; BRANCH OCCURS                  ; [] 
     543                            .dwattr $C$DW$37, DW_AT_TI_end_file("../Application/LaunchPad/board_key.c")
     544                            .dwattr $C$DW$37, DW_AT_TI_end_line(0x7f)
     545                            .dwattr $C$DW$37, DW_AT_TI_end_column(0x01)
     546                            .dwendentry
     547                            .dwendtag $C$DW$37
     548                    
     549                    ;******************************************************************************
     550                    ;* CONSTANT TABLE                                                             *
TI ARM Assembler PC v16.9.4 Sat Nov 18 18:46:18 2017

Tools Copyright (c) 1996-2017 Texas Instruments Incorporated
C:\Users\Kevin\AppData\Local\Temp\{5A8B501C-33CF-4805-A507-0ACBE2D1F927} PAGE   11

     551                    ;******************************************************************************
     552 0000002e                   .sect   ".text:board_key_keyFxn"
     553                            .align  4
     554 0000002e 000046C0! ||$C$CON1||:    .bits   ||$O1$$||,32
         00000032 00000000 
     555                    ;******************************************************************************
     556                    ;* CONSTANT TABLE                                                             *
     557                    ;******************************************************************************
     558 00000012                   .sect   ".text:board_key_changeHandler"
     559                            .align  4
     560 00000012 000046C0! ||$C$CON4||:    .bits   ||$O1$$||,32
         00000016 00000000 
     561                    ;******************************************************************************
     562                    ;* CONSTANT TABLE                                                             *
     563                    ;******************************************************************************
     564 0000004e                   .sect   ".text:Board_Key_initialize"
     565                            .align  4
     566 0000004e 000046C0! ||$C$CON5||:    .bits   ||$O1$$||,32
         00000052 00000000 
     567                            .align  4
     568 00000052 00000000! ||$C$CON6||:    .bits   board_key_keyFxn,32
         00000056 00000000 
     569                            .align  4
     570 00000056 00000000! ||$C$CON7||:    .bits   board_key_changeHandler,32
         0000005a 00000000 
     571                    ;*****************************************************************************
     572                    ;* UNDEFINED EXTERNAL REFERENCES                                             *
     573                    ;*****************************************************************************
     574                            .global Timer_construct
     575                            .global Timer_start
     576                            .global Timer_isActive
     577                            .global PIN_open
     578                            .global PIN_getInputValue
     579                            .global PIN_registerIntCb
     580                    
     581                    ;******************************************************************************
     582                    ;* BUILD ATTRIBUTES                                                           *
     583                    ;******************************************************************************
     584                            .battr "aeabi", Tag_File, 1, Tag_ABI_PCS_wchar_t(2)
     585                            .battr "aeabi", Tag_File, 1, Tag_ABI_FP_rounding(0)
     586                            .battr "aeabi", Tag_File, 1, Tag_ABI_FP_denormal(0)
     587                            .battr "aeabi", Tag_File, 1, Tag_ABI_FP_exceptions(0)
     588                            .battr "aeabi", Tag_File, 1, Tag_ABI_FP_number_model(1)
     589                            .battr "aeabi", Tag_File, 1, Tag_ABI_enum_size(1)
     590                            .battr "aeabi", Tag_File, 1, Tag_ABI_optimization_goals(0)
     591                            .battr "aeabi", Tag_File, 1, Tag_ABI_FP_optimization_goals(0)
     592                            .battr "TI", Tag_File, 1, Tag_Bitfield_layout(2)
     593                            .battr "aeabi", Tag_File, 1, Tag_ABI_VFP_args(3)
     594                            .battr "TI", Tag_File, 1, Tag_FP_interface(1)
     595                    
     596                    ;******************************************************************************
     597                    ;* TYPE INFORMATION                                                           *
     598                    ;******************************************************************************
     599                    
     600                    $C$DW$T$480     .dwtag  DW_TAG_enumeration_type
TI ARM Assembler PC v16.9.4 Sat Nov 18 18:46:18 2017

Tools Copyright (c) 1996-2017 Texas Instruments Incorporated
C:\Users\Kevin\AppData\Local\Temp\{5A8B501C-33CF-4805-A507-0ACBE2D1F927} PAGE   12

     601                            .dwattr $C$DW$T$480, DW_AT_byte_size(0x01)
     602                    $C$DW$47        .dwtag  DW_TAG_enumerator
     603                            .dwattr $C$DW$47, DW_AT_name("PIN_SUCCESS")
     604                            .dwattr $C$DW$47, DW_AT_const_value(0x00)
     605                            .dwattr $C$DW$47, DW_AT_decl_file("C:/ti/simplelink_cc13x0_sdk_1_50_00_08/source/ti/drivers/PI
     606                            .dwattr $C$DW$47, DW_AT_decl_line(0x2b2)
     607                            .dwattr $C$DW$47, DW_AT_decl_column(0x05)
     608                    
     609                    $C$DW$48        .dwtag  DW_TAG_enumerator
     610                            .dwattr $C$DW$48, DW_AT_name("PIN_ALREADY_ALLOCATED")
     611                            .dwattr $C$DW$48, DW_AT_const_value(0x01)
     612                            .dwattr $C$DW$48, DW_AT_decl_file("C:/ti/simplelink_cc13x0_sdk_1_50_00_08/source/ti/drivers/PI
     613                            .dwattr $C$DW$48, DW_AT_decl_line(0x2b3)
     614                            .dwattr $C$DW$48, DW_AT_decl_column(0x05)
     615                    
     616                    $C$DW$49        .dwtag  DW_TAG_enumerator
     617                            .dwattr $C$DW$49, DW_AT_name("PIN_NO_ACCESS")
     618                            .dwattr $C$DW$49, DW_AT_const_value(0x02)
     619                            .dwattr $C$DW$49, DW_AT_decl_file("C:/ti/simplelink_cc13x0_sdk_1_50_00_08/source/ti/drivers/PI
     620                            .dwattr $C$DW$49, DW_AT_decl_line(0x2b4)
     621                            .dwattr $C$DW$49, DW_AT_decl_column(0x05)
     622                    
     623                    $C$DW$50        .dwtag  DW_TAG_enumerator
     624                            .dwattr $C$DW$50, DW_AT_name("PIN_UNSUPPORTED")
     625                            .dwattr $C$DW$50, DW_AT_const_value(0x03)
     626                            .dwattr $C$DW$50, DW_AT_decl_file("C:/ti/simplelink_cc13x0_sdk_1_50_00_08/source/ti/drivers/PI
     627                            .dwattr $C$DW$50, DW_AT_decl_line(0x2b5)
     628                            .dwattr $C$DW$50, DW_AT_decl_column(0x05)
     629                    
     630                            .dwattr $C$DW$T$480, DW_AT_decl_file("C:/ti/simplelink_cc13x0_sdk_1_50_00_08/source/ti/drivers
     631                            .dwattr $C$DW$T$480, DW_AT_decl_line(0x2b1)
     632                            .dwattr $C$DW$T$480, DW_AT_decl_column(0x0e)
     633                            .dwendtag $C$DW$T$480
     634                    
     635                    $C$DW$T$481     .dwtag  DW_TAG_typedef
     636                            .dwattr $C$DW$T$481, DW_AT_name("PIN_Status")
     637                            .dwattr $C$DW$T$481, DW_AT_type(*$C$DW$T$480)
     638                            .dwattr $C$DW$T$481, DW_AT_language(DW_LANG_C)
     639                            .dwattr $C$DW$T$481, DW_AT_decl_file("C:/ti/simplelink_cc13x0_sdk_1_50_00_08/source/ti/drivers
     640                            .dwattr $C$DW$T$481, DW_AT_decl_line(0x2b6)
     641                            .dwattr $C$DW$T$481, DW_AT_decl_column(0x03)
     642                    
     643                    
     644                    $C$DW$T$139     .dwtag  DW_TAG_structure_type
     645                            .dwattr $C$DW$T$139, DW_AT_byte_size(0x08)
     646                    $C$DW$51        .dwtag  DW_TAG_member
     647                            .dwattr $C$DW$51, DW_AT_type(*$C$DW$T$10)
     648                            .dwattr $C$DW$51, DW_AT_name("length")
     649                            .dwattr $C$DW$51, DW_AT_TI_symbol_name("length")
     650                            .dwattr $C$DW$51, DW_AT_data_member_location[DW_OP_plus_uconst 0x0]
     651                            .dwattr $C$DW$51, DW_AT_accessibility(DW_ACCESS_public)
     652                            .dwattr $C$DW$51, DW_AT_decl_file("C:/ti/simplelink_cc13x0_sdk_1_50_00_08/kernel/tirtos/packag
     653                            .dwattr $C$DW$51, DW_AT_decl_line(0x165)
     654                            .dwattr $C$DW$51, DW_AT_decl_column(0x16)
     655                    
TI ARM Assembler PC v16.9.4 Sat Nov 18 18:46:18 2017

Tools Copyright (c) 1996-2017 Texas Instruments Incorporated
C:\Users\Kevin\AppData\Local\Temp\{5A8B501C-33CF-4805-A507-0ACBE2D1F927} PAGE   13

     656                    $C$DW$52        .dwtag  DW_TAG_member
     657                            .dwattr $C$DW$52, DW_AT_type(*$C$DW$T$138)
     658                            .dwattr $C$DW$52, DW_AT_name("elem")
     659                            .dwattr $C$DW$52, DW_AT_TI_symbol_name("elem")
     660                            .dwattr $C$DW$52, DW_AT_data_member_location[DW_OP_plus_uconst 0x4]
     661                            .dwattr $C$DW$52, DW_AT_accessibility(DW_ACCESS_public)
     662                            .dwattr $C$DW$52, DW_AT_decl_file("C:/ti/simplelink_cc13x0_sdk_1_50_00_08/kernel/tirtos/packag
     663                            .dwattr $C$DW$52, DW_AT_decl_line(0x165)
     664                            .dwattr $C$DW$52, DW_AT_decl_column(0x3a)
     665                    
     666                            .dwattr $C$DW$T$139, DW_AT_decl_file("C:/ti/simplelink_cc13x0_sdk_1_50_00_08/kernel/tirtos/pac
     667                            .dwattr $C$DW$T$139, DW_AT_decl_line(0x165)
     668                            .dwattr $C$DW$T$139, DW_AT_decl_column(0x10)
     669                            .dwendtag $C$DW$T$139
     670                    
     671                    $C$DW$T$485     .dwtag  DW_TAG_typedef
     672                            .dwattr $C$DW$T$485, DW_AT_name("__ARRAY1_ti_sysbios_knl_Swi_hooks")
     673                            .dwattr $C$DW$T$485, DW_AT_type(*$C$DW$T$139)
     674                            .dwattr $C$DW$T$485, DW_AT_language(DW_LANG_C)
     675                            .dwattr $C$DW$T$485, DW_AT_decl_file("C:/ti/simplelink_cc13x0_sdk_1_50_00_08/kernel/tirtos/pac
     676                            .dwattr $C$DW$T$485, DW_AT_decl_line(0x165)
     677                            .dwattr $C$DW$T$485, DW_AT_decl_column(0x42)
     678                    
     679                    
     680                    $C$DW$T$142     .dwtag  DW_TAG_structure_type
     681                            .dwattr $C$DW$T$142, DW_AT_byte_size(0x08)
     682                    $C$DW$53        .dwtag  DW_TAG_member
     683                            .dwattr $C$DW$53, DW_AT_type(*$C$DW$T$10)
     684                            .dwattr $C$DW$53, DW_AT_name("length")
     685                            .dwattr $C$DW$53, DW_AT_TI_symbol_name("length")
     686                            .dwattr $C$DW$53, DW_AT_data_member_location[DW_OP_plus_uconst 0x0]
     687                            .dwattr $C$DW$53, DW_AT_accessibility(DW_ACCESS_public)
     688                            .dwattr $C$DW$53, DW_AT_decl_file("C:/ti/simplelink_cc13x0_sdk_1_50_00_08/kernel/tirtos/packag
     689                            .dwattr $C$DW$53, DW_AT_decl_line(0x166)
     690                            .dwattr $C$DW$53, DW_AT_decl_column(0x16)
     691                    
     692                    $C$DW$54        .dwtag  DW_TAG_member
     693                            .dwattr $C$DW$54, DW_AT_type(*$C$DW$T$141)
     694                            .dwattr $C$DW$54, DW_AT_name("elem")
     695                            .dwattr $C$DW$54, DW_AT_TI_symbol_name("elem")
     696                            .dwattr $C$DW$54, DW_AT_data_member_location[DW_OP_plus_uconst 0x4]
     697                            .dwattr $C$DW$54, DW_AT_accessibility(DW_ACCESS_public)
     698                            .dwattr $C$DW$54, DW_AT_decl_file("C:/ti/simplelink_cc13x0_sdk_1_50_00_08/kernel/tirtos/packag
     699                            .dwattr $C$DW$54, DW_AT_decl_line(0x166)
     700                            .dwattr $C$DW$54, DW_AT_decl_column(0x40)
     701                    
     702                            .dwattr $C$DW$T$142, DW_AT_decl_file("C:/ti/simplelink_cc13x0_sdk_1_50_00_08/kernel/tirtos/pac
     703                            .dwattr $C$DW$T$142, DW_AT_decl_line(0x166)
     704                            .dwattr $C$DW$T$142, DW_AT_decl_column(0x10)
     705                            .dwendtag $C$DW$T$142
     706                    
     707                    $C$DW$T$486     .dwtag  DW_TAG_typedef
     708                            .dwattr $C$DW$T$486, DW_AT_name("__CARRAY1_ti_sysbios_knl_Swi_hooks")
     709                            .dwattr $C$DW$T$486, DW_AT_type(*$C$DW$T$142)
     710                            .dwattr $C$DW$T$486, DW_AT_language(DW_LANG_C)
TI ARM Assembler PC v16.9.4 Sat Nov 18 18:46:18 2017

Tools Copyright (c) 1996-2017 Texas Instruments Incorporated
C:\Users\Kevin\AppData\Local\Temp\{5A8B501C-33CF-4805-A507-0ACBE2D1F927} PAGE   14

     711                            .dwattr $C$DW$T$486, DW_AT_decl_file("C:/ti/simplelink_cc13x0_sdk_1_50_00_08/kernel/tirtos/pac
     712                            .dwattr $C$DW$T$486, DW_AT_decl_line(0x166)
     713                            .dwattr $C$DW$T$486, DW_AT_decl_column(0x48)
     714                    
     715                    $C$DW$T$487     .dwtag  DW_TAG_typedef
     716                            .dwattr $C$DW$T$487, DW_AT_name("CT__ti_sysbios_knl_Swi_hooks")
     717                            .dwattr $C$DW$T$487, DW_AT_type(*$C$DW$T$486)
     718                            .dwattr $C$DW$T$487, DW_AT_language(DW_LANG_C)
     719                            .dwattr $C$DW$T$487, DW_AT_decl_file("C:/ti/simplelink_cc13x0_sdk_1_50_00_08/kernel/tirtos/pac
     720                            .dwattr $C$DW$T$487, DW_AT_decl_line(0x168)
     721                            .dwattr $C$DW$T$487, DW_AT_decl_column(0x2c)
     722                    
     723                    $C$DW$T$488     .dwtag  DW_TAG_typedef
     724                            .dwattr $C$DW$T$488, DW_AT_name("__TA_ti_sysbios_knl_Swi_hooks")
     725                            .dwattr $C$DW$T$488, DW_AT_type(*$C$DW$T$486)
     726                            .dwattr $C$DW$T$488, DW_AT_language(DW_LANG_C)
     727                            .dwattr $C$DW$T$488, DW_AT_decl_file("C:/ti/simplelink_cc13x0_sdk_1_50_00_08/kernel/tirtos/pac
     728                            .dwattr $C$DW$T$488, DW_AT_decl_line(0x167)
     729                            .dwattr $C$DW$T$488, DW_AT_decl_column(0x2c)
     730                    
     731                    
     732                    $C$DW$T$184     .dwtag  DW_TAG_structure_type
     733                            .dwattr $C$DW$T$184, DW_AT_byte_size(0x4c)
     734                    $C$DW$55        .dwtag  DW_TAG_member
     735                            .dwattr $C$DW$55, DW_AT_type(*$C$DW$T$148)
     736                            .dwattr $C$DW$55, DW_AT_name("Crc32")
     737                            .dwattr $C$DW$55, DW_AT_TI_symbol_name("Crc32")
     738                            .dwattr $C$DW$55, DW_AT_data_member_location[DW_OP_plus_uconst 0x0]
     739                            .dwattr $C$DW$55, DW_AT_accessibility(DW_ACCESS_public)
     740                            .dwattr $C$DW$55, DW_AT_decl_file("C:\ti\simplelink_cc13x0_sdk_1_50_00_08\source\ti\devices\cc
     741                            .dwattr $C$DW$55, DW_AT_decl_line(0x76)
     742                            .dwattr $C$DW$55, DW_AT_decl_column(0x25)
     743                    
     744                    $C$DW$56        .dwtag  DW_TAG_member
     745                            .dwattr $C$DW$56, DW_AT_type(*$C$DW$T$151)
     746                            .dwattr $C$DW$56, DW_AT_name("FlashGetSize")
     747                            .dwattr $C$DW$56, DW_AT_TI_symbol_name("FlashGetSize")
     748                            .dwattr $C$DW$56, DW_AT_data_member_location[DW_OP_plus_uconst 0x4]
     749                            .dwattr $C$DW$56, DW_AT_accessibility(DW_ACCESS_public)
     750                            .dwattr $C$DW$56, DW_AT_decl_file("C:\ti\simplelink_cc13x0_sdk_1_50_00_08\source\ti\devices\cc
     751                            .dwattr $C$DW$56, DW_AT_decl_line(0x77)
     752                            .dwattr $C$DW$56, DW_AT_decl_column(0x25)
     753                    
     754                    $C$DW$57        .dwtag  DW_TAG_member
     755                            .dwattr $C$DW$57, DW_AT_type(*$C$DW$T$152)
     756                            .dwattr $C$DW$57, DW_AT_name("GetChipId")
     757                            .dwattr $C$DW$57, DW_AT_TI_symbol_name("GetChipId")
     758                            .dwattr $C$DW$57, DW_AT_data_member_location[DW_OP_plus_uconst 0x8]
     759                            .dwattr $C$DW$57, DW_AT_accessibility(DW_ACCESS_public)
     760                            .dwattr $C$DW$57, DW_AT_decl_file("C:\ti\simplelink_cc13x0_sdk_1_50_00_08\source\ti\devices\cc
     761                            .dwattr $C$DW$57, DW_AT_decl_line(0x78)
     762                            .dwattr $C$DW$57, DW_AT_decl_column(0x25)
     763                    
     764                    $C$DW$58        .dwtag  DW_TAG_member
     765                            .dwattr $C$DW$58, DW_AT_type(*$C$DW$T$155)
TI ARM Assembler PC v16.9.4 Sat Nov 18 18:46:18 2017

Tools Copyright (c) 1996-2017 Texas Instruments Incorporated
C:\Users\Kevin\AppData\Local\Temp\{5A8B501C-33CF-4805-A507-0ACBE2D1F927} PAGE   15

     766                            .dwattr $C$DW$58, DW_AT_name("ReservedLocation1")
     767                            .dwattr $C$DW$58, DW_AT_TI_symbol_name("ReservedLocation1")
     768                            .dwattr $C$DW$58, DW_AT_data_member_location[DW_OP_plus_uconst 0xc]
     769                            .dwattr $C$DW$58, DW_AT_accessibility(DW_ACCESS_public)
     770                            .dwattr $C$DW$58, DW_AT_decl_file("C:\ti\simplelink_cc13x0_sdk_1_50_00_08\source\ti\devices\cc
     771                            .dwattr $C$DW$58, DW_AT_decl_line(0x79)
     772                            .dwattr $C$DW$58, DW_AT_decl_column(0x25)
     773                    
     774                    $C$DW$59        .dwtag  DW_TAG_member
     775                            .dwattr $C$DW$59, DW_AT_type(*$C$DW$T$156)
     776                            .dwattr $C$DW$59, DW_AT_name("ReservedLocation2")
     777                            .dwattr $C$DW$59, DW_AT_TI_symbol_name("ReservedLocation2")
     778                            .dwattr $C$DW$59, DW_AT_data_member_location[DW_OP_plus_uconst 0x10]
     779                            .dwattr $C$DW$59, DW_AT_accessibility(DW_ACCESS_public)
     780                            .dwattr $C$DW$59, DW_AT_decl_file("C:\ti\simplelink_cc13x0_sdk_1_50_00_08\source\ti\devices\cc
     781                            .dwattr $C$DW$59, DW_AT_decl_line(0x7a)
     782                            .dwattr $C$DW$59, DW_AT_decl_column(0x25)
     783                    
     784                    $C$DW$60        .dwtag  DW_TAG_member
     785                            .dwattr $C$DW$60, DW_AT_type(*$C$DW$T$157)
     786                            .dwattr $C$DW$60, DW_AT_name("ReservedLocation3")
     787                            .dwattr $C$DW$60, DW_AT_TI_symbol_name("ReservedLocation3")
     788                            .dwattr $C$DW$60, DW_AT_data_member_location[DW_OP_plus_uconst 0x14]
     789                            .dwattr $C$DW$60, DW_AT_accessibility(DW_ACCESS_public)
     790                            .dwattr $C$DW$60, DW_AT_decl_file("C:\ti\simplelink_cc13x0_sdk_1_50_00_08\source\ti\devices\cc
     791                            .dwattr $C$DW$60, DW_AT_decl_line(0x7b)
     792                            .dwattr $C$DW$60, DW_AT_decl_column(0x25)
     793                    
     794                    $C$DW$61        .dwtag  DW_TAG_member
     795                            .dwattr $C$DW$61, DW_AT_type(*$C$DW$T$160)
     796                            .dwattr $C$DW$61, DW_AT_name("ResetDevice")
     797                            .dwattr $C$DW$61, DW_AT_TI_symbol_name("ResetDevice")
     798                            .dwattr $C$DW$61, DW_AT_data_member_location[DW_OP_plus_uconst 0x18]
     799                            .dwattr $C$DW$61, DW_AT_accessibility(DW_ACCESS_public)
     800                            .dwattr $C$DW$61, DW_AT_decl_file("C:\ti\simplelink_cc13x0_sdk_1_50_00_08\source\ti\devices\cc
     801                            .dwattr $C$DW$61, DW_AT_decl_line(0x7c)
     802                            .dwattr $C$DW$61, DW_AT_decl_column(0x25)
     803                    
     804                    $C$DW$62        .dwtag  DW_TAG_member
     805                            .dwattr $C$DW$62, DW_AT_type(*$C$DW$T$165)
     806                            .dwattr $C$DW$62, DW_AT_name("Fletcher32")
     807                            .dwattr $C$DW$62, DW_AT_TI_symbol_name("Fletcher32")
     808                            .dwattr $C$DW$62, DW_AT_data_member_location[DW_OP_plus_uconst 0x1c]
     809                            .dwattr $C$DW$62, DW_AT_accessibility(DW_ACCESS_public)
     810                            .dwattr $C$DW$62, DW_AT_decl_file("C:\ti\simplelink_cc13x0_sdk_1_50_00_08\source\ti\devices\cc
     811                            .dwattr $C$DW$62, DW_AT_decl_line(0x7d)
     812                            .dwattr $C$DW$62, DW_AT_decl_column(0x25)
     813                    
     814                    $C$DW$63        .dwtag  DW_TAG_member
     815                            .dwattr $C$DW$63, DW_AT_type(*$C$DW$T$169)
     816                            .dwattr $C$DW$63, DW_AT_name("MinValue")
     817                            .dwattr $C$DW$63, DW_AT_TI_symbol_name("MinValue")
     818                            .dwattr $C$DW$63, DW_AT_data_member_location[DW_OP_plus_uconst 0x20]
     819                            .dwattr $C$DW$63, DW_AT_accessibility(DW_ACCESS_public)
     820                            .dwattr $C$DW$63, DW_AT_decl_file("C:\ti\simplelink_cc13x0_sdk_1_50_00_08\source\ti\devices\cc
TI ARM Assembler PC v16.9.4 Sat Nov 18 18:46:18 2017

Tools Copyright (c) 1996-2017 Texas Instruments Incorporated
C:\Users\Kevin\AppData\Local\Temp\{5A8B501C-33CF-4805-A507-0ACBE2D1F927} PAGE   16

     821                            .dwattr $C$DW$63, DW_AT_decl_line(0x7e)
     822                            .dwattr $C$DW$63, DW_AT_decl_column(0x25)
     823                    
     824                    $C$DW$64        .dwtag  DW_TAG_member
     825                            .dwattr $C$DW$64, DW_AT_type(*$C$DW$T$170)
     826                            .dwattr $C$DW$64, DW_AT_name("MaxValue")
     827                            .dwattr $C$DW$64, DW_AT_TI_symbol_name("MaxValue")
     828                            .dwattr $C$DW$64, DW_AT_data_member_location[DW_OP_plus_uconst 0x24]
     829                            .dwattr $C$DW$64, DW_AT_accessibility(DW_ACCESS_public)
     830                            .dwattr $C$DW$64, DW_AT_decl_file("C:\ti\simplelink_cc13x0_sdk_1_50_00_08\source\ti\devices\cc
     831                            .dwattr $C$DW$64, DW_AT_decl_line(0x7f)
     832                            .dwattr $C$DW$64, DW_AT_decl_column(0x25)
     833                    
     834                    $C$DW$65        .dwtag  DW_TAG_member
     835                            .dwattr $C$DW$65, DW_AT_type(*$C$DW$T$171)
     836                            .dwattr $C$DW$65, DW_AT_name("MeanValue")
     837                            .dwattr $C$DW$65, DW_AT_TI_symbol_name("MeanValue")
     838                            .dwattr $C$DW$65, DW_AT_data_member_location[DW_OP_plus_uconst 0x28]
     839                            .dwattr $C$DW$65, DW_AT_accessibility(DW_ACCESS_public)
     840                            .dwattr $C$DW$65, DW_AT_decl_file("C:\ti\simplelink_cc13x0_sdk_1_50_00_08\source\ti\devices\cc
     841                            .dwattr $C$DW$65, DW_AT_decl_line(0x80)
     842                            .dwattr $C$DW$65, DW_AT_decl_column(0x25)
     843                    
     844                    $C$DW$66        .dwtag  DW_TAG_member
     845                            .dwattr $C$DW$66, DW_AT_type(*$C$DW$T$172)
     846                            .dwattr $C$DW$66, DW_AT_name("StandDeviationValue")
     847                            .dwattr $C$DW$66, DW_AT_TI_symbol_name("StandDeviationValue")
     848                            .dwattr $C$DW$66, DW_AT_data_member_location[DW_OP_plus_uconst 0x2c]
     849                            .dwattr $C$DW$66, DW_AT_accessibility(DW_ACCESS_public)
     850                            .dwattr $C$DW$66, DW_AT_decl_file("C:\ti\simplelink_cc13x0_sdk_1_50_00_08\source\ti\devices\cc
     851                            .dwattr $C$DW$66, DW_AT_decl_line(0x81)
     852                            .dwattr $C$DW$66, DW_AT_decl_column(0x25)
     853                    
     854                    $C$DW$67        .dwtag  DW_TAG_member
     855                            .dwattr $C$DW$67, DW_AT_type(*$C$DW$T$175)
     856                            .dwattr $C$DW$67, DW_AT_name("ReservedLocation4")
     857                            .dwattr $C$DW$67, DW_AT_TI_symbol_name("ReservedLocation4")
     858                            .dwattr $C$DW$67, DW_AT_data_member_location[DW_OP_plus_uconst 0x30]
     859                            .dwattr $C$DW$67, DW_AT_accessibility(DW_ACCESS_public)
     860                            .dwattr $C$DW$67, DW_AT_decl_file("C:\ti\simplelink_cc13x0_sdk_1_50_00_08\source\ti\devices\cc
     861                            .dwattr $C$DW$67, DW_AT_decl_line(0x82)
     862                            .dwattr $C$DW$67, DW_AT_decl_column(0x25)
     863                    
     864                    $C$DW$68        .dwtag  DW_TAG_member
     865                            .dwattr $C$DW$68, DW_AT_type(*$C$DW$T$176)
     866                            .dwattr $C$DW$68, DW_AT_name("ReservedLocation5")
     867                            .dwattr $C$DW$68, DW_AT_TI_symbol_name("ReservedLocation5")
     868                            .dwattr $C$DW$68, DW_AT_data_member_location[DW_OP_plus_uconst 0x34]
     869                            .dwattr $C$DW$68, DW_AT_accessibility(DW_ACCESS_public)
     870                            .dwattr $C$DW$68, DW_AT_decl_file("C:\ti\simplelink_cc13x0_sdk_1_50_00_08\source\ti\devices\cc
     871                            .dwattr $C$DW$68, DW_AT_decl_line(0x83)
     872                            .dwattr $C$DW$68, DW_AT_decl_column(0x25)
     873                    
     874                    $C$DW$69        .dwtag  DW_TAG_member
     875                            .dwattr $C$DW$69, DW_AT_type(*$C$DW$T$177)
TI ARM Assembler PC v16.9.4 Sat Nov 18 18:46:18 2017

Tools Copyright (c) 1996-2017 Texas Instruments Incorporated
C:\Users\Kevin\AppData\Local\Temp\{5A8B501C-33CF-4805-A507-0ACBE2D1F927} PAGE   17

     876                            .dwattr $C$DW$69, DW_AT_name("HFSourceSafeSwitch")
     877                            .dwattr $C$DW$69, DW_AT_TI_symbol_name("HFSourceSafeSwitch")
     878                            .dwattr $C$DW$69, DW_AT_data_member_location[DW_OP_plus_uconst 0x38]
     879                            .dwattr $C$DW$69, DW_AT_accessibility(DW_ACCESS_public)
     880                            .dwattr $C$DW$69, DW_AT_decl_file("C:\ti\simplelink_cc13x0_sdk_1_50_00_08\source\ti\devices\cc
     881                            .dwattr $C$DW$69, DW_AT_decl_line(0x84)
     882                            .dwattr $C$DW$69, DW_AT_decl_column(0x25)
     883                    
     884                    $C$DW$70        .dwtag  DW_TAG_member
     885                            .dwattr $C$DW$70, DW_AT_type(*$C$DW$T$180)
     886                            .dwattr $C$DW$70, DW_AT_name("SelectCompAInput")
     887                            .dwattr $C$DW$70, DW_AT_TI_symbol_name("SelectCompAInput")
     888                            .dwattr $C$DW$70, DW_AT_data_member_location[DW_OP_plus_uconst 0x3c]
     889                            .dwattr $C$DW$70, DW_AT_accessibility(DW_ACCESS_public)
     890                            .dwattr $C$DW$70, DW_AT_decl_file("C:\ti\simplelink_cc13x0_sdk_1_50_00_08\source\ti\devices\cc
     891                            .dwattr $C$DW$70, DW_AT_decl_line(0x85)
     892                            .dwattr $C$DW$70, DW_AT_decl_column(0x25)
     893                    
     894                    $C$DW$71        .dwtag  DW_TAG_member
     895                            .dwattr $C$DW$71, DW_AT_type(*$C$DW$T$181)
     896                            .dwattr $C$DW$71, DW_AT_name("SelectCompARef")
     897                            .dwattr $C$DW$71, DW_AT_TI_symbol_name("SelectCompARef")
     898                            .dwattr $C$DW$71, DW_AT_data_member_location[DW_OP_plus_uconst 0x40]
     899                            .dwattr $C$DW$71, DW_AT_accessibility(DW_ACCESS_public)
     900                            .dwattr $C$DW$71, DW_AT_decl_file("C:\ti\simplelink_cc13x0_sdk_1_50_00_08\source\ti\devices\cc
     901                            .dwattr $C$DW$71, DW_AT_decl_line(0x86)
     902                            .dwattr $C$DW$71, DW_AT_decl_column(0x25)
     903                    
     904                    $C$DW$72        .dwtag  DW_TAG_member
     905                            .dwattr $C$DW$72, DW_AT_type(*$C$DW$T$182)
     906                            .dwattr $C$DW$72, DW_AT_name("SelectADCCompBInput")
     907                            .dwattr $C$DW$72, DW_AT_TI_symbol_name("SelectADCCompBInput")
     908                            .dwattr $C$DW$72, DW_AT_data_member_location[DW_OP_plus_uconst 0x44]
     909                            .dwattr $C$DW$72, DW_AT_accessibility(DW_ACCESS_public)
     910                            .dwattr $C$DW$72, DW_AT_decl_file("C:\ti\simplelink_cc13x0_sdk_1_50_00_08\source\ti\devices\cc
     911                            .dwattr $C$DW$72, DW_AT_decl_line(0x87)
     912                            .dwattr $C$DW$72, DW_AT_decl_column(0x25)
     913                    
     914                    $C$DW$73        .dwtag  DW_TAG_member
     915                            .dwattr $C$DW$73, DW_AT_type(*$C$DW$T$183)
     916                            .dwattr $C$DW$73, DW_AT_name("SelectCompBRef")
     917                            .dwattr $C$DW$73, DW_AT_TI_symbol_name("SelectCompBRef")
     918                            .dwattr $C$DW$73, DW_AT_data_member_location[DW_OP_plus_uconst 0x48]
     919                            .dwattr $C$DW$73, DW_AT_accessibility(DW_ACCESS_public)
     920                            .dwattr $C$DW$73, DW_AT_decl_file("C:\ti\simplelink_cc13x0_sdk_1_50_00_08\source\ti\devices\cc
     921                            .dwattr $C$DW$73, DW_AT_decl_line(0x88)
     922                            .dwattr $C$DW$73, DW_AT_decl_column(0x25)
     923                    
     924                            .dwattr $C$DW$T$184, DW_AT_decl_file("C:\ti\simplelink_cc13x0_sdk_1_50_00_08\source\ti\devices
     925                            .dwattr $C$DW$T$184, DW_AT_decl_line(0x75)
     926                            .dwattr $C$DW$T$184, DW_AT_decl_column(0x01)
     927                            .dwendtag $C$DW$T$184
     928                    
     929                    $C$DW$T$489     .dwtag  DW_TAG_typedef
     930                            .dwattr $C$DW$T$489, DW_AT_name("HARD_API_T")
TI ARM Assembler PC v16.9.4 Sat Nov 18 18:46:18 2017

Tools Copyright (c) 1996-2017 Texas Instruments Incorporated
C:\Users\Kevin\AppData\Local\Temp\{5A8B501C-33CF-4805-A507-0ACBE2D1F927} PAGE   18

     931                            .dwattr $C$DW$T$489, DW_AT_type(*$C$DW$T$184)
     932                            .dwattr $C$DW$T$489, DW_AT_language(DW_LANG_C)
     933                            .dwattr $C$DW$T$489, DW_AT_decl_file("C:\ti\simplelink_cc13x0_sdk_1_50_00_08\source\ti\devices
     934                            .dwattr $C$DW$T$489, DW_AT_decl_line(0x89)
     935                            .dwattr $C$DW$T$489, DW_AT_decl_column(0x03)
     936                    
     937                    
     938                    $C$DW$T$188     .dwtag  DW_TAG_union_type
     939                            .dwattr $C$DW$T$188, DW_AT_byte_size(0x04)
     940                    $C$DW$74        .dwtag  DW_TAG_member
     941                            .dwattr $C$DW$74, DW_AT_type(*$C$DW$T$185)
     942                            .dwattr $C$DW$74, DW_AT_name("f")
     943                            .dwattr $C$DW$74, DW_AT_TI_symbol_name("f")
     944                            .dwattr $C$DW$74, DW_AT_data_member_location[DW_OP_plus_uconst 0x0]
     945                            .dwattr $C$DW$74, DW_AT_accessibility(DW_ACCESS_public)
     946                            .dwattr $C$DW$74, DW_AT_decl_file("C:/ti/xdctools_3_50_03_33_core/packages/xdc/std.h")
     947                            .dwattr $C$DW$74, DW_AT_decl_line(0xb7)
     948                            .dwattr $C$DW$74, DW_AT_decl_column(0x0f)
     949                    
     950                    $C$DW$75        .dwtag  DW_TAG_member
     951                            .dwattr $C$DW$75, DW_AT_type(*$C$DW$T$187)
     952                            .dwattr $C$DW$75, DW_AT_name("a")
     953                            .dwattr $C$DW$75, DW_AT_TI_symbol_name("a")
     954                            .dwattr $C$DW$75, DW_AT_data_member_location[DW_OP_plus_uconst 0x0]
     955                            .dwattr $C$DW$75, DW_AT_accessibility(DW_ACCESS_public)
     956                            .dwattr $C$DW$75, DW_AT_decl_file("C:/ti/xdctools_3_50_03_33_core/packages/xdc/std.h")
     957                            .dwattr $C$DW$75, DW_AT_decl_line(0xb8)
     958                            .dwattr $C$DW$75, DW_AT_decl_column(0x0f)
     959                    
     960                            .dwattr $C$DW$T$188, DW_AT_decl_file("C:/ti/xdctools_3_50_03_33_core/packages/xdc/std.h")
     961                            .dwattr $C$DW$T$188, DW_AT_decl_line(0xb6)
     962                            .dwattr $C$DW$T$188, DW_AT_decl_column(0x0f)
     963                            .dwendtag $C$DW$T$188
     964                    
     965                    $C$DW$T$490     .dwtag  DW_TAG_typedef
     966                            .dwattr $C$DW$T$490, DW_AT_name("xdc_FloatData")
     967                            .dwattr $C$DW$T$490, DW_AT_type(*$C$DW$T$188)
     968                            .dwattr $C$DW$T$490, DW_AT_language(DW_LANG_C)
     969                            .dwattr $C$DW$T$490, DW_AT_decl_file("C:/ti/xdctools_3_50_03_33_core/packages/xdc/std.h")
     970                            .dwattr $C$DW$T$490, DW_AT_decl_line(0xb9)
     971                            .dwattr $C$DW$T$490, DW_AT_decl_column(0x03)
     972                    
     973                    
     974                    $C$DW$T$191     .dwtag  DW_TAG_structure_type
     975                            .dwattr $C$DW$T$191, DW_AT_name(".ggroup1")
     976                            .dwattr $C$DW$T$191, DW_AT_byte_size(0x48)
     977                    $C$DW$76        .dwtag  DW_TAG_member
     978                            .dwattr $C$DW$76, DW_AT_type(*$C$DW$T$6)
     979                            .dwattr $C$DW$76, DW_AT_name("keysPressed")
     980                            .dwattr $C$DW$76, DW_AT_TI_symbol_name("keysPressed")
     981                            .dwattr $C$DW$76, DW_AT_data_member_location[DW_OP_plus_uconst 0x0]
     982                            .dwattr $C$DW$76, DW_AT_accessibility(DW_ACCESS_public)
     983                    
     984                    $C$DW$77        .dwtag  DW_TAG_member
     985                            .dwattr $C$DW$77, DW_AT_type(*$C$DW$T$179)
TI ARM Assembler PC v16.9.4 Sat Nov 18 18:46:18 2017

Tools Copyright (c) 1996-2017 Texas Instruments Incorporated
C:\Users\Kevin\AppData\Local\Temp\{5A8B501C-33CF-4805-A507-0ACBE2D1F927} PAGE   19

     986                            .dwattr $C$DW$77, DW_AT_name("appKeyChangeHandler")
     987                            .dwattr $C$DW$77, DW_AT_TI_symbol_name("appKeyChangeHandler")
     988                            .dwattr $C$DW$77, DW_AT_data_member_location[DW_OP_plus_uconst 0x4]
     989                            .dwattr $C$DW$77, DW_AT_accessibility(DW_ACCESS_public)
     990                    
     991                    $C$DW$78        .dwtag  DW_TAG_member
     992                            .dwattr $C$DW$78, DW_AT_type(*$C$DW$T$189)
     993                            .dwattr $C$DW$78, DW_AT_name("keyPinHandle")
     994                            .dwattr $C$DW$78, DW_AT_TI_symbol_name("keyPinHandle")
     995                            .dwattr $C$DW$78, DW_AT_data_member_location[DW_OP_plus_uconst 0x8]
     996                            .dwattr $C$DW$78, DW_AT_accessibility(DW_ACCESS_public)
     997                    
     998                    $C$DW$79        .dwtag  DW_TAG_member
     999                            .dwattr $C$DW$79, DW_AT_type(*$C$DW$T$190)
    1000                            .dwattr $C$DW$79, DW_AT_name("keyPinTable")
    1001                            .dwattr $C$DW$79, DW_AT_TI_symbol_name("keyPinTable")
    1002                            .dwattr $C$DW$79, DW_AT_data_member_location[DW_OP_plus_uconst 0xc]
    1003                            .dwattr $C$DW$79, DW_AT_accessibility(DW_ACCESS_public)
    1004                    
    1005                    $C$DW$80        .dwtag  DW_TAG_member
    1006                            .dwattr $C$DW$80, DW_AT_type(*$C$DW$T$205)
    1007                            .dwattr $C$DW$80, DW_AT_name("keyPinState")
    1008                            .dwattr $C$DW$80, DW_AT_TI_symbol_name("keyPinState")
    1009                            .dwattr $C$DW$80, DW_AT_data_member_location[DW_OP_plus_uconst 0x18]
    1010                            .dwattr $C$DW$80, DW_AT_accessibility(DW_ACCESS_public)
    1011                    
    1012                    $C$DW$81        .dwtag  DW_TAG_member
    1013                            .dwattr $C$DW$81, DW_AT_type(*$C$DW$T$285)
    1014                            .dwattr $C$DW$81, DW_AT_name("keyChangeClock")
    1015                            .dwattr $C$DW$81, DW_AT_TI_symbol_name("keyChangeClock")
    1016                            .dwattr $C$DW$81, DW_AT_data_member_location[DW_OP_plus_uconst 0x24]
    1017                            .dwattr $C$DW$81, DW_AT_accessibility(DW_ACCESS_public)
    1018                    
    1019                            .dwendtag $C$DW$T$191
    1020                    
    1021                    
    1022                    $C$DW$T$492     .dwtag  DW_TAG_enumeration_type
    1023                            .dwattr $C$DW$T$492, DW_AT_name("CC13X0_LAUNCHXL_ADCBufName")
    1024                            .dwattr $C$DW$T$492, DW_AT_byte_size(0x01)
    1025                    $C$DW$82        .dwtag  DW_TAG_enumerator
    1026                            .dwattr $C$DW$82, DW_AT_name("CC13X0_LAUNCHXL_ADCBuf0")
    1027                            .dwattr $C$DW$82, DW_AT_const_value(0x00)
    1028                            .dwattr $C$DW$82, DW_AT_decl_file("C:\ti\simplelink_cc13x0_sdk_1_50_00_08\examples\rtos\CC1310
    1029                            .dwattr $C$DW$82, DW_AT_decl_line(0x129)
    1030                            .dwattr $C$DW$82, DW_AT_decl_column(0x05)
    1031                    
    1032                    $C$DW$83        .dwtag  DW_TAG_enumerator
    1033                            .dwattr $C$DW$83, DW_AT_name("CC13X0_LAUNCHXL_ADCBufCOUNT")
    1034                            .dwattr $C$DW$83, DW_AT_const_value(0x01)
    1035                            .dwattr $C$DW$83, DW_AT_decl_file("C:\ti\simplelink_cc13x0_sdk_1_50_00_08\examples\rtos\CC1310
    1036                            .dwattr $C$DW$83, DW_AT_decl_line(0x12a)
    1037                            .dwattr $C$DW$83, DW_AT_decl_column(0x05)
    1038                    
    1039                            .dwattr $C$DW$T$492, DW_AT_decl_file("C:\ti\simplelink_cc13x0_sdk_1_50_00_08\examples\rtos\CC1
    1040                            .dwattr $C$DW$T$492, DW_AT_decl_line(0x128)
TI ARM Assembler PC v16.9.4 Sat Nov 18 18:46:18 2017

Tools Copyright (c) 1996-2017 Texas Instruments Incorporated
C:\Users\Kevin\AppData\Local\Temp\{5A8B501C-33CF-4805-A507-0ACBE2D1F927} PAGE   20

    1041                            .dwattr $C$DW$T$492, DW_AT_decl_column(0x0e)
    1042                            .dwendtag $C$DW$T$492
    1043                    
    1044                    $C$DW$T$493     .dwtag  DW_TAG_typedef
    1045                            .dwattr $C$DW$T$493, DW_AT_name("CC13X0_LAUNCHXL_ADCBufName")
    1046                            .dwattr $C$DW$T$493, DW_AT_type(*$C$DW$T$492)
    1047                            .dwattr $C$DW$T$493, DW_AT_language(DW_LANG_C)
    1048                            .dwattr $C$DW$T$493, DW_AT_decl_file("C:\ti\simplelink_cc13x0_sdk_1_50_00_08\examples\rtos\CC1
    1049                            .dwattr $C$DW$T$493, DW_AT_decl_line(0x12b)
    1050                            .dwattr $C$DW$T$493, DW_AT_decl_column(0x03)
    1051                    
    1052                    
    1053                    $C$DW$T$494     .dwtag  DW_TAG_enumeration_type
    1054                            .dwattr $C$DW$T$494, DW_AT_name("CC13X0_LAUNCHXL_ADCName")
    1055                            .dwattr $C$DW$T$494, DW_AT_byte_size(0x01)
    1056                    $C$DW$84        .dwtag  DW_TAG_enumerator
    1057                            .dwattr $C$DW$84, DW_AT_name("CC13X0_LAUNCHXL_ADC0")
    1058                            .dwattr $C$DW$84, DW_AT_const_value(0x00)
    1059                            .dwattr $C$DW$84, DW_AT_decl_file("C:\ti\simplelink_cc13x0_sdk_1_50_00_08\examples\rtos\CC1310
    1060                            .dwattr $C$DW$84, DW_AT_decl_line(0x133)
    1061                            .dwattr $C$DW$84, DW_AT_decl_column(0x05)
    1062                    
    1063                    $C$DW$85        .dwtag  DW_TAG_enumerator
    1064                            .dwattr $C$DW$85, DW_AT_name("CC13X0_LAUNCHXL_ADC1")
    1065                            .dwattr $C$DW$85, DW_AT_const_value(0x01)
    1066                            .dwattr $C$DW$85, DW_AT_decl_file("C:\ti\simplelink_cc13x0_sdk_1_50_00_08\examples\rtos\CC1310
    1067                            .dwattr $C$DW$85, DW_AT_decl_line(0x134)
    1068                            .dwattr $C$DW$85, DW_AT_decl_column(0x05)
    1069                    
    1070                    $C$DW$86        .dwtag  DW_TAG_enumerator
    1071                            .dwattr $C$DW$86, DW_AT_name("CC13X0_LAUNCHXL_ADC2")
    1072                            .dwattr $C$DW$86, DW_AT_const_value(0x02)
    1073                            .dwattr $C$DW$86, DW_AT_decl_file("C:\ti\simplelink_cc13x0_sdk_1_50_00_08\examples\rtos\CC1310
    1074                            .dwattr $C$DW$86, DW_AT_decl_line(0x135)
    1075                            .dwattr $C$DW$86, DW_AT_decl_column(0x05)
    1076                    
    1077                    $C$DW$87        .dwtag  DW_TAG_enumerator
    1078                            .dwattr $C$DW$87, DW_AT_name("CC13X0_LAUNCHXL_ADC3")
    1079                            .dwattr $C$DW$87, DW_AT_const_value(0x03)
    1080                            .dwattr $C$DW$87, DW_AT_decl_file("C:\ti\simplelink_cc13x0_sdk_1_50_00_08\examples\rtos\CC1310
    1081                            .dwattr $C$DW$87, DW_AT_decl_line(0x136)
    1082                            .dwattr $C$DW$87, DW_AT_decl_column(0x05)
    1083                    
    1084                    $C$DW$88        .dwtag  DW_TAG_enumerator
    1085                            .dwattr $C$DW$88, DW_AT_name("CC13X0_LAUNCHXL_ADC4")
    1086                            .dwattr $C$DW$88, DW_AT_const_value(0x04)
    1087                            .dwattr $C$DW$88, DW_AT_decl_file("C:\ti\simplelink_cc13x0_sdk_1_50_00_08\examples\rtos\CC1310
    1088                            .dwattr $C$DW$88, DW_AT_decl_line(0x137)
    1089                            .dwattr $C$DW$88, DW_AT_decl_column(0x05)
    1090                    
    1091                    $C$DW$89        .dwtag  DW_TAG_enumerator
    1092                            .dwattr $C$DW$89, DW_AT_name("CC13X0_LAUNCHXL_ADC5")
    1093                            .dwattr $C$DW$89, DW_AT_const_value(0x05)
    1094                            .dwattr $C$DW$89, DW_AT_decl_file("C:\ti\simplelink_cc13x0_sdk_1_50_00_08\examples\rtos\CC1310
    1095                            .dwattr $C$DW$89, DW_AT_decl_line(0x138)
TI ARM Assembler PC v16.9.4 Sat Nov 18 18:46:18 2017

Tools Copyright (c) 1996-2017 Texas Instruments Incorporated
C:\Users\Kevin\AppData\Local\Temp\{5A8B501C-33CF-4805-A507-0ACBE2D1F927} PAGE   21

    1096                            .dwattr $C$DW$89, DW_AT_decl_column(0x05)
    1097                    
    1098                    $C$DW$90        .dwtag  DW_TAG_enumerator
    1099                            .dwattr $C$DW$90, DW_AT_name("CC13X0_LAUNCHXL_ADC6")
    1100                            .dwattr $C$DW$90, DW_AT_const_value(0x06)
    1101                            .dwattr $C$DW$90, DW_AT_decl_file("C:\ti\simplelink_cc13x0_sdk_1_50_00_08\examples\rtos\CC1310
    1102                            .dwattr $C$DW$90, DW_AT_decl_line(0x139)
    1103                            .dwattr $C$DW$90, DW_AT_decl_column(0x05)
    1104                    
    1105                    $C$DW$91        .dwtag  DW_TAG_enumerator
    1106                            .dwattr $C$DW$91, DW_AT_name("CC13X0_LAUNCHXL_ADC7")
    1107                            .dwattr $C$DW$91, DW_AT_const_value(0x07)
    1108                            .dwattr $C$DW$91, DW_AT_decl_file("C:\ti\simplelink_cc13x0_sdk_1_50_00_08\examples\rtos\CC1310
    1109                            .dwattr $C$DW$91, DW_AT_decl_line(0x13a)
    1110                            .dwattr $C$DW$91, DW_AT_decl_column(0x05)
    1111                    
    1112                    $C$DW$92        .dwtag  DW_TAG_enumerator
    1113                            .dwattr $C$DW$92, DW_AT_name("CC13X0_LAUNCHXL_ADCDCOUPL")
    1114                            .dwattr $C$DW$92, DW_AT_const_value(0x08)
    1115                            .dwattr $C$DW$92, DW_AT_decl_file("C:\ti\simplelink_cc13x0_sdk_1_50_00_08\examples\rtos\CC1310
    1116                            .dwattr $C$DW$92, DW_AT_decl_line(0x13b)
    1117                            .dwattr $C$DW$92, DW_AT_decl_column(0x05)
    1118                    
    1119                    $C$DW$93        .dwtag  DW_TAG_enumerator
    1120                            .dwattr $C$DW$93, DW_AT_name("CC13X0_LAUNCHXL_ADCVSS")
    1121                            .dwattr $C$DW$93, DW_AT_const_value(0x09)
    1122                            .dwattr $C$DW$93, DW_AT_decl_file("C:\ti\simplelink_cc13x0_sdk_1_50_00_08\examples\rtos\CC1310
    1123                            .dwattr $C$DW$93, DW_AT_decl_line(0x13c)
    1124                            .dwattr $C$DW$93, DW_AT_decl_column(0x05)
    1125                    
    1126                    $C$DW$94        .dwtag  DW_TAG_enumerator
    1127                            .dwattr $C$DW$94, DW_AT_name("CC13X0_LAUNCHXL_ADCVDDS")
    1128                            .dwattr $C$DW$94, DW_AT_const_value(0x0a)
    1129                            .dwattr $C$DW$94, DW_AT_decl_file("C:\ti\simplelink_cc13x0_sdk_1_50_00_08\examples\rtos\CC1310
    1130                            .dwattr $C$DW$94, DW_AT_decl_line(0x13d)
    1131                            .dwattr $C$DW$94, DW_AT_decl_column(0x05)
    1132                    
    1133                    $C$DW$95        .dwtag  DW_TAG_enumerator
    1134                            .dwattr $C$DW$95, DW_AT_name("CC13X0_LAUNCHXL_ADCCOUNT")
    1135                            .dwattr $C$DW$95, DW_AT_const_value(0x0b)
    1136                            .dwattr $C$DW$95, DW_AT_decl_file("C:\ti\simplelink_cc13x0_sdk_1_50_00_08\examples\rtos\CC1310
    1137                            .dwattr $C$DW$95, DW_AT_decl_line(0x13e)
    1138                            .dwattr $C$DW$95, DW_AT_decl_column(0x05)
    1139                    
    1140                            .dwattr $C$DW$T$494, DW_AT_decl_file("C:\ti\simplelink_cc13x0_sdk_1_50_00_08\examples\rtos\CC1
    1141                            .dwattr $C$DW$T$494, DW_AT_decl_line(0x132)
    1142                            .dwattr $C$DW$T$494, DW_AT_decl_column(0x0e)
    1143                            .dwendtag $C$DW$T$494
    1144                    
    1145                    $C$DW$T$495     .dwtag  DW_TAG_typedef
    1146                            .dwattr $C$DW$T$495, DW_AT_name("CC13X0_LAUNCHXL_ADCName")
    1147                            .dwattr $C$DW$T$495, DW_AT_type(*$C$DW$T$494)
    1148                            .dwattr $C$DW$T$495, DW_AT_language(DW_LANG_C)
    1149                            .dwattr $C$DW$T$495, DW_AT_decl_file("C:\ti\simplelink_cc13x0_sdk_1_50_00_08\examples\rtos\CC1
    1150                            .dwattr $C$DW$T$495, DW_AT_decl_line(0x13f)
TI ARM Assembler PC v16.9.4 Sat Nov 18 18:46:18 2017

Tools Copyright (c) 1996-2017 Texas Instruments Incorporated
C:\Users\Kevin\AppData\Local\Temp\{5A8B501C-33CF-4805-A507-0ACBE2D1F927} PAGE   22

    1151                            .dwattr $C$DW$T$495, DW_AT_decl_column(0x03)
    1152                    
    1153                    
    1154                    $C$DW$T$496     .dwtag  DW_TAG_enumeration_type
    1155                            .dwattr $C$DW$T$496, DW_AT_name("CC13X0_LAUNCHXL_CryptoName")
    1156                            .dwattr $C$DW$T$496, DW_AT_byte_size(0x01)
    1157                    $C$DW$96        .dwtag  DW_TAG_enumerator
    1158                            .dwattr $C$DW$96, DW_AT_name("CC13X0_LAUNCHXL_CRYPTO0")
    1159                            .dwattr $C$DW$96, DW_AT_const_value(0x00)
    1160                            .dwattr $C$DW$96, DW_AT_decl_file("C:\ti\simplelink_cc13x0_sdk_1_50_00_08\examples\rtos\CC1310
    1161                            .dwattr $C$DW$96, DW_AT_decl_line(0xd0)
    1162                            .dwattr $C$DW$96, DW_AT_decl_column(0x05)
    1163                    
    1164                    $C$DW$97        .dwtag  DW_TAG_enumerator
    1165                            .dwattr $C$DW$97, DW_AT_name("CC13X0_LAUNCHXL_CRYPTOCOUNT")
    1166                            .dwattr $C$DW$97, DW_AT_const_value(0x01)
    1167                            .dwattr $C$DW$97, DW_AT_decl_file("C:\ti\simplelink_cc13x0_sdk_1_50_00_08\examples\rtos\CC1310
    1168                            .dwattr $C$DW$97, DW_AT_decl_line(0xd2)
    1169                            .dwattr $C$DW$97, DW_AT_decl_column(0x05)
    1170                    
    1171                            .dwattr $C$DW$T$496, DW_AT_decl_file("C:\ti\simplelink_cc13x0_sdk_1_50_00_08\examples\rtos\CC1
    1172                            .dwattr $C$DW$T$496, DW_AT_decl_line(0xcf)
    1173                            .dwattr $C$DW$T$496, DW_AT_decl_column(0x0e)
    1174                            .dwendtag $C$DW$T$496
    1175                    
    1176                    $C$DW$T$497     .dwtag  DW_TAG_typedef
    1177                            .dwattr $C$DW$T$497, DW_AT_name("CC13X0_LAUNCHXL_CryptoName")
    1178                            .dwattr $C$DW$T$497, DW_AT_type(*$C$DW$T$496)
    1179                            .dwattr $C$DW$T$497, DW_AT_language(DW_LANG_C)
    1180                            .dwattr $C$DW$T$497, DW_AT_decl_file("C:\ti\simplelink_cc13x0_sdk_1_50_00_08\examples\rtos\CC1
    1181                            .dwattr $C$DW$T$497, DW_AT_decl_line(0xd3)
    1182                            .dwattr $C$DW$T$497, DW_AT_decl_column(0x03)
    1183                    
    1184                    
    1185                    $C$DW$T$498     .dwtag  DW_TAG_enumeration_type
    1186                            .dwattr $C$DW$T$498, DW_AT_name("CC13X0_LAUNCHXL_GPTimerName")
    1187                            .dwattr $C$DW$T$498, DW_AT_byte_size(0x01)
    1188                    $C$DW$98        .dwtag  DW_TAG_enumerator
    1189                            .dwattr $C$DW$98, DW_AT_name("CC13X0_LAUNCHXL_GPTIMER0A")
    1190                            .dwattr $C$DW$98, DW_AT_const_value(0x00)
    1191                            .dwattr $C$DW$98, DW_AT_decl_file("C:\ti\simplelink_cc13x0_sdk_1_50_00_08\examples\rtos\CC1310
    1192                            .dwattr $C$DW$98, DW_AT_decl_line(0xfb)
    1193                            .dwattr $C$DW$98, DW_AT_decl_column(0x05)
    1194                    
    1195                    $C$DW$99        .dwtag  DW_TAG_enumerator
    1196                            .dwattr $C$DW$99, DW_AT_name("CC13X0_LAUNCHXL_GPTIMER0B")
    1197                            .dwattr $C$DW$99, DW_AT_const_value(0x01)
    1198                            .dwattr $C$DW$99, DW_AT_decl_file("C:\ti\simplelink_cc13x0_sdk_1_50_00_08\examples\rtos\CC1310
    1199                            .dwattr $C$DW$99, DW_AT_decl_line(0xfc)
    1200                            .dwattr $C$DW$99, DW_AT_decl_column(0x05)
    1201                    
    1202                    $C$DW$100       .dwtag  DW_TAG_enumerator
    1203                            .dwattr $C$DW$100, DW_AT_name("CC13X0_LAUNCHXL_GPTIMER1A")
    1204                            .dwattr $C$DW$100, DW_AT_const_value(0x02)
    1205                            .dwattr $C$DW$100, DW_AT_decl_file("C:\ti\simplelink_cc13x0_sdk_1_50_00_08\examples\rtos\CC131
TI ARM Assembler PC v16.9.4 Sat Nov 18 18:46:18 2017

Tools Copyright (c) 1996-2017 Texas Instruments Incorporated
C:\Users\Kevin\AppData\Local\Temp\{5A8B501C-33CF-4805-A507-0ACBE2D1F927} PAGE   23

    1206                            .dwattr $C$DW$100, DW_AT_decl_line(0xfd)
    1207                            .dwattr $C$DW$100, DW_AT_decl_column(0x05)
    1208                    
    1209                    $C$DW$101       .dwtag  DW_TAG_enumerator
    1210                            .dwattr $C$DW$101, DW_AT_name("CC13X0_LAUNCHXL_GPTIMER1B")
    1211                            .dwattr $C$DW$101, DW_AT_const_value(0x03)
    1212                            .dwattr $C$DW$101, DW_AT_decl_file("C:\ti\simplelink_cc13x0_sdk_1_50_00_08\examples\rtos\CC131
    1213                            .dwattr $C$DW$101, DW_AT_decl_line(0xfe)
    1214                            .dwattr $C$DW$101, DW_AT_decl_column(0x05)
    1215                    
    1216                    $C$DW$102       .dwtag  DW_TAG_enumerator
    1217                            .dwattr $C$DW$102, DW_AT_name("CC13X0_LAUNCHXL_GPTIMER2A")
    1218                            .dwattr $C$DW$102, DW_AT_const_value(0x04)
    1219                            .dwattr $C$DW$102, DW_AT_decl_file("C:\ti\simplelink_cc13x0_sdk_1_50_00_08\examples\rtos\CC131
    1220                            .dwattr $C$DW$102, DW_AT_decl_line(0xff)
    1221                            .dwattr $C$DW$102, DW_AT_decl_column(0x05)
    1222                    
    1223                    $C$DW$103       .dwtag  DW_TAG_enumerator
    1224                            .dwattr $C$DW$103, DW_AT_name("CC13X0_LAUNCHXL_GPTIMER2B")
    1225                            .dwattr $C$DW$103, DW_AT_const_value(0x05)
    1226                            .dwattr $C$DW$103, DW_AT_decl_file("C:\ti\simplelink_cc13x0_sdk_1_50_00_08\examples\rtos\CC131
    1227                            .dwattr $C$DW$103, DW_AT_decl_line(0x100)
    1228                            .dwattr $C$DW$103, DW_AT_decl_column(0x05)
    1229                    
    1230                    $C$DW$104       .dwtag  DW_TAG_enumerator
    1231                            .dwattr $C$DW$104, DW_AT_name("CC13X0_LAUNCHXL_GPTIMER3A")
    1232                            .dwattr $C$DW$104, DW_AT_const_value(0x06)
    1233                            .dwattr $C$DW$104, DW_AT_decl_file("C:\ti\simplelink_cc13x0_sdk_1_50_00_08\examples\rtos\CC131
    1234                            .dwattr $C$DW$104, DW_AT_decl_line(0x101)
    1235                            .dwattr $C$DW$104, DW_AT_decl_column(0x05)
    1236                    
    1237                    $C$DW$105       .dwtag  DW_TAG_enumerator
    1238                            .dwattr $C$DW$105, DW_AT_name("CC13X0_LAUNCHXL_GPTIMER3B")
    1239                            .dwattr $C$DW$105, DW_AT_const_value(0x07)
    1240                            .dwattr $C$DW$105, DW_AT_decl_file("C:\ti\simplelink_cc13x0_sdk_1_50_00_08\examples\rtos\CC131
    1241                            .dwattr $C$DW$105, DW_AT_decl_line(0x102)
    1242                            .dwattr $C$DW$105, DW_AT_decl_column(0x05)
    1243                    
    1244                    $C$DW$106       .dwtag  DW_TAG_enumerator
    1245                            .dwattr $C$DW$106, DW_AT_name("CC13X0_LAUNCHXL_GPTIMERPARTSCOUNT")
    1246                            .dwattr $C$DW$106, DW_AT_const_value(0x08)
    1247                            .dwattr $C$DW$106, DW_AT_decl_file("C:\ti\simplelink_cc13x0_sdk_1_50_00_08\examples\rtos\CC131
    1248                            .dwattr $C$DW$106, DW_AT_decl_line(0x103)
    1249                            .dwattr $C$DW$106, DW_AT_decl_column(0x05)
    1250                    
    1251                            .dwattr $C$DW$T$498, DW_AT_decl_file("C:\ti\simplelink_cc13x0_sdk_1_50_00_08\examples\rtos\CC1
    1252                            .dwattr $C$DW$T$498, DW_AT_decl_line(0xf9)
    1253                            .dwattr $C$DW$T$498, DW_AT_decl_column(0x0e)
    1254                            .dwendtag $C$DW$T$498
    1255                    
    1256                    $C$DW$T$499     .dwtag  DW_TAG_typedef
    1257                            .dwattr $C$DW$T$499, DW_AT_name("CC13X0_LAUNCHXL_GPTimerName")
    1258                            .dwattr $C$DW$T$499, DW_AT_type(*$C$DW$T$498)
    1259                            .dwattr $C$DW$T$499, DW_AT_language(DW_LANG_C)
    1260                            .dwattr $C$DW$T$499, DW_AT_decl_file("C:\ti\simplelink_cc13x0_sdk_1_50_00_08\examples\rtos\CC1
TI ARM Assembler PC v16.9.4 Sat Nov 18 18:46:18 2017

Tools Copyright (c) 1996-2017 Texas Instruments Incorporated
C:\Users\Kevin\AppData\Local\Temp\{5A8B501C-33CF-4805-A507-0ACBE2D1F927} PAGE   24

    1261                            .dwattr $C$DW$T$499, DW_AT_decl_line(0x104)
    1262                            .dwattr $C$DW$T$499, DW_AT_decl_column(0x03)
    1263                    
    1264                    
    1265                    $C$DW$T$500     .dwtag  DW_TAG_enumeration_type
    1266                            .dwattr $C$DW$T$500, DW_AT_name("CC13X0_LAUNCHXL_GPTimers")
    1267                            .dwattr $C$DW$T$500, DW_AT_byte_size(0x01)
    1268                    $C$DW$107       .dwtag  DW_TAG_enumerator
    1269                            .dwattr $C$DW$107, DW_AT_name("CC13X0_LAUNCHXL_GPTIMER0")
    1270                            .dwattr $C$DW$107, DW_AT_const_value(0x00)
    1271                            .dwattr $C$DW$107, DW_AT_decl_file("C:\ti\simplelink_cc13x0_sdk_1_50_00_08\examples\rtos\CC131
    1272                            .dwattr $C$DW$107, DW_AT_decl_line(0x10c)
    1273                            .dwattr $C$DW$107, DW_AT_decl_column(0x05)
    1274                    
    1275                    $C$DW$108       .dwtag  DW_TAG_enumerator
    1276                            .dwattr $C$DW$108, DW_AT_name("CC13X0_LAUNCHXL_GPTIMER1")
    1277                            .dwattr $C$DW$108, DW_AT_const_value(0x01)
    1278                            .dwattr $C$DW$108, DW_AT_decl_file("C:\ti\simplelink_cc13x0_sdk_1_50_00_08\examples\rtos\CC131
    1279                            .dwattr $C$DW$108, DW_AT_decl_line(0x10d)
    1280                            .dwattr $C$DW$108, DW_AT_decl_column(0x05)
    1281                    
    1282                    $C$DW$109       .dwtag  DW_TAG_enumerator
    1283                            .dwattr $C$DW$109, DW_AT_name("CC13X0_LAUNCHXL_GPTIMER2")
    1284                            .dwattr $C$DW$109, DW_AT_const_value(0x02)
    1285                            .dwattr $C$DW$109, DW_AT_decl_file("C:\ti\simplelink_cc13x0_sdk_1_50_00_08\examples\rtos\CC131
    1286                            .dwattr $C$DW$109, DW_AT_decl_line(0x10e)
    1287                            .dwattr $C$DW$109, DW_AT_decl_column(0x05)
    1288                    
    1289                    $C$DW$110       .dwtag  DW_TAG_enumerator
    1290                            .dwattr $C$DW$110, DW_AT_name("CC13X0_LAUNCHXL_GPTIMER3")
    1291                            .dwattr $C$DW$110, DW_AT_const_value(0x03)
    1292                            .dwattr $C$DW$110, DW_AT_decl_file("C:\ti\simplelink_cc13x0_sdk_1_50_00_08\examples\rtos\CC131
    1293                            .dwattr $C$DW$110, DW_AT_decl_line(0x10f)
    1294                            .dwattr $C$DW$110, DW_AT_decl_column(0x05)
    1295                    
    1296                    $C$DW$111       .dwtag  DW_TAG_enumerator
    1297                            .dwattr $C$DW$111, DW_AT_name("CC13X0_LAUNCHXL_GPTIMERCOUNT")
    1298                            .dwattr $C$DW$111, DW_AT_const_value(0x04)
    1299                            .dwattr $C$DW$111, DW_AT_decl_file("C:\ti\simplelink_cc13x0_sdk_1_50_00_08\examples\rtos\CC131
    1300                            .dwattr $C$DW$111, DW_AT_decl_line(0x110)
    1301                            .dwattr $C$DW$111, DW_AT_decl_column(0x05)
    1302                    
    1303                            .dwattr $C$DW$T$500, DW_AT_decl_file("C:\ti\simplelink_cc13x0_sdk_1_50_00_08\examples\rtos\CC1
    1304                            .dwattr $C$DW$T$500, DW_AT_decl_line(0x10a)
    1305                            .dwattr $C$DW$T$500, DW_AT_decl_column(0x0e)
    1306                            .dwendtag $C$DW$T$500
    1307                    
    1308                    $C$DW$T$501     .dwtag  DW_TAG_typedef
    1309                            .dwattr $C$DW$T$501, DW_AT_name("CC13X0_LAUNCHXL_GPTimers")
    1310                            .dwattr $C$DW$T$501, DW_AT_type(*$C$DW$T$500)
    1311                            .dwattr $C$DW$T$501, DW_AT_language(DW_LANG_C)
    1312                            .dwattr $C$DW$T$501, DW_AT_decl_file("C:\ti\simplelink_cc13x0_sdk_1_50_00_08\examples\rtos\CC1
    1313                            .dwattr $C$DW$T$501, DW_AT_decl_line(0x111)
    1314                            .dwattr $C$DW$T$501, DW_AT_decl_column(0x03)
    1315                    
TI ARM Assembler PC v16.9.4 Sat Nov 18 18:46:18 2017

Tools Copyright (c) 1996-2017 Texas Instruments Incorporated
C:\Users\Kevin\AppData\Local\Temp\{5A8B501C-33CF-4805-A507-0ACBE2D1F927} PAGE   25

    1316                    
    1317                    $C$DW$T$502     .dwtag  DW_TAG_enumeration_type
    1318                            .dwattr $C$DW$T$502, DW_AT_name("CC13X0_LAUNCHXL_I2CName")
    1319                            .dwattr $C$DW$T$502, DW_AT_byte_size(0x01)
    1320                    $C$DW$112       .dwtag  DW_TAG_enumerator
    1321                            .dwattr $C$DW$112, DW_AT_name("CC13X0_LAUNCHXL_I2C0")
    1322                            .dwattr $C$DW$112, DW_AT_const_value(0x00)
    1323                            .dwattr $C$DW$112, DW_AT_decl_file("C:\ti\simplelink_cc13x0_sdk_1_50_00_08\examples\rtos\CC131
    1324                            .dwattr $C$DW$112, DW_AT_decl_line(0xc6)
    1325                            .dwattr $C$DW$112, DW_AT_decl_column(0x05)
    1326                    
    1327                    $C$DW$113       .dwtag  DW_TAG_enumerator
    1328                            .dwattr $C$DW$113, DW_AT_name("CC13X0_LAUNCHXL_I2CCOUNT")
    1329                            .dwattr $C$DW$113, DW_AT_const_value(0x01)
    1330                            .dwattr $C$DW$113, DW_AT_decl_file("C:\ti\simplelink_cc13x0_sdk_1_50_00_08\examples\rtos\CC131
    1331                            .dwattr $C$DW$113, DW_AT_decl_line(0xc8)
    1332                            .dwattr $C$DW$113, DW_AT_decl_column(0x05)
    1333                    
    1334                            .dwattr $C$DW$T$502, DW_AT_decl_file("C:\ti\simplelink_cc13x0_sdk_1_50_00_08\examples\rtos\CC1
    1335                            .dwattr $C$DW$T$502, DW_AT_decl_line(0xc5)
    1336                            .dwattr $C$DW$T$502, DW_AT_decl_column(0x0e)
    1337                            .dwendtag $C$DW$T$502
    1338                    
    1339                    $C$DW$T$503     .dwtag  DW_TAG_typedef
    1340                            .dwattr $C$DW$T$503, DW_AT_name("CC13X0_LAUNCHXL_I2CName")
    1341                            .dwattr $C$DW$T$503, DW_AT_type(*$C$DW$T$502)
    1342                            .dwattr $C$DW$T$503, DW_AT_language(DW_LANG_C)
    1343                            .dwattr $C$DW$T$503, DW_AT_decl_file("C:\ti\simplelink_cc13x0_sdk_1_50_00_08\examples\rtos\CC1
    1344                            .dwattr $C$DW$T$503, DW_AT_decl_line(0xc9)
    1345                            .dwattr $C$DW$T$503, DW_AT_decl_column(0x03)
    1346                    
    1347                    
    1348                    $C$DW$T$504     .dwtag  DW_TAG_enumeration_type
    1349                            .dwattr $C$DW$T$504, DW_AT_name("CC13X0_LAUNCHXL_PWM")
    1350                            .dwattr $C$DW$T$504, DW_AT_byte_size(0x01)
    1351                    $C$DW$114       .dwtag  DW_TAG_enumerator
    1352                            .dwattr $C$DW$114, DW_AT_name("CC13X0_LAUNCHXL_PWM0")
    1353                            .dwattr $C$DW$114, DW_AT_const_value(0x00)
    1354                            .dwattr $C$DW$114, DW_AT_decl_file("C:\ti\simplelink_cc13x0_sdk_1_50_00_08\examples\rtos\CC131
    1355                            .dwattr $C$DW$114, DW_AT_decl_line(0x119)
    1356                            .dwattr $C$DW$114, DW_AT_decl_column(0x05)
    1357                    
    1358                    $C$DW$115       .dwtag  DW_TAG_enumerator
    1359                            .dwattr $C$DW$115, DW_AT_name("CC13X0_LAUNCHXL_PWM1")
    1360                            .dwattr $C$DW$115, DW_AT_const_value(0x01)
    1361                            .dwattr $C$DW$115, DW_AT_decl_file("C:\ti\simplelink_cc13x0_sdk_1_50_00_08\examples\rtos\CC131
    1362                            .dwattr $C$DW$115, DW_AT_decl_line(0x11a)
    1363                            .dwattr $C$DW$115, DW_AT_decl_column(0x05)
    1364                    
    1365                    $C$DW$116       .dwtag  DW_TAG_enumerator
    1366                            .dwattr $C$DW$116, DW_AT_name("CC13X0_LAUNCHXL_PWM2")
    1367                            .dwattr $C$DW$116, DW_AT_const_value(0x02)
    1368                            .dwattr $C$DW$116, DW_AT_decl_file("C:\ti\simplelink_cc13x0_sdk_1_50_00_08\examples\rtos\CC131
    1369                            .dwattr $C$DW$116, DW_AT_decl_line(0x11b)
    1370                            .dwattr $C$DW$116, DW_AT_decl_column(0x05)
TI ARM Assembler PC v16.9.4 Sat Nov 18 18:46:18 2017

Tools Copyright (c) 1996-2017 Texas Instruments Incorporated
C:\Users\Kevin\AppData\Local\Temp\{5A8B501C-33CF-4805-A507-0ACBE2D1F927} PAGE   26

    1371                    
    1372                    $C$DW$117       .dwtag  DW_TAG_enumerator
    1373                            .dwattr $C$DW$117, DW_AT_name("CC13X0_LAUNCHXL_PWM3")
    1374                            .dwattr $C$DW$117, DW_AT_const_value(0x03)
    1375                            .dwattr $C$DW$117, DW_AT_decl_file("C:\ti\simplelink_cc13x0_sdk_1_50_00_08\examples\rtos\CC131
    1376                            .dwattr $C$DW$117, DW_AT_decl_line(0x11c)
    1377                            .dwattr $C$DW$117, DW_AT_decl_column(0x05)
    1378                    
    1379                    $C$DW$118       .dwtag  DW_TAG_enumerator
    1380                            .dwattr $C$DW$118, DW_AT_name("CC13X0_LAUNCHXL_PWM4")
    1381                            .dwattr $C$DW$118, DW_AT_const_value(0x04)
    1382                            .dwattr $C$DW$118, DW_AT_decl_file("C:\ti\simplelink_cc13x0_sdk_1_50_00_08\examples\rtos\CC131
    1383                            .dwattr $C$DW$118, DW_AT_decl_line(0x11d)
    1384                            .dwattr $C$DW$118, DW_AT_decl_column(0x05)
    1385                    
    1386                    $C$DW$119       .dwtag  DW_TAG_enumerator
    1387                            .dwattr $C$DW$119, DW_AT_name("CC13X0_LAUNCHXL_PWM5")
    1388                            .dwattr $C$DW$119, DW_AT_const_value(0x05)
    1389                            .dwattr $C$DW$119, DW_AT_decl_file("C:\ti\simplelink_cc13x0_sdk_1_50_00_08\examples\rtos\CC131
    1390                            .dwattr $C$DW$119, DW_AT_decl_line(0x11e)
    1391                            .dwattr $C$DW$119, DW_AT_decl_column(0x05)
    1392                    
    1393                    $C$DW$120       .dwtag  DW_TAG_enumerator
    1394                            .dwattr $C$DW$120, DW_AT_name("CC13X0_LAUNCHXL_PWM6")
    1395                            .dwattr $C$DW$120, DW_AT_const_value(0x06)
    1396                            .dwattr $C$DW$120, DW_AT_decl_file("C:\ti\simplelink_cc13x0_sdk_1_50_00_08\examples\rtos\CC131
    1397                            .dwattr $C$DW$120, DW_AT_decl_line(0x11f)
    1398                            .dwattr $C$DW$120, DW_AT_decl_column(0x05)
    1399                    
    1400                    $C$DW$121       .dwtag  DW_TAG_enumerator
    1401                            .dwattr $C$DW$121, DW_AT_name("CC13X0_LAUNCHXL_PWM7")
    1402                            .dwattr $C$DW$121, DW_AT_const_value(0x07)
    1403                            .dwattr $C$DW$121, DW_AT_decl_file("C:\ti\simplelink_cc13x0_sdk_1_50_00_08\examples\rtos\CC131
    1404                            .dwattr $C$DW$121, DW_AT_decl_line(0x120)
    1405                            .dwattr $C$DW$121, DW_AT_decl_column(0x05)
    1406                    
    1407                    $C$DW$122       .dwtag  DW_TAG_enumerator
    1408                            .dwattr $C$DW$122, DW_AT_name("CC13X0_LAUNCHXL_PWMCOUNT")
    1409                            .dwattr $C$DW$122, DW_AT_const_value(0x08)
    1410                            .dwattr $C$DW$122, DW_AT_decl_file("C:\ti\simplelink_cc13x0_sdk_1_50_00_08\examples\rtos\CC131
    1411                            .dwattr $C$DW$122, DW_AT_decl_line(0x121)
    1412                            .dwattr $C$DW$122, DW_AT_decl_column(0x05)
    1413                    
    1414                            .dwattr $C$DW$T$504, DW_AT_decl_file("C:\ti\simplelink_cc13x0_sdk_1_50_00_08\examples\rtos\CC1
    1415                            .dwattr $C$DW$T$504, DW_AT_decl_line(0x117)
    1416                            .dwattr $C$DW$T$504, DW_AT_decl_column(0x0e)
    1417                            .dwendtag $C$DW$T$504
    1418                    
    1419                    $C$DW$T$505     .dwtag  DW_TAG_typedef
    1420                            .dwattr $C$DW$T$505, DW_AT_name("CC13X0_LAUNCHXL_PWM")
    1421                            .dwattr $C$DW$T$505, DW_AT_type(*$C$DW$T$504)
    1422                            .dwattr $C$DW$T$505, DW_AT_language(DW_LANG_C)
    1423                            .dwattr $C$DW$T$505, DW_AT_decl_file("C:\ti\simplelink_cc13x0_sdk_1_50_00_08\examples\rtos\CC1
    1424                            .dwattr $C$DW$T$505, DW_AT_decl_line(0x122)
    1425                            .dwattr $C$DW$T$505, DW_AT_decl_column(0x03)
TI ARM Assembler PC v16.9.4 Sat Nov 18 18:46:18 2017

Tools Copyright (c) 1996-2017 Texas Instruments Incorporated
C:\Users\Kevin\AppData\Local\Temp\{5A8B501C-33CF-4805-A507-0ACBE2D1F927} PAGE   27

    1426                    
    1427                    
    1428                    $C$DW$T$506     .dwtag  DW_TAG_enumeration_type
    1429                            .dwattr $C$DW$T$506, DW_AT_name("CC13X0_LAUNCHXL_SPIName")
    1430                            .dwattr $C$DW$T$506, DW_AT_byte_size(0x01)
    1431                    $C$DW$123       .dwtag  DW_TAG_enumerator
    1432                            .dwattr $C$DW$123, DW_AT_name("CC13X0_LAUNCHXL_SPI0")
    1433                            .dwattr $C$DW$123, DW_AT_const_value(0x00)
    1434                            .dwattr $C$DW$123, DW_AT_decl_file("C:\ti\simplelink_cc13x0_sdk_1_50_00_08\examples\rtos\CC131
    1435                            .dwattr $C$DW$123, DW_AT_decl_line(0xdb)
    1436                            .dwattr $C$DW$123, DW_AT_decl_column(0x05)
    1437                    
    1438                    $C$DW$124       .dwtag  DW_TAG_enumerator
    1439                            .dwattr $C$DW$124, DW_AT_name("CC13X0_LAUNCHXL_SPI1")
    1440                            .dwattr $C$DW$124, DW_AT_const_value(0x01)
    1441                            .dwattr $C$DW$124, DW_AT_decl_file("C:\ti\simplelink_cc13x0_sdk_1_50_00_08\examples\rtos\CC131
    1442                            .dwattr $C$DW$124, DW_AT_decl_line(0xdc)
    1443                            .dwattr $C$DW$124, DW_AT_decl_column(0x05)
    1444                    
    1445                    $C$DW$125       .dwtag  DW_TAG_enumerator
    1446                            .dwattr $C$DW$125, DW_AT_name("CC13X0_LAUNCHXL_SPICOUNT")
    1447                            .dwattr $C$DW$125, DW_AT_const_value(0x02)
    1448                            .dwattr $C$DW$125, DW_AT_decl_file("C:\ti\simplelink_cc13x0_sdk_1_50_00_08\examples\rtos\CC131
    1449                            .dwattr $C$DW$125, DW_AT_decl_line(0xde)
    1450                            .dwattr $C$DW$125, DW_AT_decl_column(0x05)
    1451                    
    1452                            .dwattr $C$DW$T$506, DW_AT_decl_file("C:\ti\simplelink_cc13x0_sdk_1_50_00_08\examples\rtos\CC1
    1453                            .dwattr $C$DW$T$506, DW_AT_decl_line(0xda)
    1454                            .dwattr $C$DW$T$506, DW_AT_decl_column(0x0e)
    1455                            .dwendtag $C$DW$T$506
    1456                    
    1457                    $C$DW$T$507     .dwtag  DW_TAG_typedef
    1458                            .dwattr $C$DW$T$507, DW_AT_name("CC13X0_LAUNCHXL_SPIName")
    1459                            .dwattr $C$DW$T$507, DW_AT_type(*$C$DW$T$506)
    1460                            .dwattr $C$DW$T$507, DW_AT_language(DW_LANG_C)
    1461                            .dwattr $C$DW$T$507, DW_AT_decl_file("C:\ti\simplelink_cc13x0_sdk_1_50_00_08\examples\rtos\CC1
    1462                            .dwattr $C$DW$T$507, DW_AT_decl_line(0xdf)
    1463                            .dwattr $C$DW$T$507, DW_AT_decl_column(0x03)
    1464                    
    1465                    
    1466                    $C$DW$T$508     .dwtag  DW_TAG_enumeration_type
    1467                            .dwattr $C$DW$T$508, DW_AT_name("CC13X0_LAUNCHXL_UARTName")
    1468                            .dwattr $C$DW$T$508, DW_AT_byte_size(0x01)
    1469                    $C$DW$126       .dwtag  DW_TAG_enumerator
    1470                            .dwattr $C$DW$126, DW_AT_name("CC13X0_LAUNCHXL_UART0")
    1471                            .dwattr $C$DW$126, DW_AT_const_value(0x00)
    1472                            .dwattr $C$DW$126, DW_AT_decl_file("C:\ti\simplelink_cc13x0_sdk_1_50_00_08\examples\rtos\CC131
    1473                            .dwattr $C$DW$126, DW_AT_decl_line(0xe6)
    1474                            .dwattr $C$DW$126, DW_AT_decl_column(0x05)
    1475                    
    1476                    $C$DW$127       .dwtag  DW_TAG_enumerator
    1477                            .dwattr $C$DW$127, DW_AT_name("CC13X0_LAUNCHXL_UARTCOUNT")
    1478                            .dwattr $C$DW$127, DW_AT_const_value(0x01)
    1479                            .dwattr $C$DW$127, DW_AT_decl_file("C:\ti\simplelink_cc13x0_sdk_1_50_00_08\examples\rtos\CC131
    1480                            .dwattr $C$DW$127, DW_AT_decl_line(0xe8)
TI ARM Assembler PC v16.9.4 Sat Nov 18 18:46:18 2017

Tools Copyright (c) 1996-2017 Texas Instruments Incorporated
C:\Users\Kevin\AppData\Local\Temp\{5A8B501C-33CF-4805-A507-0ACBE2D1F927} PAGE   28

    1481                            .dwattr $C$DW$127, DW_AT_decl_column(0x05)
    1482                    
    1483                            .dwattr $C$DW$T$508, DW_AT_decl_file("C:\ti\simplelink_cc13x0_sdk_1_50_00_08\examples\rtos\CC1
    1484                            .dwattr $C$DW$T$508, DW_AT_decl_line(0xe5)
    1485                            .dwattr $C$DW$T$508, DW_AT_decl_column(0x0e)
    1486                            .dwendtag $C$DW$T$508
    1487                    
    1488                    $C$DW$T$509     .dwtag  DW_TAG_typedef
    1489                            .dwattr $C$DW$T$509, DW_AT_name("CC13X0_LAUNCHXL_UARTName")
    1490                            .dwattr $C$DW$T$509, DW_AT_type(*$C$DW$T$508)
    1491                            .dwattr $C$DW$T$509, DW_AT_language(DW_LANG_C)
    1492                            .dwattr $C$DW$T$509, DW_AT_decl_file("C:\ti\simplelink_cc13x0_sdk_1_50_00_08\examples\rtos\CC1
    1493                            .dwattr $C$DW$T$509, DW_AT_decl_line(0xe9)
    1494                            .dwattr $C$DW$T$509, DW_AT_decl_column(0x03)
    1495                    
    1496                    
    1497                    $C$DW$T$510     .dwtag  DW_TAG_enumeration_type
    1498                            .dwattr $C$DW$T$510, DW_AT_name("CC13X0_LAUNCHXL_UdmaName")
    1499                            .dwattr $C$DW$T$510, DW_AT_byte_size(0x01)
    1500                    $C$DW$128       .dwtag  DW_TAG_enumerator
    1501                            .dwattr $C$DW$128, DW_AT_name("CC13X0_LAUNCHXL_UDMA0")
    1502                            .dwattr $C$DW$128, DW_AT_const_value(0x00)
    1503                            .dwattr $C$DW$128, DW_AT_decl_file("C:\ti\simplelink_cc13x0_sdk_1_50_00_08\examples\rtos\CC131
    1504                            .dwattr $C$DW$128, DW_AT_decl_line(0xf0)
    1505                            .dwattr $C$DW$128, DW_AT_decl_column(0x05)
    1506                    
    1507                    $C$DW$129       .dwtag  DW_TAG_enumerator
    1508                            .dwattr $C$DW$129, DW_AT_name("CC13X0_LAUNCHXL_UDMACOUNT")
    1509                            .dwattr $C$DW$129, DW_AT_const_value(0x01)
    1510                            .dwattr $C$DW$129, DW_AT_decl_file("C:\ti\simplelink_cc13x0_sdk_1_50_00_08\examples\rtos\CC131
    1511                            .dwattr $C$DW$129, DW_AT_decl_line(0xf2)
    1512                            .dwattr $C$DW$129, DW_AT_decl_column(0x05)
    1513                    
    1514                            .dwattr $C$DW$T$510, DW_AT_decl_file("C:\ti\simplelink_cc13x0_sdk_1_50_00_08\examples\rtos\CC1
    1515                            .dwattr $C$DW$T$510, DW_AT_decl_line(0xef)
    1516                            .dwattr $C$DW$T$510, DW_AT_decl_column(0x0e)
    1517                            .dwendtag $C$DW$T$510
    1518                    
    1519                    $C$DW$T$511     .dwtag  DW_TAG_typedef
    1520                            .dwattr $C$DW$T$511, DW_AT_name("CC13X0_LAUNCHXL_UdmaName")
    1521                            .dwattr $C$DW$T$511, DW_AT_type(*$C$DW$T$510)
    1522                            .dwattr $C$DW$T$511, DW_AT_language(DW_LANG_C)
    1523                            .dwattr $C$DW$T$511, DW_AT_decl_file("C:\ti\simplelink_cc13x0_sdk_1_50_00_08\examples\rtos\CC1
    1524                            .dwattr $C$DW$T$511, DW_AT_decl_line(0xf3)
    1525                            .dwattr $C$DW$T$511, DW_AT_decl_column(0x03)
    1526                    
    1527                    
    1528                    $C$DW$T$512     .dwtag  DW_TAG_enumeration_type
    1529                            .dwattr $C$DW$T$512, DW_AT_name("CC13X0_LAUNCHXL_WatchdogName")
    1530                            .dwattr $C$DW$T$512, DW_AT_byte_size(0x01)
    1531                    $C$DW$130       .dwtag  DW_TAG_enumerator
    1532                            .dwattr $C$DW$130, DW_AT_name("CC13X0_LAUNCHXL_WATCHDOG0")
    1533                            .dwattr $C$DW$130, DW_AT_const_value(0x00)
    1534                            .dwattr $C$DW$130, DW_AT_decl_file("C:\ti\simplelink_cc13x0_sdk_1_50_00_08\examples\rtos\CC131
    1535                            .dwattr $C$DW$130, DW_AT_decl_line(0x146)
TI ARM Assembler PC v16.9.4 Sat Nov 18 18:46:18 2017

Tools Copyright (c) 1996-2017 Texas Instruments Incorporated
C:\Users\Kevin\AppData\Local\Temp\{5A8B501C-33CF-4805-A507-0ACBE2D1F927} PAGE   29

    1536                            .dwattr $C$DW$130, DW_AT_decl_column(0x05)
    1537                    
    1538                    $C$DW$131       .dwtag  DW_TAG_enumerator
    1539                            .dwattr $C$DW$131, DW_AT_name("CC13X0_LAUNCHXL_WATCHDOGCOUNT")
    1540                            .dwattr $C$DW$131, DW_AT_const_value(0x01)
    1541                            .dwattr $C$DW$131, DW_AT_decl_file("C:\ti\simplelink_cc13x0_sdk_1_50_00_08\examples\rtos\CC131
    1542                            .dwattr $C$DW$131, DW_AT_decl_line(0x148)
    1543                            .dwattr $C$DW$131, DW_AT_decl_column(0x05)
    1544                    
    1545                            .dwattr $C$DW$T$512, DW_AT_decl_file("C:\ti\simplelink_cc13x0_sdk_1_50_00_08\examples\rtos\CC1
    1546                            .dwattr $C$DW$T$512, DW_AT_decl_line(0x145)
    1547                            .dwattr $C$DW$T$512, DW_AT_decl_column(0x0e)
    1548                            .dwendtag $C$DW$T$512
    1549                    
    1550                    $C$DW$T$513     .dwtag  DW_TAG_typedef
    1551                            .dwattr $C$DW$T$513, DW_AT_name("CC13X0_LAUNCHXL_WatchdogName")
    1552                            .dwattr $C$DW$T$513, DW_AT_type(*$C$DW$T$512)
    1553                            .dwattr $C$DW$T$513, DW_AT_language(DW_LANG_C)
    1554                            .dwattr $C$DW$T$513, DW_AT_decl_file("C:\ti\simplelink_cc13x0_sdk_1_50_00_08\examples\rtos\CC1
    1555                            .dwattr $C$DW$T$513, DW_AT_decl_line(0x149)
    1556                            .dwattr $C$DW$T$513, DW_AT_decl_column(0x03)
    1557                    
    1558                    
    1559                    $C$DW$T$193     .dwtag  DW_TAG_structure_type
    1560                            .dwattr $C$DW$T$193, DW_AT_name("List_Elem")
    1561                            .dwattr $C$DW$T$193, DW_AT_byte_size(0x08)
    1562                    $C$DW$132       .dwtag  DW_TAG_member
    1563                            .dwattr $C$DW$132, DW_AT_type(*$C$DW$T$192)
    1564                            .dwattr $C$DW$132, DW_AT_name("next")
    1565                            .dwattr $C$DW$132, DW_AT_TI_symbol_name("next")
    1566                            .dwattr $C$DW$132, DW_AT_data_member_location[DW_OP_plus_uconst 0x0]
    1567                            .dwattr $C$DW$132, DW_AT_accessibility(DW_ACCESS_public)
    1568                            .dwattr $C$DW$132, DW_AT_decl_file("C:/ti/simplelink_cc13x0_sdk_1_50_00_08/source/ti/drivers/u
    1569                            .dwattr $C$DW$132, DW_AT_decl_line(0x7f)
    1570                            .dwattr $C$DW$132, DW_AT_decl_column(0x17)
    1571                    
    1572                    $C$DW$133       .dwtag  DW_TAG_member
    1573                            .dwattr $C$DW$133, DW_AT_type(*$C$DW$T$192)
    1574                            .dwattr $C$DW$133, DW_AT_name("prev")
    1575                            .dwattr $C$DW$133, DW_AT_TI_symbol_name("prev")
    1576                            .dwattr $C$DW$133, DW_AT_data_member_location[DW_OP_plus_uconst 0x4]
    1577                            .dwattr $C$DW$133, DW_AT_accessibility(DW_ACCESS_public)
    1578                            .dwattr $C$DW$133, DW_AT_decl_file("C:/ti/simplelink_cc13x0_sdk_1_50_00_08/source/ti/drivers/u
    1579                            .dwattr $C$DW$133, DW_AT_decl_line(0x80)
    1580                            .dwattr $C$DW$133, DW_AT_decl_column(0x17)
    1581                    
    1582                            .dwattr $C$DW$T$193, DW_AT_decl_file("C:/ti/simplelink_cc13x0_sdk_1_50_00_08/source/ti/drivers
    1583                            .dwattr $C$DW$T$193, DW_AT_decl_line(0x7e)
    1584                            .dwattr $C$DW$T$193, DW_AT_decl_column(0x10)
    1585                            .dwendtag $C$DW$T$193
    1586                    
    1587                    $C$DW$T$194     .dwtag  DW_TAG_typedef
    1588                            .dwattr $C$DW$T$194, DW_AT_name("List_Elem")
    1589                            .dwattr $C$DW$T$194, DW_AT_type(*$C$DW$T$193)
    1590                            .dwattr $C$DW$T$194, DW_AT_language(DW_LANG_C)
TI ARM Assembler PC v16.9.4 Sat Nov 18 18:46:18 2017

Tools Copyright (c) 1996-2017 Texas Instruments Incorporated
C:\Users\Kevin\AppData\Local\Temp\{5A8B501C-33CF-4805-A507-0ACBE2D1F927} PAGE   30

    1591                            .dwattr $C$DW$T$194, DW_AT_decl_file("C:/ti/simplelink_cc13x0_sdk_1_50_00_08/source/ti/drivers
    1592                            .dwattr $C$DW$T$194, DW_AT_decl_line(0x81)
    1593                            .dwattr $C$DW$T$194, DW_AT_decl_column(0x03)
    1594                    
    1595                    $C$DW$T$195     .dwtag  DW_TAG_pointer_type
    1596                            .dwattr $C$DW$T$195, DW_AT_type(*$C$DW$T$194)
    1597                            .dwattr $C$DW$T$195, DW_AT_address_class(0x20)
    1598                    
    1599                    $C$DW$T$192     .dwtag  DW_TAG_pointer_type
    1600                            .dwattr $C$DW$T$192, DW_AT_type(*$C$DW$T$193)
    1601                            .dwattr $C$DW$T$192, DW_AT_address_class(0x20)
    1602                    
    1603                    
    1604                    $C$DW$T$196     .dwtag  DW_TAG_structure_type
    1605                            .dwattr $C$DW$T$196, DW_AT_name("List_List")
    1606                            .dwattr $C$DW$T$196, DW_AT_byte_size(0x08)
    1607                    $C$DW$134       .dwtag  DW_TAG_member
    1608                            .dwattr $C$DW$134, DW_AT_type(*$C$DW$T$195)
    1609                            .dwattr $C$DW$134, DW_AT_name("head")
    1610                            .dwattr $C$DW$134, DW_AT_TI_symbol_name("head")
    1611                            .dwattr $C$DW$134, DW_AT_data_member_location[DW_OP_plus_uconst 0x0]
    1612                            .dwattr $C$DW$134, DW_AT_accessibility(DW_ACCESS_public)
    1613                            .dwattr $C$DW$134, DW_AT_decl_file("C:/ti/simplelink_cc13x0_sdk_1_50_00_08/source/ti/drivers/u
    1614                            .dwattr $C$DW$134, DW_AT_decl_line(0x84)
    1615                            .dwattr $C$DW$134, DW_AT_decl_column(0x10)
    1616                    
    1617                    $C$DW$135       .dwtag  DW_TAG_member
    1618                            .dwattr $C$DW$135, DW_AT_type(*$C$DW$T$195)
    1619                            .dwattr $C$DW$135, DW_AT_name("tail")
    1620                            .dwattr $C$DW$135, DW_AT_TI_symbol_name("tail")
    1621                            .dwattr $C$DW$135, DW_AT_data_member_location[DW_OP_plus_uconst 0x4]
    1622                            .dwattr $C$DW$135, DW_AT_accessibility(DW_ACCESS_public)
    1623                            .dwattr $C$DW$135, DW_AT_decl_file("C:/ti/simplelink_cc13x0_sdk_1_50_00_08/source/ti/drivers/u
    1624                            .dwattr $C$DW$135, DW_AT_decl_line(0x85)
    1625                            .dwattr $C$DW$135, DW_AT_decl_column(0x10)
    1626                    
    1627                            .dwattr $C$DW$T$196, DW_AT_decl_file("C:/ti/simplelink_cc13x0_sdk_1_50_00_08/source/ti/drivers
    1628                            .dwattr $C$DW$T$196, DW_AT_decl_line(0x83)
    1629                            .dwattr $C$DW$T$196, DW_AT_decl_column(0x10)
    1630                            .dwendtag $C$DW$T$196
    1631                    
    1632                    $C$DW$T$514     .dwtag  DW_TAG_typedef
    1633                            .dwattr $C$DW$T$514, DW_AT_name("List_List")
    1634                            .dwattr $C$DW$T$514, DW_AT_type(*$C$DW$T$196)
    1635                            .dwattr $C$DW$T$514, DW_AT_language(DW_LANG_C)
    1636                            .dwattr $C$DW$T$514, DW_AT_decl_file("C:/ti/simplelink_cc13x0_sdk_1_50_00_08/source/ti/drivers
    1637                            .dwattr $C$DW$T$514, DW_AT_decl_line(0x86)
    1638                            .dwattr $C$DW$T$514, DW_AT_decl_column(0x03)
    1639                    
    1640                    
    1641                    $C$DW$T$205     .dwtag  DW_TAG_structure_type
    1642                            .dwattr $C$DW$T$205, DW_AT_name("PIN_State_s")
    1643                            .dwattr $C$DW$T$205, DW_AT_byte_size(0x0c)
    1644                    $C$DW$136       .dwtag  DW_TAG_member
    1645                            .dwattr $C$DW$136, DW_AT_type(*$C$DW$T$203)
TI ARM Assembler PC v16.9.4 Sat Nov 18 18:46:18 2017

Tools Copyright (c) 1996-2017 Texas Instruments Incorporated
C:\Users\Kevin\AppData\Local\Temp\{5A8B501C-33CF-4805-A507-0ACBE2D1F927} PAGE   31

    1646                            .dwattr $C$DW$136, DW_AT_name("callbackFxn")
    1647                            .dwattr $C$DW$136, DW_AT_TI_symbol_name("callbackFxn")
    1648                            .dwattr $C$DW$136, DW_AT_data_member_location[DW_OP_plus_uconst 0x0]
    1649                            .dwattr $C$DW$136, DW_AT_accessibility(DW_ACCESS_public)
    1650                            .dwattr $C$DW$136, DW_AT_decl_file("C:/ti/simplelink_cc13x0_sdk_1_50_00_08/source/ti/drivers/P
    1651                            .dwattr $C$DW$136, DW_AT_decl_line(0x2aa)
    1652                            .dwattr $C$DW$136, DW_AT_decl_column(0x11)
    1653                    
    1654                    $C$DW$137       .dwtag  DW_TAG_member
    1655                            .dwattr $C$DW$137, DW_AT_type(*$C$DW$T$143)
    1656                            .dwattr $C$DW$137, DW_AT_name("portMask")
    1657                            .dwattr $C$DW$137, DW_AT_TI_symbol_name("portMask")
    1658                            .dwattr $C$DW$137, DW_AT_data_member_location[DW_OP_plus_uconst 0x4]
    1659                            .dwattr $C$DW$137, DW_AT_accessibility(DW_ACCESS_public)
    1660                            .dwattr $C$DW$137, DW_AT_decl_file("C:/ti/simplelink_cc13x0_sdk_1_50_00_08/source/ti/drivers/P
    1661                            .dwattr $C$DW$137, DW_AT_decl_line(0x2ab)
    1662                            .dwattr $C$DW$137, DW_AT_decl_column(0x11)
    1663                    
    1664                    $C$DW$138       .dwtag  DW_TAG_member
    1665                            .dwattr $C$DW$138, DW_AT_type(*$C$DW$T$204)
    1666                            .dwattr $C$DW$138, DW_AT_name("userArg")
    1667                            .dwattr $C$DW$138, DW_AT_TI_symbol_name("userArg")
    1668                            .dwattr $C$DW$138, DW_AT_data_member_location[DW_OP_plus_uconst 0x8]
    1669                            .dwattr $C$DW$138, DW_AT_accessibility(DW_ACCESS_public)
    1670                            .dwattr $C$DW$138, DW_AT_decl_file("C:/ti/simplelink_cc13x0_sdk_1_50_00_08/source/ti/drivers/P
    1671                            .dwattr $C$DW$138, DW_AT_decl_line(0x2ac)
    1672                            .dwattr $C$DW$138, DW_AT_decl_column(0x11)
    1673                    
    1674                            .dwattr $C$DW$T$205, DW_AT_decl_file("C:/ti/simplelink_cc13x0_sdk_1_50_00_08/source/ti/drivers
    1675                            .dwattr $C$DW$T$205, DW_AT_decl_line(0x2a9)
    1676                            .dwattr $C$DW$T$205, DW_AT_decl_column(0x08)
    1677                            .dwendtag $C$DW$T$205
    1678                    
    1679                    $C$DW$T$197     .dwtag  DW_TAG_typedef
    1680                            .dwattr $C$DW$T$197, DW_AT_name("PIN_State")
    1681                            .dwattr $C$DW$T$197, DW_AT_type(*$C$DW$T$205)
    1682                            .dwattr $C$DW$T$197, DW_AT_language(DW_LANG_C)
    1683                            .dwattr $C$DW$T$197, DW_AT_decl_file("C:/ti/simplelink_cc13x0_sdk_1_50_00_08/source/ti/drivers
    1684                            .dwattr $C$DW$T$197, DW_AT_decl_line(0x292)
    1685                            .dwattr $C$DW$T$197, DW_AT_decl_column(0x1c)
    1686                    
    1687                    $C$DW$T$198     .dwtag  DW_TAG_pointer_type
    1688                            .dwattr $C$DW$T$198, DW_AT_type(*$C$DW$T$197)
    1689                            .dwattr $C$DW$T$198, DW_AT_address_class(0x20)
    1690                    
    1691                    $C$DW$T$199     .dwtag  DW_TAG_typedef
    1692                            .dwattr $C$DW$T$199, DW_AT_name("PIN_Handle")
    1693                            .dwattr $C$DW$T$199, DW_AT_type(*$C$DW$T$198)
    1694                            .dwattr $C$DW$T$199, DW_AT_language(DW_LANG_C)
    1695                            .dwattr $C$DW$T$199, DW_AT_decl_file("C:/ti/simplelink_cc13x0_sdk_1_50_00_08/source/ti/drivers
    1696                            .dwattr $C$DW$T$199, DW_AT_decl_line(0x298)
    1697                            .dwattr $C$DW$T$199, DW_AT_decl_column(0x14)
    1698                    
    1699                    $C$DW$T$189     .dwtag  DW_TAG_pointer_type
    1700                            .dwattr $C$DW$T$189, DW_AT_type(*$C$DW$T$205)
TI ARM Assembler PC v16.9.4 Sat Nov 18 18:46:18 2017

Tools Copyright (c) 1996-2017 Texas Instruments Incorporated
C:\Users\Kevin\AppData\Local\Temp\{5A8B501C-33CF-4805-A507-0ACBE2D1F927} PAGE   32

    1701                            .dwattr $C$DW$T$189, DW_AT_address_class(0x20)
    1702                    
    1703                    
    1704                    $C$DW$T$212     .dwtag  DW_TAG_structure_type
    1705                            .dwattr $C$DW$T$212, DW_AT_name("Power_NotifyObj_")
    1706                            .dwattr $C$DW$T$212, DW_AT_byte_size(0x14)
    1707                    $C$DW$139       .dwtag  DW_TAG_member
    1708                            .dwattr $C$DW$139, DW_AT_type(*$C$DW$T$194)
    1709                            .dwattr $C$DW$139, DW_AT_name("link")
    1710                            .dwattr $C$DW$139, DW_AT_TI_symbol_name("link")
    1711                            .dwattr $C$DW$139, DW_AT_data_member_location[DW_OP_plus_uconst 0x0]
    1712                            .dwattr $C$DW$139, DW_AT_accessibility(DW_ACCESS_public)
    1713                            .dwattr $C$DW$139, DW_AT_decl_file("C:/ti/simplelink_cc13x0_sdk_1_50_00_08/source/ti/drivers/P
    1714                            .dwattr $C$DW$139, DW_AT_decl_line(0x74)
    1715                            .dwattr $C$DW$139, DW_AT_decl_column(0x0f)
    1716                    
    1717                    $C$DW$140       .dwtag  DW_TAG_member
    1718                            .dwattr $C$DW$140, DW_AT_type(*$C$DW$T$206)
    1719                            .dwattr $C$DW$140, DW_AT_name("eventTypes")
    1720                            .dwattr $C$DW$140, DW_AT_TI_symbol_name("eventTypes")
    1721                            .dwattr $C$DW$140, DW_AT_data_member_location[DW_OP_plus_uconst 0x8]
    1722                            .dwattr $C$DW$140, DW_AT_accessibility(DW_ACCESS_public)
    1723                            .dwattr $C$DW$140, DW_AT_decl_file("C:/ti/simplelink_cc13x0_sdk_1_50_00_08/source/ti/drivers/P
    1724                            .dwattr $C$DW$140, DW_AT_decl_line(0x75)
    1725                            .dwattr $C$DW$140, DW_AT_decl_column(0x13)
    1726                    
    1727                    $C$DW$141       .dwtag  DW_TAG_member
    1728                            .dwattr $C$DW$141, DW_AT_type(*$C$DW$T$211)
    1729                            .dwattr $C$DW$141, DW_AT_name("notifyFxn")
    1730                            .dwattr $C$DW$141, DW_AT_TI_symbol_name("notifyFxn")
    1731                            .dwattr $C$DW$141, DW_AT_data_member_location[DW_OP_plus_uconst 0xc]
    1732                            .dwattr $C$DW$141, DW_AT_accessibility(DW_ACCESS_public)
    1733                            .dwattr $C$DW$141, DW_AT_decl_file("C:/ti/simplelink_cc13x0_sdk_1_50_00_08/source/ti/drivers/P
    1734                            .dwattr $C$DW$141, DW_AT_decl_line(0x76)
    1735                            .dwattr $C$DW$141, DW_AT_decl_column(0x15)
    1736                    
    1737                    $C$DW$142       .dwtag  DW_TAG_member
    1738                            .dwattr $C$DW$142, DW_AT_type(*$C$DW$T$204)
    1739                            .dwattr $C$DW$142, DW_AT_name("clientArg")
    1740                            .dwattr $C$DW$142, DW_AT_TI_symbol_name("clientArg")
    1741                            .dwattr $C$DW$142, DW_AT_data_member_location[DW_OP_plus_uconst 0x10]
    1742                            .dwattr $C$DW$142, DW_AT_accessibility(DW_ACCESS_public)
    1743                            .dwattr $C$DW$142, DW_AT_decl_file("C:/ti/simplelink_cc13x0_sdk_1_50_00_08/source/ti/drivers/P
    1744                            .dwattr $C$DW$142, DW_AT_decl_line(0x77)
    1745                            .dwattr $C$DW$142, DW_AT_decl_column(0x0f)
    1746                    
    1747                            .dwattr $C$DW$T$212, DW_AT_decl_file("C:/ti/simplelink_cc13x0_sdk_1_50_00_08/source/ti/drivers
    1748                            .dwattr $C$DW$T$212, DW_AT_decl_line(0x73)
    1749                            .dwattr $C$DW$T$212, DW_AT_decl_column(0x10)
    1750                            .dwendtag $C$DW$T$212
    1751                    
    1752                    $C$DW$T$522     .dwtag  DW_TAG_typedef
    1753                            .dwattr $C$DW$T$522, DW_AT_name("Power_NotifyObj")
    1754                            .dwattr $C$DW$T$522, DW_AT_type(*$C$DW$T$212)
    1755                            .dwattr $C$DW$T$522, DW_AT_language(DW_LANG_C)
TI ARM Assembler PC v16.9.4 Sat Nov 18 18:46:18 2017

Tools Copyright (c) 1996-2017 Texas Instruments Incorporated
C:\Users\Kevin\AppData\Local\Temp\{5A8B501C-33CF-4805-A507-0ACBE2D1F927} PAGE   33

    1756                            .dwattr $C$DW$T$522, DW_AT_decl_file("C:/ti/simplelink_cc13x0_sdk_1_50_00_08/source/ti/drivers
    1757                            .dwattr $C$DW$T$522, DW_AT_decl_line(0x78)
    1758                            .dwattr $C$DW$T$522, DW_AT_decl_column(0x03)
    1759                    
    1760                    $C$DW$T$2       .dwtag  DW_TAG_unspecified_type
    1761                            .dwattr $C$DW$T$2, DW_AT_name("void")
    1762                    
    1763                    $C$DW$T$3       .dwtag  DW_TAG_pointer_type
    1764                            .dwattr $C$DW$T$3, DW_AT_type(*$C$DW$T$2)
    1765                            .dwattr $C$DW$T$3, DW_AT_address_class(0x20)
    1766                    
    1767                    $C$DW$T$338     .dwtag  DW_TAG_typedef
    1768                            .dwattr $C$DW$T$338, DW_AT_name("xdc_Ptr")
    1769                            .dwattr $C$DW$T$338, DW_AT_type(*$C$DW$T$3)
    1770                            .dwattr $C$DW$T$338, DW_AT_language(DW_LANG_C)
    1771                            .dwattr $C$DW$T$338, DW_AT_decl_file("C:/ti/xdctools_3_50_03_33_core/packages/xdc/std.h")
    1772                            .dwattr $C$DW$T$338, DW_AT_decl_line(0x2e)
    1773                            .dwattr $C$DW$T$338, DW_AT_decl_column(0x1a)
    1774                    
    1775                    $C$DW$T$523     .dwtag  DW_TAG_typedef
    1776                            .dwattr $C$DW$T$523, DW_AT_name("CT__ti_sysbios_knl_Clock_Module__gateObj")
    1777                            .dwattr $C$DW$T$523, DW_AT_type(*$C$DW$T$338)
    1778                            .dwattr $C$DW$T$523, DW_AT_language(DW_LANG_C)
    1779                            .dwattr $C$DW$T$523, DW_AT_decl_file("C:/ti/simplelink_cc13x0_sdk_1_50_00_08/kernel/tirtos/pac
    1780                            .dwattr $C$DW$T$523, DW_AT_decl_line(0x8c)
    1781                            .dwattr $C$DW$T$523, DW_AT_decl_column(0x11)
    1782                    
    1783                    $C$DW$T$524     .dwtag  DW_TAG_typedef
    1784                            .dwattr $C$DW$T$524, DW_AT_name("CT__ti_sysbios_knl_Clock_Module__gatePrms")
    1785                            .dwattr $C$DW$T$524, DW_AT_type(*$C$DW$T$338)
    1786                            .dwattr $C$DW$T$524, DW_AT_language(DW_LANG_C)
    1787                            .dwattr $C$DW$T$524, DW_AT_decl_file("C:/ti/simplelink_cc13x0_sdk_1_50_00_08/kernel/tirtos/pac
    1788                            .dwattr $C$DW$T$524, DW_AT_decl_line(0x95)
    1789                            .dwattr $C$DW$T$524, DW_AT_decl_column(0x11)
    1790                    
    1791                    $C$DW$T$525     .dwtag  DW_TAG_typedef
    1792                            .dwattr $C$DW$T$525, DW_AT_name("CT__ti_sysbios_knl_Clock_Module__loggerObj")
    1793                            .dwattr $C$DW$T$525, DW_AT_type(*$C$DW$T$338)
    1794                            .dwattr $C$DW$T$525, DW_AT_language(DW_LANG_C)
    1795                            .dwattr $C$DW$T$525, DW_AT_decl_file("C:/ti/simplelink_cc13x0_sdk_1_50_00_08/kernel/tirtos/pac
    1796                            .dwattr $C$DW$T$525, DW_AT_decl_line(0xb0)
    1797                            .dwattr $C$DW$T$525, DW_AT_decl_column(0x11)
    1798                    
    1799                    $C$DW$T$526     .dwtag  DW_TAG_typedef
    1800                            .dwattr $C$DW$T$526, DW_AT_name("CT__ti_sysbios_knl_Clock_Object__table")
    1801                            .dwattr $C$DW$T$526, DW_AT_type(*$C$DW$T$338)
    1802                            .dwattr $C$DW$T$526, DW_AT_language(DW_LANG_C)
    1803                            .dwattr $C$DW$T$526, DW_AT_decl_file("C:/ti/simplelink_cc13x0_sdk_1_50_00_08/kernel/tirtos/pac
    1804                            .dwattr $C$DW$T$526, DW_AT_decl_line(0x101)
    1805                            .dwattr $C$DW$T$526, DW_AT_decl_column(0x11)
    1806                    
    1807                    $C$DW$T$527     .dwtag  DW_TAG_typedef
    1808                            .dwattr $C$DW$T$527, DW_AT_name("CT__ti_sysbios_knl_Clock_TimerProxy_Module__gateObj")
    1809                            .dwattr $C$DW$T$527, DW_AT_type(*$C$DW$T$338)
    1810                            .dwattr $C$DW$T$527, DW_AT_language(DW_LANG_C)
TI ARM Assembler PC v16.9.4 Sat Nov 18 18:46:18 2017

Tools Copyright (c) 1996-2017 Texas Instruments Incorporated
C:\Users\Kevin\AppData\Local\Temp\{5A8B501C-33CF-4805-A507-0ACBE2D1F927} PAGE   34

    1811                            .dwattr $C$DW$T$527, DW_AT_decl_file("C:/ti/simplelink_cc13x0_sdk_1_50_00_08/kernel/tirtos/pac
    1812                            .dwattr $C$DW$T$527, DW_AT_decl_line(0x80)
    1813                            .dwattr $C$DW$T$527, DW_AT_decl_column(0x11)
    1814                    
    1815                    $C$DW$T$528     .dwtag  DW_TAG_typedef
    1816                            .dwattr $C$DW$T$528, DW_AT_name("CT__ti_sysbios_knl_Clock_TimerProxy_Module__gatePrms")
    1817                            .dwattr $C$DW$T$528, DW_AT_type(*$C$DW$T$338)
    1818                            .dwattr $C$DW$T$528, DW_AT_language(DW_LANG_C)
    1819                            .dwattr $C$DW$T$528, DW_AT_decl_file("C:/ti/simplelink_cc13x0_sdk_1_50_00_08/kernel/tirtos/pac
    1820                            .dwattr $C$DW$T$528, DW_AT_decl_line(0x89)
    1821                            .dwattr $C$DW$T$528, DW_AT_decl_column(0x11)
    1822                    
    1823                    $C$DW$T$529     .dwtag  DW_TAG_typedef
    1824                            .dwattr $C$DW$T$529, DW_AT_name("CT__ti_sysbios_knl_Clock_TimerProxy_Module__loggerObj")
    1825                            .dwattr $C$DW$T$529, DW_AT_type(*$C$DW$T$338)
    1826                            .dwattr $C$DW$T$529, DW_AT_language(DW_LANG_C)
    1827                            .dwattr $C$DW$T$529, DW_AT_decl_file("C:/ti/simplelink_cc13x0_sdk_1_50_00_08/kernel/tirtos/pac
    1828                            .dwattr $C$DW$T$529, DW_AT_decl_line(0xa4)
    1829                            .dwattr $C$DW$T$529, DW_AT_decl_column(0x11)
    1830                    
    1831                    $C$DW$T$530     .dwtag  DW_TAG_typedef
    1832                            .dwattr $C$DW$T$530, DW_AT_name("CT__ti_sysbios_knl_Clock_TimerProxy_Object__table")
    1833                            .dwattr $C$DW$T$530, DW_AT_type(*$C$DW$T$338)
    1834                            .dwattr $C$DW$T$530, DW_AT_language(DW_LANG_C)
    1835                            .dwattr $C$DW$T$530, DW_AT_decl_file("C:/ti/simplelink_cc13x0_sdk_1_50_00_08/kernel/tirtos/pac
    1836                            .dwattr $C$DW$T$530, DW_AT_decl_line(0xf5)
    1837                            .dwattr $C$DW$T$530, DW_AT_decl_column(0x11)
    1838                    
    1839                    $C$DW$T$531     .dwtag  DW_TAG_typedef
    1840                            .dwattr $C$DW$T$531, DW_AT_name("CT__ti_sysbios_knl_Queue_Module__gateObj")
    1841                            .dwattr $C$DW$T$531, DW_AT_type(*$C$DW$T$338)
    1842                            .dwattr $C$DW$T$531, DW_AT_language(DW_LANG_C)
    1843                            .dwattr $C$DW$T$531, DW_AT_decl_file("C:/ti/simplelink_cc13x0_sdk_1_50_00_08/kernel/tirtos/pac
    1844                            .dwattr $C$DW$T$531, DW_AT_decl_line(0x6d)
    1845                            .dwattr $C$DW$T$531, DW_AT_decl_column(0x11)
    1846                    
    1847                    $C$DW$T$532     .dwtag  DW_TAG_typedef
    1848                            .dwattr $C$DW$T$532, DW_AT_name("CT__ti_sysbios_knl_Queue_Module__gatePrms")
    1849                            .dwattr $C$DW$T$532, DW_AT_type(*$C$DW$T$338)
    1850                            .dwattr $C$DW$T$532, DW_AT_language(DW_LANG_C)
    1851                            .dwattr $C$DW$T$532, DW_AT_decl_file("C:/ti/simplelink_cc13x0_sdk_1_50_00_08/kernel/tirtos/pac
    1852                            .dwattr $C$DW$T$532, DW_AT_decl_line(0x76)
    1853                            .dwattr $C$DW$T$532, DW_AT_decl_column(0x11)
    1854                    
    1855                    $C$DW$T$533     .dwtag  DW_TAG_typedef
    1856                            .dwattr $C$DW$T$533, DW_AT_name("CT__ti_sysbios_knl_Queue_Module__loggerObj")
    1857                            .dwattr $C$DW$T$533, DW_AT_type(*$C$DW$T$338)
    1858                            .dwattr $C$DW$T$533, DW_AT_language(DW_LANG_C)
    1859                            .dwattr $C$DW$T$533, DW_AT_decl_file("C:/ti/simplelink_cc13x0_sdk_1_50_00_08/kernel/tirtos/pac
    1860                            .dwattr $C$DW$T$533, DW_AT_decl_line(0x91)
    1861                            .dwattr $C$DW$T$533, DW_AT_decl_column(0x11)
    1862                    
    1863                    $C$DW$T$534     .dwtag  DW_TAG_typedef
    1864                            .dwattr $C$DW$T$534, DW_AT_name("CT__ti_sysbios_knl_Queue_Object__table")
    1865                            .dwattr $C$DW$T$534, DW_AT_type(*$C$DW$T$338)
TI ARM Assembler PC v16.9.4 Sat Nov 18 18:46:18 2017

Tools Copyright (c) 1996-2017 Texas Instruments Incorporated
C:\Users\Kevin\AppData\Local\Temp\{5A8B501C-33CF-4805-A507-0ACBE2D1F927} PAGE   35

    1866                            .dwattr $C$DW$T$534, DW_AT_language(DW_LANG_C)
    1867                            .dwattr $C$DW$T$534, DW_AT_decl_file("C:/ti/simplelink_cc13x0_sdk_1_50_00_08/kernel/tirtos/pac
    1868                            .dwattr $C$DW$T$534, DW_AT_decl_line(0xe2)
    1869                            .dwattr $C$DW$T$534, DW_AT_decl_column(0x11)
    1870                    
    1871                    $C$DW$T$535     .dwtag  DW_TAG_typedef
    1872                            .dwattr $C$DW$T$535, DW_AT_name("CT__ti_sysbios_knl_Swi_Module__gateObj")
    1873                            .dwattr $C$DW$T$535, DW_AT_type(*$C$DW$T$338)
    1874                            .dwattr $C$DW$T$535, DW_AT_language(DW_LANG_C)
    1875                            .dwattr $C$DW$T$535, DW_AT_decl_file("C:/ti/simplelink_cc13x0_sdk_1_50_00_08/kernel/tirtos/pac
    1876                            .dwattr $C$DW$T$535, DW_AT_decl_line(0xac)
    1877                            .dwattr $C$DW$T$535, DW_AT_decl_column(0x11)
    1878                    
    1879                    $C$DW$T$536     .dwtag  DW_TAG_typedef
    1880                            .dwattr $C$DW$T$536, DW_AT_name("CT__ti_sysbios_knl_Swi_Module__gatePrms")
    1881                            .dwattr $C$DW$T$536, DW_AT_type(*$C$DW$T$338)
    1882                            .dwattr $C$DW$T$536, DW_AT_language(DW_LANG_C)
    1883                            .dwattr $C$DW$T$536, DW_AT_decl_file("C:/ti/simplelink_cc13x0_sdk_1_50_00_08/kernel/tirtos/pac
    1884                            .dwattr $C$DW$T$536, DW_AT_decl_line(0xb5)
    1885                            .dwattr $C$DW$T$536, DW_AT_decl_column(0x11)
    1886                    
    1887                    $C$DW$T$537     .dwtag  DW_TAG_typedef
    1888                            .dwattr $C$DW$T$537, DW_AT_name("CT__ti_sysbios_knl_Swi_Module__loggerObj")
    1889                            .dwattr $C$DW$T$537, DW_AT_type(*$C$DW$T$338)
    1890                            .dwattr $C$DW$T$537, DW_AT_language(DW_LANG_C)
    1891                            .dwattr $C$DW$T$537, DW_AT_decl_file("C:/ti/simplelink_cc13x0_sdk_1_50_00_08/kernel/tirtos/pac
    1892                            .dwattr $C$DW$T$537, DW_AT_decl_line(0xd0)
    1893                            .dwattr $C$DW$T$537, DW_AT_decl_column(0x11)
    1894                    
    1895                    $C$DW$T$538     .dwtag  DW_TAG_typedef
    1896                            .dwattr $C$DW$T$538, DW_AT_name("CT__ti_sysbios_knl_Swi_Object__table")
    1897                            .dwattr $C$DW$T$538, DW_AT_type(*$C$DW$T$338)
    1898                            .dwattr $C$DW$T$538, DW_AT_language(DW_LANG_C)
    1899                            .dwattr $C$DW$T$538, DW_AT_decl_file("C:/ti/simplelink_cc13x0_sdk_1_50_00_08/kernel/tirtos/pac
    1900                            .dwattr $C$DW$T$538, DW_AT_decl_line(0x121)
    1901                            .dwattr $C$DW$T$538, DW_AT_decl_column(0x11)
    1902                    
    1903                    $C$DW$T$539     .dwtag  DW_TAG_typedef
    1904                            .dwattr $C$DW$T$539, DW_AT_name("CT__xdc_runtime_Assert_Module__gateObj")
    1905                            .dwattr $C$DW$T$539, DW_AT_type(*$C$DW$T$338)
    1906                            .dwattr $C$DW$T$539, DW_AT_language(DW_LANG_C)
    1907                            .dwattr $C$DW$T$539, DW_AT_decl_file("C:/ti/xdctools_3_50_03_33_core/packages/xdc/runtime/Asse
    1908                            .dwattr $C$DW$T$539, DW_AT_decl_line(0x6b)
    1909                            .dwattr $C$DW$T$539, DW_AT_decl_column(0x11)
    1910                    
    1911                    $C$DW$T$540     .dwtag  DW_TAG_typedef
    1912                            .dwattr $C$DW$T$540, DW_AT_name("CT__xdc_runtime_Assert_Module__gatePrms")
    1913                            .dwattr $C$DW$T$540, DW_AT_type(*$C$DW$T$338)
    1914                            .dwattr $C$DW$T$540, DW_AT_language(DW_LANG_C)
    1915                            .dwattr $C$DW$T$540, DW_AT_decl_file("C:/ti/xdctools_3_50_03_33_core/packages/xdc/runtime/Asse
    1916                            .dwattr $C$DW$T$540, DW_AT_decl_line(0x74)
    1917                            .dwattr $C$DW$T$540, DW_AT_decl_column(0x11)
    1918                    
    1919                    $C$DW$T$541     .dwtag  DW_TAG_typedef
    1920                            .dwattr $C$DW$T$541, DW_AT_name("CT__xdc_runtime_Assert_Module__loggerObj")
TI ARM Assembler PC v16.9.4 Sat Nov 18 18:46:18 2017

Tools Copyright (c) 1996-2017 Texas Instruments Incorporated
C:\Users\Kevin\AppData\Local\Temp\{5A8B501C-33CF-4805-A507-0ACBE2D1F927} PAGE   36

    1921                            .dwattr $C$DW$T$541, DW_AT_type(*$C$DW$T$338)
    1922                            .dwattr $C$DW$T$541, DW_AT_language(DW_LANG_C)
    1923                            .dwattr $C$DW$T$541, DW_AT_decl_file("C:/ti/xdctools_3_50_03_33_core/packages/xdc/runtime/Asse
    1924                            .dwattr $C$DW$T$541, DW_AT_decl_line(0x8f)
    1925                            .dwattr $C$DW$T$541, DW_AT_decl_column(0x11)
    1926                    
    1927                    $C$DW$T$542     .dwtag  DW_TAG_typedef
    1928                            .dwattr $C$DW$T$542, DW_AT_name("CT__xdc_runtime_Assert_Object__table")
    1929                            .dwattr $C$DW$T$542, DW_AT_type(*$C$DW$T$338)
    1930                            .dwattr $C$DW$T$542, DW_AT_language(DW_LANG_C)
    1931                            .dwattr $C$DW$T$542, DW_AT_decl_file("C:/ti/xdctools_3_50_03_33_core/packages/xdc/runtime/Asse
    1932                            .dwattr $C$DW$T$542, DW_AT_decl_line(0xe0)
    1933                            .dwattr $C$DW$T$542, DW_AT_decl_column(0x11)
    1934                    
    1935                    $C$DW$T$543     .dwtag  DW_TAG_typedef
    1936                            .dwattr $C$DW$T$543, DW_AT_name("CT__xdc_runtime_Diags_Module__gateObj")
    1937                            .dwattr $C$DW$T$543, DW_AT_type(*$C$DW$T$338)
    1938                            .dwattr $C$DW$T$543, DW_AT_language(DW_LANG_C)
    1939                            .dwattr $C$DW$T$543, DW_AT_decl_file("C:/ti/xdctools_3_50_03_33_core/packages/xdc/runtime/Diag
    1940                            .dwattr $C$DW$T$543, DW_AT_decl_line(0xbe)
    1941                            .dwattr $C$DW$T$543, DW_AT_decl_column(0x11)
    1942                    
    1943                    $C$DW$T$544     .dwtag  DW_TAG_typedef
    1944                            .dwattr $C$DW$T$544, DW_AT_name("CT__xdc_runtime_Diags_Module__gatePrms")
    1945                            .dwattr $C$DW$T$544, DW_AT_type(*$C$DW$T$338)
    1946                            .dwattr $C$DW$T$544, DW_AT_language(DW_LANG_C)
    1947                            .dwattr $C$DW$T$544, DW_AT_decl_file("C:/ti/xdctools_3_50_03_33_core/packages/xdc/runtime/Diag
    1948                            .dwattr $C$DW$T$544, DW_AT_decl_line(0xc7)
    1949                            .dwattr $C$DW$T$544, DW_AT_decl_column(0x11)
    1950                    
    1951                    $C$DW$T$545     .dwtag  DW_TAG_typedef
    1952                            .dwattr $C$DW$T$545, DW_AT_name("CT__xdc_runtime_Diags_Module__loggerObj")
    1953                            .dwattr $C$DW$T$545, DW_AT_type(*$C$DW$T$338)
    1954                            .dwattr $C$DW$T$545, DW_AT_language(DW_LANG_C)
    1955                            .dwattr $C$DW$T$545, DW_AT_decl_file("C:/ti/xdctools_3_50_03_33_core/packages/xdc/runtime/Diag
    1956                            .dwattr $C$DW$T$545, DW_AT_decl_line(0xe2)
    1957                            .dwattr $C$DW$T$545, DW_AT_decl_column(0x11)
    1958                    
    1959                    $C$DW$T$546     .dwtag  DW_TAG_typedef
    1960                            .dwattr $C$DW$T$546, DW_AT_name("CT__xdc_runtime_Diags_Object__table")
    1961                            .dwattr $C$DW$T$546, DW_AT_type(*$C$DW$T$338)
    1962                            .dwattr $C$DW$T$546, DW_AT_language(DW_LANG_C)
    1963                            .dwattr $C$DW$T$546, DW_AT_decl_file("C:/ti/xdctools_3_50_03_33_core/packages/xdc/runtime/Diag
    1964                            .dwattr $C$DW$T$546, DW_AT_decl_line(0x133)
    1965                            .dwattr $C$DW$T$546, DW_AT_decl_column(0x11)
    1966                    
    1967                    $C$DW$T$547     .dwtag  DW_TAG_typedef
    1968                            .dwattr $C$DW$T$547, DW_AT_name("CT__xdc_runtime_Error_Module__gateObj")
    1969                            .dwattr $C$DW$T$547, DW_AT_type(*$C$DW$T$338)
    1970                            .dwattr $C$DW$T$547, DW_AT_language(DW_LANG_C)
    1971                            .dwattr $C$DW$T$547, DW_AT_decl_file("C:/ti/xdctools_3_50_03_33_core/packages/xdc/runtime/Erro
    1972                            .dwattr $C$DW$T$547, DW_AT_decl_line(0x8f)
    1973                            .dwattr $C$DW$T$547, DW_AT_decl_column(0x11)
    1974                    
    1975                    $C$DW$T$548     .dwtag  DW_TAG_typedef
TI ARM Assembler PC v16.9.4 Sat Nov 18 18:46:18 2017

Tools Copyright (c) 1996-2017 Texas Instruments Incorporated
C:\Users\Kevin\AppData\Local\Temp\{5A8B501C-33CF-4805-A507-0ACBE2D1F927} PAGE   37

    1976                            .dwattr $C$DW$T$548, DW_AT_name("CT__xdc_runtime_Error_Module__gatePrms")
    1977                            .dwattr $C$DW$T$548, DW_AT_type(*$C$DW$T$338)
    1978                            .dwattr $C$DW$T$548, DW_AT_language(DW_LANG_C)
    1979                            .dwattr $C$DW$T$548, DW_AT_decl_file("C:/ti/xdctools_3_50_03_33_core/packages/xdc/runtime/Erro
    1980                            .dwattr $C$DW$T$548, DW_AT_decl_line(0x98)
    1981                            .dwattr $C$DW$T$548, DW_AT_decl_column(0x11)
    1982                    
    1983                    $C$DW$T$549     .dwtag  DW_TAG_typedef
    1984                            .dwattr $C$DW$T$549, DW_AT_name("CT__xdc_runtime_Error_Module__loggerObj")
    1985                            .dwattr $C$DW$T$549, DW_AT_type(*$C$DW$T$338)
    1986                            .dwattr $C$DW$T$549, DW_AT_language(DW_LANG_C)
    1987                            .dwattr $C$DW$T$549, DW_AT_decl_file("C:/ti/xdctools_3_50_03_33_core/packages/xdc/runtime/Erro
    1988                            .dwattr $C$DW$T$549, DW_AT_decl_line(0xb3)
    1989                            .dwattr $C$DW$T$549, DW_AT_decl_column(0x11)
    1990                    
    1991                    $C$DW$T$550     .dwtag  DW_TAG_typedef
    1992                            .dwattr $C$DW$T$550, DW_AT_name("CT__xdc_runtime_Error_Object__table")
    1993                            .dwattr $C$DW$T$550, DW_AT_type(*$C$DW$T$338)
    1994                            .dwattr $C$DW$T$550, DW_AT_language(DW_LANG_C)
    1995                            .dwattr $C$DW$T$550, DW_AT_decl_file("C:/ti/xdctools_3_50_03_33_core/packages/xdc/runtime/Erro
    1996                            .dwattr $C$DW$T$550, DW_AT_decl_line(0x104)
    1997                            .dwattr $C$DW$T$550, DW_AT_decl_column(0x11)
    1998                    
    1999                    $C$DW$T$551     .dwtag  DW_TAG_typedef
    2000                            .dwattr $C$DW$T$551, DW_AT_name("CT__xdc_runtime_Log_Module__gateObj")
    2001                            .dwattr $C$DW$T$551, DW_AT_type(*$C$DW$T$338)
    2002                            .dwattr $C$DW$T$551, DW_AT_language(DW_LANG_C)
    2003                            .dwattr $C$DW$T$551, DW_AT_decl_file("C:/ti/xdctools_3_50_03_33_core/packages/xdc/runtime/Log.
    2004                            .dwattr $C$DW$T$551, DW_AT_decl_line(0x80)
    2005                            .dwattr $C$DW$T$551, DW_AT_decl_column(0x11)
    2006                    
    2007                    $C$DW$T$552     .dwtag  DW_TAG_typedef
    2008                            .dwattr $C$DW$T$552, DW_AT_name("CT__xdc_runtime_Log_Module__gatePrms")
    2009                            .dwattr $C$DW$T$552, DW_AT_type(*$C$DW$T$338)
    2010                            .dwattr $C$DW$T$552, DW_AT_language(DW_LANG_C)
    2011                            .dwattr $C$DW$T$552, DW_AT_decl_file("C:/ti/xdctools_3_50_03_33_core/packages/xdc/runtime/Log.
    2012                            .dwattr $C$DW$T$552, DW_AT_decl_line(0x89)
    2013                            .dwattr $C$DW$T$552, DW_AT_decl_column(0x11)
    2014                    
    2015                    $C$DW$T$553     .dwtag  DW_TAG_typedef
    2016                            .dwattr $C$DW$T$553, DW_AT_name("CT__xdc_runtime_Log_Module__loggerObj")
    2017                            .dwattr $C$DW$T$553, DW_AT_type(*$C$DW$T$338)
    2018                            .dwattr $C$DW$T$553, DW_AT_language(DW_LANG_C)
    2019                            .dwattr $C$DW$T$553, DW_AT_decl_file("C:/ti/xdctools_3_50_03_33_core/packages/xdc/runtime/Log.
    2020                            .dwattr $C$DW$T$553, DW_AT_decl_line(0xa4)
    2021                            .dwattr $C$DW$T$553, DW_AT_decl_column(0x11)
    2022                    
    2023                    $C$DW$T$554     .dwtag  DW_TAG_typedef
    2024                            .dwattr $C$DW$T$554, DW_AT_name("CT__xdc_runtime_Log_Object__table")
    2025                            .dwattr $C$DW$T$554, DW_AT_type(*$C$DW$T$338)
    2026                            .dwattr $C$DW$T$554, DW_AT_language(DW_LANG_C)
    2027                            .dwattr $C$DW$T$554, DW_AT_decl_file("C:/ti/xdctools_3_50_03_33_core/packages/xdc/runtime/Log.
    2028                            .dwattr $C$DW$T$554, DW_AT_decl_line(0xf5)
    2029                            .dwattr $C$DW$T$554, DW_AT_decl_column(0x11)
    2030                    
TI ARM Assembler PC v16.9.4 Sat Nov 18 18:46:18 2017

Tools Copyright (c) 1996-2017 Texas Instruments Incorporated
C:\Users\Kevin\AppData\Local\Temp\{5A8B501C-33CF-4805-A507-0ACBE2D1F927} PAGE   38

    2031                    $C$DW$T$555     .dwtag  DW_TAG_typedef
    2032                            .dwattr $C$DW$T$555, DW_AT_name("CT__xdc_runtime_Main_Module_GateProxy_Module__gateObj")
    2033                            .dwattr $C$DW$T$555, DW_AT_type(*$C$DW$T$338)
    2034                            .dwattr $C$DW$T$555, DW_AT_language(DW_LANG_C)
    2035                            .dwattr $C$DW$T$555, DW_AT_decl_file("C:/ti/xdctools_3_50_03_33_core/packages/xdc/runtime/pack
    2036                            .dwattr $C$DW$T$555, DW_AT_decl_line(0x68)
    2037                            .dwattr $C$DW$T$555, DW_AT_decl_column(0x11)
    2038                    
    2039                    $C$DW$T$556     .dwtag  DW_TAG_typedef
    2040                            .dwattr $C$DW$T$556, DW_AT_name("CT__xdc_runtime_Main_Module_GateProxy_Module__gatePrms")
    2041                            .dwattr $C$DW$T$556, DW_AT_type(*$C$DW$T$338)
    2042                            .dwattr $C$DW$T$556, DW_AT_language(DW_LANG_C)
    2043                            .dwattr $C$DW$T$556, DW_AT_decl_file("C:/ti/xdctools_3_50_03_33_core/packages/xdc/runtime/pack
    2044                            .dwattr $C$DW$T$556, DW_AT_decl_line(0x71)
    2045                            .dwattr $C$DW$T$556, DW_AT_decl_column(0x11)
    2046                    
    2047                    $C$DW$T$557     .dwtag  DW_TAG_typedef
    2048                            .dwattr $C$DW$T$557, DW_AT_name("CT__xdc_runtime_Main_Module_GateProxy_Module__loggerObj")
    2049                            .dwattr $C$DW$T$557, DW_AT_type(*$C$DW$T$338)
    2050                            .dwattr $C$DW$T$557, DW_AT_language(DW_LANG_C)
    2051                            .dwattr $C$DW$T$557, DW_AT_decl_file("C:/ti/xdctools_3_50_03_33_core/packages/xdc/runtime/pack
    2052                            .dwattr $C$DW$T$557, DW_AT_decl_line(0x8c)
    2053                            .dwattr $C$DW$T$557, DW_AT_decl_column(0x11)
    2054                    
    2055                    $C$DW$T$558     .dwtag  DW_TAG_typedef
    2056                            .dwattr $C$DW$T$558, DW_AT_name("CT__xdc_runtime_Main_Module_GateProxy_Object__table")
    2057                            .dwattr $C$DW$T$558, DW_AT_type(*$C$DW$T$338)
    2058                            .dwattr $C$DW$T$558, DW_AT_language(DW_LANG_C)
    2059                            .dwattr $C$DW$T$558, DW_AT_decl_file("C:/ti/xdctools_3_50_03_33_core/packages/xdc/runtime/pack
    2060                            .dwattr $C$DW$T$558, DW_AT_decl_line(0xdd)
    2061                            .dwattr $C$DW$T$558, DW_AT_decl_column(0x11)
    2062                    
    2063                    $C$DW$T$559     .dwtag  DW_TAG_typedef
    2064                            .dwattr $C$DW$T$559, DW_AT_name("CT__xdc_runtime_Main_Module__gateObj")
    2065                            .dwattr $C$DW$T$559, DW_AT_type(*$C$DW$T$338)
    2066                            .dwattr $C$DW$T$559, DW_AT_language(DW_LANG_C)
    2067                            .dwattr $C$DW$T$559, DW_AT_decl_file("C:/ti/xdctools_3_50_03_33_core/packages/xdc/runtime/Main
    2068                            .dwattr $C$DW$T$559, DW_AT_decl_line(0x67)
    2069                            .dwattr $C$DW$T$559, DW_AT_decl_column(0x11)
    2070                    
    2071                    $C$DW$T$560     .dwtag  DW_TAG_typedef
    2072                            .dwattr $C$DW$T$560, DW_AT_name("CT__xdc_runtime_Main_Module__gatePrms")
    2073                            .dwattr $C$DW$T$560, DW_AT_type(*$C$DW$T$338)
    2074                            .dwattr $C$DW$T$560, DW_AT_language(DW_LANG_C)
    2075                            .dwattr $C$DW$T$560, DW_AT_decl_file("C:/ti/xdctools_3_50_03_33_core/packages/xdc/runtime/Main
    2076                            .dwattr $C$DW$T$560, DW_AT_decl_line(0x70)
    2077                            .dwattr $C$DW$T$560, DW_AT_decl_column(0x11)
    2078                    
    2079                    $C$DW$T$561     .dwtag  DW_TAG_typedef
    2080                            .dwattr $C$DW$T$561, DW_AT_name("CT__xdc_runtime_Main_Module__loggerObj")
    2081                            .dwattr $C$DW$T$561, DW_AT_type(*$C$DW$T$338)
    2082                            .dwattr $C$DW$T$561, DW_AT_language(DW_LANG_C)
    2083                            .dwattr $C$DW$T$561, DW_AT_decl_file("C:/ti/xdctools_3_50_03_33_core/packages/xdc/runtime/Main
    2084                            .dwattr $C$DW$T$561, DW_AT_decl_line(0x8b)
    2085                            .dwattr $C$DW$T$561, DW_AT_decl_column(0x11)
TI ARM Assembler PC v16.9.4 Sat Nov 18 18:46:18 2017

Tools Copyright (c) 1996-2017 Texas Instruments Incorporated
C:\Users\Kevin\AppData\Local\Temp\{5A8B501C-33CF-4805-A507-0ACBE2D1F927} PAGE   39

    2086                    
    2087                    $C$DW$T$562     .dwtag  DW_TAG_typedef
    2088                            .dwattr $C$DW$T$562, DW_AT_name("CT__xdc_runtime_Main_Object__table")
    2089                            .dwattr $C$DW$T$562, DW_AT_type(*$C$DW$T$338)
    2090                            .dwattr $C$DW$T$562, DW_AT_language(DW_LANG_C)
    2091                            .dwattr $C$DW$T$562, DW_AT_decl_file("C:/ti/xdctools_3_50_03_33_core/packages/xdc/runtime/Main
    2092                            .dwattr $C$DW$T$562, DW_AT_decl_line(0xdc)
    2093                            .dwattr $C$DW$T$562, DW_AT_decl_column(0x11)
    2094                    
    2095                    $C$DW$T$563     .dwtag  DW_TAG_typedef
    2096                            .dwattr $C$DW$T$563, DW_AT_name("CT__xdc_runtime_Memory_HeapProxy_Module__gateObj")
    2097                            .dwattr $C$DW$T$563, DW_AT_type(*$C$DW$T$338)
    2098                            .dwattr $C$DW$T$563, DW_AT_language(DW_LANG_C)
    2099                            .dwattr $C$DW$T$563, DW_AT_decl_file("C:/ti/xdctools_3_50_03_33_core/packages/xdc/runtime/pack
    2100                            .dwattr $C$DW$T$563, DW_AT_decl_line(0x62)
    2101                            .dwattr $C$DW$T$563, DW_AT_decl_column(0x11)
    2102                    
    2103                    $C$DW$T$564     .dwtag  DW_TAG_typedef
    2104                            .dwattr $C$DW$T$564, DW_AT_name("CT__xdc_runtime_Memory_HeapProxy_Module__gatePrms")
    2105                            .dwattr $C$DW$T$564, DW_AT_type(*$C$DW$T$338)
    2106                            .dwattr $C$DW$T$564, DW_AT_language(DW_LANG_C)
    2107                            .dwattr $C$DW$T$564, DW_AT_decl_file("C:/ti/xdctools_3_50_03_33_core/packages/xdc/runtime/pack
    2108                            .dwattr $C$DW$T$564, DW_AT_decl_line(0x6b)
    2109                            .dwattr $C$DW$T$564, DW_AT_decl_column(0x11)
    2110                    
    2111                    $C$DW$T$565     .dwtag  DW_TAG_typedef
    2112                            .dwattr $C$DW$T$565, DW_AT_name("CT__xdc_runtime_Memory_HeapProxy_Module__loggerObj")
    2113                            .dwattr $C$DW$T$565, DW_AT_type(*$C$DW$T$338)
    2114                            .dwattr $C$DW$T$565, DW_AT_language(DW_LANG_C)
    2115                            .dwattr $C$DW$T$565, DW_AT_decl_file("C:/ti/xdctools_3_50_03_33_core/packages/xdc/runtime/pack
    2116                            .dwattr $C$DW$T$565, DW_AT_decl_line(0x86)
    2117                            .dwattr $C$DW$T$565, DW_AT_decl_column(0x11)
    2118                    
    2119                    $C$DW$T$566     .dwtag  DW_TAG_typedef
    2120                            .dwattr $C$DW$T$566, DW_AT_name("CT__xdc_runtime_Memory_HeapProxy_Object__table")
    2121                            .dwattr $C$DW$T$566, DW_AT_type(*$C$DW$T$338)
    2122                            .dwattr $C$DW$T$566, DW_AT_language(DW_LANG_C)
    2123                            .dwattr $C$DW$T$566, DW_AT_decl_file("C:/ti/xdctools_3_50_03_33_core/packages/xdc/runtime/pack
    2124                            .dwattr $C$DW$T$566, DW_AT_decl_line(0xd7)
    2125                            .dwattr $C$DW$T$566, DW_AT_decl_column(0x11)
    2126                    
    2127                    $C$DW$T$567     .dwtag  DW_TAG_typedef
    2128                            .dwattr $C$DW$T$567, DW_AT_name("CT__xdc_runtime_Memory_Module__gateObj")
    2129                            .dwattr $C$DW$T$567, DW_AT_type(*$C$DW$T$338)
    2130                            .dwattr $C$DW$T$567, DW_AT_language(DW_LANG_C)
    2131                            .dwattr $C$DW$T$567, DW_AT_decl_file("C:/ti/xdctools_3_50_03_33_core/packages/xdc/runtime/Memo
    2132                            .dwattr $C$DW$T$567, DW_AT_decl_line(0x75)
    2133                            .dwattr $C$DW$T$567, DW_AT_decl_column(0x11)
    2134                    
    2135                    $C$DW$T$568     .dwtag  DW_TAG_typedef
    2136                            .dwattr $C$DW$T$568, DW_AT_name("CT__xdc_runtime_Memory_Module__gatePrms")
    2137                            .dwattr $C$DW$T$568, DW_AT_type(*$C$DW$T$338)
    2138                            .dwattr $C$DW$T$568, DW_AT_language(DW_LANG_C)
    2139                            .dwattr $C$DW$T$568, DW_AT_decl_file("C:/ti/xdctools_3_50_03_33_core/packages/xdc/runtime/Memo
    2140                            .dwattr $C$DW$T$568, DW_AT_decl_line(0x7e)
TI ARM Assembler PC v16.9.4 Sat Nov 18 18:46:18 2017

Tools Copyright (c) 1996-2017 Texas Instruments Incorporated
C:\Users\Kevin\AppData\Local\Temp\{5A8B501C-33CF-4805-A507-0ACBE2D1F927} PAGE   40

    2141                            .dwattr $C$DW$T$568, DW_AT_decl_column(0x11)
    2142                    
    2143                    $C$DW$T$569     .dwtag  DW_TAG_typedef
    2144                            .dwattr $C$DW$T$569, DW_AT_name("CT__xdc_runtime_Memory_Module__loggerObj")
    2145                            .dwattr $C$DW$T$569, DW_AT_type(*$C$DW$T$338)
    2146                            .dwattr $C$DW$T$569, DW_AT_language(DW_LANG_C)
    2147                            .dwattr $C$DW$T$569, DW_AT_decl_file("C:/ti/xdctools_3_50_03_33_core/packages/xdc/runtime/Memo
    2148                            .dwattr $C$DW$T$569, DW_AT_decl_line(0x99)
    2149                            .dwattr $C$DW$T$569, DW_AT_decl_column(0x11)
    2150                    
    2151                    $C$DW$T$570     .dwtag  DW_TAG_typedef
    2152                            .dwattr $C$DW$T$570, DW_AT_name("CT__xdc_runtime_Memory_Object__table")
    2153                            .dwattr $C$DW$T$570, DW_AT_type(*$C$DW$T$338)
    2154                            .dwattr $C$DW$T$570, DW_AT_language(DW_LANG_C)
    2155                            .dwattr $C$DW$T$570, DW_AT_decl_file("C:/ti/xdctools_3_50_03_33_core/packages/xdc/runtime/Memo
    2156                            .dwattr $C$DW$T$570, DW_AT_decl_line(0xea)
    2157                            .dwattr $C$DW$T$570, DW_AT_decl_column(0x11)
    2158                    
    2159                    $C$DW$T$571     .dwtag  DW_TAG_typedef
    2160                            .dwattr $C$DW$T$571, DW_AT_name("CT__xdc_runtime_Text_Module__gateObj")
    2161                            .dwattr $C$DW$T$571, DW_AT_type(*$C$DW$T$338)
    2162                            .dwattr $C$DW$T$571, DW_AT_language(DW_LANG_C)
    2163                            .dwattr $C$DW$T$571, DW_AT_decl_file("C:/ti/xdctools_3_50_03_33_core/packages/xdc/runtime/Text
    2164                            .dwattr $C$DW$T$571, DW_AT_decl_line(0x8c)
    2165                            .dwattr $C$DW$T$571, DW_AT_decl_column(0x11)
    2166                    
    2167                    $C$DW$T$572     .dwtag  DW_TAG_typedef
    2168                            .dwattr $C$DW$T$572, DW_AT_name("CT__xdc_runtime_Text_Module__gatePrms")
    2169                            .dwattr $C$DW$T$572, DW_AT_type(*$C$DW$T$338)
    2170                            .dwattr $C$DW$T$572, DW_AT_language(DW_LANG_C)
    2171                            .dwattr $C$DW$T$572, DW_AT_decl_file("C:/ti/xdctools_3_50_03_33_core/packages/xdc/runtime/Text
    2172                            .dwattr $C$DW$T$572, DW_AT_decl_line(0x95)
    2173                            .dwattr $C$DW$T$572, DW_AT_decl_column(0x11)
    2174                    
    2175                    $C$DW$T$573     .dwtag  DW_TAG_typedef
    2176                            .dwattr $C$DW$T$573, DW_AT_name("CT__xdc_runtime_Text_Module__loggerObj")
    2177                            .dwattr $C$DW$T$573, DW_AT_type(*$C$DW$T$338)
    2178                            .dwattr $C$DW$T$573, DW_AT_language(DW_LANG_C)
    2179                            .dwattr $C$DW$T$573, DW_AT_decl_file("C:/ti/xdctools_3_50_03_33_core/packages/xdc/runtime/Text
    2180                            .dwattr $C$DW$T$573, DW_AT_decl_line(0xb0)
    2181                            .dwattr $C$DW$T$573, DW_AT_decl_column(0x11)
    2182                    
    2183                    $C$DW$T$574     .dwtag  DW_TAG_typedef
    2184                            .dwattr $C$DW$T$574, DW_AT_name("CT__xdc_runtime_Text_Object__table")
    2185                            .dwattr $C$DW$T$574, DW_AT_type(*$C$DW$T$338)
    2186                            .dwattr $C$DW$T$574, DW_AT_language(DW_LANG_C)
    2187                            .dwattr $C$DW$T$574, DW_AT_decl_file("C:/ti/xdctools_3_50_03_33_core/packages/xdc/runtime/Text
    2188                            .dwattr $C$DW$T$574, DW_AT_decl_line(0x101)
    2189                            .dwattr $C$DW$T$574, DW_AT_decl_column(0x11)
    2190                    
    2191                    $C$DW$T$575     .dwtag  DW_TAG_typedef
    2192                            .dwattr $C$DW$T$575, DW_AT_name("CT__xdc_runtime_Types_Module__gateObj")
    2193                            .dwattr $C$DW$T$575, DW_AT_type(*$C$DW$T$338)
    2194                            .dwattr $C$DW$T$575, DW_AT_language(DW_LANG_C)
    2195                            .dwattr $C$DW$T$575, DW_AT_decl_file("C:/ti/xdctools_3_50_03_33_core/packages/xdc/runtime/Type
TI ARM Assembler PC v16.9.4 Sat Nov 18 18:46:18 2017

Tools Copyright (c) 1996-2017 Texas Instruments Incorporated
C:\Users\Kevin\AppData\Local\Temp\{5A8B501C-33CF-4805-A507-0ACBE2D1F927} PAGE   41

    2196                            .dwattr $C$DW$T$575, DW_AT_decl_line(0xe9)
    2197                            .dwattr $C$DW$T$575, DW_AT_decl_column(0x11)
    2198                    
    2199                    $C$DW$T$576     .dwtag  DW_TAG_typedef
    2200                            .dwattr $C$DW$T$576, DW_AT_name("CT__xdc_runtime_Types_Module__gatePrms")
    2201                            .dwattr $C$DW$T$576, DW_AT_type(*$C$DW$T$338)
    2202                            .dwattr $C$DW$T$576, DW_AT_language(DW_LANG_C)
    2203                            .dwattr $C$DW$T$576, DW_AT_decl_file("C:/ti/xdctools_3_50_03_33_core/packages/xdc/runtime/Type
    2204                            .dwattr $C$DW$T$576, DW_AT_decl_line(0xf2)
    2205                            .dwattr $C$DW$T$576, DW_AT_decl_column(0x11)
    2206                    
    2207                    $C$DW$T$577     .dwtag  DW_TAG_typedef
    2208                            .dwattr $C$DW$T$577, DW_AT_name("CT__xdc_runtime_Types_Module__loggerObj")
    2209                            .dwattr $C$DW$T$577, DW_AT_type(*$C$DW$T$338)
    2210                            .dwattr $C$DW$T$577, DW_AT_language(DW_LANG_C)
    2211                            .dwattr $C$DW$T$577, DW_AT_decl_file("C:/ti/xdctools_3_50_03_33_core/packages/xdc/runtime/Type
    2212                            .dwattr $C$DW$T$577, DW_AT_decl_line(0x10d)
    2213                            .dwattr $C$DW$T$577, DW_AT_decl_column(0x11)
    2214                    
    2215                    $C$DW$T$578     .dwtag  DW_TAG_typedef
    2216                            .dwattr $C$DW$T$578, DW_AT_name("CT__xdc_runtime_Types_Object__table")
    2217                            .dwattr $C$DW$T$578, DW_AT_type(*$C$DW$T$338)
    2218                            .dwattr $C$DW$T$578, DW_AT_language(DW_LANG_C)
    2219                            .dwattr $C$DW$T$578, DW_AT_decl_file("C:/ti/xdctools_3_50_03_33_core/packages/xdc/runtime/Type
    2220                            .dwattr $C$DW$T$578, DW_AT_decl_line(0x15e)
    2221                            .dwattr $C$DW$T$578, DW_AT_decl_column(0x11)
    2222                    
    2223                    $C$DW$T$579     .dwtag  DW_TAG_typedef
    2224                            .dwattr $C$DW$T$579, DW_AT_name("Ptr")
    2225                            .dwattr $C$DW$T$579, DW_AT_type(*$C$DW$T$338)
    2226                            .dwattr $C$DW$T$579, DW_AT_language(DW_LANG_C)
    2227                            .dwattr $C$DW$T$579, DW_AT_decl_file("C:/ti/xdctools_3_50_03_33_core/packages/xdc/std.h")
    2228                            .dwattr $C$DW$T$579, DW_AT_decl_line(0xf7)
    2229                            .dwattr $C$DW$T$579, DW_AT_decl_column(0x19)
    2230                    
    2231                    $C$DW$T$580     .dwtag  DW_TAG_typedef
    2232                            .dwattr $C$DW$T$580, DW_AT_name("__T1_ti_sysbios_knl_Swi_Instance_State__hookEnv")
    2233                            .dwattr $C$DW$T$580, DW_AT_type(*$C$DW$T$338)
    2234                            .dwattr $C$DW$T$580, DW_AT_language(DW_LANG_C)
    2235                            .dwattr $C$DW$T$580, DW_AT_decl_file("C:/ti/simplelink_cc13x0_sdk_1_50_00_08/kernel/tirtos/pac
    2236                            .dwattr $C$DW$T$580, DW_AT_decl_line(0x7c)
    2237                            .dwattr $C$DW$T$580, DW_AT_decl_column(0x11)
    2238                    
    2239                    $C$DW$T$581     .dwtag  DW_TAG_typedef
    2240                            .dwattr $C$DW$T$581, DW_AT_name("__T1_ti_sysbios_knl_Swi_Struct2____hookEnv")
    2241                            .dwattr $C$DW$T$581, DW_AT_type(*$C$DW$T$338)
    2242                            .dwattr $C$DW$T$581, DW_AT_language(DW_LANG_C)
    2243                            .dwattr $C$DW$T$581, DW_AT_decl_file("C:/ti/simplelink_cc13x0_sdk_1_50_00_08/kernel/tirtos/pac
    2244                            .dwattr $C$DW$T$581, DW_AT_decl_line(0x56)
    2245                            .dwattr $C$DW$T$581, DW_AT_decl_column(0x11)
    2246                    
    2247                    $C$DW$T$339     .dwtag  DW_TAG_pointer_type
    2248                            .dwattr $C$DW$T$339, DW_AT_type(*$C$DW$T$338)
    2249                            .dwattr $C$DW$T$339, DW_AT_address_class(0x20)
    2250                    
TI ARM Assembler PC v16.9.4 Sat Nov 18 18:46:18 2017

Tools Copyright (c) 1996-2017 Texas Instruments Incorporated
C:\Users\Kevin\AppData\Local\Temp\{5A8B501C-33CF-4805-A507-0ACBE2D1F927} PAGE   42

    2251                    $C$DW$T$340     .dwtag  DW_TAG_typedef
    2252                            .dwattr $C$DW$T$340, DW_AT_name("__ARRAY1_ti_sysbios_knl_Swi_Instance_State__hookEnv")
    2253                            .dwattr $C$DW$T$340, DW_AT_type(*$C$DW$T$339)
    2254                            .dwattr $C$DW$T$340, DW_AT_language(DW_LANG_C)
    2255                            .dwattr $C$DW$T$340, DW_AT_decl_file("C:/ti/simplelink_cc13x0_sdk_1_50_00_08/kernel/tirtos/pac
    2256                            .dwattr $C$DW$T$340, DW_AT_decl_line(0x7d)
    2257                            .dwattr $C$DW$T$340, DW_AT_decl_column(0x12)
    2258                    
    2259                    $C$DW$T$341     .dwtag  DW_TAG_typedef
    2260                            .dwattr $C$DW$T$341, DW_AT_name("__TA_ti_sysbios_knl_Swi_Instance_State__hookEnv")
    2261                            .dwattr $C$DW$T$341, DW_AT_type(*$C$DW$T$340)
    2262                            .dwattr $C$DW$T$341, DW_AT_language(DW_LANG_C)
    2263                            .dwattr $C$DW$T$341, DW_AT_decl_file("C:/ti/simplelink_cc13x0_sdk_1_50_00_08/kernel/tirtos/pac
    2264                            .dwattr $C$DW$T$341, DW_AT_decl_line(0x7f)
    2265                            .dwattr $C$DW$T$341, DW_AT_decl_column(0x3d)
    2266                    
    2267                    $C$DW$T$582     .dwtag  DW_TAG_typedef
    2268                            .dwattr $C$DW$T$582, DW_AT_name("__ARRAY1_ti_sysbios_knl_Swi_Struct2____hookEnv")
    2269                            .dwattr $C$DW$T$582, DW_AT_type(*$C$DW$T$339)
    2270                            .dwattr $C$DW$T$582, DW_AT_language(DW_LANG_C)
    2271                            .dwattr $C$DW$T$582, DW_AT_decl_file("C:/ti/simplelink_cc13x0_sdk_1_50_00_08/kernel/tirtos/pac
    2272                            .dwattr $C$DW$T$582, DW_AT_decl_line(0x57)
    2273                            .dwattr $C$DW$T$582, DW_AT_decl_column(0x12)
    2274                    
    2275                    
    2276                    $C$DW$T$383     .dwtag  DW_TAG_subroutine_type
    2277                            .dwattr $C$DW$T$383, DW_AT_type(*$C$DW$T$338)
    2278                            .dwattr $C$DW$T$383, DW_AT_language(DW_LANG_C)
    2279                    $C$DW$143       .dwtag  DW_TAG_formal_parameter
    2280                            .dwattr $C$DW$143, DW_AT_type(*$C$DW$T$3)
    2281                    
    2282                    $C$DW$144       .dwtag  DW_TAG_formal_parameter
    2283                            .dwattr $C$DW$144, DW_AT_type(*$C$DW$T$382)
    2284                    
    2285                    $C$DW$145       .dwtag  DW_TAG_formal_parameter
    2286                            .dwattr $C$DW$145, DW_AT_type(*$C$DW$T$382)
    2287                    
    2288                    $C$DW$146       .dwtag  DW_TAG_formal_parameter
    2289                            .dwattr $C$DW$146, DW_AT_type(*$C$DW$T$328)
    2290                    
    2291                            .dwendtag $C$DW$T$383
    2292                    
    2293                    $C$DW$T$384     .dwtag  DW_TAG_pointer_type
    2294                            .dwattr $C$DW$T$384, DW_AT_type(*$C$DW$T$383)
    2295                            .dwattr $C$DW$T$384, DW_AT_address_class(0x20)
    2296                    
    2297                    $C$DW$T$583     .dwtag  DW_TAG_typedef
    2298                            .dwattr $C$DW$T$583, DW_AT_name("xdc_runtime_IHeap_alloc_FxnT")
    2299                            .dwattr $C$DW$T$583, DW_AT_type(*$C$DW$T$384)
    2300                            .dwattr $C$DW$T$583, DW_AT_language(DW_LANG_C)
    2301                            .dwattr $C$DW$T$583, DW_AT_decl_file("C:/ti/xdctools_3_50_03_33_core/packages/xdc/runtime/IHea
    2302                            .dwattr $C$DW$T$583, DW_AT_decl_line(0xb0)
    2303                            .dwattr $C$DW$T$583, DW_AT_decl_column(0x13)
    2304                    
    2305                    
TI ARM Assembler PC v16.9.4 Sat Nov 18 18:46:18 2017

Tools Copyright (c) 1996-2017 Texas Instruments Incorporated
C:\Users\Kevin\AppData\Local\Temp\{5A8B501C-33CF-4805-A507-0ACBE2D1F927} PAGE   43

    2306                    $C$DW$T$427     .dwtag  DW_TAG_subroutine_type
    2307                            .dwattr $C$DW$T$427, DW_AT_type(*$C$DW$T$338)
    2308                            .dwattr $C$DW$T$427, DW_AT_language(DW_LANG_C)
    2309                    $C$DW$147       .dwtag  DW_TAG_formal_parameter
    2310                            .dwattr $C$DW$147, DW_AT_type(*$C$DW$T$426)
    2311                    
    2312                    $C$DW$148       .dwtag  DW_TAG_formal_parameter
    2313                            .dwattr $C$DW$148, DW_AT_type(*$C$DW$T$382)
    2314                    
    2315                    $C$DW$149       .dwtag  DW_TAG_formal_parameter
    2316                            .dwattr $C$DW$149, DW_AT_type(*$C$DW$T$382)
    2317                    
    2318                    $C$DW$150       .dwtag  DW_TAG_formal_parameter
    2319                            .dwattr $C$DW$150, DW_AT_type(*$C$DW$T$328)
    2320                    
    2321                            .dwendtag $C$DW$T$427
    2322                    
    2323                    $C$DW$T$428     .dwtag  DW_TAG_pointer_type
    2324                            .dwattr $C$DW$T$428, DW_AT_type(*$C$DW$T$427)
    2325                            .dwattr $C$DW$T$428, DW_AT_address_class(0x20)
    2326                    
    2327                    
    2328                    $C$DW$T$469     .dwtag  DW_TAG_subroutine_type
    2329                            .dwattr $C$DW$T$469, DW_AT_type(*$C$DW$T$338)
    2330                            .dwattr $C$DW$T$469, DW_AT_language(DW_LANG_C)
    2331                    $C$DW$151       .dwtag  DW_TAG_formal_parameter
    2332                            .dwattr $C$DW$151, DW_AT_type(*$C$DW$T$465)
    2333                    
    2334                    $C$DW$152       .dwtag  DW_TAG_formal_parameter
    2335                            .dwattr $C$DW$152, DW_AT_type(*$C$DW$T$468)
    2336                    
    2337                    $C$DW$153       .dwtag  DW_TAG_formal_parameter
    2338                            .dwattr $C$DW$153, DW_AT_type(*$C$DW$T$382)
    2339                    
    2340                    $C$DW$154       .dwtag  DW_TAG_formal_parameter
    2341                            .dwattr $C$DW$154, DW_AT_type(*$C$DW$T$328)
    2342                    
    2343                            .dwendtag $C$DW$T$469
    2344                    
    2345                    $C$DW$T$470     .dwtag  DW_TAG_pointer_type
    2346                            .dwattr $C$DW$T$470, DW_AT_type(*$C$DW$T$469)
    2347                            .dwattr $C$DW$T$470, DW_AT_address_class(0x20)
    2348                    
    2349                    $C$DW$T$343     .dwtag  DW_TAG_const_type
    2350                            .dwattr $C$DW$T$343, DW_AT_type(*$C$DW$T$338)
    2351                    
    2352                    $C$DW$T$344     .dwtag  DW_TAG_pointer_type
    2353                            .dwattr $C$DW$T$344, DW_AT_type(*$C$DW$T$343)
    2354                            .dwattr $C$DW$T$344, DW_AT_address_class(0x20)
    2355                    
    2356                    $C$DW$T$584     .dwtag  DW_TAG_typedef
    2357                            .dwattr $C$DW$T$584, DW_AT_name("__CARRAY1_ti_sysbios_knl_Swi_Instance_State__hookEnv")
    2358                            .dwattr $C$DW$T$584, DW_AT_type(*$C$DW$T$344)
    2359                            .dwattr $C$DW$T$584, DW_AT_language(DW_LANG_C)
    2360                            .dwattr $C$DW$T$584, DW_AT_decl_file("C:/ti/simplelink_cc13x0_sdk_1_50_00_08/kernel/tirtos/pac
TI ARM Assembler PC v16.9.4 Sat Nov 18 18:46:18 2017

Tools Copyright (c) 1996-2017 Texas Instruments Incorporated
C:\Users\Kevin\AppData\Local\Temp\{5A8B501C-33CF-4805-A507-0ACBE2D1F927} PAGE   44

    2361                            .dwattr $C$DW$T$584, DW_AT_decl_line(0x7e)
    2362                            .dwattr $C$DW$T$584, DW_AT_decl_column(0x18)
    2363                    
    2364                    $C$DW$T$345     .dwtag  DW_TAG_typedef
    2365                            .dwattr $C$DW$T$345, DW_AT_name("__CARRAY1_ti_sysbios_knl_Swi_Struct2____hookEnv")
    2366                            .dwattr $C$DW$T$345, DW_AT_type(*$C$DW$T$344)
    2367                            .dwattr $C$DW$T$345, DW_AT_language(DW_LANG_C)
    2368                            .dwattr $C$DW$T$345, DW_AT_decl_file("C:/ti/simplelink_cc13x0_sdk_1_50_00_08/kernel/tirtos/pac
    2369                            .dwattr $C$DW$T$345, DW_AT_decl_line(0x58)
    2370                            .dwattr $C$DW$T$345, DW_AT_decl_column(0x18)
    2371                    
    2372                    $C$DW$T$346     .dwtag  DW_TAG_typedef
    2373                            .dwattr $C$DW$T$346, DW_AT_name("__TA_ti_sysbios_knl_Swi_Struct2____hookEnv")
    2374                            .dwattr $C$DW$T$346, DW_AT_type(*$C$DW$T$345)
    2375                            .dwattr $C$DW$T$346, DW_AT_language(DW_LANG_C)
    2376                            .dwattr $C$DW$T$346, DW_AT_decl_file("C:/ti/simplelink_cc13x0_sdk_1_50_00_08/kernel/tirtos/pac
    2377                            .dwattr $C$DW$T$346, DW_AT_decl_line(0x59)
    2378                            .dwattr $C$DW$T$346, DW_AT_decl_column(0x39)
    2379                    
    2380                    
    2381                    $C$DW$T$158     .dwtag  DW_TAG_subroutine_type
    2382                            .dwattr $C$DW$T$158, DW_AT_language(DW_LANG_C)
    2383                            .dwendtag $C$DW$T$158
    2384                    
    2385                    $C$DW$T$159     .dwtag  DW_TAG_pointer_type
    2386                            .dwattr $C$DW$T$159, DW_AT_type(*$C$DW$T$158)
    2387                            .dwattr $C$DW$T$159, DW_AT_address_class(0x20)
    2388                    
    2389                    $C$DW$T$177     .dwtag  DW_TAG_typedef
    2390                            .dwattr $C$DW$T$177, DW_AT_name("FPTR_HFSOURCESAFESWITCH_T")
    2391                            .dwattr $C$DW$T$177, DW_AT_type(*$C$DW$T$159)
    2392                            .dwattr $C$DW$T$177, DW_AT_language(DW_LANG_C)
    2393                            .dwattr $C$DW$T$177, DW_AT_decl_file("C:\ti\simplelink_cc13x0_sdk_1_50_00_08\source\ti\devices
    2394                            .dwattr $C$DW$T$177, DW_AT_decl_line(0x5f)
    2395                            .dwattr $C$DW$T$177, DW_AT_decl_column(0x19)
    2396                    
    2397                    $C$DW$T$160     .dwtag  DW_TAG_typedef
    2398                            .dwattr $C$DW$T$160, DW_AT_name("FPTR_RESETDEV_T")
    2399                            .dwattr $C$DW$T$160, DW_AT_type(*$C$DW$T$159)
    2400                            .dwattr $C$DW$T$160, DW_AT_language(DW_LANG_C)
    2401                            .dwattr $C$DW$T$160, DW_AT_decl_file("C:\ti\simplelink_cc13x0_sdk_1_50_00_08\source\ti\devices
    2402                            .dwattr $C$DW$T$160, DW_AT_decl_line(0x4d)
    2403                            .dwattr $C$DW$T$160, DW_AT_decl_column(0x19)
    2404                    
    2405                    $C$DW$T$585     .dwtag  DW_TAG_typedef
    2406                            .dwattr $C$DW$T$585, DW_AT_name("FPTR_VOID_VOID_T")
    2407                            .dwattr $C$DW$T$585, DW_AT_type(*$C$DW$T$159)
    2408                            .dwattr $C$DW$T$585, DW_AT_language(DW_LANG_C)
    2409                            .dwattr $C$DW$T$585, DW_AT_decl_file("C:\ti\simplelink_cc13x0_sdk_1_50_00_08\source\ti\devices
    2410                            .dwattr $C$DW$T$585, DW_AT_decl_line(0x33)
    2411                            .dwattr $C$DW$T$585, DW_AT_decl_column(0x11)
    2412                    
    2413                    $C$DW$T$586     .dwtag  DW_TAG_typedef
    2414                            .dwattr $C$DW$T$586, DW_AT_name("Power_PolicyFxn")
    2415                            .dwattr $C$DW$T$586, DW_AT_type(*$C$DW$T$159)
TI ARM Assembler PC v16.9.4 Sat Nov 18 18:46:18 2017

Tools Copyright (c) 1996-2017 Texas Instruments Incorporated
C:\Users\Kevin\AppData\Local\Temp\{5A8B501C-33CF-4805-A507-0ACBE2D1F927} PAGE   45

    2416                            .dwattr $C$DW$T$586, DW_AT_language(DW_LANG_C)
    2417                            .dwattr $C$DW$T$586, DW_AT_decl_file("C:/ti/simplelink_cc13x0_sdk_1_50_00_08/source/ti/drivers
    2418                            .dwattr $C$DW$T$586, DW_AT_decl_line(0x63)
    2419                            .dwattr $C$DW$T$586, DW_AT_decl_column(0x10)
    2420                    
    2421                    $C$DW$T$587     .dwtag  DW_TAG_typedef
    2422                            .dwattr $C$DW$T$587, DW_AT_name("Power_PolicyInitFxn")
    2423                            .dwattr $C$DW$T$587, DW_AT_type(*$C$DW$T$159)
    2424                            .dwattr $C$DW$T$587, DW_AT_language(DW_LANG_C)
    2425                            .dwattr $C$DW$T$587, DW_AT_decl_file("C:/ti/simplelink_cc13x0_sdk_1_50_00_08/source/ti/drivers
    2426                            .dwattr $C$DW$T$587, DW_AT_decl_line(0x5e)
    2427                            .dwattr $C$DW$T$587, DW_AT_decl_column(0x10)
    2428                    
    2429                    $C$DW$T$588     .dwtag  DW_TAG_typedef
    2430                            .dwattr $C$DW$T$588, DW_AT_name("ti_sysbios_interfaces_ITimer_startup_FxnT")
    2431                            .dwattr $C$DW$T$588, DW_AT_type(*$C$DW$T$159)
    2432                            .dwattr $C$DW$T$588, DW_AT_language(DW_LANG_C)
    2433                            .dwattr $C$DW$T$588, DW_AT_decl_file("C:/ti/simplelink_cc13x0_sdk_1_50_00_08/kernel/tirtos/pac
    2434                            .dwattr $C$DW$T$588, DW_AT_decl_line(0x164)
    2435                            .dwattr $C$DW$T$588, DW_AT_decl_column(0x14)
    2436                    
    2437                    
    2438                    $C$DW$T$173     .dwtag  DW_TAG_subroutine_type
    2439                            .dwattr $C$DW$T$173, DW_AT_language(DW_LANG_C)
    2440                    $C$DW$155       .dwtag  DW_TAG_formal_parameter
    2441                            .dwattr $C$DW$155, DW_AT_type(*$C$DW$T$143)
    2442                    
    2443                            .dwendtag $C$DW$T$173
    2444                    
    2445                    $C$DW$T$174     .dwtag  DW_TAG_pointer_type
    2446                            .dwattr $C$DW$T$174, DW_AT_type(*$C$DW$T$173)
    2447                            .dwattr $C$DW$T$174, DW_AT_address_class(0x20)
    2448                    
    2449                    $C$DW$T$175     .dwtag  DW_TAG_typedef
    2450                            .dwattr $C$DW$T$175, DW_AT_name("FPTR_RESERVED4_T")
    2451                            .dwattr $C$DW$T$175, DW_AT_type(*$C$DW$T$174)
    2452                            .dwattr $C$DW$T$175, DW_AT_language(DW_LANG_C)
    2453                            .dwattr $C$DW$T$175, DW_AT_decl_file("C:\ti\simplelink_cc13x0_sdk_1_50_00_08\source\ti\devices
    2454                            .dwattr $C$DW$T$175, DW_AT_decl_line(0x61)
    2455                            .dwattr $C$DW$T$175, DW_AT_decl_column(0x19)
    2456                    
    2457                    $C$DW$T$176     .dwtag  DW_TAG_typedef
    2458                            .dwattr $C$DW$T$176, DW_AT_name("FPTR_RESERVED5_T")
    2459                            .dwattr $C$DW$T$176, DW_AT_type(*$C$DW$T$174)
    2460                            .dwattr $C$DW$T$176, DW_AT_language(DW_LANG_C)
    2461                            .dwattr $C$DW$T$176, DW_AT_decl_file("C:\ti\simplelink_cc13x0_sdk_1_50_00_08\source\ti\devices
    2462                            .dwattr $C$DW$T$176, DW_AT_decl_line(0x63)
    2463                            .dwattr $C$DW$T$176, DW_AT_decl_column(0x19)
    2464                    
    2465                    
    2466                    $C$DW$T$178     .dwtag  DW_TAG_subroutine_type
    2467                            .dwattr $C$DW$T$178, DW_AT_language(DW_LANG_C)
    2468                    $C$DW$156       .dwtag  DW_TAG_formal_parameter
    2469                            .dwattr $C$DW$156, DW_AT_type(*$C$DW$T$144)
    2470                    
TI ARM Assembler PC v16.9.4 Sat Nov 18 18:46:18 2017

Tools Copyright (c) 1996-2017 Texas Instruments Incorporated
C:\Users\Kevin\AppData\Local\Temp\{5A8B501C-33CF-4805-A507-0ACBE2D1F927} PAGE   46

    2471                            .dwendtag $C$DW$T$178
    2472                    
    2473                    $C$DW$T$179     .dwtag  DW_TAG_pointer_type
    2474                            .dwattr $C$DW$T$179, DW_AT_type(*$C$DW$T$178)
    2475                            .dwattr $C$DW$T$179, DW_AT_address_class(0x20)
    2476                    
    2477                    $C$DW$T$589     .dwtag  DW_TAG_typedef
    2478                            .dwattr $C$DW$T$589, DW_AT_name("Board_Key_keysPressedCB_t")
    2479                            .dwattr $C$DW$T$589, DW_AT_type(*$C$DW$T$179)
    2480                            .dwattr $C$DW$T$589, DW_AT_language(DW_LANG_C)
    2481                            .dwattr $C$DW$T$589, DW_AT_decl_file("..\Application\LaunchPad\board_key.h")
    2482                            .dwattr $C$DW$T$589, DW_AT_decl_line(0x64)
    2483                            .dwattr $C$DW$T$589, DW_AT_decl_column(0x10)
    2484                    
    2485                    $C$DW$T$590     .dwtag  DW_TAG_const_type
    2486                            .dwattr $C$DW$T$590, DW_AT_type(*$C$DW$T$589)
    2487                    
    2488                    $C$DW$T$182     .dwtag  DW_TAG_typedef
    2489                            .dwattr $C$DW$T$182, DW_AT_name("FPTR_ADCCOMPBIN_T")
    2490                            .dwattr $C$DW$T$182, DW_AT_type(*$C$DW$T$179)
    2491                            .dwattr $C$DW$T$182, DW_AT_language(DW_LANG_C)
    2492                            .dwattr $C$DW$T$182, DW_AT_decl_file("C:\ti\simplelink_cc13x0_sdk_1_50_00_08\source\ti\devices
    2493                            .dwattr $C$DW$T$182, DW_AT_decl_line(0x69)
    2494                            .dwattr $C$DW$T$182, DW_AT_decl_column(0x19)
    2495                    
    2496                    $C$DW$T$180     .dwtag  DW_TAG_typedef
    2497                            .dwattr $C$DW$T$180, DW_AT_name("FPTR_COMPAIN_T")
    2498                            .dwattr $C$DW$T$180, DW_AT_type(*$C$DW$T$179)
    2499                            .dwattr $C$DW$T$180, DW_AT_language(DW_LANG_C)
    2500                            .dwattr $C$DW$T$180, DW_AT_decl_file("C:\ti\simplelink_cc13x0_sdk_1_50_00_08\source\ti\devices
    2501                            .dwattr $C$DW$T$180, DW_AT_decl_line(0x65)
    2502                            .dwattr $C$DW$T$180, DW_AT_decl_column(0x19)
    2503                    
    2504                    $C$DW$T$181     .dwtag  DW_TAG_typedef
    2505                            .dwattr $C$DW$T$181, DW_AT_name("FPTR_COMPAREF_T")
    2506                            .dwattr $C$DW$T$181, DW_AT_type(*$C$DW$T$179)
    2507                            .dwattr $C$DW$T$181, DW_AT_language(DW_LANG_C)
    2508                            .dwattr $C$DW$T$181, DW_AT_decl_file("C:\ti\simplelink_cc13x0_sdk_1_50_00_08\source\ti\devices
    2509                            .dwattr $C$DW$T$181, DW_AT_decl_line(0x67)
    2510                            .dwattr $C$DW$T$181, DW_AT_decl_column(0x19)
    2511                    
    2512                    $C$DW$T$183     .dwtag  DW_TAG_typedef
    2513                            .dwattr $C$DW$T$183, DW_AT_name("FPTR_COMPBREF_T")
    2514                            .dwattr $C$DW$T$183, DW_AT_type(*$C$DW$T$179)
    2515                            .dwattr $C$DW$T$183, DW_AT_language(DW_LANG_C)
    2516                            .dwattr $C$DW$T$183, DW_AT_decl_file("C:\ti\simplelink_cc13x0_sdk_1_50_00_08\source\ti\devices
    2517                            .dwattr $C$DW$T$183, DW_AT_decl_line(0x6b)
    2518                            .dwattr $C$DW$T$183, DW_AT_decl_column(0x19)
    2519                    
    2520                    $C$DW$T$591     .dwtag  DW_TAG_typedef
    2521                            .dwattr $C$DW$T$591, DW_AT_name("FPTR_VOID_UINT8_T")
    2522                            .dwattr $C$DW$T$591, DW_AT_type(*$C$DW$T$179)
    2523                            .dwattr $C$DW$T$591, DW_AT_language(DW_LANG_C)
    2524                            .dwattr $C$DW$T$591, DW_AT_decl_file("C:\ti\simplelink_cc13x0_sdk_1_50_00_08\source\ti\devices
    2525                            .dwattr $C$DW$T$591, DW_AT_decl_line(0x34)
TI ARM Assembler PC v16.9.4 Sat Nov 18 18:46:18 2017

Tools Copyright (c) 1996-2017 Texas Instruments Incorporated
C:\Users\Kevin\AppData\Local\Temp\{5A8B501C-33CF-4805-A507-0ACBE2D1F927} PAGE   47

    2526                            .dwattr $C$DW$T$591, DW_AT_decl_column(0x11)
    2527                    
    2528                    
    2529                    $C$DW$T$201     .dwtag  DW_TAG_subroutine_type
    2530                            .dwattr $C$DW$T$201, DW_AT_language(DW_LANG_C)
    2531                    $C$DW$157       .dwtag  DW_TAG_formal_parameter
    2532                            .dwattr $C$DW$157, DW_AT_type(*$C$DW$T$199)
    2533                    
    2534                    $C$DW$158       .dwtag  DW_TAG_formal_parameter
    2535                            .dwattr $C$DW$158, DW_AT_type(*$C$DW$T$200)
    2536                    
    2537                            .dwendtag $C$DW$T$201
    2538                    
    2539                    $C$DW$T$202     .dwtag  DW_TAG_pointer_type
    2540                            .dwattr $C$DW$T$202, DW_AT_type(*$C$DW$T$201)
    2541                            .dwattr $C$DW$T$202, DW_AT_address_class(0x20)
    2542                    
    2543                    $C$DW$T$203     .dwtag  DW_TAG_typedef
    2544                            .dwattr $C$DW$T$203, DW_AT_name("PIN_IntCb")
    2545                            .dwattr $C$DW$T$203, DW_AT_type(*$C$DW$T$202)
    2546                            .dwattr $C$DW$T$203, DW_AT_language(DW_LANG_C)
    2547                            .dwattr $C$DW$T$203, DW_AT_decl_file("C:/ti/simplelink_cc13x0_sdk_1_50_00_08/source/ti/drivers
    2548                            .dwattr $C$DW$T$203, DW_AT_decl_line(0x2a4)
    2549                            .dwattr $C$DW$T$203, DW_AT_decl_column(0x10)
    2550                    
    2551                    
    2552                    $C$DW$T$220     .dwtag  DW_TAG_subroutine_type
    2553                            .dwattr $C$DW$T$220, DW_AT_language(DW_LANG_C)
    2554                    $C$DW$159       .dwtag  DW_TAG_formal_parameter
    2555                            .dwattr $C$DW$159, DW_AT_type(*$C$DW$T$219)
    2556                    
    2557                            .dwendtag $C$DW$T$220
    2558                    
    2559                    $C$DW$T$221     .dwtag  DW_TAG_pointer_type
    2560                            .dwattr $C$DW$T$221, DW_AT_type(*$C$DW$T$220)
    2561                            .dwattr $C$DW$T$221, DW_AT_address_class(0x20)
    2562                    
    2563                    $C$DW$T$594     .dwtag  DW_TAG_typedef
    2564                            .dwattr $C$DW$T$594, DW_AT_name("CT__ti_sysbios_knl_Clock_doTickFunc")
    2565                            .dwattr $C$DW$T$594, DW_AT_type(*$C$DW$T$221)
    2566                            .dwattr $C$DW$T$594, DW_AT_language(DW_LANG_C)
    2567                            .dwattr $C$DW$T$594, DW_AT_decl_file("C:/ti/simplelink_cc13x0_sdk_1_50_00_08/kernel/tirtos/pac
    2568                            .dwattr $C$DW$T$594, DW_AT_decl_line(0x170)
    2569                            .dwattr $C$DW$T$594, DW_AT_decl_column(0x14)
    2570                    
    2571                    $C$DW$T$222     .dwtag  DW_TAG_typedef
    2572                            .dwattr $C$DW$T$222, DW_AT_name("ti_sysbios_interfaces_ITimer_FuncPtr")
    2573                            .dwattr $C$DW$T$222, DW_AT_type(*$C$DW$T$221)
    2574                            .dwattr $C$DW$T$222, DW_AT_language(DW_LANG_C)
    2575                            .dwattr $C$DW$T$222, DW_AT_decl_file("C:/ti/simplelink_cc13x0_sdk_1_50_00_08/kernel/tirtos/pac
    2576                            .dwattr $C$DW$T$222, DW_AT_decl_line(0x42)
    2577                            .dwattr $C$DW$T$222, DW_AT_decl_column(0x14)
    2578                    
    2579                    
    2580                    $C$DW$T$253     .dwtag  DW_TAG_subroutine_type
TI ARM Assembler PC v16.9.4 Sat Nov 18 18:46:18 2017

Tools Copyright (c) 1996-2017 Texas Instruments Incorporated
C:\Users\Kevin\AppData\Local\Temp\{5A8B501C-33CF-4805-A507-0ACBE2D1F927} PAGE   48

    2581                            .dwattr $C$DW$T$253, DW_AT_type(*$C$DW$T$222)
    2582                            .dwattr $C$DW$T$253, DW_AT_language(DW_LANG_C)
    2583                    $C$DW$160       .dwtag  DW_TAG_formal_parameter
    2584                            .dwattr $C$DW$160, DW_AT_type(*$C$DW$T$3)
    2585                    
    2586                    $C$DW$161       .dwtag  DW_TAG_formal_parameter
    2587                            .dwattr $C$DW$161, DW_AT_type(*$C$DW$T$252)
    2588                    
    2589                            .dwendtag $C$DW$T$253
    2590                    
    2591                    $C$DW$T$254     .dwtag  DW_TAG_pointer_type
    2592                            .dwattr $C$DW$T$254, DW_AT_type(*$C$DW$T$253)
    2593                            .dwattr $C$DW$T$254, DW_AT_address_class(0x20)
    2594                    
    2595                    $C$DW$T$595     .dwtag  DW_TAG_typedef
    2596                            .dwattr $C$DW$T$595, DW_AT_name("ti_sysbios_interfaces_ITimer_getFunc_FxnT")
    2597                            .dwattr $C$DW$T$595, DW_AT_type(*$C$DW$T$254)
    2598                            .dwattr $C$DW$T$595, DW_AT_language(DW_LANG_C)
    2599                            .dwattr $C$DW$T$595, DW_AT_decl_file("C:/ti/simplelink_cc13x0_sdk_1_50_00_08/kernel/tirtos/pac
    2600                            .dwattr $C$DW$T$595, DW_AT_decl_line(0x1b4)
    2601                            .dwattr $C$DW$T$595, DW_AT_decl_column(0x30)
    2602                    
    2603                    
    2604                    $C$DW$T$299     .dwtag  DW_TAG_subroutine_type
    2605                            .dwattr $C$DW$T$299, DW_AT_type(*$C$DW$T$222)
    2606                            .dwattr $C$DW$T$299, DW_AT_language(DW_LANG_C)
    2607                    $C$DW$162       .dwtag  DW_TAG_formal_parameter
    2608                            .dwattr $C$DW$162, DW_AT_type(*$C$DW$T$288)
    2609                    
    2610                    $C$DW$163       .dwtag  DW_TAG_formal_parameter
    2611                            .dwattr $C$DW$163, DW_AT_type(*$C$DW$T$252)
    2612                    
    2613                            .dwendtag $C$DW$T$299
    2614                    
    2615                    $C$DW$T$300     .dwtag  DW_TAG_pointer_type
    2616                            .dwattr $C$DW$T$300, DW_AT_type(*$C$DW$T$299)
    2617                            .dwattr $C$DW$T$300, DW_AT_address_class(0x20)
    2618                    
    2619                    $C$DW$T$596     .dwtag  DW_TAG_typedef
    2620                            .dwattr $C$DW$T$596, DW_AT_name("ti_sysbios_knl_Clock_TimerProxy_FuncPtr")
    2621                            .dwattr $C$DW$T$596, DW_AT_type(*$C$DW$T$222)
    2622                            .dwattr $C$DW$T$596, DW_AT_language(DW_LANG_C)
    2623                            .dwattr $C$DW$T$596, DW_AT_decl_file("C:/ti/simplelink_cc13x0_sdk_1_50_00_08/kernel/tirtos/pac
    2624                            .dwattr $C$DW$T$596, DW_AT_decl_line(0x43)
    2625                            .dwattr $C$DW$T$596, DW_AT_decl_column(0x2e)
    2626                    
    2627                    $C$DW$T$277     .dwtag  DW_TAG_typedef
    2628                            .dwattr $C$DW$T$277, DW_AT_name("ti_sysbios_knl_Clock_FuncPtr")
    2629                            .dwattr $C$DW$T$277, DW_AT_type(*$C$DW$T$221)
    2630                            .dwattr $C$DW$T$277, DW_AT_language(DW_LANG_C)
    2631                            .dwattr $C$DW$T$277, DW_AT_decl_file("C:/ti/simplelink_cc13x0_sdk_1_50_00_08/kernel/tirtos/pac
    2632                            .dwattr $C$DW$T$277, DW_AT_decl_line(0x59)
    2633                            .dwattr $C$DW$T$277, DW_AT_decl_column(0x14)
    2634                    
    2635                    
TI ARM Assembler PC v16.9.4 Sat Nov 18 18:46:18 2017

Tools Copyright (c) 1996-2017 Texas Instruments Incorporated
C:\Users\Kevin\AppData\Local\Temp\{5A8B501C-33CF-4805-A507-0ACBE2D1F927} PAGE   49

    2636                    $C$DW$T$241     .dwtag  DW_TAG_subroutine_type
    2637                            .dwattr $C$DW$T$241, DW_AT_language(DW_LANG_C)
    2638                    $C$DW$164       .dwtag  DW_TAG_formal_parameter
    2639                            .dwattr $C$DW$164, DW_AT_type(*$C$DW$T$3)
    2640                    
    2641                    $C$DW$165       .dwtag  DW_TAG_formal_parameter
    2642                            .dwattr $C$DW$165, DW_AT_type(*$C$DW$T$238)
    2643                    
    2644                            .dwendtag $C$DW$T$241
    2645                    
    2646                    $C$DW$T$242     .dwtag  DW_TAG_pointer_type
    2647                            .dwattr $C$DW$T$242, DW_AT_type(*$C$DW$T$241)
    2648                            .dwattr $C$DW$T$242, DW_AT_address_class(0x20)
    2649                    
    2650                    $C$DW$T$597     .dwtag  DW_TAG_typedef
    2651                            .dwattr $C$DW$T$597, DW_AT_name("ti_sysbios_interfaces_ITimer_setNextTick_FxnT")
    2652                            .dwattr $C$DW$T$597, DW_AT_type(*$C$DW$T$242)
    2653                            .dwattr $C$DW$T$597, DW_AT_language(DW_LANG_C)
    2654                            .dwattr $C$DW$T$597, DW_AT_decl_file("C:/ti/simplelink_cc13x0_sdk_1_50_00_08/kernel/tirtos/pac
    2655                            .dwattr $C$DW$T$597, DW_AT_decl_line(0x174)
    2656                            .dwattr $C$DW$T$597, DW_AT_decl_column(0x14)
    2657                    
    2658                    $C$DW$T$598     .dwtag  DW_TAG_typedef
    2659                            .dwattr $C$DW$T$598, DW_AT_name("ti_sysbios_interfaces_ITimer_setPeriod_FxnT")
    2660                            .dwattr $C$DW$T$598, DW_AT_type(*$C$DW$T$242)
    2661                            .dwattr $C$DW$T$598, DW_AT_language(DW_LANG_C)
    2662                            .dwattr $C$DW$T$598, DW_AT_decl_file("C:/ti/simplelink_cc13x0_sdk_1_50_00_08/kernel/tirtos/pac
    2663                            .dwattr $C$DW$T$598, DW_AT_decl_line(0x18c)
    2664                            .dwattr $C$DW$T$598, DW_AT_decl_column(0x14)
    2665                    
    2666                    $C$DW$T$599     .dwtag  DW_TAG_typedef
    2667                            .dwattr $C$DW$T$599, DW_AT_name("ti_sysbios_interfaces_ITimer_trigger_FxnT")
    2668                            .dwattr $C$DW$T$599, DW_AT_type(*$C$DW$T$242)
    2669                            .dwattr $C$DW$T$599, DW_AT_language(DW_LANG_C)
    2670                            .dwattr $C$DW$T$599, DW_AT_decl_file("C:/ti/simplelink_cc13x0_sdk_1_50_00_08/kernel/tirtos/pac
    2671                            .dwattr $C$DW$T$599, DW_AT_decl_line(0x1c4)
    2672                            .dwattr $C$DW$T$599, DW_AT_decl_column(0x14)
    2673                    
    2674                    
    2675                    $C$DW$T$243     .dwtag  DW_TAG_subroutine_type
    2676                            .dwattr $C$DW$T$243, DW_AT_language(DW_LANG_C)
    2677                    $C$DW$166       .dwtag  DW_TAG_formal_parameter
    2678                            .dwattr $C$DW$166, DW_AT_type(*$C$DW$T$3)
    2679                    
    2680                            .dwendtag $C$DW$T$243
    2681                    
    2682                    $C$DW$T$244     .dwtag  DW_TAG_pointer_type
    2683                            .dwattr $C$DW$T$244, DW_AT_type(*$C$DW$T$243)
    2684                            .dwattr $C$DW$T$244, DW_AT_address_class(0x20)
    2685                    
    2686                    $C$DW$T$600     .dwtag  DW_TAG_typedef
    2687                            .dwattr $C$DW$T$600, DW_AT_name("ti_sysbios_interfaces_ITimer_start_FxnT")
    2688                            .dwattr $C$DW$T$600, DW_AT_type(*$C$DW$T$244)
    2689                            .dwattr $C$DW$T$600, DW_AT_language(DW_LANG_C)
    2690                            .dwattr $C$DW$T$600, DW_AT_decl_file("C:/ti/simplelink_cc13x0_sdk_1_50_00_08/kernel/tirtos/pac
TI ARM Assembler PC v16.9.4 Sat Nov 18 18:46:18 2017

Tools Copyright (c) 1996-2017 Texas Instruments Incorporated
C:\Users\Kevin\AppData\Local\Temp\{5A8B501C-33CF-4805-A507-0ACBE2D1F927} PAGE   50

    2691                            .dwattr $C$DW$T$600, DW_AT_decl_line(0x17c)
    2692                            .dwattr $C$DW$T$600, DW_AT_decl_column(0x14)
    2693                    
    2694                    $C$DW$T$601     .dwtag  DW_TAG_typedef
    2695                            .dwattr $C$DW$T$601, DW_AT_name("ti_sysbios_interfaces_ITimer_stop_FxnT")
    2696                            .dwattr $C$DW$T$601, DW_AT_type(*$C$DW$T$244)
    2697                            .dwattr $C$DW$T$601, DW_AT_language(DW_LANG_C)
    2698                            .dwattr $C$DW$T$601, DW_AT_decl_file("C:/ti/simplelink_cc13x0_sdk_1_50_00_08/kernel/tirtos/pac
    2699                            .dwattr $C$DW$T$601, DW_AT_decl_line(0x184)
    2700                            .dwattr $C$DW$T$601, DW_AT_decl_column(0x14)
    2701                    
    2702                    
    2703                    $C$DW$T$250     .dwtag  DW_TAG_subroutine_type
    2704                            .dwattr $C$DW$T$250, DW_AT_language(DW_LANG_C)
    2705                    $C$DW$167       .dwtag  DW_TAG_formal_parameter
    2706                            .dwattr $C$DW$167, DW_AT_type(*$C$DW$T$3)
    2707                    
    2708                    $C$DW$168       .dwtag  DW_TAG_formal_parameter
    2709                            .dwattr $C$DW$168, DW_AT_type(*$C$DW$T$249)
    2710                    
    2711                            .dwendtag $C$DW$T$250
    2712                    
    2713                    $C$DW$T$251     .dwtag  DW_TAG_pointer_type
    2714                            .dwattr $C$DW$T$251, DW_AT_type(*$C$DW$T$250)
    2715                            .dwattr $C$DW$T$251, DW_AT_address_class(0x20)
    2716                    
    2717                    $C$DW$T$602     .dwtag  DW_TAG_typedef
    2718                            .dwattr $C$DW$T$602, DW_AT_name("ti_sysbios_interfaces_ITimer_getFreq_FxnT")
    2719                            .dwattr $C$DW$T$602, DW_AT_type(*$C$DW$T$251)
    2720                            .dwattr $C$DW$T$602, DW_AT_language(DW_LANG_C)
    2721                            .dwattr $C$DW$T$602, DW_AT_decl_file("C:/ti/simplelink_cc13x0_sdk_1_50_00_08/kernel/tirtos/pac
    2722                            .dwattr $C$DW$T$602, DW_AT_decl_line(0x1ac)
    2723                            .dwattr $C$DW$T$602, DW_AT_decl_column(0x14)
    2724                    
    2725                    
    2726                    $C$DW$T$255     .dwtag  DW_TAG_subroutine_type
    2727                            .dwattr $C$DW$T$255, DW_AT_language(DW_LANG_C)
    2728                    $C$DW$169       .dwtag  DW_TAG_formal_parameter
    2729                            .dwattr $C$DW$169, DW_AT_type(*$C$DW$T$3)
    2730                    
    2731                    $C$DW$170       .dwtag  DW_TAG_formal_parameter
    2732                            .dwattr $C$DW$170, DW_AT_type(*$C$DW$T$222)
    2733                    
    2734                    $C$DW$171       .dwtag  DW_TAG_formal_parameter
    2735                            .dwattr $C$DW$171, DW_AT_type(*$C$DW$T$219)
    2736                    
    2737                            .dwendtag $C$DW$T$255
    2738                    
    2739                    $C$DW$T$256     .dwtag  DW_TAG_pointer_type
    2740                            .dwattr $C$DW$T$256, DW_AT_type(*$C$DW$T$255)
    2741                            .dwattr $C$DW$T$256, DW_AT_address_class(0x20)
    2742                    
    2743                    $C$DW$T$603     .dwtag  DW_TAG_typedef
    2744                            .dwattr $C$DW$T$603, DW_AT_name("ti_sysbios_interfaces_ITimer_setFunc_FxnT")
    2745                            .dwattr $C$DW$T$603, DW_AT_type(*$C$DW$T$256)
TI ARM Assembler PC v16.9.4 Sat Nov 18 18:46:18 2017

Tools Copyright (c) 1996-2017 Texas Instruments Incorporated
C:\Users\Kevin\AppData\Local\Temp\{5A8B501C-33CF-4805-A507-0ACBE2D1F927} PAGE   51

    2746                            .dwattr $C$DW$T$603, DW_AT_language(DW_LANG_C)
    2747                            .dwattr $C$DW$T$603, DW_AT_decl_file("C:/ti/simplelink_cc13x0_sdk_1_50_00_08/kernel/tirtos/pac
    2748                            .dwattr $C$DW$T$603, DW_AT_decl_line(0x1bc)
    2749                            .dwattr $C$DW$T$603, DW_AT_decl_column(0x14)
    2750                    
    2751                    $C$DW$T$263     .dwtag  DW_TAG_const_type
    2752                            .dwattr $C$DW$T$263, DW_AT_type(*$C$DW$T$2)
    2753                    
    2754                    $C$DW$T$264     .dwtag  DW_TAG_pointer_type
    2755                            .dwattr $C$DW$T$264, DW_AT_type(*$C$DW$T$263)
    2756                            .dwattr $C$DW$T$264, DW_AT_address_class(0x20)
    2757                    
    2758                    $C$DW$T$465     .dwtag  DW_TAG_typedef
    2759                            .dwattr $C$DW$T$465, DW_AT_name("xdc_CPtr")
    2760                            .dwattr $C$DW$T$465, DW_AT_type(*$C$DW$T$264)
    2761                            .dwattr $C$DW$T$465, DW_AT_language(DW_LANG_C)
    2762                            .dwattr $C$DW$T$465, DW_AT_decl_file("C:/ti/xdctools_3_50_03_33_core/packages/xdc/std.h")
    2763                            .dwattr $C$DW$T$465, DW_AT_decl_line(0x2f)
    2764                            .dwattr $C$DW$T$465, DW_AT_decl_column(0x1a)
    2765                    
    2766                    $C$DW$T$604     .dwtag  DW_TAG_typedef
    2767                            .dwattr $C$DW$T$604, DW_AT_name("CPtr")
    2768                            .dwattr $C$DW$T$604, DW_AT_type(*$C$DW$T$465)
    2769                            .dwattr $C$DW$T$604, DW_AT_language(DW_LANG_C)
    2770                            .dwattr $C$DW$T$604, DW_AT_decl_file("C:/ti/xdctools_3_50_03_33_core/packages/xdc/std.h")
    2771                            .dwattr $C$DW$T$604, DW_AT_decl_line(0xf8)
    2772                            .dwattr $C$DW$T$604, DW_AT_decl_column(0x19)
    2773                    
    2774                    
    2775                    $C$DW$T$291     .dwtag  DW_TAG_subroutine_type
    2776                            .dwattr $C$DW$T$291, DW_AT_language(DW_LANG_C)
    2777                    $C$DW$172       .dwtag  DW_TAG_formal_parameter
    2778                            .dwattr $C$DW$172, DW_AT_type(*$C$DW$T$288)
    2779                    
    2780                    $C$DW$173       .dwtag  DW_TAG_formal_parameter
    2781                            .dwattr $C$DW$173, DW_AT_type(*$C$DW$T$238)
    2782                    
    2783                            .dwendtag $C$DW$T$291
    2784                    
    2785                    $C$DW$T$292     .dwtag  DW_TAG_pointer_type
    2786                            .dwattr $C$DW$T$292, DW_AT_type(*$C$DW$T$291)
    2787                            .dwattr $C$DW$T$292, DW_AT_address_class(0x20)
    2788                    
    2789                    
    2790                    $C$DW$T$293     .dwtag  DW_TAG_subroutine_type
    2791                            .dwattr $C$DW$T$293, DW_AT_language(DW_LANG_C)
    2792                    $C$DW$174       .dwtag  DW_TAG_formal_parameter
    2793                            .dwattr $C$DW$174, DW_AT_type(*$C$DW$T$288)
    2794                    
    2795                            .dwendtag $C$DW$T$293
    2796                    
    2797                    $C$DW$T$294     .dwtag  DW_TAG_pointer_type
    2798                            .dwattr $C$DW$T$294, DW_AT_type(*$C$DW$T$293)
    2799                            .dwattr $C$DW$T$294, DW_AT_address_class(0x20)
    2800                    
TI ARM Assembler PC v16.9.4 Sat Nov 18 18:46:18 2017

Tools Copyright (c) 1996-2017 Texas Instruments Incorporated
C:\Users\Kevin\AppData\Local\Temp\{5A8B501C-33CF-4805-A507-0ACBE2D1F927} PAGE   52

    2801                    
    2802                    $C$DW$T$297     .dwtag  DW_TAG_subroutine_type
    2803                            .dwattr $C$DW$T$297, DW_AT_language(DW_LANG_C)
    2804                    $C$DW$175       .dwtag  DW_TAG_formal_parameter
    2805                            .dwattr $C$DW$175, DW_AT_type(*$C$DW$T$288)
    2806                    
    2807                    $C$DW$176       .dwtag  DW_TAG_formal_parameter
    2808                            .dwattr $C$DW$176, DW_AT_type(*$C$DW$T$249)
    2809                    
    2810                            .dwendtag $C$DW$T$297
    2811                    
    2812                    $C$DW$T$298     .dwtag  DW_TAG_pointer_type
    2813                            .dwattr $C$DW$T$298, DW_AT_type(*$C$DW$T$297)
    2814                            .dwattr $C$DW$T$298, DW_AT_address_class(0x20)
    2815                    
    2816                    
    2817                    $C$DW$T$301     .dwtag  DW_TAG_subroutine_type
    2818                            .dwattr $C$DW$T$301, DW_AT_language(DW_LANG_C)
    2819                    $C$DW$177       .dwtag  DW_TAG_formal_parameter
    2820                            .dwattr $C$DW$177, DW_AT_type(*$C$DW$T$288)
    2821                    
    2822                    $C$DW$178       .dwtag  DW_TAG_formal_parameter
    2823                            .dwattr $C$DW$178, DW_AT_type(*$C$DW$T$222)
    2824                    
    2825                    $C$DW$179       .dwtag  DW_TAG_formal_parameter
    2826                            .dwattr $C$DW$179, DW_AT_type(*$C$DW$T$219)
    2827                    
    2828                            .dwendtag $C$DW$T$301
    2829                    
    2830                    $C$DW$T$302     .dwtag  DW_TAG_pointer_type
    2831                            .dwattr $C$DW$T$302, DW_AT_type(*$C$DW$T$301)
    2832                            .dwattr $C$DW$T$302, DW_AT_address_class(0x20)
    2833                    
    2834                    
    2835                    $C$DW$T$318     .dwtag  DW_TAG_subroutine_type
    2836                            .dwattr $C$DW$T$318, DW_AT_language(DW_LANG_C)
    2837                    $C$DW$180       .dwtag  DW_TAG_formal_parameter
    2838                            .dwattr $C$DW$180, DW_AT_type(*$C$DW$T$219)
    2839                    
    2840                    $C$DW$181       .dwtag  DW_TAG_formal_parameter
    2841                            .dwattr $C$DW$181, DW_AT_type(*$C$DW$T$219)
    2842                    
    2843                            .dwendtag $C$DW$T$318
    2844                    
    2845                    $C$DW$T$319     .dwtag  DW_TAG_pointer_type
    2846                            .dwattr $C$DW$T$319, DW_AT_type(*$C$DW$T$318)
    2847                            .dwattr $C$DW$T$319, DW_AT_address_class(0x20)
    2848                    
    2849                    $C$DW$T$320     .dwtag  DW_TAG_typedef
    2850                            .dwattr $C$DW$T$320, DW_AT_name("ti_sysbios_knl_Swi_FuncPtr")
    2851                            .dwattr $C$DW$T$320, DW_AT_type(*$C$DW$T$319)
    2852                            .dwattr $C$DW$T$320, DW_AT_language(DW_LANG_C)
    2853                            .dwattr $C$DW$T$320, DW_AT_decl_file("C:/ti/simplelink_cc13x0_sdk_1_50_00_08/kernel/tirtos/pac
    2854                            .dwattr $C$DW$T$320, DW_AT_decl_line(0x49)
    2855                            .dwattr $C$DW$T$320, DW_AT_decl_column(0x14)
TI ARM Assembler PC v16.9.4 Sat Nov 18 18:46:18 2017

Tools Copyright (c) 1996-2017 Texas Instruments Incorporated
C:\Users\Kevin\AppData\Local\Temp\{5A8B501C-33CF-4805-A507-0ACBE2D1F927} PAGE   53

    2856                    
    2857                    
    2858                    $C$DW$T$322     .dwtag  DW_TAG_subroutine_type
    2859                            .dwattr $C$DW$T$322, DW_AT_language(DW_LANG_C)
    2860                    $C$DW$182       .dwtag  DW_TAG_formal_parameter
    2861                            .dwattr $C$DW$182, DW_AT_type(*$C$DW$T$218)
    2862                    
    2863                            .dwendtag $C$DW$T$322
    2864                    
    2865                    $C$DW$T$323     .dwtag  DW_TAG_pointer_type
    2866                            .dwattr $C$DW$T$323, DW_AT_type(*$C$DW$T$322)
    2867                            .dwattr $C$DW$T$323, DW_AT_address_class(0x20)
    2868                    
    2869                    
    2870                    $C$DW$T$329     .dwtag  DW_TAG_subroutine_type
    2871                            .dwattr $C$DW$T$329, DW_AT_language(DW_LANG_C)
    2872                    $C$DW$183       .dwtag  DW_TAG_formal_parameter
    2873                            .dwattr $C$DW$183, DW_AT_type(*$C$DW$T$326)
    2874                    
    2875                    $C$DW$184       .dwtag  DW_TAG_formal_parameter
    2876                            .dwattr $C$DW$184, DW_AT_type(*$C$DW$T$328)
    2877                    
    2878                            .dwendtag $C$DW$T$329
    2879                    
    2880                    $C$DW$T$330     .dwtag  DW_TAG_pointer_type
    2881                            .dwattr $C$DW$T$330, DW_AT_type(*$C$DW$T$329)
    2882                            .dwattr $C$DW$T$330, DW_AT_address_class(0x20)
    2883                    
    2884                    
    2885                    $C$DW$T$331     .dwtag  DW_TAG_subroutine_type
    2886                            .dwattr $C$DW$T$331, DW_AT_language(DW_LANG_C)
    2887                    $C$DW$185       .dwtag  DW_TAG_formal_parameter
    2888                            .dwattr $C$DW$185, DW_AT_type(*$C$DW$T$326)
    2889                    
    2890                            .dwendtag $C$DW$T$331
    2891                    
    2892                    $C$DW$T$332     .dwtag  DW_TAG_pointer_type
    2893                            .dwattr $C$DW$T$332, DW_AT_type(*$C$DW$T$331)
    2894                            .dwattr $C$DW$T$332, DW_AT_address_class(0x20)
    2895                    
    2896                    
    2897                    $C$DW$T$375     .dwtag  DW_TAG_subroutine_type
    2898                            .dwattr $C$DW$T$375, DW_AT_language(DW_LANG_C)
    2899                    $C$DW$186       .dwtag  DW_TAG_formal_parameter
    2900                            .dwattr $C$DW$186, DW_AT_type(*$C$DW$T$3)
    2901                    
    2902                    $C$DW$187       .dwtag  DW_TAG_formal_parameter
    2903                            .dwattr $C$DW$187, DW_AT_type(*$C$DW$T$187)
    2904                    
    2905                            .dwendtag $C$DW$T$375
    2906                    
    2907                    $C$DW$T$376     .dwtag  DW_TAG_pointer_type
    2908                            .dwattr $C$DW$T$376, DW_AT_type(*$C$DW$T$375)
    2909                            .dwattr $C$DW$T$376, DW_AT_address_class(0x20)
    2910                    
TI ARM Assembler PC v16.9.4 Sat Nov 18 18:46:18 2017

Tools Copyright (c) 1996-2017 Texas Instruments Incorporated
C:\Users\Kevin\AppData\Local\Temp\{5A8B501C-33CF-4805-A507-0ACBE2D1F927} PAGE   54

    2911                    $C$DW$T$605     .dwtag  DW_TAG_typedef
    2912                            .dwattr $C$DW$T$605, DW_AT_name("xdc_runtime_IGateProvider_leave_FxnT")
    2913                            .dwattr $C$DW$T$605, DW_AT_type(*$C$DW$T$376)
    2914                            .dwattr $C$DW$T$605, DW_AT_language(DW_LANG_C)
    2915                            .dwattr $C$DW$T$605, DW_AT_decl_file("C:/ti/xdctools_3_50_03_33_core/packages/xdc/runtime/IGat
    2916                            .dwattr $C$DW$T$605, DW_AT_decl_line(0xbc)
    2917                            .dwattr $C$DW$T$605, DW_AT_decl_column(0x14)
    2918                    
    2919                    
    2920                    $C$DW$T$385     .dwtag  DW_TAG_subroutine_type
    2921                            .dwattr $C$DW$T$385, DW_AT_language(DW_LANG_C)
    2922                    $C$DW$188       .dwtag  DW_TAG_formal_parameter
    2923                            .dwattr $C$DW$188, DW_AT_type(*$C$DW$T$3)
    2924                    
    2925                    $C$DW$189       .dwtag  DW_TAG_formal_parameter
    2926                            .dwattr $C$DW$189, DW_AT_type(*$C$DW$T$338)
    2927                    
    2928                    $C$DW$190       .dwtag  DW_TAG_formal_parameter
    2929                            .dwattr $C$DW$190, DW_AT_type(*$C$DW$T$382)
    2930                    
    2931                            .dwendtag $C$DW$T$385
    2932                    
    2933                    $C$DW$T$386     .dwtag  DW_TAG_pointer_type
    2934                            .dwattr $C$DW$T$386, DW_AT_type(*$C$DW$T$385)
    2935                            .dwattr $C$DW$T$386, DW_AT_address_class(0x20)
    2936                    
    2937                    $C$DW$T$606     .dwtag  DW_TAG_typedef
    2938                            .dwattr $C$DW$T$606, DW_AT_name("xdc_runtime_IHeap_free_FxnT")
    2939                            .dwattr $C$DW$T$606, DW_AT_type(*$C$DW$T$386)
    2940                            .dwattr $C$DW$T$606, DW_AT_language(DW_LANG_C)
    2941                            .dwattr $C$DW$T$606, DW_AT_decl_file("C:/ti/xdctools_3_50_03_33_core/packages/xdc/runtime/IHea
    2942                            .dwattr $C$DW$T$606, DW_AT_decl_line(0xb8)
    2943                            .dwattr $C$DW$T$606, DW_AT_decl_column(0x14)
    2944                    
    2945                    
    2946                    $C$DW$T$391     .dwtag  DW_TAG_subroutine_type
    2947                            .dwattr $C$DW$T$391, DW_AT_language(DW_LANG_C)
    2948                    $C$DW$191       .dwtag  DW_TAG_formal_parameter
    2949                            .dwattr $C$DW$191, DW_AT_type(*$C$DW$T$3)
    2950                    
    2951                    $C$DW$192       .dwtag  DW_TAG_formal_parameter
    2952                            .dwattr $C$DW$192, DW_AT_type(*$C$DW$T$390)
    2953                    
    2954                            .dwendtag $C$DW$T$391
    2955                    
    2956                    $C$DW$T$392     .dwtag  DW_TAG_pointer_type
    2957                            .dwattr $C$DW$T$392, DW_AT_type(*$C$DW$T$391)
    2958                            .dwattr $C$DW$T$392, DW_AT_address_class(0x20)
    2959                    
    2960                    $C$DW$T$607     .dwtag  DW_TAG_typedef
    2961                            .dwattr $C$DW$T$607, DW_AT_name("xdc_runtime_IHeap_getStats_FxnT")
    2962                            .dwattr $C$DW$T$607, DW_AT_type(*$C$DW$T$392)
    2963                            .dwattr $C$DW$T$607, DW_AT_language(DW_LANG_C)
    2964                            .dwattr $C$DW$T$607, DW_AT_decl_file("C:/ti/xdctools_3_50_03_33_core/packages/xdc/runtime/IHea
    2965                            .dwattr $C$DW$T$607, DW_AT_decl_line(0xc8)
TI ARM Assembler PC v16.9.4 Sat Nov 18 18:46:18 2017

Tools Copyright (c) 1996-2017 Texas Instruments Incorporated
C:\Users\Kevin\AppData\Local\Temp\{5A8B501C-33CF-4805-A507-0ACBE2D1F927} PAGE   55

    2966                            .dwattr $C$DW$T$607, DW_AT_decl_column(0x14)
    2967                    
    2968                    
    2969                    $C$DW$T$417     .dwtag  DW_TAG_subroutine_type
    2970                            .dwattr $C$DW$T$417, DW_AT_language(DW_LANG_C)
    2971                    $C$DW$193       .dwtag  DW_TAG_formal_parameter
    2972                            .dwattr $C$DW$193, DW_AT_type(*$C$DW$T$414)
    2973                    
    2974                    $C$DW$194       .dwtag  DW_TAG_formal_parameter
    2975                            .dwattr $C$DW$194, DW_AT_type(*$C$DW$T$187)
    2976                    
    2977                            .dwendtag $C$DW$T$417
    2978                    
    2979                    $C$DW$T$418     .dwtag  DW_TAG_pointer_type
    2980                            .dwattr $C$DW$T$418, DW_AT_type(*$C$DW$T$417)
    2981                            .dwattr $C$DW$T$418, DW_AT_address_class(0x20)
    2982                    
    2983                    
    2984                    $C$DW$T$429     .dwtag  DW_TAG_subroutine_type
    2985                            .dwattr $C$DW$T$429, DW_AT_language(DW_LANG_C)
    2986                    $C$DW$195       .dwtag  DW_TAG_formal_parameter
    2987                            .dwattr $C$DW$195, DW_AT_type(*$C$DW$T$426)
    2988                    
    2989                    $C$DW$196       .dwtag  DW_TAG_formal_parameter
    2990                            .dwattr $C$DW$196, DW_AT_type(*$C$DW$T$338)
    2991                    
    2992                    $C$DW$197       .dwtag  DW_TAG_formal_parameter
    2993                            .dwattr $C$DW$197, DW_AT_type(*$C$DW$T$382)
    2994                    
    2995                            .dwendtag $C$DW$T$429
    2996                    
    2997                    $C$DW$T$430     .dwtag  DW_TAG_pointer_type
    2998                            .dwattr $C$DW$T$430, DW_AT_type(*$C$DW$T$429)
    2999                            .dwattr $C$DW$T$430, DW_AT_address_class(0x20)
    3000                    
    3001                    
    3002                    $C$DW$T$433     .dwtag  DW_TAG_subroutine_type
    3003                            .dwattr $C$DW$T$433, DW_AT_language(DW_LANG_C)
    3004                    $C$DW$198       .dwtag  DW_TAG_formal_parameter
    3005                            .dwattr $C$DW$198, DW_AT_type(*$C$DW$T$426)
    3006                    
    3007                    $C$DW$199       .dwtag  DW_TAG_formal_parameter
    3008                            .dwattr $C$DW$199, DW_AT_type(*$C$DW$T$390)
    3009                    
    3010                            .dwendtag $C$DW$T$433
    3011                    
    3012                    $C$DW$T$434     .dwtag  DW_TAG_pointer_type
    3013                            .dwattr $C$DW$T$434, DW_AT_type(*$C$DW$T$433)
    3014                            .dwattr $C$DW$T$434, DW_AT_address_class(0x20)
    3015                    
    3016                    
    3017                    $C$DW$T$471     .dwtag  DW_TAG_subroutine_type
    3018                            .dwattr $C$DW$T$471, DW_AT_language(DW_LANG_C)
    3019                    $C$DW$200       .dwtag  DW_TAG_formal_parameter
    3020                            .dwattr $C$DW$200, DW_AT_type(*$C$DW$T$338)
TI ARM Assembler PC v16.9.4 Sat Nov 18 18:46:18 2017

Tools Copyright (c) 1996-2017 Texas Instruments Incorporated
C:\Users\Kevin\AppData\Local\Temp\{5A8B501C-33CF-4805-A507-0ACBE2D1F927} PAGE   56

    3021                    
    3022                            .dwendtag $C$DW$T$471
    3023                    
    3024                    $C$DW$T$472     .dwtag  DW_TAG_pointer_type
    3025                            .dwattr $C$DW$T$472, DW_AT_type(*$C$DW$T$471)
    3026                            .dwattr $C$DW$T$472, DW_AT_address_class(0x20)
    3027                    
    3028                    
    3029                    $C$DW$T$616     .dwtag  DW_TAG_subroutine_type
    3030                            .dwattr $C$DW$T$616, DW_AT_language(DW_LANG_C)
    3031                    $C$DW$201       .dwtag  DW_TAG_formal_parameter
    3032                            .dwattr $C$DW$201, DW_AT_type(*$C$DW$T$338)
    3033                    
    3034                    $C$DW$202       .dwtag  DW_TAG_formal_parameter
    3035                            .dwattr $C$DW$202, DW_AT_type(*$C$DW$T$615)
    3036                    
    3037                    $C$DW$203       .dwtag  DW_TAG_formal_parameter
    3038                            .dwattr $C$DW$203, DW_AT_type(*$C$DW$T$349)
    3039                    
    3040                            .dwendtag $C$DW$T$616
    3041                    
    3042                    $C$DW$T$617     .dwtag  DW_TAG_pointer_type
    3043                            .dwattr $C$DW$T$617, DW_AT_type(*$C$DW$T$616)
    3044                            .dwattr $C$DW$T$617, DW_AT_address_class(0x20)
    3045                    
    3046                    $C$DW$T$618     .dwtag  DW_TAG_typedef
    3047                            .dwattr $C$DW$T$618, DW_AT_name("xdc_runtime_Types_LoggerFxn0")
    3048                            .dwattr $C$DW$T$618, DW_AT_type(*$C$DW$T$617)
    3049                            .dwattr $C$DW$T$618, DW_AT_language(DW_LANG_C)
    3050                            .dwattr $C$DW$T$618, DW_AT_decl_file("C:/ti/xdctools_3_50_03_33_core/packages/xdc/runtime/Type
    3051                            .dwattr $C$DW$T$618, DW_AT_decl_line(0x94)
    3052                            .dwattr $C$DW$T$618, DW_AT_decl_column(0x14)
    3053                    
    3054                    $C$DW$T$619     .dwtag  DW_TAG_typedef
    3055                            .dwattr $C$DW$T$619, DW_AT_name("CT__ti_sysbios_knl_Clock_Module__loggerFxn0")
    3056                            .dwattr $C$DW$T$619, DW_AT_type(*$C$DW$T$618)
    3057                            .dwattr $C$DW$T$619, DW_AT_language(DW_LANG_C)
    3058                            .dwattr $C$DW$T$619, DW_AT_decl_file("C:/ti/simplelink_cc13x0_sdk_1_50_00_08/kernel/tirtos/pac
    3059                            .dwattr $C$DW$T$619, DW_AT_decl_line(0xb9)
    3060                            .dwattr $C$DW$T$619, DW_AT_decl_column(0x26)
    3061                    
    3062                    $C$DW$T$620     .dwtag  DW_TAG_typedef
    3063                            .dwattr $C$DW$T$620, DW_AT_name("CT__ti_sysbios_knl_Clock_TimerProxy_Module__loggerFxn0")
    3064                            .dwattr $C$DW$T$620, DW_AT_type(*$C$DW$T$618)
    3065                            .dwattr $C$DW$T$620, DW_AT_language(DW_LANG_C)
    3066                            .dwattr $C$DW$T$620, DW_AT_decl_file("C:/ti/simplelink_cc13x0_sdk_1_50_00_08/kernel/tirtos/pac
    3067                            .dwattr $C$DW$T$620, DW_AT_decl_line(0xad)
    3068                            .dwattr $C$DW$T$620, DW_AT_decl_column(0x26)
    3069                    
    3070                    $C$DW$T$621     .dwtag  DW_TAG_typedef
    3071                            .dwattr $C$DW$T$621, DW_AT_name("CT__ti_sysbios_knl_Queue_Module__loggerFxn0")
    3072                            .dwattr $C$DW$T$621, DW_AT_type(*$C$DW$T$618)
    3073                            .dwattr $C$DW$T$621, DW_AT_language(DW_LANG_C)
    3074                            .dwattr $C$DW$T$621, DW_AT_decl_file("C:/ti/simplelink_cc13x0_sdk_1_50_00_08/kernel/tirtos/pac
    3075                            .dwattr $C$DW$T$621, DW_AT_decl_line(0x9a)
TI ARM Assembler PC v16.9.4 Sat Nov 18 18:46:18 2017

Tools Copyright (c) 1996-2017 Texas Instruments Incorporated
C:\Users\Kevin\AppData\Local\Temp\{5A8B501C-33CF-4805-A507-0ACBE2D1F927} PAGE   57

    3076                            .dwattr $C$DW$T$621, DW_AT_decl_column(0x26)
    3077                    
    3078                    $C$DW$T$622     .dwtag  DW_TAG_typedef
    3079                            .dwattr $C$DW$T$622, DW_AT_name("CT__ti_sysbios_knl_Swi_Module__loggerFxn0")
    3080                            .dwattr $C$DW$T$622, DW_AT_type(*$C$DW$T$618)
    3081                            .dwattr $C$DW$T$622, DW_AT_language(DW_LANG_C)
    3082                            .dwattr $C$DW$T$622, DW_AT_decl_file("C:/ti/simplelink_cc13x0_sdk_1_50_00_08/kernel/tirtos/pac
    3083                            .dwattr $C$DW$T$622, DW_AT_decl_line(0xd9)
    3084                            .dwattr $C$DW$T$622, DW_AT_decl_column(0x26)
    3085                    
    3086                    $C$DW$T$623     .dwtag  DW_TAG_typedef
    3087                            .dwattr $C$DW$T$623, DW_AT_name("CT__xdc_runtime_Assert_Module__loggerFxn0")
    3088                            .dwattr $C$DW$T$623, DW_AT_type(*$C$DW$T$618)
    3089                            .dwattr $C$DW$T$623, DW_AT_language(DW_LANG_C)
    3090                            .dwattr $C$DW$T$623, DW_AT_decl_file("C:/ti/xdctools_3_50_03_33_core/packages/xdc/runtime/Asse
    3091                            .dwattr $C$DW$T$623, DW_AT_decl_line(0x98)
