TI ARM Assembler PC v16.9.4 Thu Apr 12 20:27:36 2018

Tools Copyright (c) 1996-2017 Texas Instruments Incorporated
C:\Users\Kevin\AppData\Local\Temp\{C001DE3B-F0FF-445D-8CCE-7D0EAD14970B} PAGE    1

       1                    ;******************************************************************************
       2                    ;* TI ARM C/C++ Codegen                                        PC v16.9.4.LTS *
       3                    ;* Date/Time created: Thu Apr 12 20:27:35 2018                                *
       4                    ;******************************************************************************
       5                            .compiler_opts --abi=eabi --arm_vmrs_si_workaround=off --code_state=16 --diag_wrap=off --embed
       6 00000000                   .thumb
       7                    
       8                    $C$DW$CU        .dwtag  DW_TAG_compile_unit
       9                            .dwattr $C$DW$CU, DW_AT_name("../Application/LaunchPad/CC13X0_LAUNCHXL.c")
      10                            .dwattr $C$DW$CU, DW_AT_producer("TI TI ARM C/C++ Codegen PC v16.9.4.LTS Copyright (c) 1996-20
      11                            .dwattr $C$DW$CU, DW_AT_TI_version(0x01)
      12                            .dwattr $C$DW$CU, DW_AT_comp_dir("C:\Users\Kevin\workspace_v7\sensor_cc1310lp\sensor_cc1310lp"
      13                    
      14                    $C$DW$1 .dwtag  DW_TAG_subprogram
      15                            .dwattr $C$DW$1, DW_AT_name("PIN_open")
      16                            .dwattr $C$DW$1, DW_AT_TI_symbol_name("PIN_open")
      17                            .dwattr $C$DW$1, DW_AT_type(*$C$DW$T$414)
      18                            .dwattr $C$DW$1, DW_AT_declaration
      19                            .dwattr $C$DW$1, DW_AT_external
      20                            .dwattr $C$DW$1, DW_AT_decl_file("C:/ti/simplelink_cc13x0_sdk_1_50_00_08/source/ti/drivers/PIN
      21                            .dwattr $C$DW$1, DW_AT_decl_line(0x2da)
      22                            .dwattr $C$DW$1, DW_AT_decl_column(0x13)
      23                    $C$DW$2 .dwtag  DW_TAG_formal_parameter
      24                            .dwattr $C$DW$2, DW_AT_type(*$C$DW$T$413)
      25                    
      26                    $C$DW$3 .dwtag  DW_TAG_formal_parameter
      27                            .dwattr $C$DW$3, DW_AT_type(*$C$DW$T$1228)
      28                    
      29                            .dwendtag $C$DW$1
      30                    
      31                    
      32                    $C$DW$4 .dwtag  DW_TAG_subprogram
      33                            .dwattr $C$DW$4, DW_AT_name("PIN_close")
      34                            .dwattr $C$DW$4, DW_AT_TI_symbol_name("PIN_close")
      35                            .dwattr $C$DW$4, DW_AT_declaration
      36                            .dwattr $C$DW$4, DW_AT_external
      37                            .dwattr $C$DW$4, DW_AT_decl_file("C:/ti/simplelink_cc13x0_sdk_1_50_00_08/source/ti/drivers/PIN
      38                            .dwattr $C$DW$4, DW_AT_decl_line(0x2fa)
      39                            .dwattr $C$DW$4, DW_AT_decl_column(0x0d)
      40                    $C$DW$5 .dwtag  DW_TAG_formal_parameter
      41                            .dwattr $C$DW$5, DW_AT_type(*$C$DW$T$414)
      42                    
      43                            .dwendtag $C$DW$4
      44                    
      45                    
      46                    $C$DW$6 .dwtag  DW_TAG_subprogram
      47                            .dwattr $C$DW$6, DW_AT_name("PIN_setOutputValue")
      48                            .dwattr $C$DW$6, DW_AT_TI_symbol_name("PIN_setOutputValue")
      49                            .dwattr $C$DW$6, DW_AT_type(*$C$DW$T$1124)
      50                            .dwattr $C$DW$6, DW_AT_declaration
      51                            .dwattr $C$DW$6, DW_AT_external
      52                            .dwattr $C$DW$6, DW_AT_decl_file("C:/ti/simplelink_cc13x0_sdk_1_50_00_08/source/ti/drivers/PIN
      53                            .dwattr $C$DW$6, DW_AT_decl_line(0x34c)
      54                            .dwattr $C$DW$6, DW_AT_decl_column(0x13)
      55                    $C$DW$7 .dwtag  DW_TAG_formal_parameter
TI ARM Assembler PC v16.9.4 Thu Apr 12 20:27:36 2018

Tools Copyright (c) 1996-2017 Texas Instruments Incorporated
C:\Users\Kevin\AppData\Local\Temp\{C001DE3B-F0FF-445D-8CCE-7D0EAD14970B} PAGE    2

      56                            .dwattr $C$DW$7, DW_AT_type(*$C$DW$T$414)
      57                    
      58                    $C$DW$8 .dwtag  DW_TAG_formal_parameter
      59                            .dwattr $C$DW$8, DW_AT_type(*$C$DW$T$407)
      60                    
      61                    $C$DW$9 .dwtag  DW_TAG_formal_parameter
      62                            .dwattr $C$DW$9, DW_AT_type(*$C$DW$T$111)
      63                    
      64                            .dwendtag $C$DW$6
      65                    
      66                    
      67                    $C$DW$10        .dwtag  DW_TAG_subprogram
      68                            .dwattr $C$DW$10, DW_AT_name("PowerCC26XX_calibrate")
      69                            .dwattr $C$DW$10, DW_AT_TI_symbol_name("PowerCC26XX_calibrate")
      70                            .dwattr $C$DW$10, DW_AT_type(*$C$DW$T$332)
      71                            .dwattr $C$DW$10, DW_AT_declaration
      72                            .dwattr $C$DW$10, DW_AT_external
      73                            .dwattr $C$DW$10, DW_AT_decl_file("C:/ti/simplelink_cc13x0_sdk_1_50_00_08/source/ti/drivers/po
      74                            .dwattr $C$DW$10, DW_AT_decl_line(0x1fb)
      75                            .dwattr $C$DW$10, DW_AT_decl_column(0x06)
      76                    $C$DW$11        .dwtag  DW_TAG_formal_parameter
      77                            .dwattr $C$DW$11, DW_AT_type(*$C$DW$T$11)
      78                    
      79                            .dwendtag $C$DW$10
      80                    
      81                    
      82                    $C$DW$12        .dwtag  DW_TAG_subprogram
      83                            .dwattr $C$DW$12, DW_AT_name("PowerCC26XX_standbyPolicy")
      84                            .dwattr $C$DW$12, DW_AT_TI_symbol_name("PowerCC26XX_standbyPolicy")
      85                            .dwattr $C$DW$12, DW_AT_declaration
      86                            .dwattr $C$DW$12, DW_AT_external
      87                            .dwattr $C$DW$12, DW_AT_decl_file("C:/ti/simplelink_cc13x0_sdk_1_50_00_08/source/ti/drivers/po
      88                            .dwattr $C$DW$12, DW_AT_decl_line(0x275)
      89                            .dwattr $C$DW$12, DW_AT_decl_column(0x06)
      90                            .dwendtag $C$DW$12
      91                    
      92                            .global BoardGpioInitTable
      93 00000000                   .sect   ".const:BoardGpioInitTable"
      94                            .align  4
      95                            .elfsym BoardGpioInitTable,SYM_SIZE(52)
      96 00000000           BoardGpioInitTable:
      97 00000000 80800806          .bits   -2139092986,32                  ; BoardGpioInitTable[0] @ 0
      98 00000004 80800807          .bits   -2139092985,32                  ; BoardGpioInitTable[1] @ 32
      99 00000008 C007200D          .bits   -1073274867,32                  ; BoardGpioInitTable[2] @ 64
     100 0000000c C007200E          .bits   -1073274866,32                  ; BoardGpioInitTable[3] @ 96
     101 00000010 80C00014          .bits   -2134900716,32                  ; BoardGpioInitTable[4] @ 128
     102 00000014 80004002          .bits   -2147467262,32                  ; BoardGpioInitTable[5] @ 160
     103 00000018 80C00003          .bits   -2134900733,32                  ; BoardGpioInitTable[6] @ 192
     104 0000001c 80C00801          .bits   -2134898687,32                  ; BoardGpioInitTable[7] @ 224
     105 00000020 80C0081E          .bits   -2134898658,32                  ; BoardGpioInitTable[8] @ 256
     106 00000024 80004009          .bits   -2147467255,32                  ; BoardGpioInitTable[9] @ 288
     107 00000028 80004008          .bits   -2147467256,32                  ; BoardGpioInitTable[10] @ 320
     108 0000002c 8000400A          .bits   -2147467254,32                  ; BoardGpioInitTable[11] @ 352
     109 00000030 000000FE          .bits   254,32                  ; BoardGpioInitTable[12] @ 384
     110                    
TI ARM Assembler PC v16.9.4 Thu Apr 12 20:27:36 2018

Tools Copyright (c) 1996-2017 Texas Instruments Incorporated
C:\Users\Kevin\AppData\Local\Temp\{C001DE3B-F0FF-445D-8CCE-7D0EAD14970B} PAGE    3

     111                    $C$DW$13        .dwtag  DW_TAG_variable
     112                            .dwattr $C$DW$13, DW_AT_name("BoardGpioInitTable")
     113                            .dwattr $C$DW$13, DW_AT_TI_symbol_name("BoardGpioInitTable")
     114                            .dwattr $C$DW$13, DW_AT_location[DW_OP_addr BoardGpioInitTable]
     115                            .dwattr $C$DW$13, DW_AT_type(*$C$DW$T$1740)
     116                            .dwattr $C$DW$13, DW_AT_external
     117                            .dwattr $C$DW$13, DW_AT_decl_file("../Application/LaunchPad/CC13X0_LAUNCHXL.c")
     118                            .dwattr $C$DW$13, DW_AT_decl_line(0x6a)
     119                            .dwattr $C$DW$13, DW_AT_decl_column(0x12)
     120                    
     121                            .global PINCC26XX_hwAttrs
     122 00000000                   .sect   ".const:PINCC26XX_hwAttrs"
     123                            .align  4
     124                            .elfsym PINCC26XX_hwAttrs,SYM_SIZE(8)
     125 00000000           PINCC26XX_hwAttrs:
     126 00000000 000000FF          .bits   255,8                   ; PINCC26XX_hwAttrs.intPriority @ 0
     127 00000000 000000FF          .bits   0,24
     128 00000004 00000000          .bits   0,32                    ; PINCC26XX_hwAttrs.swiPriority @ 32
     129                    
     130                    $C$DW$14        .dwtag  DW_TAG_variable
     131                            .dwattr $C$DW$14, DW_AT_name("PINCC26XX_hwAttrs")
     132                            .dwattr $C$DW$14, DW_AT_TI_symbol_name("PINCC26XX_hwAttrs")
     133                            .dwattr $C$DW$14, DW_AT_location[DW_OP_addr PINCC26XX_hwAttrs]
     134                            .dwattr $C$DW$14, DW_AT_type(*$C$DW$T$1224)
     135                            .dwattr $C$DW$14, DW_AT_external
     136                            .dwattr $C$DW$14, DW_AT_decl_file("../Application/LaunchPad/CC13X0_LAUNCHXL.c")
     137                            .dwattr $C$DW$14, DW_AT_decl_line(0x81)
     138                            .dwattr $C$DW$14, DW_AT_decl_column(0x19)
     139                    
     140                            .global PowerCC26XX_config
     141 00000000                   .sect   ".const:PowerCC26XX_config"
     142                            .clink
     143                            .align  4
     144                            .elfsym PowerCC26XX_config,SYM_SIZE(24)
     145 00000000           PowerCC26XX_config:
     146 00000000 00000000          .bits   0,32                    ; PowerCC26XX_config.policyInitFxn @ 0
     147 00000004 00000000!         .bits   PowerCC26XX_standbyPolicy,32            ; PowerCC26XX_config.policyFxn @ 32
     148 00000008 00000000!         .bits   PowerCC26XX_calibrate,32                ; PowerCC26XX_config.calibrateFxn @ 64
     149 0000000c 00000000          .bits   0,32                    ; PowerCC26XX_config.maxStandbyDuration @ 96
     150 00000010 00000000          .bits   0,16                    ; PowerCC26XX_config.vddrRechargeMargin @ 128
     151 00000010 00000000          .bits   0,8                     ; PowerCC26XX_config.enableMaxStandbyDuration @ 144
     152 00000010 01000000          .bits   1,8                     ; PowerCC26XX_config.enablePolicy @ 152
     153 00000014 00000001          .bits   1,8                     ; PowerCC26XX_config.calibrateRCOSC_LF @ 160
     154 00000014 00000101          .bits   1,8                     ; PowerCC26XX_config.calibrateRCOSC_HF @ 168
     155 00000014 00000101          .bits   0,16
     156                    
     157                    $C$DW$15        .dwtag  DW_TAG_variable
     158                            .dwattr $C$DW$15, DW_AT_name("PowerCC26XX_config")
     159                            .dwattr $C$DW$15, DW_AT_TI_symbol_name("PowerCC26XX_config")
     160                            .dwattr $C$DW$15, DW_AT_location[DW_OP_addr PowerCC26XX_config]
     161                            .dwattr $C$DW$15, DW_AT_type(*$C$DW$T$1235)
     162                            .dwattr $C$DW$15, DW_AT_external
     163                            .dwattr $C$DW$15, DW_AT_decl_file("../Application/LaunchPad/CC13X0_LAUNCHXL.c")
     164                            .dwattr $C$DW$15, DW_AT_decl_line(0x8a)
     165                            .dwattr $C$DW$15, DW_AT_decl_column(0x1a)
TI ARM Assembler PC v16.9.4 Thu Apr 12 20:27:36 2018

Tools Copyright (c) 1996-2017 Texas Instruments Incorporated
C:\Users\Kevin\AppData\Local\Temp\{C001DE3B-F0FF-445D-8CCE-7D0EAD14970B} PAGE    4

     166                    
     167                    $C$DW$16        .dwtag  DW_TAG_variable
     168                            .dwattr $C$DW$16, DW_AT_name("UARTCC26XX_fxnTable")
     169                            .dwattr $C$DW$16, DW_AT_TI_symbol_name("UARTCC26XX_fxnTable")
     170                            .dwattr $C$DW$16, DW_AT_type(*$C$DW$T$657)
     171                            .dwattr $C$DW$16, DW_AT_declaration
     172                            .dwattr $C$DW$16, DW_AT_external
     173                            .dwattr $C$DW$16, DW_AT_decl_file("C:/ti/simplelink_cc13x0_sdk_1_50_00_08/source/ti/drivers/ua
     174                            .dwattr $C$DW$16, DW_AT_decl_line(0x1bb)
     175                            .dwattr $C$DW$16, DW_AT_decl_column(0x1c)
     176                    
     177                            .global uartCC26XXObjects
     178                            .common uartCC26XXObjects,300,4
     179                    $C$DW$17        .dwtag  DW_TAG_variable
     180                            .dwattr $C$DW$17, DW_AT_name("uartCC26XXObjects")
     181                            .dwattr $C$DW$17, DW_AT_TI_symbol_name("uartCC26XXObjects")
     182                            .dwattr $C$DW$17, DW_AT_location[DW_OP_addr uartCC26XXObjects]
     183                            .dwattr $C$DW$17, DW_AT_type(*$C$DW$T$1266)
     184                            .dwattr $C$DW$17, DW_AT_external
     185                            .dwattr $C$DW$17, DW_AT_decl_file("../Application/LaunchPad/CC13X0_LAUNCHXL.c")
     186                            .dwattr $C$DW$17, DW_AT_decl_line(0xa3)
     187                            .dwattr $C$DW$17, DW_AT_decl_column(0x13)
     188                    
     189                            .global uartCC26XXRingBuffer
     190                            .common uartCC26XXRingBuffer,64,1
     191                    $C$DW$18        .dwtag  DW_TAG_variable
     192                            .dwattr $C$DW$18, DW_AT_name("uartCC26XXRingBuffer")
     193                            .dwattr $C$DW$18, DW_AT_TI_symbol_name("uartCC26XXRingBuffer")
     194                            .dwattr $C$DW$18, DW_AT_location[DW_OP_addr uartCC26XXRingBuffer]
     195                            .dwattr $C$DW$18, DW_AT_type(*$C$DW$T$1558)
     196                            .dwattr $C$DW$18, DW_AT_external
     197                            .dwattr $C$DW$18, DW_AT_decl_file("../Application/LaunchPad/CC13X0_LAUNCHXL.c")
     198                            .dwattr $C$DW$18, DW_AT_decl_line(0xa4)
     199                            .dwattr $C$DW$18, DW_AT_decl_column(0x0f)
     200                    
     201                            .global uartCC26XXHWAttrs
     202 00000000                   .sect   ".const:uartCC26XXHWAttrs"
     203                            .align  4
     204                            .elfsym uartCC26XXHWAttrs,SYM_SIZE(32)
     205 00000000           uartCC26XXHWAttrs:
     206 00000000 40001000          .bits   1073745920,32                   ; uartCC26XXHWAttrs[0].baseAddr @ 0
     207 00000004 00000006          .bits   6,32                    ; uartCC26XXHWAttrs[0].powerMngrId @ 32
     208 00000008 00000015          .bits   21,32                   ; uartCC26XXHWAttrs[0].intNum @ 64
     209 0000000c 000000FF          .bits   255,8                   ; uartCC26XXHWAttrs[0].intPriority @ 96
     210 0000000c 000000FF          .bits   0,24
     211 00000010 00000000          .bits   0,32                    ; uartCC26XXHWAttrs[0].swiPriority @ 128
     212 00000014 00000003          .bits   3,8                     ; uartCC26XXHWAttrs[0].txPin @ 160
     213 00000014 00000203          .bits   2,8                     ; uartCC26XXHWAttrs[0].rxPin @ 168
     214 00000014 00FF0203          .bits   255,8                   ; uartCC26XXHWAttrs[0].ctsPin @ 176
     215 00000014 FFFF0203          .bits   255,8                   ; uartCC26XXHWAttrs[0].rtsPin @ 184
     216 00000018 00000000!         .bits   uartCC26XXRingBuffer,32         ; uartCC26XXHWAttrs[0].ringBufPtr @ 192
     217 0000001c 00000040          .bits   64,32                   ; uartCC26XXHWAttrs[0].ringBufSize @ 224
     218                    
     219                    $C$DW$19        .dwtag  DW_TAG_variable
     220                            .dwattr $C$DW$19, DW_AT_name("uartCC26XXHWAttrs")
TI ARM Assembler PC v16.9.4 Thu Apr 12 20:27:36 2018

Tools Copyright (c) 1996-2017 Texas Instruments Incorporated
C:\Users\Kevin\AppData\Local\Temp\{C001DE3B-F0FF-445D-8CCE-7D0EAD14970B} PAGE    5

     221                            .dwattr $C$DW$19, DW_AT_TI_symbol_name("uartCC26XXHWAttrs")
     222                            .dwattr $C$DW$19, DW_AT_location[DW_OP_addr uartCC26XXHWAttrs]
     223                            .dwattr $C$DW$19, DW_AT_type(*$C$DW$T$1262)
     224                            .dwattr $C$DW$19, DW_AT_external
     225                            .dwattr $C$DW$19, DW_AT_decl_file("../Application/LaunchPad/CC13X0_LAUNCHXL.c")
     226                            .dwattr $C$DW$19, DW_AT_decl_line(0xa7)
     227                            .dwattr $C$DW$19, DW_AT_decl_column(0x1c)
     228                    
     229                            .global UART_config
     230 00000000                   .sect   ".const:UART_config"
     231                            .align  4
     232                            .elfsym UART_config,SYM_SIZE(24)
     233 00000000           UART_config:
     234 00000000 00000000!         .bits   UARTCC26XX_fxnTable,32          ; UART_config[0].fxnTablePtr @ 0
     235 00000004 00000000!         .bits   uartCC26XXObjects,32            ; UART_config[0].object @ 32
     236 00000008 00000000!         .bits   uartCC26XXHWAttrs,32            ; UART_config[0].hwAttrs @ 64
     237 0000000c 00000000          .bits   0,32                    ; UART_config[1].fxnTablePtr @ 96
     238 00000010 00000000          .bits   0,32                    ; UART_config[1].object @ 128
     239 00000014 00000000          .bits   0,32                    ; UART_config[1].hwAttrs @ 160
     240                    
     241                    $C$DW$20        .dwtag  DW_TAG_variable
     242                            .dwattr $C$DW$20, DW_AT_name("UART_config")
     243                            .dwattr $C$DW$20, DW_AT_TI_symbol_name("UART_config")
     244                            .dwattr $C$DW$20, DW_AT_location[DW_OP_addr UART_config]
     245                            .dwattr $C$DW$20, DW_AT_type(*$C$DW$T$1273)
     246                            .dwattr $C$DW$20, DW_AT_external
     247                            .dwattr $C$DW$20, DW_AT_decl_file("../Application/LaunchPad/CC13X0_LAUNCHXL.c")
     248                            .dwattr $C$DW$20, DW_AT_decl_line(0xb8)
     249                            .dwattr $C$DW$20, DW_AT_decl_column(0x13)
     250                    
     251                            .global UART_count
     252 00000000                   .sect   ".const"
     253                            .align  1
     254                            .elfsym UART_count,SYM_SIZE(1)
     255 00000000           UART_count:
     256 00000000 00000001          .bits   1,8                     ; UART_count @ 0
     257                    
     258                    $C$DW$21        .dwtag  DW_TAG_variable
     259                            .dwattr $C$DW$21, DW_AT_name("UART_count")
     260                            .dwattr $C$DW$21, DW_AT_TI_symbol_name("UART_count")
     261                            .dwattr $C$DW$21, DW_AT_location[DW_OP_addr UART_count]
     262                            .dwattr $C$DW$21, DW_AT_type(*$C$DW$T$471)
     263                            .dwattr $C$DW$21, DW_AT_external
     264                            .dwattr $C$DW$21, DW_AT_decl_file("../Application/LaunchPad/CC13X0_LAUNCHXL.c")
     265                            .dwattr $C$DW$21, DW_AT_decl_line(0xc1)
     266                            .dwattr $C$DW$21, DW_AT_decl_column(0x0f)
     267                    
     268                            .global udmaObjects
     269                            .common udmaObjects,32,4
     270                    $C$DW$22        .dwtag  DW_TAG_variable
     271                            .dwattr $C$DW$22, DW_AT_name("udmaObjects")
     272                            .dwattr $C$DW$22, DW_AT_TI_symbol_name("udmaObjects")
     273                            .dwattr $C$DW$22, DW_AT_location[DW_OP_addr udmaObjects]
     274                            .dwattr $C$DW$22, DW_AT_type(*$C$DW$T$1283)
     275                            .dwattr $C$DW$22, DW_AT_external
TI ARM Assembler PC v16.9.4 Thu Apr 12 20:27:36 2018

Tools Copyright (c) 1996-2017 Texas Instruments Incorporated
C:\Users\Kevin\AppData\Local\Temp\{C001DE3B-F0FF-445D-8CCE-7D0EAD14970B} PAGE    6

     276                            .dwattr $C$DW$22, DW_AT_decl_file("../Application/LaunchPad/CC13X0_LAUNCHXL.c")
     277                            .dwattr $C$DW$22, DW_AT_decl_line(0xd4)
     278                            .dwattr $C$DW$22, DW_AT_decl_column(0x13)
     279                    
     280                            .global udmaHWAttrs
     281 00000000                   .sect   ".const:udmaHWAttrs"
     282                            .align  4
     283                            .elfsym udmaHWAttrs,SYM_SIZE(8)
     284 00000000           udmaHWAttrs:
     285 00000000 40020000          .bits   1073872896,32                   ; udmaHWAttrs[0].baseAddr @ 0
     286 00000004 0000000A          .bits   10,8                    ; udmaHWAttrs[0].powerMngrId @ 32
     287 00000004 0000290A          .bits   41,8                    ; udmaHWAttrs[0].intNum @ 40
     288 00000004 00FF290A          .bits   255,8                   ; udmaHWAttrs[0].intPriority @ 48
     289 00000004 00FF290A          .bits   0,8
     290                    
     291                    $C$DW$23        .dwtag  DW_TAG_variable
     292                            .dwattr $C$DW$23, DW_AT_name("udmaHWAttrs")
     293                            .dwattr $C$DW$23, DW_AT_TI_symbol_name("udmaHWAttrs")
     294                            .dwattr $C$DW$23, DW_AT_location[DW_OP_addr udmaHWAttrs]
     295                            .dwattr $C$DW$23, DW_AT_type(*$C$DW$T$1279)
     296                            .dwattr $C$DW$23, DW_AT_external
     297                            .dwattr $C$DW$23, DW_AT_decl_file("../Application/LaunchPad/CC13X0_LAUNCHXL.c")
     298                            .dwattr $C$DW$23, DW_AT_decl_line(0xd7)
     299                            .dwattr $C$DW$23, DW_AT_decl_column(0x1a)
     300                    
     301                            .global UDMACC26XX_config
     302 00000000                   .sect   ".const:UDMACC26XX_config"
     303                            .align  4
     304                            .elfsym UDMACC26XX_config,SYM_SIZE(16)
     305 00000000           UDMACC26XX_config:
     306 00000000 00000000!         .bits   udmaObjects,32          ; UDMACC26XX_config[0].object @ 0
     307 00000004 00000000!         .bits   udmaHWAttrs,32          ; UDMACC26XX_config[0].hwAttrs @ 32
     308 00000008 00000000          .bits   0,32                    ; UDMACC26XX_config[1].object @ 64
     309 0000000c 00000000          .bits   0,32                    ; UDMACC26XX_config[1].hwAttrs @ 96
     310                    
     311                    $C$DW$24        .dwtag  DW_TAG_variable
     312                            .dwattr $C$DW$24, DW_AT_name("UDMACC26XX_config")
     313                            .dwattr $C$DW$24, DW_AT_TI_symbol_name("UDMACC26XX_config")
     314                            .dwattr $C$DW$24, DW_AT_location[DW_OP_addr UDMACC26XX_config]
     315                            .dwattr $C$DW$24, DW_AT_type(*$C$DW$T$1276)
     316                            .dwattr $C$DW$24, DW_AT_external
     317                            .dwattr $C$DW$24, DW_AT_decl_file("../Application/LaunchPad/CC13X0_LAUNCHXL.c")
     318                            .dwattr $C$DW$24, DW_AT_decl_line(0xe1)
     319                            .dwattr $C$DW$24, DW_AT_decl_column(0x19)
     320                    
     321                    $C$DW$25        .dwtag  DW_TAG_variable
     322                            .dwattr $C$DW$25, DW_AT_name("SPICC26XXDMA_fxnTable")
     323                            .dwattr $C$DW$25, DW_AT_TI_symbol_name("SPICC26XXDMA_fxnTable")
     324                            .dwattr $C$DW$25, DW_AT_type(*$C$DW$T$603)
     325                            .dwattr $C$DW$25, DW_AT_declaration
     326                            .dwattr $C$DW$25, DW_AT_external
     327                            .dwattr $C$DW$25, DW_AT_decl_file("C:/ti/simplelink_cc13x0_sdk_1_50_00_08/source/ti/drivers/sp
     328                            .dwattr $C$DW$25, DW_AT_decl_line(0x256)
     329                            .dwattr $C$DW$25, DW_AT_decl_column(0x1b)
     330                    
TI ARM Assembler PC v16.9.4 Thu Apr 12 20:27:36 2018

Tools Copyright (c) 1996-2017 Texas Instruments Incorporated
C:\Users\Kevin\AppData\Local\Temp\{C001DE3B-F0FF-445D-8CCE-7D0EAD14970B} PAGE    7

     331                            .global spiCC26XXDMAObjects
     332                            .common spiCC26XXDMAObjects,440,4
     333                    $C$DW$26        .dwtag  DW_TAG_variable
     334                            .dwattr $C$DW$26, DW_AT_name("spiCC26XXDMAObjects")
     335                            .dwattr $C$DW$26, DW_AT_TI_symbol_name("spiCC26XXDMAObjects")
     336                            .dwattr $C$DW$26, DW_AT_location[DW_OP_addr spiCC26XXDMAObjects]
     337                            .dwattr $C$DW$26, DW_AT_type(*$C$DW$T$1246)
     338                            .dwattr $C$DW$26, DW_AT_external
     339                            .dwattr $C$DW$26, DW_AT_decl_file("../Application/LaunchPad/CC13X0_LAUNCHXL.c")
     340                            .dwattr $C$DW$26, DW_AT_decl_line(0xf9)
     341                            .dwattr $C$DW$26, DW_AT_decl_column(0x15)
     342                    
     343                            .global spiCC26XXDMAHWAttrs
     344 00000000                   .sect   ".const:spiCC26XXDMAHWAttrs"
     345                            .align  4
     346                            .elfsym spiCC26XXDMAHWAttrs,SYM_SIZE(64)
     347 00000000           spiCC26XXDMAHWAttrs:
     348 00000000 40000000          .bits   1073741824,32                   ; spiCC26XXDMAHWAttrs[0].baseAddr @ 0
     349 00000004 00000017          .bits   23,8                    ; spiCC26XXDMAHWAttrs[0].intNum @ 32
     350 00000004 0000FF17          .bits   255,8                   ; spiCC26XXDMAHWAttrs[0].intPriority @ 40
     351 00000004 0000FF17          .bits   0,16
     352 00000008 00000000          .bits   0,32                    ; spiCC26XXDMAHWAttrs[0].swiPriority @ 64
     353 0000000c 00000004          .bits   4,8                     ; spiCC26XXDMAHWAttrs[0].powerMngrId @ 96
     354 0000000c 00000004          .bits   0,8
     355 0000000c 00000004          .bits   0,16                    ; spiCC26XXDMAHWAttrs[0].defaultTxBufValue @ 112
     356 00000010 00000008          .bits   8,32                    ; spiCC26XXDMAHWAttrs[0].rxChannelBitMask @ 128
     357 00000014 00000010          .bits   16,32                   ; spiCC26XXDMAHWAttrs[0].txChannelBitMask @ 160
     358 00000018 00000009          .bits   9,8                     ; spiCC26XXDMAHWAttrs[0].mosiPin @ 192
     359 00000018 00000809          .bits   8,8                     ; spiCC26XXDMAHWAttrs[0].misoPin @ 200
     360 00000018 000A0809          .bits   10,8                    ; spiCC26XXDMAHWAttrs[0].clkPin @ 208
     361 00000018 FF0A0809          .bits   255,8                   ; spiCC26XXDMAHWAttrs[0].csnPin @ 216
     362 0000001c 00000000          .bits   0,32
     363 00000020 40008000          .bits   1073774592,32                   ; spiCC26XXDMAHWAttrs[1].baseAddr @ 256
     364 00000024 00000018          .bits   24,8                    ; spiCC26XXDMAHWAttrs[1].intNum @ 288
     365 00000024 0000FF18          .bits   255,8                   ; spiCC26XXDMAHWAttrs[1].intPriority @ 296
     366 00000024 0000FF18          .bits   0,16
     367 00000028 00000000          .bits   0,32                    ; spiCC26XXDMAHWAttrs[1].swiPriority @ 320
     368 0000002c 00000005          .bits   5,8                     ; spiCC26XXDMAHWAttrs[1].powerMngrId @ 352
     369 0000002c 00000005          .bits   0,8
     370 0000002c 00000005          .bits   0,16                    ; spiCC26XXDMAHWAttrs[1].defaultTxBufValue @ 368
     371 00000030 00010000          .bits   65536,32                        ; spiCC26XXDMAHWAttrs[1].rxChannelBitMask @ 384
     372 00000034 00020000          .bits   131072,32                       ; spiCC26XXDMAHWAttrs[1].txChannelBitMask @ 416
     373 00000038 000000FF          .bits   255,8                   ; spiCC26XXDMAHWAttrs[1].mosiPin @ 448
     374 00000038 0000FFFF          .bits   255,8                   ; spiCC26XXDMAHWAttrs[1].misoPin @ 456
     375 00000038 00FFFFFF          .bits   255,8                   ; spiCC26XXDMAHWAttrs[1].clkPin @ 464
     376 00000038 FFFFFFFF          .bits   255,8                   ; spiCC26XXDMAHWAttrs[1].csnPin @ 472
     377 0000003c 00000000          .bits   0,32
     378                    
     379                    $C$DW$27        .dwtag  DW_TAG_variable
     380                            .dwattr $C$DW$27, DW_AT_name("spiCC26XXDMAHWAttrs")
     381                            .dwattr $C$DW$27, DW_AT_TI_symbol_name("spiCC26XXDMAHWAttrs")
     382                            .dwattr $C$DW$27, DW_AT_location[DW_OP_addr spiCC26XXDMAHWAttrs]
     383                            .dwattr $C$DW$27, DW_AT_type(*$C$DW$T$1242)
     384                            .dwattr $C$DW$27, DW_AT_external
     385                            .dwattr $C$DW$27, DW_AT_decl_file("../Application/LaunchPad/CC13X0_LAUNCHXL.c")
TI ARM Assembler PC v16.9.4 Thu Apr 12 20:27:36 2018

Tools Copyright (c) 1996-2017 Texas Instruments Incorporated
C:\Users\Kevin\AppData\Local\Temp\{C001DE3B-F0FF-445D-8CCE-7D0EAD14970B} PAGE    8

     386                            .dwattr $C$DW$27, DW_AT_decl_line(0xfc)
     387                            .dwattr $C$DW$27, DW_AT_decl_column(0x1e)
     388                    
     389                            .global SPI_config
     390 00000000                   .sect   ".const:SPI_config"
     391                            .align  4
     392                            .elfsym SPI_config,SYM_SIZE(36)
     393 00000000           SPI_config:
     394 00000000 00000000!         .bits   SPICC26XXDMA_fxnTable,32                ; SPI_config[0].fxnTablePtr @ 0
     395 00000004 00000000!         .bits   spiCC26XXDMAObjects,32          ; SPI_config[0].object @ 32
     396 00000008 00000000!         .bits   spiCC26XXDMAHWAttrs,32          ; SPI_config[0].hwAttrs @ 64
     397 0000000c 00000000!         .bits   SPICC26XXDMA_fxnTable,32                ; SPI_config[1].fxnTablePtr @ 96
     398 00000010 000000DC!         .bits   spiCC26XXDMAObjects + 220,32            ; SPI_config[1].object @ 128
     399 00000014 00000020!         .bits   spiCC26XXDMAHWAttrs + 32,32             ; SPI_config[1].hwAttrs @ 160
     400 00000018 00000000          .bits   0,32                    ; SPI_config[2].fxnTablePtr @ 192
     401 0000001c 00000000          .bits   0,32                    ; SPI_config[2].object @ 224
     402 00000020 00000000          .bits   0,32                    ; SPI_config[2].hwAttrs @ 256
     403                    
     404                    $C$DW$28        .dwtag  DW_TAG_variable
     405                            .dwattr $C$DW$28, DW_AT_name("SPI_config")
     406                            .dwattr $C$DW$28, DW_AT_TI_symbol_name("SPI_config")
     407                            .dwattr $C$DW$28, DW_AT_location[DW_OP_addr SPI_config]
     408                            .dwattr $C$DW$28, DW_AT_type(*$C$DW$T$1253)
     409                            .dwattr $C$DW$28, DW_AT_external
     410                            .dwattr $C$DW$28, DW_AT_decl_file("../Application/LaunchPad/CC13X0_LAUNCHXL.c")
     411                            .dwattr $C$DW$28, DW_AT_decl_line(0x11c)
     412                            .dwattr $C$DW$28, DW_AT_decl_column(0x12)
     413                    
     414                            .global SPI_count
     415 00000001                   .sect   ".const"
     416                            .align  1
     417                            .elfsym SPI_count,SYM_SIZE(1)
     418 00000001           SPI_count:
     419 00000000 00000201          .bits   2,8                     ; SPI_count @ 0
     420                    
     421                    $C$DW$29        .dwtag  DW_TAG_variable
     422                            .dwattr $C$DW$29, DW_AT_name("SPI_count")
     423                            .dwattr $C$DW$29, DW_AT_TI_symbol_name("SPI_count")
     424                            .dwattr $C$DW$29, DW_AT_location[DW_OP_addr SPI_count]
     425                            .dwattr $C$DW$29, DW_AT_type(*$C$DW$T$471)
     426                            .dwattr $C$DW$29, DW_AT_external
     427                            .dwattr $C$DW$29, DW_AT_decl_file("../Application/LaunchPad/CC13X0_LAUNCHXL.c")
     428                            .dwattr $C$DW$29, DW_AT_decl_line(0x12a)
     429                            .dwattr $C$DW$29, DW_AT_decl_column(0x0f)
     430                    
     431                    $C$DW$30        .dwtag  DW_TAG_variable
     432                            .dwattr $C$DW$30, DW_AT_name("I2CCC26XX_fxnTable")
     433                            .dwattr $C$DW$30, DW_AT_TI_symbol_name("I2CCC26XX_fxnTable")
     434                            .dwattr $C$DW$30, DW_AT_type(*$C$DW$T$524)
     435                            .dwattr $C$DW$30, DW_AT_declaration
     436                            .dwattr $C$DW$30, DW_AT_external
     437                            .dwattr $C$DW$30, DW_AT_decl_file("C:/ti/simplelink_cc13x0_sdk_1_50_00_08/source/ti/drivers/i2
     438                            .dwattr $C$DW$30, DW_AT_decl_line(0x155)
     439                            .dwattr $C$DW$30, DW_AT_decl_column(0x1b)
     440                    
TI ARM Assembler PC v16.9.4 Thu Apr 12 20:27:36 2018

Tools Copyright (c) 1996-2017 Texas Instruments Incorporated
C:\Users\Kevin\AppData\Local\Temp\{C001DE3B-F0FF-445D-8CCE-7D0EAD14970B} PAGE    9

     441                            .global i2cCC26xxObjects
     442                            .common i2cCC26xxObjects,224,4
     443                    $C$DW$31        .dwtag  DW_TAG_variable
     444                            .dwattr $C$DW$31, DW_AT_name("i2cCC26xxObjects")
     445                            .dwattr $C$DW$31, DW_AT_TI_symbol_name("i2cCC26xxObjects")
     446                            .dwattr $C$DW$31, DW_AT_location[DW_OP_addr i2cCC26xxObjects]
     447                            .dwattr $C$DW$31, DW_AT_type(*$C$DW$T$1217)
     448                            .dwattr $C$DW$31, DW_AT_external
     449                            .dwattr $C$DW$31, DW_AT_decl_file("../Application/LaunchPad/CC13X0_LAUNCHXL.c")
     450                            .dwattr $C$DW$31, DW_AT_decl_line(0x13e)
     451                            .dwattr $C$DW$31, DW_AT_decl_column(0x12)
     452                    
     453                            .global i2cCC26xxHWAttrs
     454 00000000                   .sect   ".const:i2cCC26xxHWAttrs"
     455                            .align  4
     456                            .elfsym i2cCC26xxHWAttrs,SYM_SIZE(24)
     457 00000000           i2cCC26xxHWAttrs:
     458 00000000 40002000          .bits   1073750016,32                   ; i2cCC26xxHWAttrs[0].baseAddr @ 0
     459 00000004 00000007          .bits   7,32                    ; i2cCC26xxHWAttrs[0].powerMngrId @ 32
     460 00000008 00000011          .bits   17,32                   ; i2cCC26xxHWAttrs[0].intNum @ 64
     461 0000000c 000000FF          .bits   255,8                   ; i2cCC26xxHWAttrs[0].intPriority @ 96
     462 0000000c 000000FF          .bits   0,24
     463 00000010 00000000          .bits   0,32                    ; i2cCC26xxHWAttrs[0].swiPriority @ 128
     464 00000014 00000005          .bits   5,8                     ; i2cCC26xxHWAttrs[0].sdaPin @ 160
     465 00000014 00000405          .bits   4,8                     ; i2cCC26xxHWAttrs[0].sclPin @ 168
     466 00000014 00000405          .bits   0,16
     467                    
     468                    $C$DW$32        .dwtag  DW_TAG_variable
     469                            .dwattr $C$DW$32, DW_AT_name("i2cCC26xxHWAttrs")
     470                            .dwattr $C$DW$32, DW_AT_TI_symbol_name("i2cCC26xxHWAttrs")
     471                            .dwattr $C$DW$32, DW_AT_location[DW_OP_addr i2cCC26xxHWAttrs]
     472                            .dwattr $C$DW$32, DW_AT_type(*$C$DW$T$1212)
     473                            .dwattr $C$DW$32, DW_AT_external
     474                            .dwattr $C$DW$32, DW_AT_decl_file("../Application/LaunchPad/CC13X0_LAUNCHXL.c")
     475                            .dwattr $C$DW$32, DW_AT_decl_line(0x141)
     476                            .dwattr $C$DW$32, DW_AT_decl_column(0x1b)
     477                    
     478                            .global I2C_config
     479 00000000                   .sect   ".const:I2C_config"
     480                            .align  4
     481                            .elfsym I2C_config,SYM_SIZE(24)
     482 00000000           I2C_config:
     483 00000000 00000000!         .bits   I2CCC26XX_fxnTable,32           ; I2C_config[0].fxnTablePtr @ 0
     484 00000004 00000000!         .bits   i2cCC26xxObjects,32             ; I2C_config[0].object @ 32
     485 00000008 00000000!         .bits   i2cCC26xxHWAttrs,32             ; I2C_config[0].hwAttrs @ 64
     486 0000000c 00000000          .bits   0,32                    ; I2C_config[1].fxnTablePtr @ 96
     487 00000010 00000000          .bits   0,32                    ; I2C_config[1].object @ 128
     488 00000014 00000000          .bits   0,32                    ; I2C_config[1].hwAttrs @ 160
     489                    
     490                    $C$DW$33        .dwtag  DW_TAG_variable
     491                            .dwattr $C$DW$33, DW_AT_name("I2C_config")
     492                            .dwattr $C$DW$33, DW_AT_TI_symbol_name("I2C_config")
     493                            .dwattr $C$DW$33, DW_AT_location[DW_OP_addr I2C_config]
     494                            .dwattr $C$DW$33, DW_AT_type(*$C$DW$T$1222)
     495                            .dwattr $C$DW$33, DW_AT_external
TI ARM Assembler PC v16.9.4 Thu Apr 12 20:27:36 2018

Tools Copyright (c) 1996-2017 Texas Instruments Incorporated
C:\Users\Kevin\AppData\Local\Temp\{C001DE3B-F0FF-445D-8CCE-7D0EAD14970B} PAGE   10

     496                            .dwattr $C$DW$33, DW_AT_decl_file("../Application/LaunchPad/CC13X0_LAUNCHXL.c")
     497                            .dwattr $C$DW$33, DW_AT_decl_line(0x14e)
     498                            .dwattr $C$DW$33, DW_AT_decl_column(0x12)
     499                    
     500                            .global I2C_count
     501 00000002                   .sect   ".const"
     502                            .align  1
     503                            .elfsym I2C_count,SYM_SIZE(1)
     504 00000002           I2C_count:
     505 00000000 00010201          .bits   1,8                     ; I2C_count @ 0
     506                    
     507                    $C$DW$34        .dwtag  DW_TAG_variable
     508                            .dwattr $C$DW$34, DW_AT_name("I2C_count")
     509                            .dwattr $C$DW$34, DW_AT_TI_symbol_name("I2C_count")
     510                            .dwattr $C$DW$34, DW_AT_location[DW_OP_addr I2C_count]
     511                            .dwattr $C$DW$34, DW_AT_type(*$C$DW$T$1567)
     512                            .dwattr $C$DW$34, DW_AT_external
     513                            .dwattr $C$DW$34, DW_AT_decl_file("../Application/LaunchPad/CC13X0_LAUNCHXL.c")
     514                            .dwattr $C$DW$34, DW_AT_decl_line(0x157)
     515                            .dwattr $C$DW$34, DW_AT_decl_column(0x15)
     516                    
     517                            .global cryptoCC26XXObjects
     518                            .common cryptoCC26XXObjects,128,4
     519                    $C$DW$35        .dwtag  DW_TAG_variable
     520                            .dwattr $C$DW$35, DW_AT_name("cryptoCC26XXObjects")
     521                            .dwattr $C$DW$35, DW_AT_TI_symbol_name("cryptoCC26XXObjects")
     522                            .dwattr $C$DW$35, DW_AT_location[DW_OP_addr cryptoCC26XXObjects]
     523                            .dwattr $C$DW$35, DW_AT_type(*$C$DW$T$1188)
     524                            .dwattr $C$DW$35, DW_AT_external
     525                            .dwattr $C$DW$35, DW_AT_decl_file("../Application/LaunchPad/CC13X0_LAUNCHXL.c")
     526                            .dwattr $C$DW$35, DW_AT_decl_line(0x16c)
     527                            .dwattr $C$DW$35, DW_AT_decl_column(0x15)
     528                    
     529                            .global cryptoCC26XXHWAttrs
     530 00000000                   .sect   ".const:cryptoCC26XXHWAttrs"
     531                            .align  4
     532                            .elfsym cryptoCC26XXHWAttrs,SYM_SIZE(16)
     533 00000000           cryptoCC26XXHWAttrs:
     534 00000000 40024000          .bits   1073889280,32                   ; cryptoCC26XXHWAttrs[0].baseAddr @ 0
     535 00000004 0000000B          .bits   11,32                   ; cryptoCC26XXHWAttrs[0].powerMngrId @ 32
     536 00000008 00000027          .bits   39,32                   ; cryptoCC26XXHWAttrs[0].intNum @ 64
     537 0000000c 000000FF          .bits   255,8                   ; cryptoCC26XXHWAttrs[0].intPriority @ 96
     538 0000000c 000000FF          .bits   0,24
     539                    
     540                    $C$DW$36        .dwtag  DW_TAG_variable
     541                            .dwattr $C$DW$36, DW_AT_name("cryptoCC26XXHWAttrs")
     542                            .dwattr $C$DW$36, DW_AT_TI_symbol_name("cryptoCC26XXHWAttrs")
     543                            .dwattr $C$DW$36, DW_AT_location[DW_OP_addr cryptoCC26XXHWAttrs]
     544                            .dwattr $C$DW$36, DW_AT_type(*$C$DW$T$1182)
     545                            .dwattr $C$DW$36, DW_AT_external
     546                            .dwattr $C$DW$36, DW_AT_decl_file("../Application/LaunchPad/CC13X0_LAUNCHXL.c")
     547                            .dwattr $C$DW$36, DW_AT_decl_line(0x16f)
     548                            .dwattr $C$DW$36, DW_AT_decl_column(0x1c)
     549                    
     550                            .global CryptoCC26XX_config
TI ARM Assembler PC v16.9.4 Thu Apr 12 20:27:36 2018

Tools Copyright (c) 1996-2017 Texas Instruments Incorporated
C:\Users\Kevin\AppData\Local\Temp\{C001DE3B-F0FF-445D-8CCE-7D0EAD14970B} PAGE   11

     551 00000000                   .sect   ".const:CryptoCC26XX_config"
     552                            .align  4
     553                            .elfsym CryptoCC26XX_config,SYM_SIZE(16)
     554 00000000           CryptoCC26XX_config:
     555 00000000 00000000!         .bits   cryptoCC26XXObjects,32          ; CryptoCC26XX_config[0].object @ 0
     556 00000004 00000000!         .bits   cryptoCC26XXHWAttrs,32          ; CryptoCC26XX_config[0].hwAttrs @ 32
     557 00000008 00000000          .bits   0,32                    ; CryptoCC26XX_config[1].object @ 64
     558 0000000c 00000000          .bits   0,32                    ; CryptoCC26XX_config[1].hwAttrs @ 96
     559                    
     560                    $C$DW$37        .dwtag  DW_TAG_variable
     561                            .dwattr $C$DW$37, DW_AT_name("CryptoCC26XX_config")
     562                            .dwattr $C$DW$37, DW_AT_TI_symbol_name("CryptoCC26XX_config")
     563                            .dwattr $C$DW$37, DW_AT_location[DW_OP_addr CryptoCC26XX_config]
     564                            .dwattr $C$DW$37, DW_AT_type(*$C$DW$T$1177)
     565                            .dwattr $C$DW$37, DW_AT_external
     566                            .dwattr $C$DW$37, DW_AT_decl_file("../Application/LaunchPad/CC13X0_LAUNCHXL.c")
     567                            .dwattr $C$DW$37, DW_AT_decl_line(0x179)
     568                            .dwattr $C$DW$37, DW_AT_decl_column(0x1b)
     569                    
     570                            .global RFCC26XX_hwAttrs
     571 00000000                   .sect   ".const:RFCC26XX_hwAttrs"
     572                            .clink
     573                            .align  1
     574                            .elfsym RFCC26XX_hwAttrs,SYM_SIZE(4)
     575 00000000           RFCC26XX_hwAttrs:
     576 00000000 000000FF          .bits   255,8                   ; RFCC26XX_hwAttrs.hwiCpe0Priority @ 0
     577 00000000 0000FFFF          .bits   255,8                   ; RFCC26XX_hwAttrs.hwiHwPriority @ 8
     578 00000000 0000FFFF          .bits   0,8                     ; RFCC26XX_hwAttrs.swiCpe0Priority @ 16
     579 00000000 0000FFFF          .bits   0,8                     ; RFCC26XX_hwAttrs.swiHwPriority @ 24
     580                    
     581                    $C$DW$38        .dwtag  DW_TAG_variable
     582                            .dwattr $C$DW$38, DW_AT_name("RFCC26XX_hwAttrs")
     583                            .dwattr $C$DW$38, DW_AT_TI_symbol_name("RFCC26XX_hwAttrs")
     584                            .dwattr $C$DW$38, DW_AT_location[DW_OP_addr RFCC26XX_hwAttrs]
     585                            .dwattr $C$DW$38, DW_AT_type(*$C$DW$T$1133)
     586                            .dwattr $C$DW$38, DW_AT_external
     587                            .dwattr $C$DW$38, DW_AT_decl_file("../Application/LaunchPad/CC13X0_LAUNCHXL.c")
     588                            .dwattr $C$DW$38, DW_AT_decl_line(0x18c)
     589                            .dwattr $C$DW$38, DW_AT_decl_column(0x18)
     590                    
     591                            .global displayUartObject
     592                            .common displayUartObject,12,4
     593                    $C$DW$39        .dwtag  DW_TAG_variable
     594                            .dwattr $C$DW$39, DW_AT_name("displayUartObject")
     595                            .dwattr $C$DW$39, DW_AT_TI_symbol_name("displayUartObject")
     596                            .dwattr $C$DW$39, DW_AT_location[DW_OP_addr displayUartObject]
     597                            .dwattr $C$DW$39, DW_AT_type(*$C$DW$T$1199)
     598                            .dwattr $C$DW$39, DW_AT_external
     599                            .dwattr $C$DW$39, DW_AT_decl_file("../Application/LaunchPad/CC13X0_LAUNCHXL.c")
     600                            .dwattr $C$DW$39, DW_AT_decl_line(0x1a6)
     601                            .dwattr $C$DW$39, DW_AT_decl_column(0x1b)
     602                    
     603 00000000           uartStringBuf:  .usect  ".bss:uartStringBuf",128,1
     604                            .clink ".bss:uartStringBuf"
     605                    $C$DW$40        .dwtag  DW_TAG_variable
TI ARM Assembler PC v16.9.4 Thu Apr 12 20:27:36 2018

Tools Copyright (c) 1996-2017 Texas Instruments Incorporated
C:\Users\Kevin\AppData\Local\Temp\{C001DE3B-F0FF-445D-8CCE-7D0EAD14970B} PAGE   12

     606                            .dwattr $C$DW$40, DW_AT_name("uartStringBuf")
     607                            .dwattr $C$DW$40, DW_AT_TI_symbol_name("uartStringBuf")
     608                            .dwattr $C$DW$40, DW_AT_type(*$C$DW$T$1905)
     609                            .dwattr $C$DW$40, DW_AT_location[DW_OP_addr uartStringBuf]
     610                            .dwattr $C$DW$40, DW_AT_decl_file("../Application/LaunchPad/CC13X0_LAUNCHXL.c")
     611                            .dwattr $C$DW$40, DW_AT_decl_line(0x1ab)
     612                            .dwattr $C$DW$40, DW_AT_decl_column(0x0d)
     613                    
     614                            .global displayUartHWAttrs
     615 00000000                   .sect   ".const:displayUartHWAttrs"
     616                            .align  4
     617                            .elfsym displayUartHWAttrs,SYM_SIZE(20)
     618 00000000           displayUartHWAttrs:
     619 00000000 00000000          .bits   0,32                    ; displayUartHWAttrs.uartIdx @ 0
     620 00000004 0001C200          .bits   115200,32                       ; displayUartHWAttrs.baudRate @ 32
     621 00000008 FFFFFFFF          .bits   -1,32                   ; displayUartHWAttrs.mutexTimeout @ 64
     622 0000000c 00000000!         .bits   uartStringBuf,32                ; displayUartHWAttrs.strBuf @ 96
     623 00000010 00000080          .bits   128,16                  ; displayUartHWAttrs.strBufLen @ 128
     624 00000010 00000080          .bits   0,16
     625                    
     626                    $C$DW$41        .dwtag  DW_TAG_variable
     627                            .dwattr $C$DW$41, DW_AT_name("displayUartHWAttrs")
     628                            .dwattr $C$DW$41, DW_AT_TI_symbol_name("displayUartHWAttrs")
     629                            .dwattr $C$DW$41, DW_AT_location[DW_OP_addr displayUartHWAttrs]
     630                            .dwattr $C$DW$41, DW_AT_type(*$C$DW$T$1198)
     631                            .dwattr $C$DW$41, DW_AT_external
     632                            .dwattr $C$DW$41, DW_AT_decl_file("../Application/LaunchPad/CC13X0_LAUNCHXL.c")
     633                            .dwattr $C$DW$41, DW_AT_decl_line(0x1ad)
     634                            .dwattr $C$DW$41, DW_AT_decl_column(0x1b)
     635                    
     636                            .global displaySharpObject
     637                            .common displaySharpObject,108,4
     638                    $C$DW$42        .dwtag  DW_TAG_variable
     639                            .dwattr $C$DW$42, DW_AT_name("displaySharpObject")
     640                            .dwattr $C$DW$42, DW_AT_TI_symbol_name("displaySharpObject")
     641                            .dwattr $C$DW$42, DW_AT_location[DW_OP_addr displaySharpObject]
     642                            .dwattr $C$DW$42, DW_AT_type(*$C$DW$T$1194)
     643                            .dwattr $C$DW$42, DW_AT_external
     644                            .dwattr $C$DW$42, DW_AT_decl_file("../Application/LaunchPad/CC13X0_LAUNCHXL.c")
     645                            .dwattr $C$DW$42, DW_AT_decl_line(0x1b6)
     646                            .dwattr $C$DW$42, DW_AT_decl_column(0x15)
     647                    
     648 00000000           sharpDisplayBuf:        .usect  ".bss:sharpDisplayBuf",1152,1
     649                            .clink ".bss:sharpDisplayBuf"
     650                    $C$DW$43        .dwtag  DW_TAG_variable
     651                            .dwattr $C$DW$43, DW_AT_name("sharpDisplayBuf")
     652                            .dwattr $C$DW$43, DW_AT_TI_symbol_name("sharpDisplayBuf")
     653                            .dwattr $C$DW$43, DW_AT_type(*$C$DW$T$1562)
     654                            .dwattr $C$DW$43, DW_AT_location[DW_OP_addr sharpDisplayBuf]
     655                            .dwattr $C$DW$43, DW_AT_decl_file("../Application/LaunchPad/CC13X0_LAUNCHXL.c")
     656                            .dwattr $C$DW$43, DW_AT_decl_line(0x1bb)
     657                            .dwattr $C$DW$43, DW_AT_decl_column(0x10)
     658                    
     659                            .global displaySharpHWattrs
     660 00000000                   .sect   ".const:displaySharpHWattrs"
TI ARM Assembler PC v16.9.4 Thu Apr 12 20:27:36 2018

Tools Copyright (c) 1996-2017 Texas Instruments Incorporated
C:\Users\Kevin\AppData\Local\Temp\{C001DE3B-F0FF-445D-8CCE-7D0EAD14970B} PAGE   13

     661                            .align  4
     662                            .elfsym displaySharpHWattrs,SYM_SIZE(16)
     663 00000000           displaySharpHWattrs:
     664 00000000 00000000          .bits   0,32                    ; displaySharpHWattrs.spiIndex @ 0
     665 00000004 00000018          .bits   24,8                    ; displaySharpHWattrs.csPin @ 32
     666 00000004 00000C18          .bits   12,8                    ; displaySharpHWattrs.extcominPin @ 40
     667 00000004 00170C18          .bits   23,8                    ; displaySharpHWattrs.powerPin @ 48
     668 00000004 16170C18          .bits   22,8                    ; displaySharpHWattrs.enablePin @ 56
     669 00000008 00000060          .bits   96,16                   ; displaySharpHWattrs.pixelHeight @ 64
     670 00000008 00600060          .bits   96,16                   ; displaySharpHWattrs.pixelWidth @ 80
     671 0000000c 00000000!         .bits   sharpDisplayBuf,32              ; displaySharpHWattrs.displayBuf @ 96
     672                    
     673                    $C$DW$44        .dwtag  DW_TAG_variable
     674                            .dwattr $C$DW$44, DW_AT_name("displaySharpHWattrs")
     675                            .dwattr $C$DW$44, DW_AT_TI_symbol_name("displaySharpHWattrs")
     676                            .dwattr $C$DW$44, DW_AT_location[DW_OP_addr displaySharpHWattrs]
     677                            .dwattr $C$DW$44, DW_AT_type(*$C$DW$T$1193)
     678                            .dwattr $C$DW$44, DW_AT_external
     679                            .dwattr $C$DW$44, DW_AT_decl_file("../Application/LaunchPad/CC13X0_LAUNCHXL.c")
     680                            .dwattr $C$DW$44, DW_AT_decl_line(0x1bd)
     681                            .dwattr $C$DW$44, DW_AT_decl_column(0x1c)
     682                    
     683                            .global Display_config
     684 00000000                   .sect   ".const:Display_config"
     685                            .align  4
     686                            .elfsym Display_config,SYM_SIZE(12)
     687 00000000           Display_config:
     688 00000000 00000000          .bits   0,32                    ; Display_config[0].fxnTablePtr @ 0
     689 00000004 00000000          .bits   0,32                    ; Display_config[0].object @ 32
     690 00000008 00000000          .bits   0,32                    ; Display_config[0].hwAttrs @ 64
     691                    
     692                    $C$DW$45        .dwtag  DW_TAG_variable
     693                            .dwattr $C$DW$45, DW_AT_name("Display_config")
     694                            .dwattr $C$DW$45, DW_AT_TI_symbol_name("Display_config")
     695                            .dwattr $C$DW$45, DW_AT_location[DW_OP_addr Display_config]
     696                            .dwattr $C$DW$45, DW_AT_type(*$C$DW$T$1204)
     697                            .dwattr $C$DW$45, DW_AT_external
     698                            .dwattr $C$DW$45, DW_AT_decl_file("../Application/LaunchPad/CC13X0_LAUNCHXL.c")
     699                            .dwattr $C$DW$45, DW_AT_decl_line(0x1c9)
     700                            .dwattr $C$DW$45, DW_AT_decl_column(0x16)
     701                    
     702                            .global Display_count
     703 00000003                   .sect   ".const"
     704                            .align  1
     705                            .elfsym Display_count,SYM_SIZE(1)
     706 00000003           Display_count:
     707 00000000 01010201          .bits   1,8                     ; Display_count @ 0
     708                    
     709                    $C$DW$46        .dwtag  DW_TAG_variable
     710                            .dwattr $C$DW$46, DW_AT_name("Display_count")
     711                            .dwattr $C$DW$46, DW_AT_TI_symbol_name("Display_count")
     712                            .dwattr $C$DW$46, DW_AT_location[DW_OP_addr Display_count]
     713                            .dwattr $C$DW$46, DW_AT_type(*$C$DW$T$471)
     714                            .dwattr $C$DW$46, DW_AT_external
     715                            .dwattr $C$DW$46, DW_AT_decl_file("../Application/LaunchPad/CC13X0_LAUNCHXL.c")
TI ARM Assembler PC v16.9.4 Thu Apr 12 20:27:36 2018

Tools Copyright (c) 1996-2017 Texas Instruments Incorporated
C:\Users\Kevin\AppData\Local\Temp\{C001DE3B-F0FF-445D-8CCE-7D0EAD14970B} PAGE   14

     716                            .dwattr $C$DW$46, DW_AT_decl_line(0x1d4)
     717                            .dwattr $C$DW$46, DW_AT_decl_column(0x0f)
     718                    
     719 00000000                   .sect   ".const:$P$T0$1"
     720                            .clink
     721                            .align  4
     722                            .elfsym ||$P$T0$1||,SYM_SIZE(20)
     723 00000000           ||$P$T0$1||:
     724 00000000 A0C00414          .bits   -1598028780,32                  ; $P$T0$1[0] @ 0
     725 00000004 A080040A          .bits   -1602223094,32                  ; $P$T0$1[1] @ 32
     726 00000008 A0800409          .bits   -1602223095,32                  ; $P$T0$1[2] @ 64
     727 0000000c 80004008          .bits   -2147467256,32                  ; $P$T0$1[3] @ 96
     728 00000010 000000FE          .bits   254,32                  ; $P$T0$1[4] @ 128
     729                    
     730                    $C$DW$47        .dwtag  DW_TAG_variable
     731                            .dwattr $C$DW$47, DW_AT_name("$P$T0$1")
     732                            .dwattr $C$DW$47, DW_AT_TI_symbol_name("$P$T0$1")
     733                            .dwattr $C$DW$47, DW_AT_type(*$C$DW$T$1741)
     734                            .dwattr $C$DW$47, DW_AT_location[DW_OP_addr ||$P$T0$1||]
     735                            .dwattr $C$DW$47, DW_AT_decl_file("../Application/LaunchPad/CC13X0_LAUNCHXL.c")
     736                            .dwattr $C$DW$47, DW_AT_decl_line(0x1ed)
     737                            .dwattr $C$DW$47, DW_AT_decl_column(0x10)
     738                    
     739                    ;       C:\ti\ccsv7\tools\compiler\ti-cgt-arm_16.9.4.LTS\bin\armopt.exe C:/Users/Kevin/workspace_v7/se
     740 00000000                   .sect   ".text:CC13X0_LAUNCHXL_sendExtFlashByte"
     741                            .clink
     742                            .thumbfunc CC13X0_LAUNCHXL_sendExtFlashByte
     743 00000000                   .thumb
     744                            .global CC13X0_LAUNCHXL_sendExtFlashByte
     745                    
     746                    $C$DW$48        .dwtag  DW_TAG_subprogram
     747                            .dwattr $C$DW$48, DW_AT_name("CC13X0_LAUNCHXL_sendExtFlashByte")
     748                            .dwattr $C$DW$48, DW_AT_low_pc(CC13X0_LAUNCHXL_sendExtFlashByte)
     749                            .dwattr $C$DW$48, DW_AT_high_pc(0x00)
     750                            .dwattr $C$DW$48, DW_AT_TI_symbol_name("CC13X0_LAUNCHXL_sendExtFlashByte")
     751                            .dwattr $C$DW$48, DW_AT_external
     752                            .dwattr $C$DW$48, DW_AT_TI_begin_file("../Application/LaunchPad/CC13X0_LAUNCHXL.c")
     753                            .dwattr $C$DW$48, DW_AT_TI_begin_line(0x1dc)
     754                            .dwattr $C$DW$48, DW_AT_TI_begin_column(0x06)
     755                            .dwattr $C$DW$48, DW_AT_decl_file("../Application/LaunchPad/CC13X0_LAUNCHXL.c")
     756                            .dwattr $C$DW$48, DW_AT_decl_line(0x1dc)
     757                            .dwattr $C$DW$48, DW_AT_decl_column(0x06)
     758                            .dwattr $C$DW$48, DW_AT_TI_max_frame_size(0x10)
     759                            .dwpsn  file "../Application/LaunchPad/CC13X0_LAUNCHXL.c",line 477,column 1,is_stmt,address CC
     760                    
     761                            .dwfde $C$DW$CIE, CC13X0_LAUNCHXL_sendExtFlashByte
     762                    $C$DW$49        .dwtag  DW_TAG_formal_parameter
     763                            .dwattr $C$DW$49, DW_AT_name("pinHandle")
     764                            .dwattr $C$DW$49, DW_AT_TI_symbol_name("pinHandle")
     765                            .dwattr $C$DW$49, DW_AT_type(*$C$DW$T$414)
     766                            .dwattr $C$DW$49, DW_AT_location[DW_OP_reg0]
     767                    
     768                    $C$DW$50        .dwtag  DW_TAG_formal_parameter
     769                            .dwattr $C$DW$50, DW_AT_name("byte")
     770                            .dwattr $C$DW$50, DW_AT_TI_symbol_name("byte")
TI ARM Assembler PC v16.9.4 Thu Apr 12 20:27:36 2018

Tools Copyright (c) 1996-2017 Texas Instruments Incorporated
C:\Users\Kevin\AppData\Local\Temp\{C001DE3B-F0FF-445D-8CCE-7D0EAD14970B} PAGE   15

     771                            .dwattr $C$DW$50, DW_AT_type(*$C$DW$T$109)
     772                            .dwattr $C$DW$50, DW_AT_location[DW_OP_reg1]
     773                    
     774                    
     775                    ;*****************************************************************************
     776                    ;* FUNCTION NAME: CC13X0_LAUNCHXL_sendExtFlashByte                           *
     777                    ;*                                                                           *
     778                    ;*   Regs Modified     : A1,A2,A3,A4,V1,V2,V3,V9,SP,LR,SR                    *
     779                    ;*   Regs Used         : A1,A2,A3,A4,V1,V2,V3,V9,SP,LR,SR                    *
     780                    ;*   Local Frame Size  : 0 Args + 0 Auto + 16 Save = 16 byte                 *
     781                    ;*****************************************************************************
     782                    CC13X0_LAUNCHXL_sendExtFlashByte:
     783                    ;* --------------------------------------------------------------------------*
     784                    ;* V1    assigned to i
     785                    $C$DW$51        .dwtag  DW_TAG_variable
     786                            .dwattr $C$DW$51, DW_AT_name("i")
     787                            .dwattr $C$DW$51, DW_AT_TI_symbol_name("i")
     788                            .dwattr $C$DW$51, DW_AT_type(*$C$DW$T$10)
     789                            .dwattr $C$DW$51, DW_AT_location[DW_OP_reg4]
     790                    
     791                    ;* V3    assigned to pinHandle
     792                    $C$DW$52        .dwtag  DW_TAG_variable
     793                            .dwattr $C$DW$52, DW_AT_name("pinHandle")
     794                            .dwattr $C$DW$52, DW_AT_TI_symbol_name("pinHandle")
     795                            .dwattr $C$DW$52, DW_AT_type(*$C$DW$T$1225)
     796                            .dwattr $C$DW$52, DW_AT_location[DW_OP_reg6]
     797                    
     798                    ;* V2    assigned to byte
     799                    $C$DW$53        .dwtag  DW_TAG_variable
     800                            .dwattr $C$DW$53, DW_AT_name("byte")
     801                            .dwattr $C$DW$53, DW_AT_TI_symbol_name("byte")
     802                            .dwattr $C$DW$53, DW_AT_type(*$C$DW$T$471)
     803                            .dwattr $C$DW$53, DW_AT_location[DW_OP_reg5]
     804                    
     805                            .dwcfi  cfa_offset, 0
     806 00000000 B570              PUSH      {V1, V2, V3, LR}      ; [DPU_3_PIPE]  ; [ORIG 16-BIT INS]
     807                            .dwcfi  cfa_offset, 16
     808                            .dwcfi  save_reg_to_mem, 14, -4
     809                            .dwcfi  save_reg_to_mem, 6, -8
     810                            .dwcfi  save_reg_to_mem, 5, -12
     811                            .dwcfi  save_reg_to_mem, 4, -16
     812 00000002 460D              MOV       V2, A2                ; [DPU_3_PIPE] |477|  ; [ORIG 16-BIT INS]
     813                            .dwpsn  file "../Application/LaunchPad/CC13X0_LAUNCHXL.c",line 478,column 5,is_stmt,isa 1
     814 00000004 2200              MOVS      A3, #0                ; [DPU_3_PIPE] |478|  ; [ORIG 16-BIT INS]
     815                            .dwpsn  file "../Application/LaunchPad/CC13X0_LAUNCHXL.c",line 477,column 1,is_stmt,isa 1
     816 00000006 4606              MOV       V3, A1                ; [DPU_3_PIPE] |477|  ; [ORIG 16-BIT INS]
     817                            .dwpsn  file "../Application/LaunchPad/CC13X0_LAUNCHXL.c",line 478,column 5,is_stmt,isa 1
     818 00000008 2114              MOVS      A2, #20               ; [DPU_3_PIPE] |478|  ; [ORIG 16-BIT INS]
     819                    $C$DW$54        .dwtag  DW_TAG_TI_branch
     820                            .dwattr $C$DW$54, DW_AT_low_pc(0x00)
     821                            .dwattr $C$DW$54, DW_AT_name("PIN_setOutputValue")
     822                            .dwattr $C$DW$54, DW_AT_TI_call
     823                    
     824 0000000a FFFEF7FF!         BL        PIN_setOutputValue    ; [DPU_3_PIPE] |478|  ; [KEEP 32-BIT INS]
     825                            ; CALL OCCURS {PIN_setOutputValue }  ; [] |478| 
TI ARM Assembler PC v16.9.4 Thu Apr 12 20:27:36 2018

Tools Copyright (c) 1996-2017 Texas Instruments Incorporated
C:\Users\Kevin\AppData\Local\Temp\{C001DE3B-F0FF-445D-8CCE-7D0EAD14970B} PAGE   16

     826 0000000e 2400              MOVS      V1, #0                ; [DPU_3_PIPE]  ; [ORIG 16-BIT INS]
     827                    ;* --------------------------------------------------------------------------*
     828                    ;*   BEGIN LOOP ||$C$L1||
     829                    ;*
     830                    ;*   Loop source line                : 480
     831                    ;*   Loop closing brace source line  : 484
     832                    ;*   Known Minimum Trip Count        : 8
     833                    ;*   Known Maximum Trip Count        : 8
     834                    ;*   Known Max Trip Count Factor     : 8
     835                    ;* --------------------------------------------------------------------------*
     836 00000010           ||$C$L1||:    
     837                            .dwpsn  file "../Application/LaunchPad/CC13X0_LAUNCHXL.c",line 481,column 9,is_stmt,isa 1
     838 00000010 4630              MOV       A1, V3                ; [DPU_3_PIPE] |481|  ; [ORIG 16-BIT INS]
     839 00000012 210A              MOVS      A2, #10               ; [DPU_3_PIPE] |481|  ; [ORIG 16-BIT INS]
     840 00000014 2200              MOVS      A3, #0                ; [DPU_3_PIPE] |481|  ; [ORIG 16-BIT INS]
     841                    $C$DW$55        .dwtag  DW_TAG_TI_branch
     842                            .dwattr $C$DW$55, DW_AT_low_pc(0x00)
     843                            .dwattr $C$DW$55, DW_AT_name("PIN_setOutputValue")
     844                            .dwattr $C$DW$55, DW_AT_TI_call
     845                    
     846 00000016 FFFEF7FF!         BL        PIN_setOutputValue    ; [DPU_3_PIPE] |481|  ; [KEEP 32-BIT INS]
     847                            ; CALL OCCURS {PIN_setOutputValue }  ; [] |481| 
     848                            .dwpsn  file "../Application/LaunchPad/CC13X0_LAUNCHXL.c",line 482,column 9,is_stmt,isa 1
     849 0000001a 0007F1C4          RSB       A1, V1, #7            ; [DPU_3_PIPE] |482|  ; [KEEP 32-BIT INS]
     850 0000001e 2109              MOVS      A2, #9                ; [DPU_3_PIPE] |482|  ; [ORIG 16-BIT INS]
     851 00000020 F200FA45          ASR       A3, V2, A1            ; [DPU_3_PIPE] |482|  ; [KEEP 32-BIT INS]
     852 00000024 4630              MOV       A1, V3                ; [DPU_3_PIPE] |482|  ; [ORIG 16-BIT INS]
     853 00000026 0201F002          AND       A3, A3, #1            ; [DPU_3_PIPE] |482|  ; [KEEP 32-BIT INS]
     854                    $C$DW$56        .dwtag  DW_TAG_TI_branch
     855                            .dwattr $C$DW$56, DW_AT_low_pc(0x00)
     856                            .dwattr $C$DW$56, DW_AT_name("PIN_setOutputValue")
     857                            .dwattr $C$DW$56, DW_AT_TI_call
     858                    
     859 0000002a FFFEF7FF!         BL        PIN_setOutputValue    ; [DPU_3_PIPE] |482|  ; [KEEP 32-BIT INS]
     860                            ; CALL OCCURS {PIN_setOutputValue }  ; [] |482| 
     861                            .dwpsn  file "../Application/LaunchPad/CC13X0_LAUNCHXL.c",line 483,column 9,is_stmt,isa 1
     862 0000002e 4630              MOV       A1, V3                ; [DPU_3_PIPE] |483|  ; [ORIG 16-BIT INS]
     863 00000030 210A              MOVS      A2, #10               ; [DPU_3_PIPE] |483|  ; [ORIG 16-BIT INS]
     864 00000032 2201              MOVS      A3, #1                ; [DPU_3_PIPE] |483|  ; [ORIG 16-BIT INS]
     865                    $C$DW$57        .dwtag  DW_TAG_TI_branch
     866                            .dwattr $C$DW$57, DW_AT_low_pc(0x00)
     867                            .dwattr $C$DW$57, DW_AT_name("PIN_setOutputValue")
     868                            .dwattr $C$DW$57, DW_AT_TI_call
     869                    
     870 00000034 FFFEF7FF!         BL        PIN_setOutputValue    ; [DPU_3_PIPE] |483|  ; [KEEP 32-BIT INS]
     871                            ; CALL OCCURS {PIN_setOutputValue }  ; [] |483| 
     872                            .dwpsn  file "../Application/LaunchPad/CC13X0_LAUNCHXL.c",line 480,column 16,is_stmt,isa 1
     873 00000038 1C64              ADDS      V1, V1, #1            ; [DPU_3_PIPE] |480|  ; [ORIG 16-BIT INS]
     874 0000003a 2C08              CMP       V1, #8                ; [DPU_3_PIPE] |480|  ; [ORIG 16-BIT INS]
     875 0000003c DBE8              BLT       ||$C$L1||             ; [DPU_3_PIPE] |480|  ; [ORIG 16-BIT INS]
     876                            ; BRANCHCC OCCURS {||$C$L1||}    ; [] |480| 
     877                    ;* --------------------------------------------------------------------------*
     878                            .dwpsn  file "../Application/LaunchPad/CC13X0_LAUNCHXL.c",line 485,column 5,is_stmt,isa 1
     879 0000003e 4630              MOV       A1, V3                ; [DPU_3_PIPE] |485|  ; [ORIG 16-BIT INS]
     880 00000040 2114              MOVS      A2, #20               ; [DPU_3_PIPE] |485|  ; [ORIG 16-BIT INS]
TI ARM Assembler PC v16.9.4 Thu Apr 12 20:27:36 2018

Tools Copyright (c) 1996-2017 Texas Instruments Incorporated
C:\Users\Kevin\AppData\Local\Temp\{C001DE3B-F0FF-445D-8CCE-7D0EAD14970B} PAGE   17

     881 00000042 2201              MOVS      A3, #1                ; [DPU_3_PIPE] |485|  ; [ORIG 16-BIT INS]
     882                    $C$DW$58        .dwtag  DW_TAG_TI_branch
     883                            .dwattr $C$DW$58, DW_AT_low_pc(0x00)
     884                            .dwattr $C$DW$58, DW_AT_name("PIN_setOutputValue")
     885                            .dwattr $C$DW$58, DW_AT_TI_call
     886                    
     887 00000044 FFFEF7FF!         BL        PIN_setOutputValue    ; [DPU_3_PIPE] |485|  ; [KEEP 32-BIT INS]
     888                            ; CALL OCCURS {PIN_setOutputValue }  ; [] |485| 
     889                    $C$DW$59        .dwtag  DW_TAG_TI_branch
     890                            .dwattr $C$DW$59, DW_AT_low_pc(0x00)
     891                            .dwattr $C$DW$59, DW_AT_TI_return
     892                    
     893 00000048 BD70              POP       {V1, V2, V3, PC}      ; [DPU_3_PIPE]  ; [ORIG 16-BIT INS]
     894                            .dwcfi  cfa_offset, 0
     895                            ; BRANCH OCCURS                  ; [] 
     896                            .dwattr $C$DW$48, DW_AT_TI_end_file("../Application/LaunchPad/CC13X0_LAUNCHXL.c")
     897                            .dwattr $C$DW$48, DW_AT_TI_end_line(0x1e6)
     898                            .dwattr $C$DW$48, DW_AT_TI_end_column(0x01)
     899                            .dwendentry
     900                            .dwendtag $C$DW$48
     901                    
     902 00000000                   .sect   ".text:CC13X0_LAUNCHXL_shutDownExtFlash"
     903                            .clink
     904                            .thumbfunc CC13X0_LAUNCHXL_shutDownExtFlash
     905 00000000                   .thumb
     906                            .global CC13X0_LAUNCHXL_shutDownExtFlash
     907                    
     908                    $C$DW$60        .dwtag  DW_TAG_subprogram
     909                            .dwattr $C$DW$60, DW_AT_name("CC13X0_LAUNCHXL_shutDownExtFlash")
     910                            .dwattr $C$DW$60, DW_AT_low_pc(CC13X0_LAUNCHXL_shutDownExtFlash)
     911                            .dwattr $C$DW$60, DW_AT_high_pc(0x00)
     912                            .dwattr $C$DW$60, DW_AT_TI_symbol_name("CC13X0_LAUNCHXL_shutDownExtFlash")
     913                            .dwattr $C$DW$60, DW_AT_external
     914                            .dwattr $C$DW$60, DW_AT_TI_begin_file("../Application/LaunchPad/CC13X0_LAUNCHXL.c")
     915                            .dwattr $C$DW$60, DW_AT_TI_begin_line(0x1eb)
     916                            .dwattr $C$DW$60, DW_AT_TI_begin_column(0x06)
     917                            .dwattr $C$DW$60, DW_AT_decl_file("../Application/LaunchPad/CC13X0_LAUNCHXL.c")
     918                            .dwattr $C$DW$60, DW_AT_decl_line(0x1eb)
     919                            .dwattr $C$DW$60, DW_AT_decl_column(0x06)
     920                            .dwattr $C$DW$60, DW_AT_TI_max_frame_size(0x30)
     921                            .dwpsn  file "../Application/LaunchPad/CC13X0_LAUNCHXL.c",line 492,column 1,is_stmt,address CC
     922                    
     923                            .dwfde $C$DW$CIE, CC13X0_LAUNCHXL_shutDownExtFlash
     924                    
     925                    ;*****************************************************************************
     926                    ;* FUNCTION NAME: CC13X0_LAUNCHXL_shutDownExtFlash                           *
     927                    ;*                                                                           *
     928                    ;*   Regs Modified     : A1,A2,A3,A4,V1,V2,V9,SP,LR,SR                       *
     929                    ;*   Regs Used         : A1,A2,A3,A4,V1,V2,V9,SP,LR,SR                       *
     930                    ;*   Local Frame Size  : 0 Args + 32 Auto + 12 Save = 44 byte                *
     931                    ;*****************************************************************************
     932                    CC13X0_LAUNCHXL_shutDownExtFlash:
     933                    ;* --------------------------------------------------------------------------*
     934                    $C$DW$61        .dwtag  DW_TAG_variable
     935                            .dwattr $C$DW$61, DW_AT_name("extFlashPinTable")
TI ARM Assembler PC v16.9.4 Thu Apr 12 20:27:36 2018

Tools Copyright (c) 1996-2017 Texas Instruments Incorporated
C:\Users\Kevin\AppData\Local\Temp\{C001DE3B-F0FF-445D-8CCE-7D0EAD14970B} PAGE   18

     936                            .dwattr $C$DW$61, DW_AT_TI_symbol_name("extFlashPinTable")
     937                            .dwattr $C$DW$61, DW_AT_type(*$C$DW$T$1742)
     938                            .dwattr $C$DW$61, DW_AT_location[DW_OP_breg13 0]
     939                    
     940                    $C$DW$62        .dwtag  DW_TAG_variable
     941                            .dwattr $C$DW$62, DW_AT_name("extFlashPinState")
     942                            .dwattr $C$DW$62, DW_AT_TI_symbol_name("extFlashPinState")
     943                            .dwattr $C$DW$62, DW_AT_type(*$C$DW$T$412)
     944                            .dwattr $C$DW$62, DW_AT_location[DW_OP_breg13 20]
     945                    
     946                    ;* V1    assigned to extFlashPinHandle
     947                    $C$DW$63        .dwtag  DW_TAG_variable
     948                            .dwattr $C$DW$63, DW_AT_name("extFlashPinHandle")
     949                            .dwattr $C$DW$63, DW_AT_TI_symbol_name("extFlashPinHandle")
     950                            .dwattr $C$DW$63, DW_AT_type(*$C$DW$T$414)
     951                            .dwattr $C$DW$63, DW_AT_location[DW_OP_reg4]
     952                    
     953                            .dwcfi  cfa_offset, 0
     954                            .dwpsn  file "../Application/LaunchPad/CC13X0_LAUNCHXL.c",line 493,column 16,is_stmt,isa 1
     955 00000000 480D              LDR       A1, $C$CON1           ; [DPU_3_PIPE] |493|  ; [ORIG 16-BIT INS]
     956 00000002 B530              PUSH      {V1, V2, LR}          ; [DPU_3_PIPE]  ; [ORIG 16-BIT INS]
     957                            .dwcfi  cfa_offset, 12
     958                            .dwcfi  save_reg_to_mem, 14, -4
     959                            .dwcfi  save_reg_to_mem, 5, -8
     960                            .dwcfi  save_reg_to_mem, 4, -12
     961 00000004 C838              LDMIA     A1!, {V2, V1, A4}     ; [DPU_3_PIPE] |493|  ; [ORIG 16-BIT INS]
     962 00000006 0D24F1AD          SUB       SP, SP, #36           ; [DPU_3_PIPE]  ; [KEEP 32-BIT INS]
     963                            .dwcfi  cfa_offset, 48
     964 0000000a 466A              MOV       A3, SP                ; [DPU_3_PIPE] |493|  ; [ORIG 16-BIT INS]
     965 0000000c C238              STMIA     A3!, {V2, V1, A4}     ; [DPU_3_PIPE] |493|  ; [ORIG 16-BIT INS]
     966 0000000e C809              LDMIA     A1, {A4, A1}          ; [DPU_3_PIPE] |493|  ; [ORIG 16-BIT INS]
     967 00000010 4669              MOV       A2, SP                ; [DPU_3_PIPE] |493|  ; [ORIG 16-BIT INS]
     968 00000012 0009E882          STMIA     A3, {A4, A1}          ; [DPU_3_PIPE] |493|  ; [KEEP 32-BIT INS]
     969                            .dwpsn  file "../Application/LaunchPad/CC13X0_LAUNCHXL.c",line 501,column 34,is_stmt,isa 1
     970 00000016 A805              ADD       A1, SP, #20           ; [DPU_3_PIPE] |501|  ; [ORIG 16-BIT INS]
     971                    $C$DW$64        .dwtag  DW_TAG_TI_branch
     972                            .dwattr $C$DW$64, DW_AT_low_pc(0x00)
     973                            .dwattr $C$DW$64, DW_AT_name("PIN_open")
     974                            .dwattr $C$DW$64, DW_AT_TI_call
     975                    
     976 00000018 FFFEF7FF!         BL        PIN_open              ; [DPU_3_PIPE] |501|  ; [KEEP 32-BIT INS]
     977                            ; CALL OCCURS {PIN_open }        ; [] |501| 
     978                            .dwpsn  file "../Application/LaunchPad/CC13X0_LAUNCHXL.c",line 506,column 5,is_stmt,isa 1
     979 0000001c 21AB              MOVS      A2, #171              ; [DPU_3_PIPE] |506|  ; [ORIG 16-BIT INS]
     980                            .dwpsn  file "../Application/LaunchPad/CC13X0_LAUNCHXL.c",line 501,column 34,is_stmt,isa 1
     981 0000001e 4604              MOV       V1, A1                ; [DPU_3_PIPE] |501|  ; [ORIG 16-BIT INS]
     982                            .dwpsn  file "../Application/LaunchPad/CC13X0_LAUNCHXL.c",line 506,column 5,is_stmt,isa 1
     983                    $C$DW$65        .dwtag  DW_TAG_TI_branch
     984                            .dwattr $C$DW$65, DW_AT_low_pc(0x00)
     985                            .dwattr $C$DW$65, DW_AT_name("CC13X0_LAUNCHXL_sendExtFlashByte")
     986                            .dwattr $C$DW$65, DW_AT_TI_call
     987                    
     988 00000020 FFFEF7FF!         BL        CC13X0_LAUNCHXL_sendExtFlashByte ; [DPU_3_PIPE] |506|  ; [KEEP 32-BIT INS]
     989                            ; CALL OCCURS {CC13X0_LAUNCHXL_sendExtFlashByte }  ; [] |506| 
     990                            .dwpsn  file "../Application/LaunchPad/CC13X0_LAUNCHXL.c",line 507,column 5,is_stmt,isa 1
TI ARM Assembler PC v16.9.4 Thu Apr 12 20:27:36 2018

Tools Copyright (c) 1996-2017 Texas Instruments Incorporated
C:\Users\Kevin\AppData\Local\Temp\{C001DE3B-F0FF-445D-8CCE-7D0EAD14970B} PAGE   19

     991 00000024 21B9              MOVS      A2, #185              ; [DPU_3_PIPE] |507|  ; [ORIG 16-BIT INS]
     992 00000026 4620              MOV       A1, V1                ; [DPU_3_PIPE] |507|  ; [ORIG 16-BIT INS]
     993                    $C$DW$66        .dwtag  DW_TAG_TI_branch
     994                            .dwattr $C$DW$66, DW_AT_low_pc(0x00)
     995                            .dwattr $C$DW$66, DW_AT_name("CC13X0_LAUNCHXL_sendExtFlashByte")
     996                            .dwattr $C$DW$66, DW_AT_TI_call
     997                    
     998 00000028 FFFEF7FF!         BL        CC13X0_LAUNCHXL_sendExtFlashByte ; [DPU_3_PIPE] |507|  ; [KEEP 32-BIT INS]
     999                            ; CALL OCCURS {CC13X0_LAUNCHXL_sendExtFlashByte }  ; [] |507| 
    1000                            .dwpsn  file "../Application/LaunchPad/CC13X0_LAUNCHXL.c",line 509,column 5,is_stmt,isa 1
    1001 0000002c 4620              MOV       A1, V1                ; [DPU_3_PIPE] |509|  ; [ORIG 16-BIT INS]
    1002                    $C$DW$67        .dwtag  DW_TAG_TI_branch
    1003                            .dwattr $C$DW$67, DW_AT_low_pc(0x00)
    1004                            .dwattr $C$DW$67, DW_AT_name("PIN_close")
    1005                            .dwattr $C$DW$67, DW_AT_TI_call
    1006                    
    1007 0000002e FFFEF7FF!         BL        PIN_close             ; [DPU_3_PIPE] |509|  ; [KEEP 32-BIT INS]
    1008                            ; CALL OCCURS {PIN_close }       ; [] |509| 
    1009 00000032 B009              ADD       SP, SP, #36           ; [DPU_3_PIPE]  ; [ORIG 16-BIT INS]
    1010                            .dwcfi  cfa_offset, 12
    1011                    $C$DW$68        .dwtag  DW_TAG_TI_branch
    1012                            .dwattr $C$DW$68, DW_AT_low_pc(0x00)
    1013                            .dwattr $C$DW$68, DW_AT_TI_return
    1014                    
    1015 00000034 BD30              POP       {V1, V2, PC}          ; [DPU_3_PIPE]  ; [ORIG 16-BIT INS]
    1016                            .dwcfi  cfa_offset, 0
    1017                            ; BRANCH OCCURS                  ; [] 
    1018                            .dwattr $C$DW$60, DW_AT_TI_end_file("../Application/LaunchPad/CC13X0_LAUNCHXL.c")
    1019                            .dwattr $C$DW$60, DW_AT_TI_end_line(0x1fe)
    1020                            .dwattr $C$DW$60, DW_AT_TI_end_column(0x01)
    1021                            .dwendentry
    1022                            .dwendtag $C$DW$60
    1023                    
    1024                    ;******************************************************************************
    1025                    ;* CONSTANT TABLE                                                             *
    1026                    ;******************************************************************************
    1027 00000036                   .sect   ".text:CC13X0_LAUNCHXL_shutDownExtFlash"
    1028                            .align  4
    1029 00000036 000046C0! ||$C$CON1||:    .bits   ||$P$T0$1||,32
         0000003a 00000000 
    1030                    ;*****************************************************************************
    1031                    ;* UNDEFINED EXTERNAL REFERENCES                                             *
    1032                    ;*****************************************************************************
    1033                            .global PIN_open
    1034                            .global PIN_close
    1035                            .global PIN_setOutputValue
    1036                            .global PowerCC26XX_calibrate
    1037                            .global PowerCC26XX_standbyPolicy
    1038                            .global UARTCC26XX_fxnTable
    1039                            .global SPICC26XXDMA_fxnTable
    1040                            .global I2CCC26XX_fxnTable
    1041                    
    1042                    ;******************************************************************************
    1043                    ;* BUILD ATTRIBUTES                                                           *
    1044                    ;******************************************************************************
TI ARM Assembler PC v16.9.4 Thu Apr 12 20:27:36 2018

Tools Copyright (c) 1996-2017 Texas Instruments Incorporated
C:\Users\Kevin\AppData\Local\Temp\{C001DE3B-F0FF-445D-8CCE-7D0EAD14970B} PAGE   20

    1045                            .battr "aeabi", Tag_File, 1, Tag_ABI_PCS_wchar_t(2)
    1046                            .battr "aeabi", Tag_File, 1, Tag_ABI_FP_rounding(0)
    1047                            .battr "aeabi", Tag_File, 1, Tag_ABI_FP_denormal(0)
    1048                            .battr "aeabi", Tag_File, 1, Tag_ABI_FP_exceptions(0)
    1049                            .battr "aeabi", Tag_File, 1, Tag_ABI_FP_number_model(1)
    1050                            .battr "aeabi", Tag_File, 1, Tag_ABI_enum_size(1)
    1051                            .battr "aeabi", Tag_File, 1, Tag_ABI_optimization_goals(0)
    1052                            .battr "aeabi", Tag_File, 1, Tag_ABI_FP_optimization_goals(0)
    1053                            .battr "TI", Tag_File, 1, Tag_Bitfield_layout(0)
    1054                            .battr "aeabi", Tag_File, 1, Tag_ABI_VFP_args(3)
    1055                            .battr "TI", Tag_File, 1, Tag_FP_interface(1)
    1056                    
    1057                    ;******************************************************************************
    1058                    ;* TYPE INFORMATION                                                           *
    1059                    ;******************************************************************************
    1060                    
    1061                    $C$DW$T$352     .dwtag  DW_TAG_enumeration_type
    1062                            .dwattr $C$DW$T$352, DW_AT_byte_size(0x01)
    1063                    $C$DW$69        .dwtag  DW_TAG_enumerator
    1064                            .dwattr $C$DW$69, DW_AT_name("RF_PriorityHighest")
    1065                            .dwattr $C$DW$69, DW_AT_const_value(0x02)
    1066                            .dwattr $C$DW$69, DW_AT_decl_file("C:/ti/simplelink_cc13x0_sdk_1_50_00_08/source/ti/drivers/rf
    1067                            .dwattr $C$DW$69, DW_AT_decl_line(0x2c9)
    1068                            .dwattr $C$DW$69, DW_AT_decl_column(0x05)
    1069                    
    1070                    $C$DW$70        .dwtag  DW_TAG_enumerator
    1071                            .dwattr $C$DW$70, DW_AT_name("RF_PriorityHigh")
    1072                            .dwattr $C$DW$70, DW_AT_const_value(0x01)
    1073                            .dwattr $C$DW$70, DW_AT_decl_file("C:/ti/simplelink_cc13x0_sdk_1_50_00_08/source/ti/drivers/rf
    1074                            .dwattr $C$DW$70, DW_AT_decl_line(0x2ca)
    1075                            .dwattr $C$DW$70, DW_AT_decl_column(0x05)
    1076                    
    1077                    $C$DW$71        .dwtag  DW_TAG_enumerator
    1078                            .dwattr $C$DW$71, DW_AT_name("RF_PriorityNormal")
    1079                            .dwattr $C$DW$71, DW_AT_const_value(0x00)
    1080                            .dwattr $C$DW$71, DW_AT_decl_file("C:/ti/simplelink_cc13x0_sdk_1_50_00_08/source/ti/drivers/rf
    1081                            .dwattr $C$DW$71, DW_AT_decl_line(0x2cb)
    1082                            .dwattr $C$DW$71, DW_AT_decl_column(0x05)
    1083                    
    1084                            .dwattr $C$DW$T$352, DW_AT_decl_file("C:/ti/simplelink_cc13x0_sdk_1_50_00_08/source/ti/drivers
    1085                            .dwattr $C$DW$T$352, DW_AT_decl_line(0x2c8)
    1086                            .dwattr $C$DW$T$352, DW_AT_decl_column(0x0e)
    1087                            .dwendtag $C$DW$T$352
    1088                    
    1089                    $C$DW$T$353     .dwtag  DW_TAG_typedef
    1090                            .dwattr $C$DW$T$353, DW_AT_name("RF_Priority")
    1091                            .dwattr $C$DW$T$353, DW_AT_type(*$C$DW$T$352)
    1092                            .dwattr $C$DW$T$353, DW_AT_language(DW_LANG_C)
    1093                            .dwattr $C$DW$T$353, DW_AT_decl_file("C:/ti/simplelink_cc13x0_sdk_1_50_00_08/source/ti/drivers
    1094                            .dwattr $C$DW$T$353, DW_AT_decl_line(0x2cc)
    1095                            .dwattr $C$DW$T$353, DW_AT_decl_column(0x03)
    1096                    
    1097                    
    1098                    $C$DW$T$362     .dwtag  DW_TAG_enumeration_type
    1099                            .dwattr $C$DW$T$362, DW_AT_byte_size(0x01)
TI ARM Assembler PC v16.9.4 Thu Apr 12 20:27:36 2018

Tools Copyright (c) 1996-2017 Texas Instruments Incorporated
C:\Users\Kevin\AppData\Local\Temp\{C001DE3B-F0FF-445D-8CCE-7D0EAD14970B} PAGE   21

    1100                    $C$DW$72        .dwtag  DW_TAG_enumerator
    1101                            .dwattr $C$DW$72, DW_AT_name("RF_ClientEventPowerUpFinished")
    1102                            .dwattr $C$DW$72, DW_AT_const_value(0x01)
    1103                            .dwattr $C$DW$72, DW_AT_decl_file("C:/ti/simplelink_cc13x0_sdk_1_50_00_08/source/ti/drivers/rf
    1104                            .dwattr $C$DW$72, DW_AT_decl_line(0x319)
    1105                            .dwattr $C$DW$72, DW_AT_decl_column(0x05)
    1106                    
    1107                    $C$DW$73        .dwtag  DW_TAG_enumerator
    1108                            .dwattr $C$DW$73, DW_AT_name("RF_ClientEventRadioFree")
    1109                            .dwattr $C$DW$73, DW_AT_const_value(0x02)
    1110                            .dwattr $C$DW$73, DW_AT_decl_file("C:/ti/simplelink_cc13x0_sdk_1_50_00_08/source/ti/drivers/rf
    1111                            .dwattr $C$DW$73, DW_AT_decl_line(0x31a)
    1112                            .dwattr $C$DW$73, DW_AT_decl_column(0x05)
    1113                    
    1114                    $C$DW$74        .dwtag  DW_TAG_enumerator
    1115                            .dwattr $C$DW$74, DW_AT_name("RF_ClientEventSwitchClientEntered")
    1116                            .dwattr $C$DW$74, DW_AT_const_value(0x04)
    1117                            .dwattr $C$DW$74, DW_AT_decl_file("C:/ti/simplelink_cc13x0_sdk_1_50_00_08/source/ti/drivers/rf
    1118                            .dwattr $C$DW$74, DW_AT_decl_line(0x31e)
    1119                            .dwattr $C$DW$74, DW_AT_decl_column(0x05)
    1120                    
    1121                            .dwattr $C$DW$T$362, DW_AT_decl_file("C:/ti/simplelink_cc13x0_sdk_1_50_00_08/source/ti/drivers
    1122                            .dwattr $C$DW$T$362, DW_AT_decl_line(0x318)
    1123                            .dwattr $C$DW$T$362, DW_AT_decl_column(0x0e)
    1124                            .dwendtag $C$DW$T$362
    1125                    
    1126                    $C$DW$T$363     .dwtag  DW_TAG_typedef
    1127                            .dwattr $C$DW$T$363, DW_AT_name("RF_ClientEvent")
    1128                            .dwattr $C$DW$T$363, DW_AT_type(*$C$DW$T$362)
    1129                            .dwattr $C$DW$T$363, DW_AT_language(DW_LANG_C)
    1130                            .dwattr $C$DW$T$363, DW_AT_decl_file("C:/ti/simplelink_cc13x0_sdk_1_50_00_08/source/ti/drivers
    1131                            .dwattr $C$DW$T$363, DW_AT_decl_line(0x31f)
    1132                            .dwattr $C$DW$T$363, DW_AT_decl_column(0x03)
    1133                    
    1134                    
    1135                    $C$DW$T$1123    .dwtag  DW_TAG_enumeration_type
    1136                            .dwattr $C$DW$T$1123, DW_AT_byte_size(0x01)
    1137                    $C$DW$75        .dwtag  DW_TAG_enumerator
    1138                            .dwattr $C$DW$75, DW_AT_name("PIN_SUCCESS")
    1139                            .dwattr $C$DW$75, DW_AT_const_value(0x00)
    1140                            .dwattr $C$DW$75, DW_AT_decl_file("C:/ti/simplelink_cc13x0_sdk_1_50_00_08/source/ti/drivers/PI
    1141                            .dwattr $C$DW$75, DW_AT_decl_line(0x2b2)
    1142                            .dwattr $C$DW$75, DW_AT_decl_column(0x05)
    1143                    
    1144                    $C$DW$76        .dwtag  DW_TAG_enumerator
    1145                            .dwattr $C$DW$76, DW_AT_name("PIN_ALREADY_ALLOCATED")
    1146                            .dwattr $C$DW$76, DW_AT_const_value(0x01)
    1147                            .dwattr $C$DW$76, DW_AT_decl_file("C:/ti/simplelink_cc13x0_sdk_1_50_00_08/source/ti/drivers/PI
    1148                            .dwattr $C$DW$76, DW_AT_decl_line(0x2b3)
    1149                            .dwattr $C$DW$76, DW_AT_decl_column(0x05)
    1150                    
    1151                    $C$DW$77        .dwtag  DW_TAG_enumerator
    1152                            .dwattr $C$DW$77, DW_AT_name("PIN_NO_ACCESS")
    1153                            .dwattr $C$DW$77, DW_AT_const_value(0x02)
    1154                            .dwattr $C$DW$77, DW_AT_decl_file("C:/ti/simplelink_cc13x0_sdk_1_50_00_08/source/ti/drivers/PI
TI ARM Assembler PC v16.9.4 Thu Apr 12 20:27:36 2018

Tools Copyright (c) 1996-2017 Texas Instruments Incorporated
C:\Users\Kevin\AppData\Local\Temp\{C001DE3B-F0FF-445D-8CCE-7D0EAD14970B} PAGE   22

    1155                            .dwattr $C$DW$77, DW_AT_decl_line(0x2b4)
    1156                            .dwattr $C$DW$77, DW_AT_decl_column(0x05)
    1157                    
    1158                    $C$DW$78        .dwtag  DW_TAG_enumerator
    1159                            .dwattr $C$DW$78, DW_AT_name("PIN_UNSUPPORTED")
    1160                            .dwattr $C$DW$78, DW_AT_const_value(0x03)
    1161                            .dwattr $C$DW$78, DW_AT_decl_file("C:/ti/simplelink_cc13x0_sdk_1_50_00_08/source/ti/drivers/PI
    1162                            .dwattr $C$DW$78, DW_AT_decl_line(0x2b5)
    1163                            .dwattr $C$DW$78, DW_AT_decl_column(0x05)
    1164                    
    1165                            .dwattr $C$DW$T$1123, DW_AT_decl_file("C:/ti/simplelink_cc13x0_sdk_1_50_00_08/source/ti/driver
    1166                            .dwattr $C$DW$T$1123, DW_AT_decl_line(0x2b1)
    1167                            .dwattr $C$DW$T$1123, DW_AT_decl_column(0x0e)
    1168                            .dwendtag $C$DW$T$1123
    1169                    
    1170                    $C$DW$T$1124    .dwtag  DW_TAG_typedef
    1171                            .dwattr $C$DW$T$1124, DW_AT_name("PIN_Status")
    1172                            .dwattr $C$DW$T$1124, DW_AT_type(*$C$DW$T$1123)
    1173                            .dwattr $C$DW$T$1124, DW_AT_language(DW_LANG_C)
    1174                            .dwattr $C$DW$T$1124, DW_AT_decl_file("C:/ti/simplelink_cc13x0_sdk_1_50_00_08/source/ti/driver
    1175                            .dwattr $C$DW$T$1124, DW_AT_decl_line(0x2b6)
    1176                            .dwattr $C$DW$T$1124, DW_AT_decl_column(0x03)
    1177                    
    1178                    
    1179                    $C$DW$T$1128    .dwtag  DW_TAG_enumeration_type
    1180                            .dwattr $C$DW$T$1128, DW_AT_byte_size(0x01)
    1181                    $C$DW$79        .dwtag  DW_TAG_enumerator
    1182                            .dwattr $C$DW$79, DW_AT_name("RF_StatBusyError")
    1183                            .dwattr $C$DW$79, DW_AT_const_value(0x00)
    1184                            .dwattr $C$DW$79, DW_AT_decl_file("C:/ti/simplelink_cc13x0_sdk_1_50_00_08/source/ti/drivers/rf
    1185                            .dwattr $C$DW$79, DW_AT_decl_line(0x2d7)
    1186                            .dwattr $C$DW$79, DW_AT_decl_column(0x05)
    1187                    
    1188                    $C$DW$80        .dwtag  DW_TAG_enumerator
    1189                            .dwattr $C$DW$80, DW_AT_name("RF_StatRadioInactiveError")
    1190                            .dwattr $C$DW$80, DW_AT_const_value(0x01)
    1191                            .dwattr $C$DW$80, DW_AT_decl_file("C:/ti/simplelink_cc13x0_sdk_1_50_00_08/source/ti/drivers/rf
    1192                            .dwattr $C$DW$80, DW_AT_decl_line(0x2d8)
    1193                            .dwattr $C$DW$80, DW_AT_decl_column(0x05)
    1194                    
    1195                    $C$DW$81        .dwtag  DW_TAG_enumerator
    1196                            .dwattr $C$DW$81, DW_AT_name("RF_StatCmdDoneError")
    1197                            .dwattr $C$DW$81, DW_AT_const_value(0x02)
    1198                            .dwattr $C$DW$81, DW_AT_decl_file("C:/ti/simplelink_cc13x0_sdk_1_50_00_08/source/ti/drivers/rf
    1199                            .dwattr $C$DW$81, DW_AT_decl_line(0x2d9)
    1200                            .dwattr $C$DW$81, DW_AT_decl_column(0x05)
    1201                    
    1202                    $C$DW$82        .dwtag  DW_TAG_enumerator
    1203                            .dwattr $C$DW$82, DW_AT_name("RF_StatInvalidParamsError")
    1204                            .dwattr $C$DW$82, DW_AT_const_value(0x03)
    1205                            .dwattr $C$DW$82, DW_AT_decl_file("C:/ti/simplelink_cc13x0_sdk_1_50_00_08/source/ti/drivers/rf
    1206                            .dwattr $C$DW$82, DW_AT_decl_line(0x2da)
    1207                            .dwattr $C$DW$82, DW_AT_decl_column(0x05)
    1208                    
    1209                    $C$DW$83        .dwtag  DW_TAG_enumerator
TI ARM Assembler PC v16.9.4 Thu Apr 12 20:27:36 2018

Tools Copyright (c) 1996-2017 Texas Instruments Incorporated
C:\Users\Kevin\AppData\Local\Temp\{C001DE3B-F0FF-445D-8CCE-7D0EAD14970B} PAGE   23

    1210                            .dwattr $C$DW$83, DW_AT_name("RF_StatCmdEnded")
    1211                            .dwattr $C$DW$83, DW_AT_const_value(0x04)
    1212                            .dwattr $C$DW$83, DW_AT_decl_file("C:/ti/simplelink_cc13x0_sdk_1_50_00_08/source/ti/drivers/rf
    1213                            .dwattr $C$DW$83, DW_AT_decl_line(0x2db)
    1214                            .dwattr $C$DW$83, DW_AT_decl_column(0x05)
    1215                    
    1216                    $C$DW$84        .dwtag  DW_TAG_enumerator
    1217                            .dwattr $C$DW$84, DW_AT_name("RF_StatError")
    1218                            .dwattr $C$DW$84, DW_AT_const_value(0x80)
    1219                            .dwattr $C$DW$84, DW_AT_decl_file("C:/ti/simplelink_cc13x0_sdk_1_50_00_08/source/ti/drivers/rf
    1220                            .dwattr $C$DW$84, DW_AT_decl_line(0x2dc)
    1221                            .dwattr $C$DW$84, DW_AT_decl_column(0x05)
    1222                    
    1223                    $C$DW$85        .dwtag  DW_TAG_enumerator
    1224                            .dwattr $C$DW$85, DW_AT_name("RF_StatCmdDoneSuccess")
    1225                            .dwattr $C$DW$85, DW_AT_const_value(0x81)
    1226                            .dwattr $C$DW$85, DW_AT_decl_file("C:/ti/simplelink_cc13x0_sdk_1_50_00_08/source/ti/drivers/rf
    1227                            .dwattr $C$DW$85, DW_AT_decl_line(0x2dd)
    1228                            .dwattr $C$DW$85, DW_AT_decl_column(0x05)
    1229                    
    1230                    $C$DW$86        .dwtag  DW_TAG_enumerator
    1231                            .dwattr $C$DW$86, DW_AT_name("RF_StatCmdSch")
    1232                            .dwattr $C$DW$86, DW_AT_const_value(0x82)
    1233                            .dwattr $C$DW$86, DW_AT_decl_file("C:/ti/simplelink_cc13x0_sdk_1_50_00_08/source/ti/drivers/rf
    1234                            .dwattr $C$DW$86, DW_AT_decl_line(0x2de)
    1235                            .dwattr $C$DW$86, DW_AT_decl_column(0x05)
    1236                    
    1237                    $C$DW$87        .dwtag  DW_TAG_enumerator
    1238                            .dwattr $C$DW$87, DW_AT_name("RF_StatSuccess")
    1239                            .dwattr $C$DW$87, DW_AT_const_value(0x83)
    1240                            .dwattr $C$DW$87, DW_AT_decl_file("C:/ti/simplelink_cc13x0_sdk_1_50_00_08/source/ti/drivers/rf
    1241                            .dwattr $C$DW$87, DW_AT_decl_line(0x2df)
    1242                            .dwattr $C$DW$87, DW_AT_decl_column(0x05)
    1243                    
    1244                            .dwattr $C$DW$T$1128, DW_AT_decl_file("C:/ti/simplelink_cc13x0_sdk_1_50_00_08/source/ti/driver
    1245                            .dwattr $C$DW$T$1128, DW_AT_decl_line(0x2d6)
    1246                            .dwattr $C$DW$T$1128, DW_AT_decl_column(0x0e)
    1247                            .dwendtag $C$DW$T$1128
    1248                    
    1249                    $C$DW$T$1129    .dwtag  DW_TAG_typedef
    1250                            .dwattr $C$DW$T$1129, DW_AT_name("RF_Stat")
    1251                            .dwattr $C$DW$T$1129, DW_AT_type(*$C$DW$T$1128)
    1252                            .dwattr $C$DW$T$1129, DW_AT_language(DW_LANG_C)
    1253                            .dwattr $C$DW$T$1129, DW_AT_decl_file("C:/ti/simplelink_cc13x0_sdk_1_50_00_08/source/ti/driver
    1254                            .dwattr $C$DW$T$1129, DW_AT_decl_line(0x2e0)
    1255                            .dwattr $C$DW$T$1129, DW_AT_decl_column(0x03)
    1256                    
    1257                    
    1258                    $C$DW$T$1130    .dwtag  DW_TAG_enumeration_type
    1259                            .dwattr $C$DW$T$1130, DW_AT_byte_size(0x01)
    1260                    $C$DW$88        .dwtag  DW_TAG_enumerator
    1261                            .dwattr $C$DW$88, DW_AT_name("RF_GET_CURR_CMD")
    1262                            .dwattr $C$DW$88, DW_AT_const_value(0x00)
    1263                            .dwattr $C$DW$88, DW_AT_decl_file("C:/ti/simplelink_cc13x0_sdk_1_50_00_08/source/ti/drivers/rf
    1264                            .dwattr $C$DW$88, DW_AT_decl_line(0x3aa)
TI ARM Assembler PC v16.9.4 Thu Apr 12 20:27:36 2018

Tools Copyright (c) 1996-2017 Texas Instruments Incorporated
C:\Users\Kevin\AppData\Local\Temp\{C001DE3B-F0FF-445D-8CCE-7D0EAD14970B} PAGE   24

    1265                            .dwattr $C$DW$88, DW_AT_decl_column(0x05)
    1266                    
    1267                    $C$DW$89        .dwtag  DW_TAG_enumerator
    1268                            .dwattr $C$DW$89, DW_AT_name("RF_GET_AVAIL_RAT_CH")
    1269                            .dwattr $C$DW$89, DW_AT_const_value(0x01)
    1270                            .dwattr $C$DW$89, DW_AT_decl_file("C:/ti/simplelink_cc13x0_sdk_1_50_00_08/source/ti/drivers/rf
    1271                            .dwattr $C$DW$89, DW_AT_decl_line(0x3ab)
    1272                            .dwattr $C$DW$89, DW_AT_decl_column(0x05)
    1273                    
    1274                    $C$DW$90        .dwtag  DW_TAG_enumerator
    1275                            .dwattr $C$DW$90, DW_AT_name("RF_GET_RADIO_STATE")
    1276                            .dwattr $C$DW$90, DW_AT_const_value(0x02)
    1277                            .dwattr $C$DW$90, DW_AT_decl_file("C:/ti/simplelink_cc13x0_sdk_1_50_00_08/source/ti/drivers/rf
    1278                            .dwattr $C$DW$90, DW_AT_decl_line(0x3ac)
    1279                            .dwattr $C$DW$90, DW_AT_decl_column(0x05)
    1280                    
    1281                    $C$DW$91        .dwtag  DW_TAG_enumerator
    1282                            .dwattr $C$DW$91, DW_AT_name("RF_GET_SCHEDULE_MAP")
    1283                            .dwattr $C$DW$91, DW_AT_const_value(0x03)
    1284                            .dwattr $C$DW$91, DW_AT_decl_file("C:/ti/simplelink_cc13x0_sdk_1_50_00_08/source/ti/drivers/rf
    1285                            .dwattr $C$DW$91, DW_AT_decl_line(0x3ad)
    1286                            .dwattr $C$DW$91, DW_AT_decl_column(0x05)
    1287                    
    1288                            .dwattr $C$DW$T$1130, DW_AT_decl_file("C:/ti/simplelink_cc13x0_sdk_1_50_00_08/source/ti/driver
    1289                            .dwattr $C$DW$T$1130, DW_AT_decl_line(0x3a9)
    1290                            .dwattr $C$DW$T$1130, DW_AT_decl_column(0x0e)
    1291                            .dwendtag $C$DW$T$1130
    1292                    
    1293                    $C$DW$T$1131    .dwtag  DW_TAG_typedef
    1294                            .dwattr $C$DW$T$1131, DW_AT_name("RF_InfoType")
    1295                            .dwattr $C$DW$T$1131, DW_AT_type(*$C$DW$T$1130)
    1296                            .dwattr $C$DW$T$1131, DW_AT_language(DW_LANG_C)
    1297                            .dwattr $C$DW$T$1131, DW_AT_decl_file("C:/ti/simplelink_cc13x0_sdk_1_50_00_08/source/ti/driver
    1298                            .dwattr $C$DW$T$1131, DW_AT_decl_line(0x3ae)
    1299                            .dwattr $C$DW$T$1131, DW_AT_decl_column(0x03)
    1300                    
    1301                    
    1302                    $C$DW$T$110     .dwtag  DW_TAG_structure_type
    1303                            .dwattr $C$DW$T$110, DW_AT_byte_size(0x04)
    1304                    $C$DW$92        .dwtag  DW_TAG_member
    1305                            .dwattr $C$DW$92, DW_AT_type(*$C$DW$T$109)
    1306                            .dwattr $C$DW$92, DW_AT_name("hwiCpe0Priority")
    1307                            .dwattr $C$DW$92, DW_AT_TI_symbol_name("hwiCpe0Priority")
    1308                            .dwattr $C$DW$92, DW_AT_data_member_location[DW_OP_plus_uconst 0x0]
    1309                            .dwattr $C$DW$92, DW_AT_accessibility(DW_ACCESS_public)
    1310                            .dwattr $C$DW$92, DW_AT_decl_file("C:/ti/simplelink_cc13x0_sdk_1_50_00_08/source/ti/drivers/rf
    1311                            .dwattr $C$DW$92, DW_AT_decl_line(0x33b)
    1312                            .dwattr $C$DW$92, DW_AT_decl_column(0x15)
    1313                    
    1314                    $C$DW$93        .dwtag  DW_TAG_member
    1315                            .dwattr $C$DW$93, DW_AT_type(*$C$DW$T$109)
    1316                            .dwattr $C$DW$93, DW_AT_name("hwiHwPriority")
    1317                            .dwattr $C$DW$93, DW_AT_TI_symbol_name("hwiHwPriority")
    1318                            .dwattr $C$DW$93, DW_AT_data_member_location[DW_OP_plus_uconst 0x1]
    1319                            .dwattr $C$DW$93, DW_AT_accessibility(DW_ACCESS_public)
TI ARM Assembler PC v16.9.4 Thu Apr 12 20:27:36 2018

Tools Copyright (c) 1996-2017 Texas Instruments Incorporated
C:\Users\Kevin\AppData\Local\Temp\{C001DE3B-F0FF-445D-8CCE-7D0EAD14970B} PAGE   25

    1320                            .dwattr $C$DW$93, DW_AT_decl_file("C:/ti/simplelink_cc13x0_sdk_1_50_00_08/source/ti/drivers/rf
    1321                            .dwattr $C$DW$93, DW_AT_decl_line(0x33c)
    1322                            .dwattr $C$DW$93, DW_AT_decl_column(0x15)
    1323                    
    1324                    $C$DW$94        .dwtag  DW_TAG_member
    1325                            .dwattr $C$DW$94, DW_AT_type(*$C$DW$T$109)
    1326                            .dwattr $C$DW$94, DW_AT_name("swiCpe0Priority")
    1327                            .dwattr $C$DW$94, DW_AT_TI_symbol_name("swiCpe0Priority")
    1328                            .dwattr $C$DW$94, DW_AT_data_member_location[DW_OP_plus_uconst 0x2]
    1329                            .dwattr $C$DW$94, DW_AT_accessibility(DW_ACCESS_public)
    1330                            .dwattr $C$DW$94, DW_AT_decl_file("C:/ti/simplelink_cc13x0_sdk_1_50_00_08/source/ti/drivers/rf
    1331                            .dwattr $C$DW$94, DW_AT_decl_line(0x33d)
    1332                            .dwattr $C$DW$94, DW_AT_decl_column(0x15)
    1333                    
    1334                    $C$DW$95        .dwtag  DW_TAG_member
    1335                            .dwattr $C$DW$95, DW_AT_type(*$C$DW$T$109)
    1336                            .dwattr $C$DW$95, DW_AT_name("swiHwPriority")
    1337                            .dwattr $C$DW$95, DW_AT_TI_symbol_name("swiHwPriority")
    1338                            .dwattr $C$DW$95, DW_AT_data_member_location[DW_OP_plus_uconst 0x3]
    1339                            .dwattr $C$DW$95, DW_AT_accessibility(DW_ACCESS_public)
    1340                            .dwattr $C$DW$95, DW_AT_decl_file("C:/ti/simplelink_cc13x0_sdk_1_50_00_08/source/ti/drivers/rf
    1341                            .dwattr $C$DW$95, DW_AT_decl_line(0x33e)
    1342                            .dwattr $C$DW$95, DW_AT_decl_column(0x15)
    1343                    
    1344                            .dwattr $C$DW$T$110, DW_AT_decl_file("C:/ti/simplelink_cc13x0_sdk_1_50_00_08/source/ti/drivers
    1345                            .dwattr $C$DW$T$110, DW_AT_decl_line(0x33a)
    1346                            .dwattr $C$DW$T$110, DW_AT_decl_column(0x10)
    1347                            .dwendtag $C$DW$T$110
    1348                    
    1349                    $C$DW$T$1132    .dwtag  DW_TAG_typedef
    1350                            .dwattr $C$DW$T$1132, DW_AT_name("RFCC26XX_HWAttrs")
    1351                            .dwattr $C$DW$T$1132, DW_AT_type(*$C$DW$T$110)
    1352                            .dwattr $C$DW$T$1132, DW_AT_language(DW_LANG_C)
    1353                            .dwattr $C$DW$T$1132, DW_AT_decl_file("C:/ti/simplelink_cc13x0_sdk_1_50_00_08/source/ti/driver
    1354                            .dwattr $C$DW$T$1132, DW_AT_decl_line(0x33f)
    1355                            .dwattr $C$DW$T$1132, DW_AT_decl_column(0x03)
    1356                    
    1357                    $C$DW$T$1133    .dwtag  DW_TAG_const_type
    1358                            .dwattr $C$DW$T$1133, DW_AT_type(*$C$DW$T$1132)
    1359                    
    1360                    
    1361                    $C$DW$T$112     .dwtag  DW_TAG_structure_type
    1362                            .dwattr $C$DW$T$112, DW_AT_byte_size(0x08)
    1363                    $C$DW$96        .dwtag  DW_TAG_member
    1364                            .dwattr $C$DW$96, DW_AT_type(*$C$DW$T$111)
    1365                            .dwattr $C$DW$96, DW_AT_name("fg")
    1366                            .dwattr $C$DW$96, DW_AT_TI_symbol_name("fg")
    1367                            .dwattr $C$DW$96, DW_AT_data_member_location[DW_OP_plus_uconst 0x0]
    1368                            .dwattr $C$DW$96, DW_AT_accessibility(DW_ACCESS_public)
    1369                            .dwattr $C$DW$96, DW_AT_decl_file("C:/ti/simplelink_cc13x0_sdk_1_50_00_08/source/ti/display/Di
    1370                            .dwattr $C$DW$96, DW_AT_decl_line(0x53)
    1371                            .dwattr $C$DW$96, DW_AT_decl_column(0x0e)
    1372                    
    1373                    $C$DW$97        .dwtag  DW_TAG_member
    1374                            .dwattr $C$DW$97, DW_AT_type(*$C$DW$T$111)
TI ARM Assembler PC v16.9.4 Thu Apr 12 20:27:36 2018

Tools Copyright (c) 1996-2017 Texas Instruments Incorporated
C:\Users\Kevin\AppData\Local\Temp\{C001DE3B-F0FF-445D-8CCE-7D0EAD14970B} PAGE   26

    1375                            .dwattr $C$DW$97, DW_AT_name("bg")
    1376                            .dwattr $C$DW$97, DW_AT_TI_symbol_name("bg")
    1377                            .dwattr $C$DW$97, DW_AT_data_member_location[DW_OP_plus_uconst 0x4]
    1378                            .dwattr $C$DW$97, DW_AT_accessibility(DW_ACCESS_public)
    1379                            .dwattr $C$DW$97, DW_AT_decl_file("C:/ti/simplelink_cc13x0_sdk_1_50_00_08/source/ti/display/Di
    1380                            .dwattr $C$DW$97, DW_AT_decl_line(0x54)
    1381                            .dwattr $C$DW$97, DW_AT_decl_column(0x0e)
    1382                    
    1383                            .dwattr $C$DW$T$112, DW_AT_decl_file("C:/ti/simplelink_cc13x0_sdk_1_50_00_08/source/ti/display
    1384                            .dwattr $C$DW$T$112, DW_AT_decl_line(0x52)
    1385                            .dwattr $C$DW$T$112, DW_AT_decl_column(0x01)
    1386                            .dwendtag $C$DW$T$112
    1387                    
    1388                    $C$DW$T$418     .dwtag  DW_TAG_typedef
    1389                            .dwattr $C$DW$T$418, DW_AT_name("DisplaySharpColor_t")
    1390                            .dwattr $C$DW$T$418, DW_AT_type(*$C$DW$T$112)
    1391                            .dwattr $C$DW$T$418, DW_AT_language(DW_LANG_C)
    1392                            .dwattr $C$DW$T$418, DW_AT_decl_file("C:/ti/simplelink_cc13x0_sdk_1_50_00_08/source/ti/display
    1393                            .dwattr $C$DW$T$418, DW_AT_decl_line(0x55)
    1394                            .dwattr $C$DW$T$418, DW_AT_decl_column(0x03)
    1395                    
    1396                    
    1397                    $C$DW$T$116     .dwtag  DW_TAG_structure_type
    1398                            .dwattr $C$DW$T$116, DW_AT_byte_size(0x08)
    1399                    $C$DW$98        .dwtag  DW_TAG_member
    1400                            .dwattr $C$DW$98, DW_AT_type(*$C$DW$T$10)
    1401                            .dwattr $C$DW$98, DW_AT_name("length")
    1402                            .dwattr $C$DW$98, DW_AT_TI_symbol_name("length")
    1403                            .dwattr $C$DW$98, DW_AT_data_member_location[DW_OP_plus_uconst 0x0]
    1404                            .dwattr $C$DW$98, DW_AT_accessibility(DW_ACCESS_public)
    1405                            .dwattr $C$DW$98, DW_AT_decl_file("C:/ti/simplelink_cc13x0_sdk_1_50_00_08/kernel/tirtos/packag
    1406                            .dwattr $C$DW$98, DW_AT_decl_line(0x36f)
    1407                            .dwattr $C$DW$98, DW_AT_decl_column(0x16)
    1408                    
    1409                    $C$DW$99        .dwtag  DW_TAG_member
    1410                            .dwattr $C$DW$99, DW_AT_type(*$C$DW$T$115)
    1411                            .dwattr $C$DW$99, DW_AT_name("elem")
    1412                            .dwattr $C$DW$99, DW_AT_TI_symbol_name("elem")
    1413                            .dwattr $C$DW$99, DW_AT_data_member_location[DW_OP_plus_uconst 0x4]
    1414                            .dwattr $C$DW$99, DW_AT_accessibility(DW_ACCESS_public)
    1415                            .dwattr $C$DW$99, DW_AT_decl_file("C:/ti/simplelink_cc13x0_sdk_1_50_00_08/kernel/tirtos/packag
    1416                            .dwattr $C$DW$99, DW_AT_decl_line(0x36f)
    1417                            .dwattr $C$DW$99, DW_AT_decl_column(0x44)
    1418                    
    1419                            .dwattr $C$DW$T$116, DW_AT_decl_file("C:/ti/simplelink_cc13x0_sdk_1_50_00_08/kernel/tirtos/pac
    1420                            .dwattr $C$DW$T$116, DW_AT_decl_line(0x36f)
    1421                            .dwattr $C$DW$T$116, DW_AT_decl_column(0x10)
    1422                            .dwendtag $C$DW$T$116
    1423                    
    1424                    $C$DW$T$1134    .dwtag  DW_TAG_typedef
    1425                            .dwattr $C$DW$T$1134, DW_AT_name("__ARRAY1_ti_sysbios_family_arm_m3_Hwi_hooks")
    1426                            .dwattr $C$DW$T$1134, DW_AT_type(*$C$DW$T$116)
    1427                            .dwattr $C$DW$T$1134, DW_AT_language(DW_LANG_C)
    1428                            .dwattr $C$DW$T$1134, DW_AT_decl_file("C:/ti/simplelink_cc13x0_sdk_1_50_00_08/kernel/tirtos/pa
    1429                            .dwattr $C$DW$T$1134, DW_AT_decl_line(0x36f)
TI ARM Assembler PC v16.9.4 Thu Apr 12 20:27:36 2018

Tools Copyright (c) 1996-2017 Texas Instruments Incorporated
C:\Users\Kevin\AppData\Local\Temp\{C001DE3B-F0FF-445D-8CCE-7D0EAD14970B} PAGE   27

    1430                            .dwattr $C$DW$T$1134, DW_AT_decl_column(0x4c)
    1431                    
    1432                    
    1433                    $C$DW$T$119     .dwtag  DW_TAG_structure_type
    1434                            .dwattr $C$DW$T$119, DW_AT_byte_size(0x08)
    1435                    $C$DW$100       .dwtag  DW_TAG_member
    1436                            .dwattr $C$DW$100, DW_AT_type(*$C$DW$T$10)
    1437                            .dwattr $C$DW$100, DW_AT_name("length")
    1438                            .dwattr $C$DW$100, DW_AT_TI_symbol_name("length")
    1439                            .dwattr $C$DW$100, DW_AT_data_member_location[DW_OP_plus_uconst 0x0]
    1440                            .dwattr $C$DW$100, DW_AT_accessibility(DW_ACCESS_public)
    1441                            .dwattr $C$DW$100, DW_AT_decl_file("C:/ti/simplelink_cc13x0_sdk_1_50_00_08/kernel/tirtos/packa
    1442                            .dwattr $C$DW$100, DW_AT_decl_line(0x370)
    1443                            .dwattr $C$DW$100, DW_AT_decl_column(0x16)
    1444                    
    1445                    $C$DW$101       .dwtag  DW_TAG_member
    1446                            .dwattr $C$DW$101, DW_AT_type(*$C$DW$T$118)
    1447                            .dwattr $C$DW$101, DW_AT_name("elem")
    1448                            .dwattr $C$DW$101, DW_AT_TI_symbol_name("elem")
    1449                            .dwattr $C$DW$101, DW_AT_data_member_location[DW_OP_plus_uconst 0x4]
    1450                            .dwattr $C$DW$101, DW_AT_accessibility(DW_ACCESS_public)
    1451                            .dwattr $C$DW$101, DW_AT_decl_file("C:/ti/simplelink_cc13x0_sdk_1_50_00_08/kernel/tirtos/packa
    1452                            .dwattr $C$DW$101, DW_AT_decl_line(0x370)
    1453                            .dwattr $C$DW$101, DW_AT_decl_column(0x4a)
    1454                    
    1455                            .dwattr $C$DW$T$119, DW_AT_decl_file("C:/ti/simplelink_cc13x0_sdk_1_50_00_08/kernel/tirtos/pac
    1456                            .dwattr $C$DW$T$119, DW_AT_decl_line(0x370)
    1457                            .dwattr $C$DW$T$119, DW_AT_decl_column(0x10)
    1458                            .dwendtag $C$DW$T$119
    1459                    
    1460                    $C$DW$T$1135    .dwtag  DW_TAG_typedef
    1461                            .dwattr $C$DW$T$1135, DW_AT_name("__CARRAY1_ti_sysbios_family_arm_m3_Hwi_hooks")
    1462                            .dwattr $C$DW$T$1135, DW_AT_type(*$C$DW$T$119)
    1463                            .dwattr $C$DW$T$1135, DW_AT_language(DW_LANG_C)
    1464                            .dwattr $C$DW$T$1135, DW_AT_decl_file("C:/ti/simplelink_cc13x0_sdk_1_50_00_08/kernel/tirtos/pa
    1465                            .dwattr $C$DW$T$1135, DW_AT_decl_line(0x370)
    1466                            .dwattr $C$DW$T$1135, DW_AT_decl_column(0x52)
    1467                    
    1468                    $C$DW$T$1136    .dwtag  DW_TAG_typedef
    1469                            .dwattr $C$DW$T$1136, DW_AT_name("CT__ti_sysbios_family_arm_m3_Hwi_hooks")
    1470                            .dwattr $C$DW$T$1136, DW_AT_type(*$C$DW$T$1135)
    1471                            .dwattr $C$DW$T$1136, DW_AT_language(DW_LANG_C)
    1472                            .dwattr $C$DW$T$1136, DW_AT_decl_file("C:/ti/simplelink_cc13x0_sdk_1_50_00_08/kernel/tirtos/pa
    1473                            .dwattr $C$DW$T$1136, DW_AT_decl_line(0x372)
    1474                            .dwattr $C$DW$T$1136, DW_AT_decl_column(0x36)
    1475                    
    1476                    $C$DW$T$1137    .dwtag  DW_TAG_typedef
    1477                            .dwattr $C$DW$T$1137, DW_AT_name("__TA_ti_sysbios_family_arm_m3_Hwi_hooks")
    1478                            .dwattr $C$DW$T$1137, DW_AT_type(*$C$DW$T$1135)
    1479                            .dwattr $C$DW$T$1137, DW_AT_language(DW_LANG_C)
    1480                            .dwattr $C$DW$T$1137, DW_AT_decl_file("C:/ti/simplelink_cc13x0_sdk_1_50_00_08/kernel/tirtos/pa
    1481                            .dwattr $C$DW$T$1137, DW_AT_decl_line(0x371)
    1482                            .dwattr $C$DW$T$1137, DW_AT_decl_column(0x36)
    1483                    
    1484                    
TI ARM Assembler PC v16.9.4 Thu Apr 12 20:27:36 2018

Tools Copyright (c) 1996-2017 Texas Instruments Incorporated
C:\Users\Kevin\AppData\Local\Temp\{C001DE3B-F0FF-445D-8CCE-7D0EAD14970B} PAGE   28

    1485                    $C$DW$T$159     .dwtag  DW_TAG_structure_type
    1486                            .dwattr $C$DW$T$159, DW_AT_byte_size(0x4c)
    1487                    $C$DW$102       .dwtag  DW_TAG_member
    1488                            .dwattr $C$DW$102, DW_AT_type(*$C$DW$T$123)
    1489                            .dwattr $C$DW$102, DW_AT_name("Crc32")
    1490                            .dwattr $C$DW$102, DW_AT_TI_symbol_name("Crc32")
    1491                            .dwattr $C$DW$102, DW_AT_data_member_location[DW_OP_plus_uconst 0x0]
    1492                            .dwattr $C$DW$102, DW_AT_accessibility(DW_ACCESS_public)
    1493                            .dwattr $C$DW$102, DW_AT_decl_file("C:\ti\simplelink_cc13x0_sdk_1_50_00_08\source\ti\devices\c
    1494                            .dwattr $C$DW$102, DW_AT_decl_line(0x76)
    1495                            .dwattr $C$DW$102, DW_AT_decl_column(0x25)
    1496                    
    1497                    $C$DW$103       .dwtag  DW_TAG_member
    1498                            .dwattr $C$DW$103, DW_AT_type(*$C$DW$T$126)
    1499                            .dwattr $C$DW$103, DW_AT_name("FlashGetSize")
    1500                            .dwattr $C$DW$103, DW_AT_TI_symbol_name("FlashGetSize")
    1501                            .dwattr $C$DW$103, DW_AT_data_member_location[DW_OP_plus_uconst 0x4]
    1502                            .dwattr $C$DW$103, DW_AT_accessibility(DW_ACCESS_public)
    1503                            .dwattr $C$DW$103, DW_AT_decl_file("C:\ti\simplelink_cc13x0_sdk_1_50_00_08\source\ti\devices\c
    1504                            .dwattr $C$DW$103, DW_AT_decl_line(0x77)
    1505                            .dwattr $C$DW$103, DW_AT_decl_column(0x25)
    1506                    
    1507                    $C$DW$104       .dwtag  DW_TAG_member
    1508                            .dwattr $C$DW$104, DW_AT_type(*$C$DW$T$127)
    1509                            .dwattr $C$DW$104, DW_AT_name("GetChipId")
    1510                            .dwattr $C$DW$104, DW_AT_TI_symbol_name("GetChipId")
    1511                            .dwattr $C$DW$104, DW_AT_data_member_location[DW_OP_plus_uconst 0x8]
    1512                            .dwattr $C$DW$104, DW_AT_accessibility(DW_ACCESS_public)
    1513                            .dwattr $C$DW$104, DW_AT_decl_file("C:\ti\simplelink_cc13x0_sdk_1_50_00_08\source\ti\devices\c
    1514                            .dwattr $C$DW$104, DW_AT_decl_line(0x78)
    1515                            .dwattr $C$DW$104, DW_AT_decl_column(0x25)
    1516                    
    1517                    $C$DW$105       .dwtag  DW_TAG_member
    1518                            .dwattr $C$DW$105, DW_AT_type(*$C$DW$T$130)
    1519                            .dwattr $C$DW$105, DW_AT_name("ReservedLocation1")
    1520                            .dwattr $C$DW$105, DW_AT_TI_symbol_name("ReservedLocation1")
    1521                            .dwattr $C$DW$105, DW_AT_data_member_location[DW_OP_plus_uconst 0xc]
    1522                            .dwattr $C$DW$105, DW_AT_accessibility(DW_ACCESS_public)
    1523                            .dwattr $C$DW$105, DW_AT_decl_file("C:\ti\simplelink_cc13x0_sdk_1_50_00_08\source\ti\devices\c
    1524                            .dwattr $C$DW$105, DW_AT_decl_line(0x79)
    1525                            .dwattr $C$DW$105, DW_AT_decl_column(0x25)
    1526                    
    1527                    $C$DW$106       .dwtag  DW_TAG_member
    1528                            .dwattr $C$DW$106, DW_AT_type(*$C$DW$T$131)
    1529                            .dwattr $C$DW$106, DW_AT_name("ReservedLocation2")
    1530                            .dwattr $C$DW$106, DW_AT_TI_symbol_name("ReservedLocation2")
    1531                            .dwattr $C$DW$106, DW_AT_data_member_location[DW_OP_plus_uconst 0x10]
    1532                            .dwattr $C$DW$106, DW_AT_accessibility(DW_ACCESS_public)
    1533                            .dwattr $C$DW$106, DW_AT_decl_file("C:\ti\simplelink_cc13x0_sdk_1_50_00_08\source\ti\devices\c
    1534                            .dwattr $C$DW$106, DW_AT_decl_line(0x7a)
    1535                            .dwattr $C$DW$106, DW_AT_decl_column(0x25)
    1536                    
    1537                    $C$DW$107       .dwtag  DW_TAG_member
    1538                            .dwattr $C$DW$107, DW_AT_type(*$C$DW$T$132)
    1539                            .dwattr $C$DW$107, DW_AT_name("ReservedLocation3")
TI ARM Assembler PC v16.9.4 Thu Apr 12 20:27:36 2018

Tools Copyright (c) 1996-2017 Texas Instruments Incorporated
C:\Users\Kevin\AppData\Local\Temp\{C001DE3B-F0FF-445D-8CCE-7D0EAD14970B} PAGE   29

    1540                            .dwattr $C$DW$107, DW_AT_TI_symbol_name("ReservedLocation3")
    1541                            .dwattr $C$DW$107, DW_AT_data_member_location[DW_OP_plus_uconst 0x14]
    1542                            .dwattr $C$DW$107, DW_AT_accessibility(DW_ACCESS_public)
    1543                            .dwattr $C$DW$107, DW_AT_decl_file("C:\ti\simplelink_cc13x0_sdk_1_50_00_08\source\ti\devices\c
    1544                            .dwattr $C$DW$107, DW_AT_decl_line(0x7b)
    1545                            .dwattr $C$DW$107, DW_AT_decl_column(0x25)
    1546                    
    1547                    $C$DW$108       .dwtag  DW_TAG_member
    1548                            .dwattr $C$DW$108, DW_AT_type(*$C$DW$T$135)
    1549                            .dwattr $C$DW$108, DW_AT_name("ResetDevice")
    1550                            .dwattr $C$DW$108, DW_AT_TI_symbol_name("ResetDevice")
    1551                            .dwattr $C$DW$108, DW_AT_data_member_location[DW_OP_plus_uconst 0x18]
    1552                            .dwattr $C$DW$108, DW_AT_accessibility(DW_ACCESS_public)
    1553                            .dwattr $C$DW$108, DW_AT_decl_file("C:\ti\simplelink_cc13x0_sdk_1_50_00_08\source\ti\devices\c
    1554                            .dwattr $C$DW$108, DW_AT_decl_line(0x7c)
    1555                            .dwattr $C$DW$108, DW_AT_decl_column(0x25)
    1556                    
    1557                    $C$DW$109       .dwtag  DW_TAG_member
    1558                            .dwattr $C$DW$109, DW_AT_type(*$C$DW$T$140)
    1559                            .dwattr $C$DW$109, DW_AT_name("Fletcher32")
    1560                            .dwattr $C$DW$109, DW_AT_TI_symbol_name("Fletcher32")
    1561                            .dwattr $C$DW$109, DW_AT_data_member_location[DW_OP_plus_uconst 0x1c]
    1562                            .dwattr $C$DW$109, DW_AT_accessibility(DW_ACCESS_public)
    1563                            .dwattr $C$DW$109, DW_AT_decl_file("C:\ti\simplelink_cc13x0_sdk_1_50_00_08\source\ti\devices\c
    1564                            .dwattr $C$DW$109, DW_AT_decl_line(0x7d)
    1565                            .dwattr $C$DW$109, DW_AT_decl_column(0x25)
    1566                    
    1567                    $C$DW$110       .dwtag  DW_TAG_member
    1568                            .dwattr $C$DW$110, DW_AT_type(*$C$DW$T$144)
    1569                            .dwattr $C$DW$110, DW_AT_name("MinValue")
    1570                            .dwattr $C$DW$110, DW_AT_TI_symbol_name("MinValue")
    1571                            .dwattr $C$DW$110, DW_AT_data_member_location[DW_OP_plus_uconst 0x20]
    1572                            .dwattr $C$DW$110, DW_AT_accessibility(DW_ACCESS_public)
    1573                            .dwattr $C$DW$110, DW_AT_decl_file("C:\ti\simplelink_cc13x0_sdk_1_50_00_08\source\ti\devices\c
    1574                            .dwattr $C$DW$110, DW_AT_decl_line(0x7e)
    1575                            .dwattr $C$DW$110, DW_AT_decl_column(0x25)
    1576                    
    1577                    $C$DW$111       .dwtag  DW_TAG_member
    1578                            .dwattr $C$DW$111, DW_AT_type(*$C$DW$T$145)
    1579                            .dwattr $C$DW$111, DW_AT_name("MaxValue")
    1580                            .dwattr $C$DW$111, DW_AT_TI_symbol_name("MaxValue")
    1581                            .dwattr $C$DW$111, DW_AT_data_member_location[DW_OP_plus_uconst 0x24]
    1582                            .dwattr $C$DW$111, DW_AT_accessibility(DW_ACCESS_public)
    1583                            .dwattr $C$DW$111, DW_AT_decl_file("C:\ti\simplelink_cc13x0_sdk_1_50_00_08\source\ti\devices\c
    1584                            .dwattr $C$DW$111, DW_AT_decl_line(0x7f)
    1585                            .dwattr $C$DW$111, DW_AT_decl_column(0x25)
    1586                    
    1587                    $C$DW$112       .dwtag  DW_TAG_member
    1588                            .dwattr $C$DW$112, DW_AT_type(*$C$DW$T$146)
    1589                            .dwattr $C$DW$112, DW_AT_name("MeanValue")
    1590                            .dwattr $C$DW$112, DW_AT_TI_symbol_name("MeanValue")
    1591                            .dwattr $C$DW$112, DW_AT_data_member_location[DW_OP_plus_uconst 0x28]
    1592                            .dwattr $C$DW$112, DW_AT_accessibility(DW_ACCESS_public)
    1593                            .dwattr $C$DW$112, DW_AT_decl_file("C:\ti\simplelink_cc13x0_sdk_1_50_00_08\source\ti\devices\c
    1594                            .dwattr $C$DW$112, DW_AT_decl_line(0x80)
TI ARM Assembler PC v16.9.4 Thu Apr 12 20:27:36 2018

Tools Copyright (c) 1996-2017 Texas Instruments Incorporated
C:\Users\Kevin\AppData\Local\Temp\{C001DE3B-F0FF-445D-8CCE-7D0EAD14970B} PAGE   30

    1595                            .dwattr $C$DW$112, DW_AT_decl_column(0x25)
    1596                    
    1597                    $C$DW$113       .dwtag  DW_TAG_member
    1598                            .dwattr $C$DW$113, DW_AT_type(*$C$DW$T$147)
    1599                            .dwattr $C$DW$113, DW_AT_name("StandDeviationValue")
    1600                            .dwattr $C$DW$113, DW_AT_TI_symbol_name("StandDeviationValue")
    1601                            .dwattr $C$DW$113, DW_AT_data_member_location[DW_OP_plus_uconst 0x2c]
    1602                            .dwattr $C$DW$113, DW_AT_accessibility(DW_ACCESS_public)
    1603                            .dwattr $C$DW$113, DW_AT_decl_file("C:\ti\simplelink_cc13x0_sdk_1_50_00_08\source\ti\devices\c
    1604                            .dwattr $C$DW$113, DW_AT_decl_line(0x81)
    1605                            .dwattr $C$DW$113, DW_AT_decl_column(0x25)
    1606                    
    1607                    $C$DW$114       .dwtag  DW_TAG_member
    1608                            .dwattr $C$DW$114, DW_AT_type(*$C$DW$T$150)
    1609                            .dwattr $C$DW$114, DW_AT_name("ReservedLocation4")
    1610                            .dwattr $C$DW$114, DW_AT_TI_symbol_name("ReservedLocation4")
    1611                            .dwattr $C$DW$114, DW_AT_data_member_location[DW_OP_plus_uconst 0x30]
    1612                            .dwattr $C$DW$114, DW_AT_accessibility(DW_ACCESS_public)
    1613                            .dwattr $C$DW$114, DW_AT_decl_file("C:\ti\simplelink_cc13x0_sdk_1_50_00_08\source\ti\devices\c
    1614                            .dwattr $C$DW$114, DW_AT_decl_line(0x82)
    1615                            .dwattr $C$DW$114, DW_AT_decl_column(0x25)
    1616                    
    1617                    $C$DW$115       .dwtag  DW_TAG_member
    1618                            .dwattr $C$DW$115, DW_AT_type(*$C$DW$T$151)
    1619                            .dwattr $C$DW$115, DW_AT_name("ReservedLocation5")
    1620                            .dwattr $C$DW$115, DW_AT_TI_symbol_name("ReservedLocation5")
    1621                            .dwattr $C$DW$115, DW_AT_data_member_location[DW_OP_plus_uconst 0x34]
    1622                            .dwattr $C$DW$115, DW_AT_accessibility(DW_ACCESS_public)
    1623                            .dwattr $C$DW$115, DW_AT_decl_file("C:\ti\simplelink_cc13x0_sdk_1_50_00_08\source\ti\devices\c
    1624                            .dwattr $C$DW$115, DW_AT_decl_line(0x83)
    1625                            .dwattr $C$DW$115, DW_AT_decl_column(0x25)
    1626                    
    1627                    $C$DW$116       .dwtag  DW_TAG_member
    1628                            .dwattr $C$DW$116, DW_AT_type(*$C$DW$T$152)
    1629                            .dwattr $C$DW$116, DW_AT_name("HFSourceSafeSwitch")
    1630                            .dwattr $C$DW$116, DW_AT_TI_symbol_name("HFSourceSafeSwitch")
    1631                            .dwattr $C$DW$116, DW_AT_data_member_location[DW_OP_plus_uconst 0x38]
    1632                            .dwattr $C$DW$116, DW_AT_accessibility(DW_ACCESS_public)
    1633                            .dwattr $C$DW$116, DW_AT_decl_file("C:\ti\simplelink_cc13x0_sdk_1_50_00_08\source\ti\devices\c
    1634                            .dwattr $C$DW$116, DW_AT_decl_line(0x84)
    1635                            .dwattr $C$DW$116, DW_AT_decl_column(0x25)
    1636                    
    1637                    $C$DW$117       .dwtag  DW_TAG_member
    1638                            .dwattr $C$DW$117, DW_AT_type(*$C$DW$T$155)
    1639                            .dwattr $C$DW$117, DW_AT_name("SelectCompAInput")
    1640                            .dwattr $C$DW$117, DW_AT_TI_symbol_name("SelectCompAInput")
    1641                            .dwattr $C$DW$117, DW_AT_data_member_location[DW_OP_plus_uconst 0x3c]
    1642                            .dwattr $C$DW$117, DW_AT_accessibility(DW_ACCESS_public)
    1643                            .dwattr $C$DW$117, DW_AT_decl_file("C:\ti\simplelink_cc13x0_sdk_1_50_00_08\source\ti\devices\c
    1644                            .dwattr $C$DW$117, DW_AT_decl_line(0x85)
    1645                            .dwattr $C$DW$117, DW_AT_decl_column(0x25)
    1646                    
    1647                    $C$DW$118       .dwtag  DW_TAG_member
    1648                            .dwattr $C$DW$118, DW_AT_type(*$C$DW$T$156)
    1649                            .dwattr $C$DW$118, DW_AT_name("SelectCompARef")
TI ARM Assembler PC v16.9.4 Thu Apr 12 20:27:36 2018

Tools Copyright (c) 1996-2017 Texas Instruments Incorporated
C:\Users\Kevin\AppData\Local\Temp\{C001DE3B-F0FF-445D-8CCE-7D0EAD14970B} PAGE   31

    1650                            .dwattr $C$DW$118, DW_AT_TI_symbol_name("SelectCompARef")
    1651                            .dwattr $C$DW$118, DW_AT_data_member_location[DW_OP_plus_uconst 0x40]
    1652                            .dwattr $C$DW$118, DW_AT_accessibility(DW_ACCESS_public)
    1653                            .dwattr $C$DW$118, DW_AT_decl_file("C:\ti\simplelink_cc13x0_sdk_1_50_00_08\source\ti\devices\c
    1654                            .dwattr $C$DW$118, DW_AT_decl_line(0x86)
    1655                            .dwattr $C$DW$118, DW_AT_decl_column(0x25)
    1656                    
    1657                    $C$DW$119       .dwtag  DW_TAG_member
    1658                            .dwattr $C$DW$119, DW_AT_type(*$C$DW$T$157)
    1659                            .dwattr $C$DW$119, DW_AT_name("SelectADCCompBInput")
    1660                            .dwattr $C$DW$119, DW_AT_TI_symbol_name("SelectADCCompBInput")
    1661                            .dwattr $C$DW$119, DW_AT_data_member_location[DW_OP_plus_uconst 0x44]
    1662                            .dwattr $C$DW$119, DW_AT_accessibility(DW_ACCESS_public)
    1663                            .dwattr $C$DW$119, DW_AT_decl_file("C:\ti\simplelink_cc13x0_sdk_1_50_00_08\source\ti\devices\c
    1664                            .dwattr $C$DW$119, DW_AT_decl_line(0x87)
    1665                            .dwattr $C$DW$119, DW_AT_decl_column(0x25)
    1666                    
    1667                    $C$DW$120       .dwtag  DW_TAG_member
    1668                            .dwattr $C$DW$120, DW_AT_type(*$C$DW$T$158)
    1669                            .dwattr $C$DW$120, DW_AT_name("SelectCompBRef")
    1670                            .dwattr $C$DW$120, DW_AT_TI_symbol_name("SelectCompBRef")
    1671                            .dwattr $C$DW$120, DW_AT_data_member_location[DW_OP_plus_uconst 0x48]
    1672                            .dwattr $C$DW$120, DW_AT_accessibility(DW_ACCESS_public)
    1673                            .dwattr $C$DW$120, DW_AT_decl_file("C:\ti\simplelink_cc13x0_sdk_1_50_00_08\source\ti\devices\c
    1674                            .dwattr $C$DW$120, DW_AT_decl_line(0x88)
    1675                            .dwattr $C$DW$120, DW_AT_decl_column(0x25)
    1676                    
    1677                            .dwattr $C$DW$T$159, DW_AT_decl_file("C:\ti\simplelink_cc13x0_sdk_1_50_00_08\source\ti\devices
    1678                            .dwattr $C$DW$T$159, DW_AT_decl_line(0x75)
    1679                            .dwattr $C$DW$T$159, DW_AT_decl_column(0x01)
    1680                            .dwendtag $C$DW$T$159
    1681                    
    1682                    $C$DW$T$1138    .dwtag  DW_TAG_typedef
    1683                            .dwattr $C$DW$T$1138, DW_AT_name("HARD_API_T")
    1684                            .dwattr $C$DW$T$1138, DW_AT_type(*$C$DW$T$159)
    1685                            .dwattr $C$DW$T$1138, DW_AT_language(DW_LANG_C)
    1686                            .dwattr $C$DW$T$1138, DW_AT_decl_file("C:\ti\simplelink_cc13x0_sdk_1_50_00_08\source\ti\device
    1687                            .dwattr $C$DW$T$1138, DW_AT_decl_line(0x89)
    1688                            .dwattr $C$DW$T$1138, DW_AT_decl_column(0x03)
    1689                    
    1690                    
    1691                    $C$DW$T$163     .dwtag  DW_TAG_structure_type
    1692                            .dwattr $C$DW$T$163, DW_AT_byte_size(0x10)
    1693                    $C$DW$121       .dwtag  DW_TAG_member
    1694                            .dwattr $C$DW$121, DW_AT_type(*$C$DW$T$161)
    1695                            .dwattr $C$DW$121, DW_AT_name("pvSrcEndAddr")
    1696                            .dwattr $C$DW$121, DW_AT_TI_symbol_name("pvSrcEndAddr")
    1697                            .dwattr $C$DW$121, DW_AT_data_member_location[DW_OP_plus_uconst 0x0]
    1698                            .dwattr $C$DW$121, DW_AT_accessibility(DW_ACCESS_public)
    1699                            .dwattr $C$DW$121, DW_AT_decl_file("C:/ti/simplelink_cc13x0_sdk_1_50_00_08/source/ti/devices/c
    1700                            .dwattr $C$DW$121, DW_AT_decl_line(0x69)
    1701                            .dwattr $C$DW$121, DW_AT_decl_column(0x14)
    1702                    
    1703                    $C$DW$122       .dwtag  DW_TAG_member
    1704                            .dwattr $C$DW$122, DW_AT_type(*$C$DW$T$161)
TI ARM Assembler PC v16.9.4 Thu Apr 12 20:27:36 2018

Tools Copyright (c) 1996-2017 Texas Instruments Incorporated
C:\Users\Kevin\AppData\Local\Temp\{C001DE3B-F0FF-445D-8CCE-7D0EAD14970B} PAGE   32

    1705                            .dwattr $C$DW$122, DW_AT_name("pvDstEndAddr")
    1706                            .dwattr $C$DW$122, DW_AT_TI_symbol_name("pvDstEndAddr")
    1707                            .dwattr $C$DW$122, DW_AT_data_member_location[DW_OP_plus_uconst 0x4]
    1708                            .dwattr $C$DW$122, DW_AT_accessibility(DW_ACCESS_public)
    1709                            .dwattr $C$DW$122, DW_AT_decl_file("C:/ti/simplelink_cc13x0_sdk_1_50_00_08/source/ti/devices/c
    1710                            .dwattr $C$DW$122, DW_AT_decl_line(0x6a)
    1711                            .dwattr $C$DW$122, DW_AT_decl_column(0x14)
    1712                    
    1713                    $C$DW$123       .dwtag  DW_TAG_member
    1714                            .dwattr $C$DW$123, DW_AT_type(*$C$DW$T$162)
    1715                            .dwattr $C$DW$123, DW_AT_name("ui32Control")
    1716                            .dwattr $C$DW$123, DW_AT_TI_symbol_name("ui32Control")
    1717                            .dwattr $C$DW$123, DW_AT_data_member_location[DW_OP_plus_uconst 0x8]
    1718                            .dwattr $C$DW$123, DW_AT_accessibility(DW_ACCESS_public)
    1719                            .dwattr $C$DW$123, DW_AT_decl_file("C:/ti/simplelink_cc13x0_sdk_1_50_00_08/source/ti/devices/c
    1720                            .dwattr $C$DW$123, DW_AT_decl_line(0x6b)
    1721                            .dwattr $C$DW$123, DW_AT_decl_column(0x17)
    1722                    
    1723                    $C$DW$124       .dwtag  DW_TAG_member
    1724                            .dwattr $C$DW$124, DW_AT_type(*$C$DW$T$162)
    1725                            .dwattr $C$DW$124, DW_AT_name("ui32Spare")
    1726                            .dwattr $C$DW$124, DW_AT_TI_symbol_name("ui32Spare")
    1727                            .dwattr $C$DW$124, DW_AT_data_member_location[DW_OP_plus_uconst 0xc]
    1728                            .dwattr $C$DW$124, DW_AT_accessibility(DW_ACCESS_public)
    1729                            .dwattr $C$DW$124, DW_AT_decl_file("C:/ti/simplelink_cc13x0_sdk_1_50_00_08/source/ti/devices/c
    1730                            .dwattr $C$DW$124, DW_AT_decl_line(0x6c)
    1731                            .dwattr $C$DW$124, DW_AT_decl_column(0x17)
    1732                    
    1733                            .dwattr $C$DW$T$163, DW_AT_decl_file("C:/ti/simplelink_cc13x0_sdk_1_50_00_08/source/ti/devices
    1734                            .dwattr $C$DW$T$163, DW_AT_decl_line(0x68)
    1735                            .dwattr $C$DW$T$163, DW_AT_decl_column(0x01)
    1736                            .dwendtag $C$DW$T$163
    1737                    
    1738                    $C$DW$T$1139    .dwtag  DW_TAG_typedef
    1739                            .dwattr $C$DW$T$1139, DW_AT_name("tDMAControlTable")
    1740                            .dwattr $C$DW$T$1139, DW_AT_type(*$C$DW$T$163)
    1741                            .dwattr $C$DW$T$1139, DW_AT_language(DW_LANG_C)
    1742                            .dwattr $C$DW$T$1139, DW_AT_decl_file("C:/ti/simplelink_cc13x0_sdk_1_50_00_08/source/ti/device
    1743                            .dwattr $C$DW$T$1139, DW_AT_decl_line(0x6e)
    1744                            .dwattr $C$DW$T$1139, DW_AT_decl_column(0x01)
    1745                    
    1746                    
    1747                    $C$DW$T$164     .dwtag  DW_TAG_structure_type
    1748                            .dwattr $C$DW$T$164, DW_AT_byte_size(0x08)
    1749                    $C$DW$125       .dwtag  DW_TAG_member
    1750                            .dwattr $C$DW$125, DW_AT_type(*$C$DW$T$120)
    1751                            .dwattr $C$DW$125, DW_AT_name("pCurrEntry")
    1752                            .dwattr $C$DW$125, DW_AT_TI_symbol_name("pCurrEntry")
    1753                            .dwattr $C$DW$125, DW_AT_data_member_location[DW_OP_plus_uconst 0x0]
    1754                            .dwattr $C$DW$125, DW_AT_accessibility(DW_ACCESS_public)
    1755                            .dwattr $C$DW$125, DW_AT_decl_file("C:\ti\simplelink_cc13x0_sdk_1_50_00_08\source\ti\devices\c
    1756                            .dwattr $C$DW$125, DW_AT_decl_line(0x41)
    1757                            .dwattr $C$DW$125, DW_AT_decl_column(0x0d)
    1758                    
    1759                    $C$DW$126       .dwtag  DW_TAG_member
TI ARM Assembler PC v16.9.4 Thu Apr 12 20:27:36 2018

Tools Copyright (c) 1996-2017 Texas Instruments Incorporated
C:\Users\Kevin\AppData\Local\Temp\{C001DE3B-F0FF-445D-8CCE-7D0EAD14970B} PAGE   33

    1760                            .dwattr $C$DW$126, DW_AT_type(*$C$DW$T$120)
    1761                            .dwattr $C$DW$126, DW_AT_name("pLastEntry")
    1762                            .dwattr $C$DW$126, DW_AT_TI_symbol_name("pLastEntry")
    1763                            .dwattr $C$DW$126, DW_AT_data_member_location[DW_OP_plus_uconst 0x4]
    1764                            .dwattr $C$DW$126, DW_AT_accessibility(DW_ACCESS_public)
    1765                            .dwattr $C$DW$126, DW_AT_decl_file("C:\ti\simplelink_cc13x0_sdk_1_50_00_08\source\ti\devices\c
    1766                            .dwattr $C$DW$126, DW_AT_decl_line(0x42)
    1767                            .dwattr $C$DW$126, DW_AT_decl_column(0x0d)
    1768                    
    1769                            .dwattr $C$DW$T$164, DW_AT_decl_file("C:\ti\simplelink_cc13x0_sdk_1_50_00_08\source\ti\devices
    1770                            .dwattr $C$DW$T$164, DW_AT_decl_line(0x40)
    1771                            .dwattr $C$DW$T$164, DW_AT_decl_column(0x10)
    1772                            .dwendtag $C$DW$T$164
    1773                    
    1774                    $C$DW$T$692     .dwtag  DW_TAG_typedef
    1775                            .dwattr $C$DW$T$692, DW_AT_name("dataQueue_t")
    1776                            .dwattr $C$DW$T$692, DW_AT_type(*$C$DW$T$164)
    1777                            .dwattr $C$DW$T$692, DW_AT_language(DW_LANG_C)
    1778                            .dwattr $C$DW$T$692, DW_AT_decl_file("C:\ti\simplelink_cc13x0_sdk_1_50_00_08\source\ti\devices
    1779                            .dwattr $C$DW$T$692, DW_AT_decl_line(0x43)
    1780                            .dwattr $C$DW$T$692, DW_AT_decl_column(0x03)
    1781                    
    1782                    $C$DW$T$693     .dwtag  DW_TAG_pointer_type
    1783                            .dwattr $C$DW$T$693, DW_AT_type(*$C$DW$T$692)
    1784                            .dwattr $C$DW$T$693, DW_AT_address_class(0x20)
    1785                    
    1786                    
    1787                    $C$DW$T$165     .dwtag  DW_TAG_structure_type
    1788                            .dwattr $C$DW$T$165, DW_AT_byte_size(0x01)
    1789                    $C$DW$127       .dwtag  DW_TAG_member
    1790                            .dwattr $C$DW$127, DW_AT_type(*$C$DW$T$109)
    1791                            .dwattr $C$DW$127, DW_AT_name("triggerType")
    1792                            .dwattr $C$DW$127, DW_AT_TI_symbol_name("triggerType")
    1793                            .dwattr $C$DW$127, DW_AT_bit_offset(0x04)
    1794                            .dwattr $C$DW$127, DW_AT_bit_size(0x04)
    1795                            .dwattr $C$DW$127, DW_AT_data_member_location[DW_OP_plus_uconst 0x0]
    1796                            .dwattr $C$DW$127, DW_AT_accessibility(DW_ACCESS_public)
    1797                            .dwattr $C$DW$127, DW_AT_decl_file("C:/ti/simplelink_cc13x0_sdk_1_50_00_08/source/ti/devices/c
    1798                            .dwattr $C$DW$127, DW_AT_decl_line(0x77)
    1799                            .dwattr $C$DW$127, DW_AT_decl_column(0x0f)
    1800                    
    1801                    $C$DW$128       .dwtag  DW_TAG_member
    1802                            .dwattr $C$DW$128, DW_AT_type(*$C$DW$T$109)
    1803                            .dwattr $C$DW$128, DW_AT_name("bEnaCmd")
    1804                            .dwattr $C$DW$128, DW_AT_TI_symbol_name("bEnaCmd")
    1805                            .dwattr $C$DW$128, DW_AT_bit_offset(0x03)
    1806                            .dwattr $C$DW$128, DW_AT_bit_size(0x01)
    1807                            .dwattr $C$DW$128, DW_AT_data_member_location[DW_OP_plus_uconst 0x0]
    1808                            .dwattr $C$DW$128, DW_AT_accessibility(DW_ACCESS_public)
    1809                            .dwattr $C$DW$128, DW_AT_decl_file("C:/ti/simplelink_cc13x0_sdk_1_50_00_08/source/ti/devices/c
    1810                            .dwattr $C$DW$128, DW_AT_decl_line(0x78)
    1811                            .dwattr $C$DW$128, DW_AT_decl_column(0x0f)
    1812                    
    1813                    $C$DW$129       .dwtag  DW_TAG_member
    1814                            .dwattr $C$DW$129, DW_AT_type(*$C$DW$T$109)
TI ARM Assembler PC v16.9.4 Thu Apr 12 20:27:36 2018

Tools Copyright (c) 1996-2017 Texas Instruments Incorporated
C:\Users\Kevin\AppData\Local\Temp\{C001DE3B-F0FF-445D-8CCE-7D0EAD14970B} PAGE   34

    1815                            .dwattr $C$DW$129, DW_AT_name("triggerNo")
    1816                            .dwattr $C$DW$129, DW_AT_TI_symbol_name("triggerNo")
    1817                            .dwattr $C$DW$129, DW_AT_bit_offset(0x01)
    1818                            .dwattr $C$DW$129, DW_AT_bit_size(0x02)
    1819                            .dwattr $C$DW$129, DW_AT_data_member_location[DW_OP_plus_uconst 0x0]
    1820                            .dwattr $C$DW$129, DW_AT_accessibility(DW_ACCESS_public)
    1821                            .dwattr $C$DW$129, DW_AT_decl_file("C:/ti/simplelink_cc13x0_sdk_1_50_00_08/source/ti/devices/c
    1822                            .dwattr $C$DW$129, DW_AT_decl_line(0x7a)
    1823                            .dwattr $C$DW$129, DW_AT_decl_column(0x0f)
    1824                    
    1825                    $C$DW$130       .dwtag  DW_TAG_member
    1826                            .dwattr $C$DW$130, DW_AT_type(*$C$DW$T$109)
    1827                            .dwattr $C$DW$130, DW_AT_name("pastTrig")
    1828                            .dwattr $C$DW$130, DW_AT_TI_symbol_name("pastTrig")
    1829                            .dwattr $C$DW$130, DW_AT_bit_offset(0x00)
    1830                            .dwattr $C$DW$130, DW_AT_bit_size(0x01)
    1831                            .dwattr $C$DW$130, DW_AT_data_member_location[DW_OP_plus_uconst 0x0]
    1832                            .dwattr $C$DW$130, DW_AT_accessibility(DW_ACCESS_public)
    1833                            .dwattr $C$DW$130, DW_AT_decl_file("C:/ti/simplelink_cc13x0_sdk_1_50_00_08/source/ti/devices/c
    1834                            .dwattr $C$DW$130, DW_AT_decl_line(0x7b)
    1835                            .dwattr $C$DW$130, DW_AT_decl_column(0x0f)
    1836                    
    1837                            .dwattr $C$DW$T$165, DW_AT_decl_file("C:/ti/simplelink_cc13x0_sdk_1_50_00_08/source/ti/devices
    1838                            .dwattr $C$DW$T$165, DW_AT_decl_line(0x76)
    1839                            .dwattr $C$DW$T$165, DW_AT_decl_column(0x0b)
    1840                            .dwendtag $C$DW$T$165
    1841                    
    1842                    
    1843                    $C$DW$T$166     .dwtag  DW_TAG_structure_type
    1844                            .dwattr $C$DW$T$166, DW_AT_byte_size(0x01)
    1845                    $C$DW$131       .dwtag  DW_TAG_member
    1846                            .dwattr $C$DW$131, DW_AT_type(*$C$DW$T$109)
    1847                            .dwattr $C$DW$131, DW_AT_name("rule")
    1848                            .dwattr $C$DW$131, DW_AT_TI_symbol_name("rule")
    1849                            .dwattr $C$DW$131, DW_AT_bit_offset(0x04)
    1850                            .dwattr $C$DW$131, DW_AT_bit_size(0x04)
    1851                            .dwattr $C$DW$131, DW_AT_data_member_location[DW_OP_plus_uconst 0x0]
    1852                            .dwattr $C$DW$131, DW_AT_accessibility(DW_ACCESS_public)
    1853                            .dwattr $C$DW$131, DW_AT_decl_file("C:/ti/simplelink_cc13x0_sdk_1_50_00_08/source/ti/devices/c
    1854                            .dwattr $C$DW$131, DW_AT_decl_line(0x7f)
    1855                            .dwattr $C$DW$131, DW_AT_decl_column(0x0f)
    1856                    
    1857                    $C$DW$132       .dwtag  DW_TAG_member
    1858                            .dwattr $C$DW$132, DW_AT_type(*$C$DW$T$109)
    1859                            .dwattr $C$DW$132, DW_AT_name("nSkip")
    1860                            .dwattr $C$DW$132, DW_AT_TI_symbol_name("nSkip")
    1861                            .dwattr $C$DW$132, DW_AT_bit_offset(0x00)
    1862                            .dwattr $C$DW$132, DW_AT_bit_size(0x04)
    1863                            .dwattr $C$DW$132, DW_AT_data_member_location[DW_OP_plus_uconst 0x0]
    1864                            .dwattr $C$DW$132, DW_AT_accessibility(DW_ACCESS_public)
    1865                            .dwattr $C$DW$132, DW_AT_decl_file("C:/ti/simplelink_cc13x0_sdk_1_50_00_08/source/ti/devices/c
    1866                            .dwattr $C$DW$132, DW_AT_decl_line(0x80)
    1867                            .dwattr $C$DW$132, DW_AT_decl_column(0x0f)
    1868                    
    1869                            .dwattr $C$DW$T$166, DW_AT_decl_file("C:/ti/simplelink_cc13x0_sdk_1_50_00_08/source/ti/devices
TI ARM Assembler PC v16.9.4 Thu Apr 12 20:27:36 2018

Tools Copyright (c) 1996-2017 Texas Instruments Incorporated
C:\Users\Kevin\AppData\Local\Temp\{C001DE3B-F0FF-445D-8CCE-7D0EAD14970B} PAGE   35

    1870                            .dwattr $C$DW$T$166, DW_AT_decl_line(0x7e)
    1871                            .dwattr $C$DW$T$166, DW_AT_decl_column(0x0b)
    1872                            .dwendtag $C$DW$T$166
    1873                    
    1874                    
    1875                    $C$DW$T$167     .dwtag  DW_TAG_structure_type
    1876                            .dwattr $C$DW$T$167, DW_AT_byte_size(0x01)
    1877                    $C$DW$133       .dwtag  DW_TAG_member
    1878                            .dwattr $C$DW$133, DW_AT_type(*$C$DW$T$109)
    1879                            .dwattr $C$DW$133, DW_AT_name("triggerType")
    1880                            .dwattr $C$DW$133, DW_AT_TI_symbol_name("triggerType")
    1881                            .dwattr $C$DW$133, DW_AT_bit_offset(0x04)
    1882                            .dwattr $C$DW$133, DW_AT_bit_size(0x04)
    1883                            .dwattr $C$DW$133, DW_AT_data_member_location[DW_OP_plus_uconst 0x0]
    1884                            .dwattr $C$DW$133, DW_AT_accessibility(DW_ACCESS_public)
    1885                            .dwattr $C$DW$133, DW_AT_decl_file("C:/ti/simplelink_cc13x0_sdk_1_50_00_08/source/ti/devices/c
    1886                            .dwattr $C$DW$133, DW_AT_decl_line(0x92)
    1887                            .dwattr $C$DW$133, DW_AT_decl_column(0x0f)
    1888                    
    1889                    $C$DW$134       .dwtag  DW_TAG_member
    1890                            .dwattr $C$DW$134, DW_AT_type(*$C$DW$T$109)
    1891                            .dwattr $C$DW$134, DW_AT_name("bEnaCmd")
    1892                            .dwattr $C$DW$134, DW_AT_TI_symbol_name("bEnaCmd")
    1893                            .dwattr $C$DW$134, DW_AT_bit_offset(0x03)
    1894                            .dwattr $C$DW$134, DW_AT_bit_size(0x01)
    1895                            .dwattr $C$DW$134, DW_AT_data_member_location[DW_OP_plus_uconst 0x0]
    1896                            .dwattr $C$DW$134, DW_AT_accessibility(DW_ACCESS_public)
    1897                            .dwattr $C$DW$134, DW_AT_decl_file("C:/ti/simplelink_cc13x0_sdk_1_50_00_08/source/ti/devices/c
    1898                            .dwattr $C$DW$134, DW_AT_decl_line(0x93)
    1899                            .dwattr $C$DW$134, DW_AT_decl_column(0x0f)
    1900                    
    1901                    $C$DW$135       .dwtag  DW_TAG_member
    1902                            .dwattr $C$DW$135, DW_AT_type(*$C$DW$T$109)
    1903                            .dwattr $C$DW$135, DW_AT_name("triggerNo")
    1904                            .dwattr $C$DW$135, DW_AT_TI_symbol_name("triggerNo")
    1905                            .dwattr $C$DW$135, DW_AT_bit_offset(0x01)
    1906                            .dwattr $C$DW$135, DW_AT_bit_size(0x02)
    1907                            .dwattr $C$DW$135, DW_AT_data_member_location[DW_OP_plus_uconst 0x0]
    1908                            .dwattr $C$DW$135, DW_AT_accessibility(DW_ACCESS_public)
    1909                            .dwattr $C$DW$135, DW_AT_decl_file("C:/ti/simplelink_cc13x0_sdk_1_50_00_08/source/ti/devices/c
    1910                            .dwattr $C$DW$135, DW_AT_decl_line(0x95)
    1911                            .dwattr $C$DW$135, DW_AT_decl_column(0x0f)
    1912                    
    1913                    $C$DW$136       .dwtag  DW_TAG_member
    1914                            .dwattr $C$DW$136, DW_AT_type(*$C$DW$T$109)
    1915                            .dwattr $C$DW$136, DW_AT_name("pastTrig")
    1916                            .dwattr $C$DW$136, DW_AT_TI_symbol_name("pastTrig")
    1917                            .dwattr $C$DW$136, DW_AT_bit_offset(0x00)
    1918                            .dwattr $C$DW$136, DW_AT_bit_size(0x01)
    1919                            .dwattr $C$DW$136, DW_AT_data_member_location[DW_OP_plus_uconst 0x0]
    1920                            .dwattr $C$DW$136, DW_AT_accessibility(DW_ACCESS_public)
    1921                            .dwattr $C$DW$136, DW_AT_decl_file("C:/ti/simplelink_cc13x0_sdk_1_50_00_08/source/ti/devices/c
    1922                            .dwattr $C$DW$136, DW_AT_decl_line(0x96)
    1923                            .dwattr $C$DW$136, DW_AT_decl_column(0x0f)
    1924                    
TI ARM Assembler PC v16.9.4 Thu Apr 12 20:27:36 2018

Tools Copyright (c) 1996-2017 Texas Instruments Incorporated
C:\Users\Kevin\AppData\Local\Temp\{C001DE3B-F0FF-445D-8CCE-7D0EAD14970B} PAGE   36

    1925                            .dwattr $C$DW$T$167, DW_AT_decl_file("C:/ti/simplelink_cc13x0_sdk_1_50_00_08/source/ti/devices
    1926                            .dwattr $C$DW$T$167, DW_AT_decl_line(0x91)
    1927                            .dwattr $C$DW$T$167, DW_AT_decl_column(0x0b)
    1928                            .dwendtag $C$DW$T$167
    1929                    
    1930                    
    1931                    $C$DW$T$168     .dwtag  DW_TAG_structure_type
    1932                            .dwattr $C$DW$T$168, DW_AT_byte_size(0x01)
    1933                    $C$DW$137       .dwtag  DW_TAG_member
    1934                            .dwattr $C$DW$137, DW_AT_type(*$C$DW$T$109)
    1935                            .dwattr $C$DW$137, DW_AT_name("rule")
    1936                            .dwattr $C$DW$137, DW_AT_TI_symbol_name("rule")
    1937                            .dwattr $C$DW$137, DW_AT_bit_offset(0x04)
    1938                            .dwattr $C$DW$137, DW_AT_bit_size(0x04)
    1939                            .dwattr $C$DW$137, DW_AT_data_member_location[DW_OP_plus_uconst 0x0]
    1940                            .dwattr $C$DW$137, DW_AT_accessibility(DW_ACCESS_public)
    1941                            .dwattr $C$DW$137, DW_AT_decl_file("C:/ti/simplelink_cc13x0_sdk_1_50_00_08/source/ti/devices/c
    1942                            .dwattr $C$DW$137, DW_AT_decl_line(0x9a)
    1943                            .dwattr $C$DW$137, DW_AT_decl_column(0x0f)
    1944                    
    1945                    $C$DW$138       .dwtag  DW_TAG_member
    1946                            .dwattr $C$DW$138, DW_AT_type(*$C$DW$T$109)
    1947                            .dwattr $C$DW$138, DW_AT_name("nSkip")
    1948                            .dwattr $C$DW$138, DW_AT_TI_symbol_name("nSkip")
    1949                            .dwattr $C$DW$138, DW_AT_bit_offset(0x00)
    1950                            .dwattr $C$DW$138, DW_AT_bit_size(0x04)
    1951                            .dwattr $C$DW$138, DW_AT_data_member_location[DW_OP_plus_uconst 0x0]
    1952                            .dwattr $C$DW$138, DW_AT_accessibility(DW_ACCESS_public)
    1953                            .dwattr $C$DW$138, DW_AT_decl_file("C:/ti/simplelink_cc13x0_sdk_1_50_00_08/source/ti/devices/c
    1954                            .dwattr $C$DW$138, DW_AT_decl_line(0x9b)
    1955                            .dwattr $C$DW$138, DW_AT_decl_column(0x0f)
    1956                    
    1957                            .dwattr $C$DW$T$168, DW_AT_decl_file("C:/ti/simplelink_cc13x0_sdk_1_50_00_08/source/ti/devices
    1958                            .dwattr $C$DW$T$168, DW_AT_decl_line(0x99)
    1959                            .dwattr $C$DW$T$168, DW_AT_decl_column(0x0b)
    1960                            .dwendtag $C$DW$T$168
    1961                    
    1962                    
    1963                    $C$DW$T$169     .dwtag  DW_TAG_structure_type
    1964                            .dwattr $C$DW$T$169, DW_AT_byte_size(0x01)
    1965                    $C$DW$139       .dwtag  DW_TAG_member
    1966                            .dwattr $C$DW$139, DW_AT_type(*$C$DW$T$109)
    1967                            .dwattr $C$DW$139, DW_AT_name("triggerType")
    1968                            .dwattr $C$DW$139, DW_AT_TI_symbol_name("triggerType")
    1969                            .dwattr $C$DW$139, DW_AT_bit_offset(0x04)
    1970                            .dwattr $C$DW$139, DW_AT_bit_size(0x04)
    1971                            .dwattr $C$DW$139, DW_AT_data_member_location[DW_OP_plus_uconst 0x0]
    1972                            .dwattr $C$DW$139, DW_AT_accessibility(DW_ACCESS_public)
    1973                            .dwattr $C$DW$139, DW_AT_decl_file("C:/ti/simplelink_cc13x0_sdk_1_50_00_08/source/ti/devices/c
    1974                            .dwattr $C$DW$139, DW_AT_decl_line(0xad)
    1975                            .dwattr $C$DW$139, DW_AT_decl_column(0x0f)
    1976                    
    1977                    $C$DW$140       .dwtag  DW_TAG_member
    1978                            .dwattr $C$DW$140, DW_AT_type(*$C$DW$T$109)
    1979                            .dwattr $C$DW$140, DW_AT_name("bEnaCmd")
TI ARM Assembler PC v16.9.4 Thu Apr 12 20:27:36 2018

Tools Copyright (c) 1996-2017 Texas Instruments Incorporated
C:\Users\Kevin\AppData\Local\Temp\{C001DE3B-F0FF-445D-8CCE-7D0EAD14970B} PAGE   37

    1980                            .dwattr $C$DW$140, DW_AT_TI_symbol_name("bEnaCmd")
    1981                            .dwattr $C$DW$140, DW_AT_bit_offset(0x03)
    1982                            .dwattr $C$DW$140, DW_AT_bit_size(0x01)
    1983                            .dwattr $C$DW$140, DW_AT_data_member_location[DW_OP_plus_uconst 0x0]
    1984                            .dwattr $C$DW$140, DW_AT_accessibility(DW_ACCESS_public)
    1985                            .dwattr $C$DW$140, DW_AT_decl_file("C:/ti/simplelink_cc13x0_sdk_1_50_00_08/source/ti/devices/c
    1986                            .dwattr $C$DW$140, DW_AT_decl_line(0xae)
    1987                            .dwattr $C$DW$140, DW_AT_decl_column(0x0f)
    1988                    
    1989                    $C$DW$141       .dwtag  DW_TAG_member
    1990                            .dwattr $C$DW$141, DW_AT_type(*$C$DW$T$109)
    1991                            .dwattr $C$DW$141, DW_AT_name("triggerNo")
    1992                            .dwattr $C$DW$141, DW_AT_TI_symbol_name("triggerNo")
    1993                            .dwattr $C$DW$141, DW_AT_bit_offset(0x01)
    1994                            .dwattr $C$DW$141, DW_AT_bit_size(0x02)
    1995                            .dwattr $C$DW$141, DW_AT_data_member_location[DW_OP_plus_uconst 0x0]
    1996                            .dwattr $C$DW$141, DW_AT_accessibility(DW_ACCESS_public)
    1997                            .dwattr $C$DW$141, DW_AT_decl_file("C:/ti/simplelink_cc13x0_sdk_1_50_00_08/source/ti/devices/c
    1998                            .dwattr $C$DW$141, DW_AT_decl_line(0xb0)
    1999                            .dwattr $C$DW$141, DW_AT_decl_column(0x0f)
    2000                    
    2001                    $C$DW$142       .dwtag  DW_TAG_member
    2002                            .dwattr $C$DW$142, DW_AT_type(*$C$DW$T$109)
    2003                            .dwattr $C$DW$142, DW_AT_name("pastTrig")
    2004                            .dwattr $C$DW$142, DW_AT_TI_symbol_name("pastTrig")
    2005                            .dwattr $C$DW$142, DW_AT_bit_offset(0x00)
    2006                            .dwattr $C$DW$142, DW_AT_bit_size(0x01)
    2007                            .dwattr $C$DW$142, DW_AT_data_member_location[DW_OP_plus_uconst 0x0]
    2008                            .dwattr $C$DW$142, DW_AT_accessibility(DW_ACCESS_public)
    2009                            .dwattr $C$DW$142, DW_AT_decl_file("C:/ti/simplelink_cc13x0_sdk_1_50_00_08/source/ti/devices/c
    2010                            .dwattr $C$DW$142, DW_AT_decl_line(0xb1)
    2011                            .dwattr $C$DW$142, DW_AT_decl_column(0x0f)
    2012                    
    2013                            .dwattr $C$DW$T$169, DW_AT_decl_file("C:/ti/simplelink_cc13x0_sdk_1_50_00_08/source/ti/devices
    2014                            .dwattr $C$DW$T$169, DW_AT_decl_line(0xac)
    2015                            .dwattr $C$DW$T$169, DW_AT_decl_column(0x0b)
    2016                            .dwendtag $C$DW$T$169
    2017                    
    2018                    
    2019                    $C$DW$T$170     .dwtag  DW_TAG_structure_type
    2020                            .dwattr $C$DW$T$170, DW_AT_byte_size(0x01)
    2021                    $C$DW$143       .dwtag  DW_TAG_member
    2022                            .dwattr $C$DW$143, DW_AT_type(*$C$DW$T$109)
    2023                            .dwattr $C$DW$143, DW_AT_name("rule")
    2024                            .dwattr $C$DW$143, DW_AT_TI_symbol_name("rule")
    2025                            .dwattr $C$DW$143, DW_AT_bit_offset(0x04)
    2026                            .dwattr $C$DW$143, DW_AT_bit_size(0x04)
    2027                            .dwattr $C$DW$143, DW_AT_data_member_location[DW_OP_plus_uconst 0x0]
    2028                            .dwattr $C$DW$143, DW_AT_accessibility(DW_ACCESS_public)
    2029                            .dwattr $C$DW$143, DW_AT_decl_file("C:/ti/simplelink_cc13x0_sdk_1_50_00_08/source/ti/devices/c
    2030                            .dwattr $C$DW$143, DW_AT_decl_line(0xb5)
    2031                            .dwattr $C$DW$143, DW_AT_decl_column(0x0f)
    2032                    
    2033                    $C$DW$144       .dwtag  DW_TAG_member
    2034                            .dwattr $C$DW$144, DW_AT_type(*$C$DW$T$109)
TI ARM Assembler PC v16.9.4 Thu Apr 12 20:27:36 2018

Tools Copyright (c) 1996-2017 Texas Instruments Incorporated
C:\Users\Kevin\AppData\Local\Temp\{C001DE3B-F0FF-445D-8CCE-7D0EAD14970B} PAGE   38

    2035                            .dwattr $C$DW$144, DW_AT_name("nSkip")
    2036                            .dwattr $C$DW$144, DW_AT_TI_symbol_name("nSkip")
    2037                            .dwattr $C$DW$144, DW_AT_bit_offset(0x00)
    2038                            .dwattr $C$DW$144, DW_AT_bit_size(0x04)
    2039                            .dwattr $C$DW$144, DW_AT_data_member_location[DW_OP_plus_uconst 0x0]
    2040                            .dwattr $C$DW$144, DW_AT_accessibility(DW_ACCESS_public)
    2041                            .dwattr $C$DW$144, DW_AT_decl_file("C:/ti/simplelink_cc13x0_sdk_1_50_00_08/source/ti/devices/c
    2042                            .dwattr $C$DW$144, DW_AT_decl_line(0xb6)
    2043                            .dwattr $C$DW$144, DW_AT_decl_column(0x0f)
    2044                    
    2045                            .dwattr $C$DW$T$170, DW_AT_decl_file("C:/ti/simplelink_cc13x0_sdk_1_50_00_08/source/ti/devices
    2046                            .dwattr $C$DW$T$170, DW_AT_decl_line(0xb4)
    2047                            .dwattr $C$DW$T$170, DW_AT_decl_column(0x0b)
    2048                            .dwendtag $C$DW$T$170
    2049                    
    2050                    
    2051                    $C$DW$T$171     .dwtag  DW_TAG_structure_type
    2052                            .dwattr $C$DW$T$171, DW_AT_byte_size(0x02)
    2053                    $C$DW$145       .dwtag  DW_TAG_member
    2054                            .dwattr $C$DW$145, DW_AT_type(*$C$DW$T$136)
    2055                            .dwattr $C$DW$145, DW_AT_name("frontEndMode")
    2056                            .dwattr $C$DW$145, DW_AT_TI_symbol_name("frontEndMode")
    2057                            .dwattr $C$DW$145, DW_AT_bit_offset(0x0d)
    2058                            .dwattr $C$DW$145, DW_AT_bit_size(0x03)
    2059                            .dwattr $C$DW$145, DW_AT_data_member_location[DW_OP_plus_uconst 0x0]
    2060                            .dwattr $C$DW$145, DW_AT_accessibility(DW_ACCESS_public)
    2061                            .dwattr $C$DW$145, DW_AT_decl_file("C:/ti/simplelink_cc13x0_sdk_1_50_00_08/source/ti/devices/c
    2062                            .dwattr $C$DW$145, DW_AT_decl_line(0xc3)
    2063                            .dwattr $C$DW$145, DW_AT_decl_column(0x10)
    2064                    
    2065                    $C$DW$146       .dwtag  DW_TAG_member
    2066                            .dwattr $C$DW$146, DW_AT_type(*$C$DW$T$136)
    2067                            .dwattr $C$DW$146, DW_AT_name("biasMode")
    2068                            .dwattr $C$DW$146, DW_AT_TI_symbol_name("biasMode")
    2069                            .dwattr $C$DW$146, DW_AT_bit_offset(0x0c)
    2070                            .dwattr $C$DW$146, DW_AT_bit_size(0x01)
    2071                            .dwattr $C$DW$146, DW_AT_data_member_location[DW_OP_plus_uconst 0x0]
    2072                            .dwattr $C$DW$146, DW_AT_accessibility(DW_ACCESS_public)
    2073                            .dwattr $C$DW$146, DW_AT_decl_file("C:/ti/simplelink_cc13x0_sdk_1_50_00_08/source/ti/devices/c
    2074                            .dwattr $C$DW$146, DW_AT_decl_line(0xc9)
    2075                            .dwattr $C$DW$146, DW_AT_decl_column(0x10)
    2076                    
    2077                    $C$DW$147       .dwtag  DW_TAG_member
    2078                            .dwattr $C$DW$147, DW_AT_type(*$C$DW$T$136)
    2079                            .dwattr $C$DW$147, DW_AT_name("analogCfgMode")
    2080                            .dwattr $C$DW$147, DW_AT_TI_symbol_name("analogCfgMode")
    2081                            .dwattr $C$DW$147, DW_AT_bit_offset(0x06)
    2082                            .dwattr $C$DW$147, DW_AT_bit_size(0x06)
    2083                            .dwattr $C$DW$147, DW_AT_data_member_location[DW_OP_plus_uconst 0x0]
    2084                            .dwattr $C$DW$147, DW_AT_accessibility(DW_ACCESS_public)
    2085                            .dwattr $C$DW$147, DW_AT_decl_file("C:/ti/simplelink_cc13x0_sdk_1_50_00_08/source/ti/devices/c
    2086                            .dwattr $C$DW$147, DW_AT_decl_line(0xcb)
    2087                            .dwattr $C$DW$147, DW_AT_decl_column(0x10)
    2088                    
    2089                    $C$DW$148       .dwtag  DW_TAG_member
TI ARM Assembler PC v16.9.4 Thu Apr 12 20:27:36 2018

Tools Copyright (c) 1996-2017 Texas Instruments Incorporated
C:\Users\Kevin\AppData\Local\Temp\{C001DE3B-F0FF-445D-8CCE-7D0EAD14970B} PAGE   39

    2090                            .dwattr $C$DW$148, DW_AT_type(*$C$DW$T$136)
    2091                            .dwattr $C$DW$148, DW_AT_name("bNoFsPowerUp")
    2092                            .dwattr $C$DW$148, DW_AT_TI_symbol_name("bNoFsPowerUp")
    2093                            .dwattr $C$DW$148, DW_AT_bit_offset(0x05)
    2094                            .dwattr $C$DW$148, DW_AT_bit_size(0x01)
    2095                            .dwattr $C$DW$148, DW_AT_data_member_location[DW_OP_plus_uconst 0x0]
    2096                            .dwattr $C$DW$148, DW_AT_accessibility(DW_ACCESS_public)
    2097                            .dwattr $C$DW$148, DW_AT_decl_file("C:/ti/simplelink_cc13x0_sdk_1_50_00_08/source/ti/devices/c
    2098                            .dwattr $C$DW$148, DW_AT_decl_line(0xd2)
    2099                            .dwattr $C$DW$148, DW_AT_decl_column(0x10)
    2100                    
    2101                            .dwattr $C$DW$T$171, DW_AT_decl_file("C:/ti/simplelink_cc13x0_sdk_1_50_00_08/source/ti/devices
    2102                            .dwattr $C$DW$T$171, DW_AT_decl_line(0xc2)
    2103                            .dwattr $C$DW$T$171, DW_AT_decl_column(0x0b)
    2104                            .dwendtag $C$DW$T$171
    2105                    
    2106                    
    2107                    $C$DW$T$172     .dwtag  DW_TAG_structure_type
    2108                            .dwattr $C$DW$T$172, DW_AT_byte_size(0x01)
    2109                    $C$DW$149       .dwtag  DW_TAG_member
    2110                            .dwattr $C$DW$149, DW_AT_type(*$C$DW$T$109)
    2111                            .dwattr $C$DW$149, DW_AT_name("triggerType")
    2112                            .dwattr $C$DW$149, DW_AT_TI_symbol_name("triggerType")
    2113                            .dwattr $C$DW$149, DW_AT_bit_offset(0x04)
    2114                            .dwattr $C$DW$149, DW_AT_bit_size(0x04)
    2115                            .dwattr $C$DW$149, DW_AT_data_member_location[DW_OP_plus_uconst 0x0]
    2116                            .dwattr $C$DW$149, DW_AT_accessibility(DW_ACCESS_public)
    2117                            .dwattr $C$DW$149, DW_AT_decl_file("C:/ti/simplelink_cc13x0_sdk_1_50_00_08/source/ti/devices/c
    2118                            .dwattr $C$DW$149, DW_AT_decl_line(0xe8)
    2119                            .dwattr $C$DW$149, DW_AT_decl_column(0x0f)
    2120                    
    2121                    $C$DW$150       .dwtag  DW_TAG_member
    2122                            .dwattr $C$DW$150, DW_AT_type(*$C$DW$T$109)
    2123                            .dwattr $C$DW$150, DW_AT_name("bEnaCmd")
    2124                            .dwattr $C$DW$150, DW_AT_TI_symbol_name("bEnaCmd")
    2125                            .dwattr $C$DW$150, DW_AT_bit_offset(0x03)
    2126                            .dwattr $C$DW$150, DW_AT_bit_size(0x01)
    2127                            .dwattr $C$DW$150, DW_AT_data_member_location[DW_OP_plus_uconst 0x0]
    2128                            .dwattr $C$DW$150, DW_AT_accessibility(DW_ACCESS_public)
    2129                            .dwattr $C$DW$150, DW_AT_decl_file("C:/ti/simplelink_cc13x0_sdk_1_50_00_08/source/ti/devices/c
    2130                            .dwattr $C$DW$150, DW_AT_decl_line(0xe9)
    2131                            .dwattr $C$DW$150, DW_AT_decl_column(0x0f)
    2132                    
    2133                    $C$DW$151       .dwtag  DW_TAG_member
    2134                            .dwattr $C$DW$151, DW_AT_type(*$C$DW$T$109)
    2135                            .dwattr $C$DW$151, DW_AT_name("triggerNo")
    2136                            .dwattr $C$DW$151, DW_AT_TI_symbol_name("triggerNo")
    2137                            .dwattr $C$DW$151, DW_AT_bit_offset(0x01)
    2138                            .dwattr $C$DW$151, DW_AT_bit_size(0x02)
    2139                            .dwattr $C$DW$151, DW_AT_data_member_location[DW_OP_plus_uconst 0x0]
    2140                            .dwattr $C$DW$151, DW_AT_accessibility(DW_ACCESS_public)
    2141                            .dwattr $C$DW$151, DW_AT_decl_file("C:/ti/simplelink_cc13x0_sdk_1_50_00_08/source/ti/devices/c
    2142                            .dwattr $C$DW$151, DW_AT_decl_line(0xeb)
    2143                            .dwattr $C$DW$151, DW_AT_decl_column(0x0f)
    2144                    
TI ARM Assembler PC v16.9.4 Thu Apr 12 20:27:36 2018

Tools Copyright (c) 1996-2017 Texas Instruments Incorporated
C:\Users\Kevin\AppData\Local\Temp\{C001DE3B-F0FF-445D-8CCE-7D0EAD14970B} PAGE   40

    2145                    $C$DW$152       .dwtag  DW_TAG_member
    2146                            .dwattr $C$DW$152, DW_AT_type(*$C$DW$T$109)
    2147                            .dwattr $C$DW$152, DW_AT_name("pastTrig")
    2148                            .dwattr $C$DW$152, DW_AT_TI_symbol_name("pastTrig")
    2149                            .dwattr $C$DW$152, DW_AT_bit_offset(0x00)
    2150                            .dwattr $C$DW$152, DW_AT_bit_size(0x01)
    2151                            .dwattr $C$DW$152, DW_AT_data_member_location[DW_OP_plus_uconst 0x0]
    2152                            .dwattr $C$DW$152, DW_AT_accessibility(DW_ACCESS_public)
    2153                            .dwattr $C$DW$152, DW_AT_decl_file("C:/ti/simplelink_cc13x0_sdk_1_50_00_08/source/ti/devices/c
    2154                            .dwattr $C$DW$152, DW_AT_decl_line(0xec)
    2155                            .dwattr $C$DW$152, DW_AT_decl_column(0x0f)
    2156                    
    2157                            .dwattr $C$DW$T$172, DW_AT_decl_file("C:/ti/simplelink_cc13x0_sdk_1_50_00_08/source/ti/devices
    2158                            .dwattr $C$DW$T$172, DW_AT_decl_line(0xe7)
    2159                            .dwattr $C$DW$T$172, DW_AT_decl_column(0x0b)
    2160                            .dwendtag $C$DW$T$172
    2161                    
    2162                    
    2163                    $C$DW$T$173     .dwtag  DW_TAG_structure_type
    2164                            .dwattr $C$DW$T$173, DW_AT_byte_size(0x01)
    2165                    $C$DW$153       .dwtag  DW_TAG_member
    2166                            .dwattr $C$DW$153, DW_AT_type(*$C$DW$T$109)
    2167                            .dwattr $C$DW$153, DW_AT_name("rule")
    2168                            .dwattr $C$DW$153, DW_AT_TI_symbol_name("rule")
    2169                            .dwattr $C$DW$153, DW_AT_bit_offset(0x04)
    2170                            .dwattr $C$DW$153, DW_AT_bit_size(0x04)
    2171                            .dwattr $C$DW$153, DW_AT_data_member_location[DW_OP_plus_uconst 0x0]
    2172                            .dwattr $C$DW$153, DW_AT_accessibility(DW_ACCESS_public)
    2173                            .dwattr $C$DW$153, DW_AT_decl_file("C:/ti/simplelink_cc13x0_sdk_1_50_00_08/source/ti/devices/c
    2174                            .dwattr $C$DW$153, DW_AT_decl_line(0xf0)
    2175                            .dwattr $C$DW$153, DW_AT_decl_column(0x0f)
    2176                    
    2177                    $C$DW$154       .dwtag  DW_TAG_member
    2178                            .dwattr $C$DW$154, DW_AT_type(*$C$DW$T$109)
    2179                            .dwattr $C$DW$154, DW_AT_name("nSkip")
    2180                            .dwattr $C$DW$154, DW_AT_TI_symbol_name("nSkip")
    2181                            .dwattr $C$DW$154, DW_AT_bit_offset(0x00)
    2182                            .dwattr $C$DW$154, DW_AT_bit_size(0x04)
    2183                            .dwattr $C$DW$154, DW_AT_data_member_location[DW_OP_plus_uconst 0x0]
    2184                            .dwattr $C$DW$154, DW_AT_accessibility(DW_ACCESS_public)
    2185                            .dwattr $C$DW$154, DW_AT_decl_file("C:/ti/simplelink_cc13x0_sdk_1_50_00_08/source/ti/devices/c
    2186                            .dwattr $C$DW$154, DW_AT_decl_line(0xf1)
    2187                            .dwattr $C$DW$154, DW_AT_decl_column(0x0f)
    2188                    
    2189                            .dwattr $C$DW$T$173, DW_AT_decl_file("C:/ti/simplelink_cc13x0_sdk_1_50_00_08/source/ti/devices
    2190                            .dwattr $C$DW$T$173, DW_AT_decl_line(0xef)
    2191                            .dwattr $C$DW$T$173, DW_AT_decl_column(0x0b)
    2192                            .dwendtag $C$DW$T$173
    2193                    
    2194                    
    2195                    $C$DW$T$174     .dwtag  DW_TAG_structure_type
    2196                            .dwattr $C$DW$T$174, DW_AT_byte_size(0x01)
    2197                    $C$DW$155       .dwtag  DW_TAG_member
    2198                            .dwattr $C$DW$155, DW_AT_type(*$C$DW$T$109)
    2199                            .dwattr $C$DW$155, DW_AT_name("bTxMode")
TI ARM Assembler PC v16.9.4 Thu Apr 12 20:27:36 2018

Tools Copyright (c) 1996-2017 Texas Instruments Incorporated
C:\Users\Kevin\AppData\Local\Temp\{C001DE3B-F0FF-445D-8CCE-7D0EAD14970B} PAGE   41

    2200                            .dwattr $C$DW$155, DW_AT_TI_symbol_name("bTxMode")
    2201                            .dwattr $C$DW$155, DW_AT_bit_offset(0x07)
    2202                            .dwattr $C$DW$155, DW_AT_bit_size(0x01)
    2203                            .dwattr $C$DW$155, DW_AT_data_member_location[DW_OP_plus_uconst 0x0]
    2204                            .dwattr $C$DW$155, DW_AT_accessibility(DW_ACCESS_public)
    2205                            .dwattr $C$DW$155, DW_AT_decl_file("C:/ti/simplelink_cc13x0_sdk_1_50_00_08/source/ti/devices/c
    2206                            .dwattr $C$DW$155, DW_AT_decl_line(0xf6)
    2207                            .dwattr $C$DW$155, DW_AT_decl_column(0x0f)
    2208                    
    2209                    $C$DW$156       .dwtag  DW_TAG_member
    2210                            .dwattr $C$DW$156, DW_AT_type(*$C$DW$T$109)
    2211                            .dwattr $C$DW$156, DW_AT_name("refFreq")
    2212                            .dwattr $C$DW$156, DW_AT_TI_symbol_name("refFreq")
    2213                            .dwattr $C$DW$156, DW_AT_bit_offset(0x01)
    2214                            .dwattr $C$DW$156, DW_AT_bit_size(0x06)
    2215                            .dwattr $C$DW$156, DW_AT_data_member_location[DW_OP_plus_uconst 0x0]
    2216                            .dwattr $C$DW$156, DW_AT_accessibility(DW_ACCESS_public)
    2217                            .dwattr $C$DW$156, DW_AT_decl_file("C:/ti/simplelink_cc13x0_sdk_1_50_00_08/source/ti/devices/c
    2218                            .dwattr $C$DW$156, DW_AT_decl_line(0xf8)
    2219                            .dwattr $C$DW$156, DW_AT_decl_column(0x0f)
    2220                    
    2221                            .dwattr $C$DW$T$174, DW_AT_decl_file("C:/ti/simplelink_cc13x0_sdk_1_50_00_08/source/ti/devices
    2222                            .dwattr $C$DW$T$174, DW_AT_decl_line(0xf5)
    2223                            .dwattr $C$DW$T$174, DW_AT_decl_column(0x0b)
    2224                            .dwendtag $C$DW$T$174
    2225                    
    2226                    
    2227                    $C$DW$T$175     .dwtag  DW_TAG_structure_type
    2228                            .dwattr $C$DW$T$175, DW_AT_byte_size(0x01)
    2229                    $C$DW$157       .dwtag  DW_TAG_member
    2230                            .dwattr $C$DW$157, DW_AT_type(*$C$DW$T$109)
    2231                            .dwattr $C$DW$157, DW_AT_name("triggerType")
    2232                            .dwattr $C$DW$157, DW_AT_TI_symbol_name("triggerType")
    2233                            .dwattr $C$DW$157, DW_AT_bit_offset(0x04)
    2234                            .dwattr $C$DW$157, DW_AT_bit_size(0x04)
    2235                            .dwattr $C$DW$157, DW_AT_data_member_location[DW_OP_plus_uconst 0x0]
    2236                            .dwattr $C$DW$157, DW_AT_accessibility(DW_ACCESS_public)
    2237                            .dwattr $C$DW$157, DW_AT_decl_file("C:/ti/simplelink_cc13x0_sdk_1_50_00_08/source/ti/devices/c
    2238                            .dwattr $C$DW$157, DW_AT_decl_line(0x10f)
    2239                            .dwattr $C$DW$157, DW_AT_decl_column(0x0f)
    2240                    
    2241                    $C$DW$158       .dwtag  DW_TAG_member
    2242                            .dwattr $C$DW$158, DW_AT_type(*$C$DW$T$109)
    2243                            .dwattr $C$DW$158, DW_AT_name("bEnaCmd")
    2244                            .dwattr $C$DW$158, DW_AT_TI_symbol_name("bEnaCmd")
    2245                            .dwattr $C$DW$158, DW_AT_bit_offset(0x03)
    2246                            .dwattr $C$DW$158, DW_AT_bit_size(0x01)
    2247                            .dwattr $C$DW$158, DW_AT_data_member_location[DW_OP_plus_uconst 0x0]
    2248                            .dwattr $C$DW$158, DW_AT_accessibility(DW_ACCESS_public)
    2249                            .dwattr $C$DW$158, DW_AT_decl_file("C:/ti/simplelink_cc13x0_sdk_1_50_00_08/source/ti/devices/c
    2250                            .dwattr $C$DW$158, DW_AT_decl_line(0x110)
    2251                            .dwattr $C$DW$158, DW_AT_decl_column(0x0f)
    2252                    
    2253                    $C$DW$159       .dwtag  DW_TAG_member
    2254                            .dwattr $C$DW$159, DW_AT_type(*$C$DW$T$109)
TI ARM Assembler PC v16.9.4 Thu Apr 12 20:27:36 2018

Tools Copyright (c) 1996-2017 Texas Instruments Incorporated
C:\Users\Kevin\AppData\Local\Temp\{C001DE3B-F0FF-445D-8CCE-7D0EAD14970B} PAGE   42

    2255                            .dwattr $C$DW$159, DW_AT_name("triggerNo")
    2256                            .dwattr $C$DW$159, DW_AT_TI_symbol_name("triggerNo")
    2257                            .dwattr $C$DW$159, DW_AT_bit_offset(0x01)
    2258                            .dwattr $C$DW$159, DW_AT_bit_size(0x02)
    2259                            .dwattr $C$DW$159, DW_AT_data_member_location[DW_OP_plus_uconst 0x0]
    2260                            .dwattr $C$DW$159, DW_AT_accessibility(DW_ACCESS_public)
    2261                            .dwattr $C$DW$159, DW_AT_decl_file("C:/ti/simplelink_cc13x0_sdk_1_50_00_08/source/ti/devices/c
    2262                            .dwattr $C$DW$159, DW_AT_decl_line(0x112)
    2263                            .dwattr $C$DW$159, DW_AT_decl_column(0x0f)
    2264                    
    2265                    $C$DW$160       .dwtag  DW_TAG_member
    2266                            .dwattr $C$DW$160, DW_AT_type(*$C$DW$T$109)
    2267                            .dwattr $C$DW$160, DW_AT_name("pastTrig")
    2268                            .dwattr $C$DW$160, DW_AT_TI_symbol_name("pastTrig")
    2269                            .dwattr $C$DW$160, DW_AT_bit_offset(0x00)
    2270                            .dwattr $C$DW$160, DW_AT_bit_size(0x01)
    2271                            .dwattr $C$DW$160, DW_AT_data_member_location[DW_OP_plus_uconst 0x0]
    2272                            .dwattr $C$DW$160, DW_AT_accessibility(DW_ACCESS_public)
    2273                            .dwattr $C$DW$160, DW_AT_decl_file("C:/ti/simplelink_cc13x0_sdk_1_50_00_08/source/ti/devices/c
    2274                            .dwattr $C$DW$160, DW_AT_decl_line(0x113)
    2275                            .dwattr $C$DW$160, DW_AT_decl_column(0x0f)
    2276                    
    2277                            .dwattr $C$DW$T$175, DW_AT_decl_file("C:/ti/simplelink_cc13x0_sdk_1_50_00_08/source/ti/devices
    2278                            .dwattr $C$DW$T$175, DW_AT_decl_line(0x10e)
    2279                            .dwattr $C$DW$T$175, DW_AT_decl_column(0x0b)
    2280                            .dwendtag $C$DW$T$175
    2281                    
    2282                    
    2283                    $C$DW$T$176     .dwtag  DW_TAG_structure_type
    2284                            .dwattr $C$DW$T$176, DW_AT_byte_size(0x01)
    2285                    $C$DW$161       .dwtag  DW_TAG_member
    2286                            .dwattr $C$DW$161, DW_AT_type(*$C$DW$T$109)
    2287                            .dwattr $C$DW$161, DW_AT_name("rule")
    2288                            .dwattr $C$DW$161, DW_AT_TI_symbol_name("rule")
    2289                            .dwattr $C$DW$161, DW_AT_bit_offset(0x04)
    2290                            .dwattr $C$DW$161, DW_AT_bit_size(0x04)
    2291                            .dwattr $C$DW$161, DW_AT_data_member_location[DW_OP_plus_uconst 0x0]
    2292                            .dwattr $C$DW$161, DW_AT_accessibility(DW_ACCESS_public)
    2293                            .dwattr $C$DW$161, DW_AT_decl_file("C:/ti/simplelink_cc13x0_sdk_1_50_00_08/source/ti/devices/c
    2294                            .dwattr $C$DW$161, DW_AT_decl_line(0x117)
    2295                            .dwattr $C$DW$161, DW_AT_decl_column(0x0f)
    2296                    
    2297                    $C$DW$162       .dwtag  DW_TAG_member
    2298                            .dwattr $C$DW$162, DW_AT_type(*$C$DW$T$109)
    2299                            .dwattr $C$DW$162, DW_AT_name("nSkip")
    2300                            .dwattr $C$DW$162, DW_AT_TI_symbol_name("nSkip")
    2301                            .dwattr $C$DW$162, DW_AT_bit_offset(0x00)
    2302                            .dwattr $C$DW$162, DW_AT_bit_size(0x04)
    2303                            .dwattr $C$DW$162, DW_AT_data_member_location[DW_OP_plus_uconst 0x0]
    2304                            .dwattr $C$DW$162, DW_AT_accessibility(DW_ACCESS_public)
    2305                            .dwattr $C$DW$162, DW_AT_decl_file("C:/ti/simplelink_cc13x0_sdk_1_50_00_08/source/ti/devices/c
    2306                            .dwattr $C$DW$162, DW_AT_decl_line(0x118)
    2307                            .dwattr $C$DW$162, DW_AT_decl_column(0x0f)
    2308                    
    2309                            .dwattr $C$DW$T$176, DW_AT_decl_file("C:/ti/simplelink_cc13x0_sdk_1_50_00_08/source/ti/devices
TI ARM Assembler PC v16.9.4 Thu Apr 12 20:27:36 2018

Tools Copyright (c) 1996-2017 Texas Instruments Incorporated
C:\Users\Kevin\AppData\Local\Temp\{C001DE3B-F0FF-445D-8CCE-7D0EAD14970B} PAGE   43

    2310                            .dwattr $C$DW$T$176, DW_AT_decl_line(0x116)
    2311                            .dwattr $C$DW$T$176, DW_AT_decl_column(0x0b)
    2312                            .dwendtag $C$DW$T$176
    2313                    
    2314                    
    2315                    $C$DW$T$177     .dwtag  DW_TAG_structure_type
    2316                            .dwattr $C$DW$T$177, DW_AT_byte_size(0x01)
    2317                    $C$DW$163       .dwtag  DW_TAG_member
    2318                            .dwattr $C$DW$163, DW_AT_type(*$C$DW$T$109)
    2319                            .dwattr $C$DW$163, DW_AT_name("triggerType")
    2320                            .dwattr $C$DW$163, DW_AT_TI_symbol_name("triggerType")
    2321                            .dwattr $C$DW$163, DW_AT_bit_offset(0x04)
    2322                            .dwattr $C$DW$163, DW_AT_bit_size(0x04)
    2323                            .dwattr $C$DW$163, DW_AT_data_member_location[DW_OP_plus_uconst 0x0]
    2324                            .dwattr $C$DW$163, DW_AT_accessibility(DW_ACCESS_public)
    2325                            .dwattr $C$DW$163, DW_AT_decl_file("C:/ti/simplelink_cc13x0_sdk_1_50_00_08/source/ti/devices/c
    2326                            .dwattr $C$DW$163, DW_AT_decl_line(0x12a)
    2327                            .dwattr $C$DW$163, DW_AT_decl_column(0x0f)
    2328                    
    2329                    $C$DW$164       .dwtag  DW_TAG_member
    2330                            .dwattr $C$DW$164, DW_AT_type(*$C$DW$T$109)
    2331                            .dwattr $C$DW$164, DW_AT_name("bEnaCmd")
    2332                            .dwattr $C$DW$164, DW_AT_TI_symbol_name("bEnaCmd")
    2333                            .dwattr $C$DW$164, DW_AT_bit_offset(0x03)
    2334                            .dwattr $C$DW$164, DW_AT_bit_size(0x01)
    2335                            .dwattr $C$DW$164, DW_AT_data_member_location[DW_OP_plus_uconst 0x0]
    2336                            .dwattr $C$DW$164, DW_AT_accessibility(DW_ACCESS_public)
    2337                            .dwattr $C$DW$164, DW_AT_decl_file("C:/ti/simplelink_cc13x0_sdk_1_50_00_08/source/ti/devices/c
    2338                            .dwattr $C$DW$164, DW_AT_decl_line(0x12b)
    2339                            .dwattr $C$DW$164, DW_AT_decl_column(0x0f)
    2340                    
    2341                    $C$DW$165       .dwtag  DW_TAG_member
    2342                            .dwattr $C$DW$165, DW_AT_type(*$C$DW$T$109)
    2343                            .dwattr $C$DW$165, DW_AT_name("triggerNo")
    2344                            .dwattr $C$DW$165, DW_AT_TI_symbol_name("triggerNo")
    2345                            .dwattr $C$DW$165, DW_AT_bit_offset(0x01)
    2346                            .dwattr $C$DW$165, DW_AT_bit_size(0x02)
    2347                            .dwattr $C$DW$165, DW_AT_data_member_location[DW_OP_plus_uconst 0x0]
    2348                            .dwattr $C$DW$165, DW_AT_accessibility(DW_ACCESS_public)
    2349                            .dwattr $C$DW$165, DW_AT_decl_file("C:/ti/simplelink_cc13x0_sdk_1_50_00_08/source/ti/devices/c
    2350                            .dwattr $C$DW$165, DW_AT_decl_line(0x12d)
    2351                            .dwattr $C$DW$165, DW_AT_decl_column(0x0f)
    2352                    
    2353                    $C$DW$166       .dwtag  DW_TAG_member
    2354                            .dwattr $C$DW$166, DW_AT_type(*$C$DW$T$109)
    2355                            .dwattr $C$DW$166, DW_AT_name("pastTrig")
    2356                            .dwattr $C$DW$166, DW_AT_TI_symbol_name("pastTrig")
    2357                            .dwattr $C$DW$166, DW_AT_bit_offset(0x00)
    2358                            .dwattr $C$DW$166, DW_AT_bit_size(0x01)
    2359                            .dwattr $C$DW$166, DW_AT_data_member_location[DW_OP_plus_uconst 0x0]
    2360                            .dwattr $C$DW$166, DW_AT_accessibility(DW_ACCESS_public)
    2361                            .dwattr $C$DW$166, DW_AT_decl_file("C:/ti/simplelink_cc13x0_sdk_1_50_00_08/source/ti/devices/c
    2362                            .dwattr $C$DW$166, DW_AT_decl_line(0x12e)
    2363                            .dwattr $C$DW$166, DW_AT_decl_column(0x0f)
    2364                    
TI ARM Assembler PC v16.9.4 Thu Apr 12 20:27:36 2018

Tools Copyright (c) 1996-2017 Texas Instruments Incorporated
C:\Users\Kevin\AppData\Local\Temp\{C001DE3B-F0FF-445D-8CCE-7D0EAD14970B} PAGE   44

    2365                            .dwattr $C$DW$T$177, DW_AT_decl_file("C:/ti/simplelink_cc13x0_sdk_1_50_00_08/source/ti/devices
    2366                            .dwattr $C$DW$T$177, DW_AT_decl_line(0x129)
    2367                            .dwattr $C$DW$T$177, DW_AT_decl_column(0x0b)
    2368                            .dwendtag $C$DW$T$177
    2369                    
    2370                    
    2371                    $C$DW$T$178     .dwtag  DW_TAG_structure_type
    2372                            .dwattr $C$DW$T$178, DW_AT_byte_size(0x01)
    2373                    $C$DW$167       .dwtag  DW_TAG_member
    2374                            .dwattr $C$DW$167, DW_AT_type(*$C$DW$T$109)
    2375                            .dwattr $C$DW$167, DW_AT_name("rule")
    2376                            .dwattr $C$DW$167, DW_AT_TI_symbol_name("rule")
    2377                            .dwattr $C$DW$167, DW_AT_bit_offset(0x04)
    2378                            .dwattr $C$DW$167, DW_AT_bit_size(0x04)
    2379                            .dwattr $C$DW$167, DW_AT_data_member_location[DW_OP_plus_uconst 0x0]
    2380                            .dwattr $C$DW$167, DW_AT_accessibility(DW_ACCESS_public)
    2381                            .dwattr $C$DW$167, DW_AT_decl_file("C:/ti/simplelink_cc13x0_sdk_1_50_00_08/source/ti/devices/c
    2382                            .dwattr $C$DW$167, DW_AT_decl_line(0x132)
    2383                            .dwattr $C$DW$167, DW_AT_decl_column(0x0f)
    2384                    
    2385                    $C$DW$168       .dwtag  DW_TAG_member
    2386                            .dwattr $C$DW$168, DW_AT_type(*$C$DW$T$109)
    2387                            .dwattr $C$DW$168, DW_AT_name("nSkip")
    2388                            .dwattr $C$DW$168, DW_AT_TI_symbol_name("nSkip")
    2389                            .dwattr $C$DW$168, DW_AT_bit_offset(0x00)
    2390                            .dwattr $C$DW$168, DW_AT_bit_size(0x04)
    2391                            .dwattr $C$DW$168, DW_AT_data_member_location[DW_OP_plus_uconst 0x0]
    2392                            .dwattr $C$DW$168, DW_AT_accessibility(DW_ACCESS_public)
    2393                            .dwattr $C$DW$168, DW_AT_decl_file("C:/ti/simplelink_cc13x0_sdk_1_50_00_08/source/ti/devices/c
    2394                            .dwattr $C$DW$168, DW_AT_decl_line(0x133)
    2395                            .dwattr $C$DW$168, DW_AT_decl_column(0x0f)
    2396                    
    2397                            .dwattr $C$DW$T$178, DW_AT_decl_file("C:/ti/simplelink_cc13x0_sdk_1_50_00_08/source/ti/devices
    2398                            .dwattr $C$DW$T$178, DW_AT_decl_line(0x131)
    2399                            .dwattr $C$DW$T$178, DW_AT_decl_column(0x0b)
    2400                            .dwendtag $C$DW$T$178
    2401                    
    2402                    
    2403                    $C$DW$T$179     .dwtag  DW_TAG_structure_type
    2404                            .dwattr $C$DW$T$179, DW_AT_byte_size(0x01)
    2405                    $C$DW$169       .dwtag  DW_TAG_member
    2406                            .dwattr $C$DW$169, DW_AT_type(*$C$DW$T$109)
    2407                            .dwattr $C$DW$169, DW_AT_name("bEnaFifo")
    2408                            .dwattr $C$DW$169, DW_AT_TI_symbol_name("bEnaFifo")
    2409                            .dwattr $C$DW$169, DW_AT_bit_offset(0x07)
    2410                            .dwattr $C$DW$169, DW_AT_bit_size(0x01)
    2411                            .dwattr $C$DW$169, DW_AT_data_member_location[DW_OP_plus_uconst 0x0]
    2412                            .dwattr $C$DW$169, DW_AT_accessibility(DW_ACCESS_public)
    2413                            .dwattr $C$DW$169, DW_AT_decl_file("C:/ti/simplelink_cc13x0_sdk_1_50_00_08/source/ti/devices/c
    2414                            .dwattr $C$DW$169, DW_AT_decl_line(0x136)
    2415                            .dwattr $C$DW$169, DW_AT_decl_column(0x0f)
    2416                    
    2417                    $C$DW$170       .dwtag  DW_TAG_member
    2418                            .dwattr $C$DW$170, DW_AT_type(*$C$DW$T$109)
    2419                            .dwattr $C$DW$170, DW_AT_name("bFsOff")
TI ARM Assembler PC v16.9.4 Thu Apr 12 20:27:36 2018

Tools Copyright (c) 1996-2017 Texas Instruments Incorporated
C:\Users\Kevin\AppData\Local\Temp\{C001DE3B-F0FF-445D-8CCE-7D0EAD14970B} PAGE   45

    2420                            .dwattr $C$DW$170, DW_AT_TI_symbol_name("bFsOff")
    2421                            .dwattr $C$DW$170, DW_AT_bit_offset(0x06)
    2422                            .dwattr $C$DW$170, DW_AT_bit_size(0x01)
    2423                            .dwattr $C$DW$170, DW_AT_data_member_location[DW_OP_plus_uconst 0x0]
    2424                            .dwattr $C$DW$170, DW_AT_accessibility(DW_ACCESS_public)
    2425                            .dwattr $C$DW$170, DW_AT_decl_file("C:/ti/simplelink_cc13x0_sdk_1_50_00_08/source/ti/devices/c
    2426                            .dwattr $C$DW$170, DW_AT_decl_line(0x138)
    2427                            .dwattr $C$DW$170, DW_AT_decl_column(0x0f)
    2428                    
    2429                    $C$DW$171       .dwtag  DW_TAG_member
    2430                            .dwattr $C$DW$171, DW_AT_type(*$C$DW$T$109)
    2431                            .dwattr $C$DW$171, DW_AT_name("bNoSync")
    2432                            .dwattr $C$DW$171, DW_AT_TI_symbol_name("bNoSync")
    2433                            .dwattr $C$DW$171, DW_AT_bit_offset(0x05)
    2434                            .dwattr $C$DW$171, DW_AT_bit_size(0x01)
    2435                            .dwattr $C$DW$171, DW_AT_data_member_location[DW_OP_plus_uconst 0x0]
    2436                            .dwattr $C$DW$171, DW_AT_accessibility(DW_ACCESS_public)
    2437                            .dwattr $C$DW$171, DW_AT_decl_file("C:/ti/simplelink_cc13x0_sdk_1_50_00_08/source/ti/devices/c
    2438                            .dwattr $C$DW$171, DW_AT_decl_line(0x13a)
    2439                            .dwattr $C$DW$171, DW_AT_decl_column(0x0f)
    2440                    
    2441                            .dwattr $C$DW$T$179, DW_AT_decl_file("C:/ti/simplelink_cc13x0_sdk_1_50_00_08/source/ti/devices
    2442                            .dwattr $C$DW$T$179, DW_AT_decl_line(0x135)
    2443                            .dwattr $C$DW$T$179, DW_AT_decl_column(0x0b)
    2444                            .dwendtag $C$DW$T$179
    2445                    
    2446                    
    2447                    $C$DW$T$180     .dwtag  DW_TAG_structure_type
    2448                            .dwattr $C$DW$T$180, DW_AT_byte_size(0x01)
    2449                    $C$DW$172       .dwtag  DW_TAG_member
    2450                            .dwattr $C$DW$172, DW_AT_type(*$C$DW$T$109)
    2451                            .dwattr $C$DW$172, DW_AT_name("triggerType")
    2452                            .dwattr $C$DW$172, DW_AT_TI_symbol_name("triggerType")
    2453                            .dwattr $C$DW$172, DW_AT_bit_offset(0x04)
    2454                            .dwattr $C$DW$172, DW_AT_bit_size(0x04)
    2455                            .dwattr $C$DW$172, DW_AT_data_member_location[DW_OP_plus_uconst 0x0]
    2456                            .dwattr $C$DW$172, DW_AT_accessibility(DW_ACCESS_public)
    2457                            .dwattr $C$DW$172, DW_AT_decl_file("C:/ti/simplelink_cc13x0_sdk_1_50_00_08/source/ti/devices/c
    2458                            .dwattr $C$DW$172, DW_AT_decl_line(0x13e)
    2459                            .dwattr $C$DW$172, DW_AT_decl_column(0x0f)
    2460                    
    2461                    $C$DW$173       .dwtag  DW_TAG_member
    2462                            .dwattr $C$DW$173, DW_AT_type(*$C$DW$T$109)
    2463                            .dwattr $C$DW$173, DW_AT_name("bEnaCmd")
    2464                            .dwattr $C$DW$173, DW_AT_TI_symbol_name("bEnaCmd")
    2465                            .dwattr $C$DW$173, DW_AT_bit_offset(0x03)
    2466                            .dwattr $C$DW$173, DW_AT_bit_size(0x01)
    2467                            .dwattr $C$DW$173, DW_AT_data_member_location[DW_OP_plus_uconst 0x0]
    2468                            .dwattr $C$DW$173, DW_AT_accessibility(DW_ACCESS_public)
    2469                            .dwattr $C$DW$173, DW_AT_decl_file("C:/ti/simplelink_cc13x0_sdk_1_50_00_08/source/ti/devices/c
    2470                            .dwattr $C$DW$173, DW_AT_decl_line(0x13f)
    2471                            .dwattr $C$DW$173, DW_AT_decl_column(0x0f)
    2472                    
    2473                    $C$DW$174       .dwtag  DW_TAG_member
    2474                            .dwattr $C$DW$174, DW_AT_type(*$C$DW$T$109)
TI ARM Assembler PC v16.9.4 Thu Apr 12 20:27:36 2018

Tools Copyright (c) 1996-2017 Texas Instruments Incorporated
C:\Users\Kevin\AppData\Local\Temp\{C001DE3B-F0FF-445D-8CCE-7D0EAD14970B} PAGE   46

    2475                            .dwattr $C$DW$174, DW_AT_name("triggerNo")
    2476                            .dwattr $C$DW$174, DW_AT_TI_symbol_name("triggerNo")
    2477                            .dwattr $C$DW$174, DW_AT_bit_offset(0x01)
    2478                            .dwattr $C$DW$174, DW_AT_bit_size(0x02)
    2479                            .dwattr $C$DW$174, DW_AT_data_member_location[DW_OP_plus_uconst 0x0]
    2480                            .dwattr $C$DW$174, DW_AT_accessibility(DW_ACCESS_public)
    2481                            .dwattr $C$DW$174, DW_AT_decl_file("C:/ti/simplelink_cc13x0_sdk_1_50_00_08/source/ti/devices/c
    2482                            .dwattr $C$DW$174, DW_AT_decl_line(0x141)
    2483                            .dwattr $C$DW$174, DW_AT_decl_column(0x0f)
    2484                    
    2485                    $C$DW$175       .dwtag  DW_TAG_member
    2486                            .dwattr $C$DW$175, DW_AT_type(*$C$DW$T$109)
    2487                            .dwattr $C$DW$175, DW_AT_name("pastTrig")
    2488                            .dwattr $C$DW$175, DW_AT_TI_symbol_name("pastTrig")
    2489                            .dwattr $C$DW$175, DW_AT_bit_offset(0x00)
    2490                            .dwattr $C$DW$175, DW_AT_bit_size(0x01)
    2491                            .dwattr $C$DW$175, DW_AT_data_member_location[DW_OP_plus_uconst 0x0]
    2492                            .dwattr $C$DW$175, DW_AT_accessibility(DW_ACCESS_public)
    2493                            .dwattr $C$DW$175, DW_AT_decl_file("C:/ti/simplelink_cc13x0_sdk_1_50_00_08/source/ti/devices/c
    2494                            .dwattr $C$DW$175, DW_AT_decl_line(0x142)
    2495                            .dwattr $C$DW$175, DW_AT_decl_column(0x0f)
    2496                    
    2497                            .dwattr $C$DW$T$180, DW_AT_decl_file("C:/ti/simplelink_cc13x0_sdk_1_50_00_08/source/ti/devices
    2498                            .dwattr $C$DW$T$180, DW_AT_decl_line(0x13d)
    2499                            .dwattr $C$DW$T$180, DW_AT_decl_column(0x0b)
    2500                            .dwendtag $C$DW$T$180
    2501                    
    2502                    
    2503                    $C$DW$T$181     .dwtag  DW_TAG_structure_type
    2504                            .dwattr $C$DW$T$181, DW_AT_byte_size(0x01)
    2505                    $C$DW$176       .dwtag  DW_TAG_member
    2506                            .dwattr $C$DW$176, DW_AT_type(*$C$DW$T$109)
    2507                            .dwattr $C$DW$176, DW_AT_name("triggerType")
    2508                            .dwattr $C$DW$176, DW_AT_TI_symbol_name("triggerType")
    2509                            .dwattr $C$DW$176, DW_AT_bit_offset(0x04)
    2510                            .dwattr $C$DW$176, DW_AT_bit_size(0x04)
    2511                            .dwattr $C$DW$176, DW_AT_data_member_location[DW_OP_plus_uconst 0x0]
    2512                            .dwattr $C$DW$176, DW_AT_accessibility(DW_ACCESS_public)
    2513                            .dwattr $C$DW$176, DW_AT_decl_file("C:/ti/simplelink_cc13x0_sdk_1_50_00_08/source/ti/devices/c
    2514                            .dwattr $C$DW$176, DW_AT_decl_line(0x157)
    2515                            .dwattr $C$DW$176, DW_AT_decl_column(0x0f)
    2516                    
    2517                    $C$DW$177       .dwtag  DW_TAG_member
    2518                            .dwattr $C$DW$177, DW_AT_type(*$C$DW$T$109)
    2519                            .dwattr $C$DW$177, DW_AT_name("bEnaCmd")
    2520                            .dwattr $C$DW$177, DW_AT_TI_symbol_name("bEnaCmd")
    2521                            .dwattr $C$DW$177, DW_AT_bit_offset(0x03)
    2522                            .dwattr $C$DW$177, DW_AT_bit_size(0x01)
    2523                            .dwattr $C$DW$177, DW_AT_data_member_location[DW_OP_plus_uconst 0x0]
    2524                            .dwattr $C$DW$177, DW_AT_accessibility(DW_ACCESS_public)
    2525                            .dwattr $C$DW$177, DW_AT_decl_file("C:/ti/simplelink_cc13x0_sdk_1_50_00_08/source/ti/devices/c
    2526                            .dwattr $C$DW$177, DW_AT_decl_line(0x158)
    2527                            .dwattr $C$DW$177, DW_AT_decl_column(0x0f)
    2528                    
    2529                    $C$DW$178       .dwtag  DW_TAG_member
TI ARM Assembler PC v16.9.4 Thu Apr 12 20:27:36 2018

Tools Copyright (c) 1996-2017 Texas Instruments Incorporated
C:\Users\Kevin\AppData\Local\Temp\{C001DE3B-F0FF-445D-8CCE-7D0EAD14970B} PAGE   47

    2530                            .dwattr $C$DW$178, DW_AT_type(*$C$DW$T$109)
    2531                            .dwattr $C$DW$178, DW_AT_name("triggerNo")
    2532                            .dwattr $C$DW$178, DW_AT_TI_symbol_name("triggerNo")
    2533                            .dwattr $C$DW$178, DW_AT_bit_offset(0x01)
    2534                            .dwattr $C$DW$178, DW_AT_bit_size(0x02)
    2535                            .dwattr $C$DW$178, DW_AT_data_member_location[DW_OP_plus_uconst 0x0]
    2536                            .dwattr $C$DW$178, DW_AT_accessibility(DW_ACCESS_public)
    2537                            .dwattr $C$DW$178, DW_AT_decl_file("C:/ti/simplelink_cc13x0_sdk_1_50_00_08/source/ti/devices/c
    2538                            .dwattr $C$DW$178, DW_AT_decl_line(0x15a)
    2539                            .dwattr $C$DW$178, DW_AT_decl_column(0x0f)
    2540                    
    2541                    $C$DW$179       .dwtag  DW_TAG_member
    2542                            .dwattr $C$DW$179, DW_AT_type(*$C$DW$T$109)
    2543                            .dwattr $C$DW$179, DW_AT_name("pastTrig")
    2544                            .dwattr $C$DW$179, DW_AT_TI_symbol_name("pastTrig")
    2545                            .dwattr $C$DW$179, DW_AT_bit_offset(0x00)
    2546                            .dwattr $C$DW$179, DW_AT_bit_size(0x01)
    2547                            .dwattr $C$DW$179, DW_AT_data_member_location[DW_OP_plus_uconst 0x0]
    2548                            .dwattr $C$DW$179, DW_AT_accessibility(DW_ACCESS_public)
    2549                            .dwattr $C$DW$179, DW_AT_decl_file("C:/ti/simplelink_cc13x0_sdk_1_50_00_08/source/ti/devices/c
    2550                            .dwattr $C$DW$179, DW_AT_decl_line(0x15b)
    2551                            .dwattr $C$DW$179, DW_AT_decl_column(0x0f)
    2552                    
    2553                            .dwattr $C$DW$T$181, DW_AT_decl_file("C:/ti/simplelink_cc13x0_sdk_1_50_00_08/source/ti/devices
    2554                            .dwattr $C$DW$T$181, DW_AT_decl_line(0x156)
    2555                            .dwattr $C$DW$T$181, DW_AT_decl_column(0x0b)
    2556                            .dwendtag $C$DW$T$181
    2557                    
    2558                    
    2559                    $C$DW$T$182     .dwtag  DW_TAG_structure_type
    2560                            .dwattr $C$DW$T$182, DW_AT_byte_size(0x01)
    2561                    $C$DW$180       .dwtag  DW_TAG_member
    2562                            .dwattr $C$DW$180, DW_AT_type(*$C$DW$T$109)
    2563                            .dwattr $C$DW$180, DW_AT_name("rule")
    2564                            .dwattr $C$DW$180, DW_AT_TI_symbol_name("rule")
    2565                            .dwattr $C$DW$180, DW_AT_bit_offset(0x04)
    2566                            .dwattr $C$DW$180, DW_AT_bit_size(0x04)
    2567                            .dwattr $C$DW$180, DW_AT_data_member_location[DW_OP_plus_uconst 0x0]
    2568                            .dwattr $C$DW$180, DW_AT_accessibility(DW_ACCESS_public)
    2569                            .dwattr $C$DW$180, DW_AT_decl_file("C:/ti/simplelink_cc13x0_sdk_1_50_00_08/source/ti/devices/c
    2570                            .dwattr $C$DW$180, DW_AT_decl_line(0x15f)
    2571                            .dwattr $C$DW$180, DW_AT_decl_column(0x0f)
    2572                    
    2573                    $C$DW$181       .dwtag  DW_TAG_member
    2574                            .dwattr $C$DW$181, DW_AT_type(*$C$DW$T$109)
    2575                            .dwattr $C$DW$181, DW_AT_name("nSkip")
    2576                            .dwattr $C$DW$181, DW_AT_TI_symbol_name("nSkip")
    2577                            .dwattr $C$DW$181, DW_AT_bit_offset(0x00)
    2578                            .dwattr $C$DW$181, DW_AT_bit_size(0x04)
    2579                            .dwattr $C$DW$181, DW_AT_data_member_location[DW_OP_plus_uconst 0x0]
    2580                            .dwattr $C$DW$181, DW_AT_accessibility(DW_ACCESS_public)
    2581                            .dwattr $C$DW$181, DW_AT_decl_file("C:/ti/simplelink_cc13x0_sdk_1_50_00_08/source/ti/devices/c
    2582                            .dwattr $C$DW$181, DW_AT_decl_line(0x160)
    2583                            .dwattr $C$DW$181, DW_AT_decl_column(0x0f)
    2584                    
TI ARM Assembler PC v16.9.4 Thu Apr 12 20:27:36 2018

Tools Copyright (c) 1996-2017 Texas Instruments Incorporated
C:\Users\Kevin\AppData\Local\Temp\{C001DE3B-F0FF-445D-8CCE-7D0EAD14970B} PAGE   48

    2585                            .dwattr $C$DW$T$182, DW_AT_decl_file("C:/ti/simplelink_cc13x0_sdk_1_50_00_08/source/ti/devices
    2586                            .dwattr $C$DW$T$182, DW_AT_decl_line(0x15e)
    2587                            .dwattr $C$DW$T$182, DW_AT_decl_column(0x0b)
    2588                            .dwendtag $C$DW$T$182
    2589                    
    2590                    
    2591                    $C$DW$T$183     .dwtag  DW_TAG_structure_type
    2592                            .dwattr $C$DW$T$183, DW_AT_byte_size(0x01)
    2593                    $C$DW$182       .dwtag  DW_TAG_member
    2594                            .dwattr $C$DW$182, DW_AT_type(*$C$DW$T$109)
    2595                            .dwattr $C$DW$182, DW_AT_name("bUseCw")
    2596                            .dwattr $C$DW$182, DW_AT_TI_symbol_name("bUseCw")
    2597                            .dwattr $C$DW$182, DW_AT_bit_offset(0x07)
    2598                            .dwattr $C$DW$182, DW_AT_bit_size(0x01)
    2599                            .dwattr $C$DW$182, DW_AT_data_member_location[DW_OP_plus_uconst 0x0]
    2600                            .dwattr $C$DW$182, DW_AT_accessibility(DW_ACCESS_public)
    2601                            .dwattr $C$DW$182, DW_AT_decl_file("C:/ti/simplelink_cc13x0_sdk_1_50_00_08/source/ti/devices/c
    2602                            .dwattr $C$DW$182, DW_AT_decl_line(0x163)
    2603                            .dwattr $C$DW$182, DW_AT_decl_column(0x0f)
    2604                    
    2605                    $C$DW$183       .dwtag  DW_TAG_member
    2606                            .dwattr $C$DW$183, DW_AT_type(*$C$DW$T$109)
    2607                            .dwattr $C$DW$183, DW_AT_name("bFsOff")
    2608                            .dwattr $C$DW$183, DW_AT_TI_symbol_name("bFsOff")
    2609                            .dwattr $C$DW$183, DW_AT_bit_offset(0x06)
    2610                            .dwattr $C$DW$183, DW_AT_bit_size(0x01)
    2611                            .dwattr $C$DW$183, DW_AT_data_member_location[DW_OP_plus_uconst 0x0]
    2612                            .dwattr $C$DW$183, DW_AT_accessibility(DW_ACCESS_public)
    2613                            .dwattr $C$DW$183, DW_AT_decl_file("C:/ti/simplelink_cc13x0_sdk_1_50_00_08/source/ti/devices/c
    2614                            .dwattr $C$DW$183, DW_AT_decl_line(0x165)
    2615                            .dwattr $C$DW$183, DW_AT_decl_column(0x0f)
    2616                    
    2617                    $C$DW$184       .dwtag  DW_TAG_member
    2618                            .dwattr $C$DW$184, DW_AT_type(*$C$DW$T$109)
    2619                            .dwattr $C$DW$184, DW_AT_name("whitenMode")
    2620                            .dwattr $C$DW$184, DW_AT_TI_symbol_name("whitenMode")
    2621                            .dwattr $C$DW$184, DW_AT_bit_offset(0x04)
    2622                            .dwattr $C$DW$184, DW_AT_bit_size(0x02)
    2623                            .dwattr $C$DW$184, DW_AT_data_member_location[DW_OP_plus_uconst 0x0]
    2624                            .dwattr $C$DW$184, DW_AT_accessibility(DW_ACCESS_public)
    2625                            .dwattr $C$DW$184, DW_AT_decl_file("C:/ti/simplelink_cc13x0_sdk_1_50_00_08/source/ti/devices/c
    2626                            .dwattr $C$DW$184, DW_AT_decl_line(0x167)
    2627                            .dwattr $C$DW$184, DW_AT_decl_column(0x0f)
    2628                    
    2629                            .dwattr $C$DW$T$183, DW_AT_decl_file("C:/ti/simplelink_cc13x0_sdk_1_50_00_08/source/ti/devices
    2630                            .dwattr $C$DW$T$183, DW_AT_decl_line(0x162)
    2631                            .dwattr $C$DW$T$183, DW_AT_decl_column(0x0b)
    2632                            .dwendtag $C$DW$T$183
    2633                    
    2634                    
    2635                    $C$DW$T$184     .dwtag  DW_TAG_structure_type
    2636                            .dwattr $C$DW$T$184, DW_AT_byte_size(0x01)
    2637                    $C$DW$185       .dwtag  DW_TAG_member
    2638                            .dwattr $C$DW$185, DW_AT_type(*$C$DW$T$109)
    2639                            .dwattr $C$DW$185, DW_AT_name("triggerType")
TI ARM Assembler PC v16.9.4 Thu Apr 12 20:27:36 2018

Tools Copyright (c) 1996-2017 Texas Instruments Incorporated
C:\Users\Kevin\AppData\Local\Temp\{C001DE3B-F0FF-445D-8CCE-7D0EAD14970B} PAGE   49

    2640                            .dwattr $C$DW$185, DW_AT_TI_symbol_name("triggerType")
    2641                            .dwattr $C$DW$185, DW_AT_bit_offset(0x04)
    2642                            .dwattr $C$DW$185, DW_AT_bit_size(0x04)
    2643                            .dwattr $C$DW$185, DW_AT_data_member_location[DW_OP_plus_uconst 0x0]
    2644                            .dwattr $C$DW$185, DW_AT_accessibility(DW_ACCESS_public)
    2645                            .dwattr $C$DW$185, DW_AT_decl_file("C:/ti/simplelink_cc13x0_sdk_1_50_00_08/source/ti/devices/c
    2646                            .dwattr $C$DW$185, DW_AT_decl_line(0x170)
    2647                            .dwattr $C$DW$185, DW_AT_decl_column(0x0f)
    2648                    
    2649                    $C$DW$186       .dwtag  DW_TAG_member
    2650                            .dwattr $C$DW$186, DW_AT_type(*$C$DW$T$109)
    2651                            .dwattr $C$DW$186, DW_AT_name("bEnaCmd")
    2652                            .dwattr $C$DW$186, DW_AT_TI_symbol_name("bEnaCmd")
    2653                            .dwattr $C$DW$186, DW_AT_bit_offset(0x03)
    2654                            .dwattr $C$DW$186, DW_AT_bit_size(0x01)
    2655                            .dwattr $C$DW$186, DW_AT_data_member_location[DW_OP_plus_uconst 0x0]
    2656                            .dwattr $C$DW$186, DW_AT_accessibility(DW_ACCESS_public)
    2657                            .dwattr $C$DW$186, DW_AT_decl_file("C:/ti/simplelink_cc13x0_sdk_1_50_00_08/source/ti/devices/c
    2658                            .dwattr $C$DW$186, DW_AT_decl_line(0x171)
    2659                            .dwattr $C$DW$186, DW_AT_decl_column(0x0f)
    2660                    
    2661                    $C$DW$187       .dwtag  DW_TAG_member
    2662                            .dwattr $C$DW$187, DW_AT_type(*$C$DW$T$109)
    2663                            .dwattr $C$DW$187, DW_AT_name("triggerNo")
    2664                            .dwattr $C$DW$187, DW_AT_TI_symbol_name("triggerNo")
    2665                            .dwattr $C$DW$187, DW_AT_bit_offset(0x01)
    2666                            .dwattr $C$DW$187, DW_AT_bit_size(0x02)
    2667                            .dwattr $C$DW$187, DW_AT_data_member_location[DW_OP_plus_uconst 0x0]
    2668                            .dwattr $C$DW$187, DW_AT_accessibility(DW_ACCESS_public)
    2669                            .dwattr $C$DW$187, DW_AT_decl_file("C:/ti/simplelink_cc13x0_sdk_1_50_00_08/source/ti/devices/c
    2670                            .dwattr $C$DW$187, DW_AT_decl_line(0x173)
    2671                            .dwattr $C$DW$187, DW_AT_decl_column(0x0f)
    2672                    
    2673                    $C$DW$188       .dwtag  DW_TAG_member
    2674                            .dwattr $C$DW$188, DW_AT_type(*$C$DW$T$109)
    2675                            .dwattr $C$DW$188, DW_AT_name("pastTrig")
    2676                            .dwattr $C$DW$188, DW_AT_TI_symbol_name("pastTrig")
    2677                            .dwattr $C$DW$188, DW_AT_bit_offset(0x00)
    2678                            .dwattr $C$DW$188, DW_AT_bit_size(0x01)
    2679                            .dwattr $C$DW$188, DW_AT_data_member_location[DW_OP_plus_uconst 0x0]
    2680                            .dwattr $C$DW$188, DW_AT_accessibility(DW_ACCESS_public)
    2681                            .dwattr $C$DW$188, DW_AT_decl_file("C:/ti/simplelink_cc13x0_sdk_1_50_00_08/source/ti/devices/c
    2682                            .dwattr $C$DW$188, DW_AT_decl_line(0x174)
    2683                            .dwattr $C$DW$188, DW_AT_decl_column(0x0f)
    2684                    
    2685                            .dwattr $C$DW$T$184, DW_AT_decl_file("C:/ti/simplelink_cc13x0_sdk_1_50_00_08/source/ti/devices
    2686                            .dwattr $C$DW$T$184, DW_AT_decl_line(0x16f)
    2687                            .dwattr $C$DW$T$184, DW_AT_decl_column(0x0b)
    2688                            .dwendtag $C$DW$T$184
    2689                    
    2690                    
    2691                    $C$DW$T$185     .dwtag  DW_TAG_structure_type
    2692                            .dwattr $C$DW$T$185, DW_AT_byte_size(0x01)
    2693                    $C$DW$189       .dwtag  DW_TAG_member
    2694                            .dwattr $C$DW$189, DW_AT_type(*$C$DW$T$109)
TI ARM Assembler PC v16.9.4 Thu Apr 12 20:27:36 2018

Tools Copyright (c) 1996-2017 Texas Instruments Incorporated
C:\Users\Kevin\AppData\Local\Temp\{C001DE3B-F0FF-445D-8CCE-7D0EAD14970B} PAGE   50

    2695                            .dwattr $C$DW$189, DW_AT_name("triggerType")
    2696                            .dwattr $C$DW$189, DW_AT_TI_symbol_name("triggerType")
    2697                            .dwattr $C$DW$189, DW_AT_bit_offset(0x04)
    2698                            .dwattr $C$DW$189, DW_AT_bit_size(0x04)
    2699                            .dwattr $C$DW$189, DW_AT_data_member_location[DW_OP_plus_uconst 0x0]
    2700                            .dwattr $C$DW$189, DW_AT_accessibility(DW_ACCESS_public)
    2701                            .dwattr $C$DW$189, DW_AT_decl_file("C:/ti/simplelink_cc13x0_sdk_1_50_00_08/source/ti/devices/c
    2702                            .dwattr $C$DW$189, DW_AT_decl_line(0x189)
    2703                            .dwattr $C$DW$189, DW_AT_decl_column(0x0f)
    2704                    
    2705                    $C$DW$190       .dwtag  DW_TAG_member
    2706                            .dwattr $C$DW$190, DW_AT_type(*$C$DW$T$109)
    2707                            .dwattr $C$DW$190, DW_AT_name("bEnaCmd")
    2708                            .dwattr $C$DW$190, DW_AT_TI_symbol_name("bEnaCmd")
    2709                            .dwattr $C$DW$190, DW_AT_bit_offset(0x03)
    2710                            .dwattr $C$DW$190, DW_AT_bit_size(0x01)
    2711                            .dwattr $C$DW$190, DW_AT_data_member_location[DW_OP_plus_uconst 0x0]
    2712                            .dwattr $C$DW$190, DW_AT_accessibility(DW_ACCESS_public)
    2713                            .dwattr $C$DW$190, DW_AT_decl_file("C:/ti/simplelink_cc13x0_sdk_1_50_00_08/source/ti/devices/c
    2714                            .dwattr $C$DW$190, DW_AT_decl_line(0x18a)
    2715                            .dwattr $C$DW$190, DW_AT_decl_column(0x0f)
    2716                    
    2717                    $C$DW$191       .dwtag  DW_TAG_member
    2718                            .dwattr $C$DW$191, DW_AT_type(*$C$DW$T$109)
    2719                            .dwattr $C$DW$191, DW_AT_name("triggerNo")
    2720                            .dwattr $C$DW$191, DW_AT_TI_symbol_name("triggerNo")
    2721                            .dwattr $C$DW$191, DW_AT_bit_offset(0x01)
    2722                            .dwattr $C$DW$191, DW_AT_bit_size(0x02)
    2723                            .dwattr $C$DW$191, DW_AT_data_member_location[DW_OP_plus_uconst 0x0]
    2724                            .dwattr $C$DW$191, DW_AT_accessibility(DW_ACCESS_public)
    2725                            .dwattr $C$DW$191, DW_AT_decl_file("C:/ti/simplelink_cc13x0_sdk_1_50_00_08/source/ti/devices/c
    2726                            .dwattr $C$DW$191, DW_AT_decl_line(0x18c)
    2727                            .dwattr $C$DW$191, DW_AT_decl_column(0x0f)
    2728                    
    2729                    $C$DW$192       .dwtag  DW_TAG_member
    2730                            .dwattr $C$DW$192, DW_AT_type(*$C$DW$T$109)
    2731                            .dwattr $C$DW$192, DW_AT_name("pastTrig")
    2732                            .dwattr $C$DW$192, DW_AT_TI_symbol_name("pastTrig")
    2733                            .dwattr $C$DW$192, DW_AT_bit_offset(0x00)
    2734                            .dwattr $C$DW$192, DW_AT_bit_size(0x01)
    2735                            .dwattr $C$DW$192, DW_AT_data_member_location[DW_OP_plus_uconst 0x0]
    2736                            .dwattr $C$DW$192, DW_AT_accessibility(DW_ACCESS_public)
    2737                            .dwattr $C$DW$192, DW_AT_decl_file("C:/ti/simplelink_cc13x0_sdk_1_50_00_08/source/ti/devices/c
    2738                            .dwattr $C$DW$192, DW_AT_decl_line(0x18d)
    2739                            .dwattr $C$DW$192, DW_AT_decl_column(0x0f)
    2740                    
    2741                            .dwattr $C$DW$T$185, DW_AT_decl_file("C:/ti/simplelink_cc13x0_sdk_1_50_00_08/source/ti/devices
    2742                            .dwattr $C$DW$T$185, DW_AT_decl_line(0x188)
    2743                            .dwattr $C$DW$T$185, DW_AT_decl_column(0x0b)
    2744                            .dwendtag $C$DW$T$185
    2745                    
    2746                    
    2747                    $C$DW$T$186     .dwtag  DW_TAG_structure_type
    2748                            .dwattr $C$DW$T$186, DW_AT_byte_size(0x01)
    2749                    $C$DW$193       .dwtag  DW_TAG_member
TI ARM Assembler PC v16.9.4 Thu Apr 12 20:27:36 2018

Tools Copyright (c) 1996-2017 Texas Instruments Incorporated
C:\Users\Kevin\AppData\Local\Temp\{C001DE3B-F0FF-445D-8CCE-7D0EAD14970B} PAGE   51

    2750                            .dwattr $C$DW$193, DW_AT_type(*$C$DW$T$109)
    2751                            .dwattr $C$DW$193, DW_AT_name("rule")
    2752                            .dwattr $C$DW$193, DW_AT_TI_symbol_name("rule")
    2753                            .dwattr $C$DW$193, DW_AT_bit_offset(0x04)
    2754                            .dwattr $C$DW$193, DW_AT_bit_size(0x04)
    2755                            .dwattr $C$DW$193, DW_AT_data_member_location[DW_OP_plus_uconst 0x0]
    2756                            .dwattr $C$DW$193, DW_AT_accessibility(DW_ACCESS_public)
    2757                            .dwattr $C$DW$193, DW_AT_decl_file("C:/ti/simplelink_cc13x0_sdk_1_50_00_08/source/ti/devices/c
    2758                            .dwattr $C$DW$193, DW_AT_decl_line(0x191)
    2759                            .dwattr $C$DW$193, DW_AT_decl_column(0x0f)
    2760                    
    2761                    $C$DW$194       .dwtag  DW_TAG_member
    2762                            .dwattr $C$DW$194, DW_AT_type(*$C$DW$T$109)
    2763                            .dwattr $C$DW$194, DW_AT_name("nSkip")
    2764                            .dwattr $C$DW$194, DW_AT_TI_symbol_name("nSkip")
    2765                            .dwattr $C$DW$194, DW_AT_bit_offset(0x00)
    2766                            .dwattr $C$DW$194, DW_AT_bit_size(0x04)
    2767                            .dwattr $C$DW$194, DW_AT_data_member_location[DW_OP_plus_uconst 0x0]
    2768                            .dwattr $C$DW$194, DW_AT_accessibility(DW_ACCESS_public)
    2769                            .dwattr $C$DW$194, DW_AT_decl_file("C:/ti/simplelink_cc13x0_sdk_1_50_00_08/source/ti/devices/c
    2770                            .dwattr $C$DW$194, DW_AT_decl_line(0x192)
    2771                            .dwattr $C$DW$194, DW_AT_decl_column(0x0f)
    2772                    
    2773                            .dwattr $C$DW$T$186, DW_AT_decl_file("C:/ti/simplelink_cc13x0_sdk_1_50_00_08/source/ti/devices
    2774                            .dwattr $C$DW$T$186, DW_AT_decl_line(0x190)
    2775                            .dwattr $C$DW$T$186, DW_AT_decl_column(0x0b)
    2776                            .dwendtag $C$DW$T$186
    2777                    
    2778                    
    2779                    $C$DW$T$187     .dwtag  DW_TAG_structure_type
    2780                            .dwattr $C$DW$T$187, DW_AT_byte_size(0x01)
    2781                    $C$DW$195       .dwtag  DW_TAG_member
    2782                            .dwattr $C$DW$195, DW_AT_type(*$C$DW$T$109)
    2783                            .dwattr $C$DW$195, DW_AT_name("triggerType")
    2784                            .dwattr $C$DW$195, DW_AT_TI_symbol_name("triggerType")
    2785                            .dwattr $C$DW$195, DW_AT_bit_offset(0x04)
    2786                            .dwattr $C$DW$195, DW_AT_bit_size(0x04)
    2787                            .dwattr $C$DW$195, DW_AT_data_member_location[DW_OP_plus_uconst 0x0]
    2788                            .dwattr $C$DW$195, DW_AT_accessibility(DW_ACCESS_public)
    2789                            .dwattr $C$DW$195, DW_AT_decl_file("C:/ti/simplelink_cc13x0_sdk_1_50_00_08/source/ti/devices/c
    2790                            .dwattr $C$DW$195, DW_AT_decl_line(0x1a7)
    2791                            .dwattr $C$DW$195, DW_AT_decl_column(0x0f)
    2792                    
    2793                    $C$DW$196       .dwtag  DW_TAG_member
    2794                            .dwattr $C$DW$196, DW_AT_type(*$C$DW$T$109)
    2795                            .dwattr $C$DW$196, DW_AT_name("bEnaCmd")
    2796                            .dwattr $C$DW$196, DW_AT_TI_symbol_name("bEnaCmd")
    2797                            .dwattr $C$DW$196, DW_AT_bit_offset(0x03)
    2798                            .dwattr $C$DW$196, DW_AT_bit_size(0x01)
    2799                            .dwattr $C$DW$196, DW_AT_data_member_location[DW_OP_plus_uconst 0x0]
    2800                            .dwattr $C$DW$196, DW_AT_accessibility(DW_ACCESS_public)
    2801                            .dwattr $C$DW$196, DW_AT_decl_file("C:/ti/simplelink_cc13x0_sdk_1_50_00_08/source/ti/devices/c
    2802                            .dwattr $C$DW$196, DW_AT_decl_line(0x1a8)
    2803                            .dwattr $C$DW$196, DW_AT_decl_column(0x0f)
    2804                    
TI ARM Assembler PC v16.9.4 Thu Apr 12 20:27:36 2018

Tools Copyright (c) 1996-2017 Texas Instruments Incorporated
C:\Users\Kevin\AppData\Local\Temp\{C001DE3B-F0FF-445D-8CCE-7D0EAD14970B} PAGE   52

    2805                    $C$DW$197       .dwtag  DW_TAG_member
    2806                            .dwattr $C$DW$197, DW_AT_type(*$C$DW$T$109)
    2807                            .dwattr $C$DW$197, DW_AT_name("triggerNo")
    2808                            .dwattr $C$DW$197, DW_AT_TI_symbol_name("triggerNo")
    2809                            .dwattr $C$DW$197, DW_AT_bit_offset(0x01)
    2810                            .dwattr $C$DW$197, DW_AT_bit_size(0x02)
    2811                            .dwattr $C$DW$197, DW_AT_data_member_location[DW_OP_plus_uconst 0x0]
    2812                            .dwattr $C$DW$197, DW_AT_accessibility(DW_ACCESS_public)
    2813                            .dwattr $C$DW$197, DW_AT_decl_file("C:/ti/simplelink_cc13x0_sdk_1_50_00_08/source/ti/devices/c
    2814                            .dwattr $C$DW$197, DW_AT_decl_line(0x1aa)
    2815                            .dwattr $C$DW$197, DW_AT_decl_column(0x0f)
    2816                    
    2817                    $C$DW$198       .dwtag  DW_TAG_member
    2818                            .dwattr $C$DW$198, DW_AT_type(*$C$DW$T$109)
    2819                            .dwattr $C$DW$198, DW_AT_name("pastTrig")
    2820                            .dwattr $C$DW$198, DW_AT_TI_symbol_name("pastTrig")
    2821                            .dwattr $C$DW$198, DW_AT_bit_offset(0x00)
    2822                            .dwattr $C$DW$198, DW_AT_bit_size(0x01)
    2823                            .dwattr $C$DW$198, DW_AT_data_member_location[DW_OP_plus_uconst 0x0]
    2824                            .dwattr $C$DW$198, DW_AT_accessibility(DW_ACCESS_public)
    2825                            .dwattr $C$DW$198, DW_AT_decl_file("C:/ti/simplelink_cc13x0_sdk_1_50_00_08/source/ti/devices/c
    2826                            .dwattr $C$DW$198, DW_AT_decl_line(0x1ab)
    2827                            .dwattr $C$DW$198, DW_AT_decl_column(0x0f)
    2828                    
    2829                            .dwattr $C$DW$T$187, DW_AT_decl_file("C:/ti/simplelink_cc13x0_sdk_1_50_00_08/source/ti/devices
    2830                            .dwattr $C$DW$T$187, DW_AT_decl_line(0x1a6)
    2831                            .dwattr $C$DW$T$187, DW_AT_decl_column(0x0b)
    2832                            .dwendtag $C$DW$T$187
    2833                    
    2834                    
    2835                    $C$DW$T$188     .dwtag  DW_TAG_structure_type
    2836                            .dwattr $C$DW$T$188, DW_AT_byte_size(0x01)
    2837                    $C$DW$199       .dwtag  DW_TAG_member
    2838                            .dwattr $C$DW$199, DW_AT_type(*$C$DW$T$109)
    2839                            .dwattr $C$DW$199, DW_AT_name("rule")
    2840                            .dwattr $C$DW$199, DW_AT_TI_symbol_name("rule")
    2841                            .dwattr $C$DW$199, DW_AT_bit_offset(0x04)
    2842                            .dwattr $C$DW$199, DW_AT_bit_size(0x04)
    2843                            .dwattr $C$DW$199, DW_AT_data_member_location[DW_OP_plus_uconst 0x0]
    2844                            .dwattr $C$DW$199, DW_AT_accessibility(DW_ACCESS_public)
    2845                            .dwattr $C$DW$199, DW_AT_decl_file("C:/ti/simplelink_cc13x0_sdk_1_50_00_08/source/ti/devices/c
    2846                            .dwattr $C$DW$199, DW_AT_decl_line(0x1af)
    2847                            .dwattr $C$DW$199, DW_AT_decl_column(0x0f)
    2848                    
    2849                    $C$DW$200       .dwtag  DW_TAG_member
    2850                            .dwattr $C$DW$200, DW_AT_type(*$C$DW$T$109)
    2851                            .dwattr $C$DW$200, DW_AT_name("nSkip")
    2852                            .dwattr $C$DW$200, DW_AT_TI_symbol_name("nSkip")
    2853                            .dwattr $C$DW$200, DW_AT_bit_offset(0x00)
    2854                            .dwattr $C$DW$200, DW_AT_bit_size(0x04)
    2855                            .dwattr $C$DW$200, DW_AT_data_member_location[DW_OP_plus_uconst 0x0]
    2856                            .dwattr $C$DW$200, DW_AT_accessibility(DW_ACCESS_public)
    2857                            .dwattr $C$DW$200, DW_AT_decl_file("C:/ti/simplelink_cc13x0_sdk_1_50_00_08/source/ti/devices/c
    2858                            .dwattr $C$DW$200, DW_AT_decl_line(0x1b0)
    2859                            .dwattr $C$DW$200, DW_AT_decl_column(0x0f)
TI ARM Assembler PC v16.9.4 Thu Apr 12 20:27:36 2018

Tools Copyright (c) 1996-2017 Texas Instruments Incorporated
C:\Users\Kevin\AppData\Local\Temp\{C001DE3B-F0FF-445D-8CCE-7D0EAD14970B} PAGE   53

    2860                    
    2861                            .dwattr $C$DW$T$188, DW_AT_decl_file("C:/ti/simplelink_cc13x0_sdk_1_50_00_08/source/ti/devices
    2862                            .dwattr $C$DW$T$188, DW_AT_decl_line(0x1ae)
    2863                            .dwattr $C$DW$T$188, DW_AT_decl_column(0x0b)
    2864                            .dwendtag $C$DW$T$188
    2865                    
    2866                    
    2867                    $C$DW$T$189     .dwtag  DW_TAG_structure_type
    2868                            .dwattr $C$DW$T$189, DW_AT_byte_size(0x01)
    2869                    $C$DW$201       .dwtag  DW_TAG_member
    2870                            .dwattr $C$DW$201, DW_AT_type(*$C$DW$T$109)
    2871                            .dwattr $C$DW$201, DW_AT_name("triggerType")
    2872                            .dwattr $C$DW$201, DW_AT_TI_symbol_name("triggerType")
    2873                            .dwattr $C$DW$201, DW_AT_bit_offset(0x04)
    2874                            .dwattr $C$DW$201, DW_AT_bit_size(0x04)
    2875                            .dwattr $C$DW$201, DW_AT_data_member_location[DW_OP_plus_uconst 0x0]
    2876                            .dwattr $C$DW$201, DW_AT_accessibility(DW_ACCESS_public)
    2877                            .dwattr $C$DW$201, DW_AT_decl_file("C:/ti/simplelink_cc13x0_sdk_1_50_00_08/source/ti/devices/c
    2878                            .dwattr $C$DW$201, DW_AT_decl_line(0x1c5)
    2879                            .dwattr $C$DW$201, DW_AT_decl_column(0x0f)
    2880                    
    2881                    $C$DW$202       .dwtag  DW_TAG_member
    2882                            .dwattr $C$DW$202, DW_AT_type(*$C$DW$T$109)
    2883                            .dwattr $C$DW$202, DW_AT_name("bEnaCmd")
    2884                            .dwattr $C$DW$202, DW_AT_TI_symbol_name("bEnaCmd")
    2885                            .dwattr $C$DW$202, DW_AT_bit_offset(0x03)
    2886                            .dwattr $C$DW$202, DW_AT_bit_size(0x01)
    2887                            .dwattr $C$DW$202, DW_AT_data_member_location[DW_OP_plus_uconst 0x0]
    2888                            .dwattr $C$DW$202, DW_AT_accessibility(DW_ACCESS_public)
    2889                            .dwattr $C$DW$202, DW_AT_decl_file("C:/ti/simplelink_cc13x0_sdk_1_50_00_08/source/ti/devices/c
    2890                            .dwattr $C$DW$202, DW_AT_decl_line(0x1c6)
    2891                            .dwattr $C$DW$202, DW_AT_decl_column(0x0f)
    2892                    
    2893                    $C$DW$203       .dwtag  DW_TAG_member
    2894                            .dwattr $C$DW$203, DW_AT_type(*$C$DW$T$109)
    2895                            .dwattr $C$DW$203, DW_AT_name("triggerNo")
    2896                            .dwattr $C$DW$203, DW_AT_TI_symbol_name("triggerNo")
    2897                            .dwattr $C$DW$203, DW_AT_bit_offset(0x01)
    2898                            .dwattr $C$DW$203, DW_AT_bit_size(0x02)
    2899                            .dwattr $C$DW$203, DW_AT_data_member_location[DW_OP_plus_uconst 0x0]
    2900                            .dwattr $C$DW$203, DW_AT_accessibility(DW_ACCESS_public)
    2901                            .dwattr $C$DW$203, DW_AT_decl_file("C:/ti/simplelink_cc13x0_sdk_1_50_00_08/source/ti/devices/c
    2902                            .dwattr $C$DW$203, DW_AT_decl_line(0x1c8)
    2903                            .dwattr $C$DW$203, DW_AT_decl_column(0x0f)
    2904                    
    2905                    $C$DW$204       .dwtag  DW_TAG_member
    2906                            .dwattr $C$DW$204, DW_AT_type(*$C$DW$T$109)
    2907                            .dwattr $C$DW$204, DW_AT_name("pastTrig")
    2908                            .dwattr $C$DW$204, DW_AT_TI_symbol_name("pastTrig")
    2909                            .dwattr $C$DW$204, DW_AT_bit_offset(0x00)
    2910                            .dwattr $C$DW$204, DW_AT_bit_size(0x01)
    2911                            .dwattr $C$DW$204, DW_AT_data_member_location[DW_OP_plus_uconst 0x0]
    2912                            .dwattr $C$DW$204, DW_AT_accessibility(DW_ACCESS_public)
    2913                            .dwattr $C$DW$204, DW_AT_decl_file("C:/ti/simplelink_cc13x0_sdk_1_50_00_08/source/ti/devices/c
    2914                            .dwattr $C$DW$204, DW_AT_decl_line(0x1c9)
TI ARM Assembler PC v16.9.4 Thu Apr 12 20:27:36 2018

Tools Copyright (c) 1996-2017 Texas Instruments Incorporated
C:\Users\Kevin\AppData\Local\Temp\{C001DE3B-F0FF-445D-8CCE-7D0EAD14970B} PAGE   54

    2915                            .dwattr $C$DW$204, DW_AT_decl_column(0x0f)
    2916                    
    2917                            .dwattr $C$DW$T$189, DW_AT_decl_file("C:/ti/simplelink_cc13x0_sdk_1_50_00_08/source/ti/devices
    2918                            .dwattr $C$DW$T$189, DW_AT_decl_line(0x1c4)
    2919                            .dwattr $C$DW$T$189, DW_AT_decl_column(0x0b)
    2920                            .dwendtag $C$DW$T$189
    2921                    
    2922                    
    2923                    $C$DW$T$190     .dwtag  DW_TAG_structure_type
    2924                            .dwattr $C$DW$T$190, DW_AT_byte_size(0x01)
    2925                    $C$DW$205       .dwtag  DW_TAG_member
    2926                            .dwattr $C$DW$205, DW_AT_type(*$C$DW$T$109)
    2927                            .dwattr $C$DW$205, DW_AT_name("rule")
    2928                            .dwattr $C$DW$205, DW_AT_TI_symbol_name("rule")
    2929                            .dwattr $C$DW$205, DW_AT_bit_offset(0x04)
    2930                            .dwattr $C$DW$205, DW_AT_bit_size(0x04)
    2931                            .dwattr $C$DW$205, DW_AT_data_member_location[DW_OP_plus_uconst 0x0]
    2932                            .dwattr $C$DW$205, DW_AT_accessibility(DW_ACCESS_public)
    2933                            .dwattr $C$DW$205, DW_AT_decl_file("C:/ti/simplelink_cc13x0_sdk_1_50_00_08/source/ti/devices/c
    2934                            .dwattr $C$DW$205, DW_AT_decl_line(0x1cd)
    2935                            .dwattr $C$DW$205, DW_AT_decl_column(0x0f)
    2936                    
    2937                    $C$DW$206       .dwtag  DW_TAG_member
    2938                            .dwattr $C$DW$206, DW_AT_type(*$C$DW$T$109)
    2939                            .dwattr $C$DW$206, DW_AT_name("nSkip")
    2940                            .dwattr $C$DW$206, DW_AT_TI_symbol_name("nSkip")
    2941                            .dwattr $C$DW$206, DW_AT_bit_offset(0x00)
    2942                            .dwattr $C$DW$206, DW_AT_bit_size(0x04)
    2943                            .dwattr $C$DW$206, DW_AT_data_member_location[DW_OP_plus_uconst 0x0]
    2944                            .dwattr $C$DW$206, DW_AT_accessibility(DW_ACCESS_public)
    2945                            .dwattr $C$DW$206, DW_AT_decl_file("C:/ti/simplelink_cc13x0_sdk_1_50_00_08/source/ti/devices/c
    2946                            .dwattr $C$DW$206, DW_AT_decl_line(0x1ce)
    2947                            .dwattr $C$DW$206, DW_AT_decl_column(0x0f)
    2948                    
    2949                            .dwattr $C$DW$T$190, DW_AT_decl_file("C:/ti/simplelink_cc13x0_sdk_1_50_00_08/source/ti/devices
    2950                            .dwattr $C$DW$T$190, DW_AT_decl_line(0x1cc)
    2951                            .dwattr $C$DW$T$190, DW_AT_decl_column(0x0b)
    2952                            .dwendtag $C$DW$T$190
    2953                    
    2954                    
    2955                    $C$DW$T$191     .dwtag  DW_TAG_structure_type
    2956                            .dwattr $C$DW$T$191, DW_AT_byte_size(0x01)
    2957                    $C$DW$207       .dwtag  DW_TAG_member
    2958                            .dwattr $C$DW$207, DW_AT_type(*$C$DW$T$109)
    2959                            .dwattr $C$DW$207, DW_AT_name("triggerType")
    2960                            .dwattr $C$DW$207, DW_AT_TI_symbol_name("triggerType")
    2961                            .dwattr $C$DW$207, DW_AT_bit_offset(0x04)
    2962                            .dwattr $C$DW$207, DW_AT_bit_size(0x04)
    2963                            .dwattr $C$DW$207, DW_AT_data_member_location[DW_OP_plus_uconst 0x0]
    2964                            .dwattr $C$DW$207, DW_AT_accessibility(DW_ACCESS_public)
    2965                            .dwattr $C$DW$207, DW_AT_decl_file("C:/ti/simplelink_cc13x0_sdk_1_50_00_08/source/ti/devices/c
    2966                            .dwattr $C$DW$207, DW_AT_decl_line(0x1e2)
    2967                            .dwattr $C$DW$207, DW_AT_decl_column(0x0f)
    2968                    
    2969                    $C$DW$208       .dwtag  DW_TAG_member
TI ARM Assembler PC v16.9.4 Thu Apr 12 20:27:36 2018

Tools Copyright (c) 1996-2017 Texas Instruments Incorporated
C:\Users\Kevin\AppData\Local\Temp\{C001DE3B-F0FF-445D-8CCE-7D0EAD14970B} PAGE   55

    2970                            .dwattr $C$DW$208, DW_AT_type(*$C$DW$T$109)
    2971                            .dwattr $C$DW$208, DW_AT_name("bEnaCmd")
    2972                            .dwattr $C$DW$208, DW_AT_TI_symbol_name("bEnaCmd")
    2973                            .dwattr $C$DW$208, DW_AT_bit_offset(0x03)
    2974                            .dwattr $C$DW$208, DW_AT_bit_size(0x01)
    2975                            .dwattr $C$DW$208, DW_AT_data_member_location[DW_OP_plus_uconst 0x0]
    2976                            .dwattr $C$DW$208, DW_AT_accessibility(DW_ACCESS_public)
    2977                            .dwattr $C$DW$208, DW_AT_decl_file("C:/ti/simplelink_cc13x0_sdk_1_50_00_08/source/ti/devices/c
    2978                            .dwattr $C$DW$208, DW_AT_decl_line(0x1e3)
    2979                            .dwattr $C$DW$208, DW_AT_decl_column(0x0f)
    2980                    
    2981                    $C$DW$209       .dwtag  DW_TAG_member
    2982                            .dwattr $C$DW$209, DW_AT_type(*$C$DW$T$109)
    2983                            .dwattr $C$DW$209, DW_AT_name("triggerNo")
    2984                            .dwattr $C$DW$209, DW_AT_TI_symbol_name("triggerNo")
    2985                            .dwattr $C$DW$209, DW_AT_bit_offset(0x01)
    2986                            .dwattr $C$DW$209, DW_AT_bit_size(0x02)
    2987                            .dwattr $C$DW$209, DW_AT_data_member_location[DW_OP_plus_uconst 0x0]
    2988                            .dwattr $C$DW$209, DW_AT_accessibility(DW_ACCESS_public)
    2989                            .dwattr $C$DW$209, DW_AT_decl_file("C:/ti/simplelink_cc13x0_sdk_1_50_00_08/source/ti/devices/c
    2990                            .dwattr $C$DW$209, DW_AT_decl_line(0x1e5)
    2991                            .dwattr $C$DW$209, DW_AT_decl_column(0x0f)
    2992                    
    2993                    $C$DW$210       .dwtag  DW_TAG_member
    2994                            .dwattr $C$DW$210, DW_AT_type(*$C$DW$T$109)
    2995                            .dwattr $C$DW$210, DW_AT_name("pastTrig")
    2996                            .dwattr $C$DW$210, DW_AT_TI_symbol_name("pastTrig")
    2997                            .dwattr $C$DW$210, DW_AT_bit_offset(0x00)
    2998                            .dwattr $C$DW$210, DW_AT_bit_size(0x01)
    2999                            .dwattr $C$DW$210, DW_AT_data_member_location[DW_OP_plus_uconst 0x0]
    3000                            .dwattr $C$DW$210, DW_AT_accessibility(DW_ACCESS_public)
    3001                            .dwattr $C$DW$210, DW_AT_decl_file("C:/ti/simplelink_cc13x0_sdk_1_50_00_08/source/ti/devices/c
    3002                            .dwattr $C$DW$210, DW_AT_decl_line(0x1e6)
    3003                            .dwattr $C$DW$210, DW_AT_decl_column(0x0f)
    3004                    
