TI ARM Assembler PC v16.9.4 Sat Nov 18 18:46:21 2017

Tools Copyright (c) 1996-2017 Texas Instruments Incorporated
C:\Users\Kevin\AppData\Local\Temp\{91E5085D-660D-4F25-9A12-879222E44D75} PAGE    1

       1                    ;******************************************************************************
       2                    ;* TI ARM C/C++ Codegen                                        PC v16.9.4.LTS *
       3                    ;* Date/Time created: Sat Nov 18 18:46:21 2017                                *
       4                    ;******************************************************************************
       5                            .compiler_opts --abi=eabi --arm_vmrs_si_workaround=off --code_state=16 --diag_wrap=off --embed
       6 00000000                   .thumb
       7                    
       8                    $C$DW$CU        .dwtag  DW_TAG_compile_unit
       9                            .dwattr $C$DW$CU, DW_AT_name("../Application/MAC/HAL/target/dbg.c")
      10                            .dwattr $C$DW$CU, DW_AT_producer("TI TI ARM C/C++ Codegen PC v16.9.4.LTS Copyright (c) 1996-20
      11                            .dwattr $C$DW$CU, DW_AT_TI_version(0x01)
      12                            .dwattr $C$DW$CU, DW_AT_comp_dir("C:\Users\Kevin\workspace_v7\sensor_cc1310lp\sensor_cc1310lp"
      13                    
      14                    $C$DW$1 .dwtag  DW_TAG_subprogram
      15                            .dwattr $C$DW$1, DW_AT_name("NOROM_CPUcpsid")
      16                            .dwattr $C$DW$1, DW_AT_TI_symbol_name("NOROM_CPUcpsid")
      17                            .dwattr $C$DW$1, DW_AT_type(*$C$DW$T$94)
      18                            .dwattr $C$DW$1, DW_AT_declaration
      19                            .dwattr $C$DW$1, DW_AT_external
      20                            .dwattr $C$DW$1, DW_AT_decl_file("C:\ti\simplelink_cc13x0_sdk_1_50_00_08\source\ti\devices\cc1
      21                            .dwattr $C$DW$1, DW_AT_decl_line(0x6a)
      22                            .dwattr $C$DW$1, DW_AT_decl_column(0x11)
      23                            .dwendtag $C$DW$1
      24                    
      25                    
      26                    $C$DW$2 .dwtag  DW_TAG_subprogram
      27                            .dwattr $C$DW$2, DW_AT_name("NOROM_CPUcpsie")
      28                            .dwattr $C$DW$2, DW_AT_TI_symbol_name("NOROM_CPUcpsie")
      29                            .dwattr $C$DW$2, DW_AT_type(*$C$DW$T$94)
      30                            .dwattr $C$DW$2, DW_AT_declaration
      31                            .dwattr $C$DW$2, DW_AT_external
      32                            .dwattr $C$DW$2, DW_AT_decl_file("C:\ti\simplelink_cc13x0_sdk_1_50_00_08\source\ti\devices\cc1
      33                            .dwattr $C$DW$2, DW_AT_decl_line(0x84)
      34                            .dwattr $C$DW$2, DW_AT_decl_column(0x11)
      35                            .dwendtag $C$DW$2
      36                    
      37 00000000                   .sect   ".const"
      38                            .align  4
      39                            .elfsym SP_TRCCH1CMD,SYM_SIZE(4)
      40 00000000           SP_TRCCH1CMD:
      41 00000000 40047004          .bits   1074032644,32                   ; SP_TRCCH1CMD @ 0
      42                    
      43                    $C$DW$3 .dwtag  DW_TAG_variable
      44                            .dwattr $C$DW$3, DW_AT_name("SP_TRCCH1CMD")
      45                            .dwattr $C$DW$3, DW_AT_TI_symbol_name("SP_TRCCH1CMD")
      46                            .dwattr $C$DW$3, DW_AT_type(*$C$DW$T$955)
      47                            .dwattr $C$DW$3, DW_AT_location[DW_OP_addr SP_TRCCH1CMD]
      48                            .dwattr $C$DW$3, DW_AT_decl_file("C:/ti/simplelink_cc13x0_sdk_1_50_00_08/source/ti/ti154stack/
      49                            .dwattr $C$DW$3, DW_AT_decl_line(0x52)
      50                            .dwattr $C$DW$3, DW_AT_decl_column(0x26)
      51                    
      52 00000004                   .sect   ".const"
      53                            .align  4
      54                            .elfsym SP_TRCCH1PAR01,SYM_SIZE(4)
      55 00000004           SP_TRCCH1PAR01:
TI ARM Assembler PC v16.9.4 Sat Nov 18 18:46:21 2017

Tools Copyright (c) 1996-2017 Texas Instruments Incorporated
C:\Users\Kevin\AppData\Local\Temp\{91E5085D-660D-4F25-9A12-879222E44D75} PAGE    2

      56 00000004 40047014          .bits   1074032660,32                   ; SP_TRCCH1PAR01 @ 0
      57                    
      58                    $C$DW$4 .dwtag  DW_TAG_variable
      59                            .dwattr $C$DW$4, DW_AT_name("SP_TRCCH1PAR01")
      60                            .dwattr $C$DW$4, DW_AT_TI_symbol_name("SP_TRCCH1PAR01")
      61                            .dwattr $C$DW$4, DW_AT_type(*$C$DW$T$955)
      62                            .dwattr $C$DW$4, DW_AT_location[DW_OP_addr SP_TRCCH1PAR01]
      63                            .dwattr $C$DW$4, DW_AT_decl_file("C:/ti/simplelink_cc13x0_sdk_1_50_00_08/source/ti/ti154stack/
      64                            .dwattr $C$DW$4, DW_AT_decl_line(0x73)
      65                            .dwattr $C$DW$4, DW_AT_decl_column(0x26)
      66                    
      67 00000008                   .sect   ".const"
      68                            .align  4
      69                            .elfsym SP_TRCCH1PAR23,SYM_SIZE(4)
      70 00000008           SP_TRCCH1PAR23:
      71 00000008 40047024          .bits   1074032676,32                   ; SP_TRCCH1PAR23 @ 0
      72                    
      73                    $C$DW$5 .dwtag  DW_TAG_variable
      74                            .dwattr $C$DW$5, DW_AT_name("SP_TRCCH1PAR23")
      75                            .dwattr $C$DW$5, DW_AT_TI_symbol_name("SP_TRCCH1PAR23")
      76                            .dwattr $C$DW$5, DW_AT_type(*$C$DW$T$955)
      77                            .dwattr $C$DW$5, DW_AT_location[DW_OP_addr SP_TRCCH1PAR23]
      78                            .dwattr $C$DW$5, DW_AT_decl_file("C:/ti/simplelink_cc13x0_sdk_1_50_00_08/source/ti/ti154stack/
      79                            .dwattr $C$DW$5, DW_AT_decl_line(0x8e)
      80                            .dwattr $C$DW$5, DW_AT_decl_column(0x26)
      81                    
      82                    ;       C:\ti\ccsv7\tools\compiler\ti-cgt-arm_16.9.4.LTS\bin\armopt.exe C:/Users/Kevin/workspace_v7/se
      83 00000000                   .sect   ".text:dbgPrintf2"
      84                            .clink
      85                            .thumbfunc dbgPrintf2
      86 00000000                   .thumb
      87                            .global dbgPrintf2
      88                    
      89                    $C$DW$6 .dwtag  DW_TAG_subprogram
      90                            .dwattr $C$DW$6, DW_AT_name("dbgPrintf2")
      91                            .dwattr $C$DW$6, DW_AT_low_pc(dbgPrintf2)
      92                            .dwattr $C$DW$6, DW_AT_high_pc(0x00)
      93                            .dwattr $C$DW$6, DW_AT_TI_symbol_name("dbgPrintf2")
      94                            .dwattr $C$DW$6, DW_AT_external
      95                            .dwattr $C$DW$6, DW_AT_TI_begin_file("../Application/MAC/HAL/target/dbg.c")
      96                            .dwattr $C$DW$6, DW_AT_TI_begin_line(0x7c)
      97                            .dwattr $C$DW$6, DW_AT_TI_begin_column(0x06)
      98                            .dwattr $C$DW$6, DW_AT_decl_file("../Application/MAC/HAL/target/dbg.c")
      99                            .dwattr $C$DW$6, DW_AT_decl_line(0x7c)
     100                            .dwattr $C$DW$6, DW_AT_decl_column(0x06)
     101                            .dwattr $C$DW$6, DW_AT_TI_max_frame_size(0x20)
     102                            .dwpsn  file "../Application/MAC/HAL/target/dbg.c",line 125,column 1,is_stmt,address dbgPrintf
     103                    
     104                            .dwfde $C$DW$CIE, dbgPrintf2
     105                    $C$DW$7 .dwtag  DW_TAG_formal_parameter
     106                            .dwattr $C$DW$7, DW_AT_name("x")
     107                            .dwattr $C$DW$7, DW_AT_TI_symbol_name("x")
     108                            .dwattr $C$DW$7, DW_AT_type(*$C$DW$T$94)
     109                            .dwattr $C$DW$7, DW_AT_location[DW_OP_reg0]
     110                    
TI ARM Assembler PC v16.9.4 Sat Nov 18 18:46:21 2017

Tools Copyright (c) 1996-2017 Texas Instruments Incorporated
C:\Users\Kevin\AppData\Local\Temp\{91E5085D-660D-4F25-9A12-879222E44D75} PAGE    3

     111                    $C$DW$8 .dwtag  DW_TAG_formal_parameter
     112                            .dwattr $C$DW$8, DW_AT_name("y")
     113                            .dwattr $C$DW$8, DW_AT_TI_symbol_name("y")
     114                            .dwattr $C$DW$8, DW_AT_type(*$C$DW$T$94)
     115                            .dwattr $C$DW$8, DW_AT_location[DW_OP_reg1]
     116                    
     117                    
     118                    ;*****************************************************************************
     119                    ;* FUNCTION NAME: dbgPrintf2                                                 *
     120                    ;*                                                                           *
     121                    ;*   Regs Modified     : A1,A2,A3,A4,V1,V2,V3,V4,V5,V6,V9,SP,LR,SR           *
     122                    ;*   Regs Used         : A1,A2,A3,A4,V1,V2,V3,V4,V5,V6,V9,SP,LR,SR           *
     123                    ;*   Local Frame Size  : 0 Args + 0 Auto + 28 Save = 28 byte                 *
     124                    ;*****************************************************************************
     125                    dbgPrintf2:
     126                    ;* --------------------------------------------------------------------------*
     127                    ;* A1    assigned to $O$C1
     128                    ;* V1    assigned to $O$U14
     129                    ;* V6    assigned to $O$U11
     130                    ;* V3    assigned to x
     131                    $C$DW$9 .dwtag  DW_TAG_variable
     132                            .dwattr $C$DW$9, DW_AT_name("x")
     133                            .dwattr $C$DW$9, DW_AT_TI_symbol_name("x")
     134                            .dwattr $C$DW$9, DW_AT_type(*$C$DW$T$948)
     135                            .dwattr $C$DW$9, DW_AT_location[DW_OP_reg6]
     136                    
     137                    ;* V5    assigned to y
     138                    $C$DW$10        .dwtag  DW_TAG_variable
     139                            .dwattr $C$DW$10, DW_AT_name("y")
     140                            .dwattr $C$DW$10, DW_AT_TI_symbol_name("y")
     141                            .dwattr $C$DW$10, DW_AT_type(*$C$DW$T$948)
     142                            .dwattr $C$DW$10, DW_AT_location[DW_OP_reg8]
     143                    
     144                    ;* A1    assigned to cs
     145                    $C$DW$11        .dwtag  DW_TAG_variable
     146                            .dwattr $C$DW$11, DW_AT_name("cs")
     147                            .dwattr $C$DW$11, DW_AT_TI_symbol_name("cs")
     148                            .dwattr $C$DW$11, DW_AT_type(*$C$DW$T$10)
     149                            .dwattr $C$DW$11, DW_AT_location[DW_OP_reg0]
     150                    
     151                            .dwcfi  cfa_offset, 0
     152 00000000 43F8E92D          PUSH      {A4, V1, V2, V3, V4, V5, V6, LR} ; [DPU_3_PIPE]  ; [KEEP 32-BIT INS]
     153                            .dwcfi  cfa_offset, 32
     154                            .dwcfi  save_reg_to_mem, 14, -4
     155                            .dwcfi  save_reg_to_mem, 9, -8
     156                            .dwcfi  save_reg_to_mem, 8, -12
     157                            .dwcfi  save_reg_to_mem, 7, -16
     158                            .dwcfi  save_reg_to_mem, 6, -20
     159                            .dwcfi  save_reg_to_mem, 5, -24
     160                            .dwcfi  save_reg_to_mem, 4, -28
     161                            .dwcfi  save_reg_to_mem, 3, -32
     162 00000004 4D10              LDR       V2, $C$CON2           ; [DPU_3_PIPE]  ; [ORIG 16-BIT INS]
     163 00000006 4606              MOV       V3, A1                ; [DPU_3_PIPE] |125|  ; [ORIG 16-BIT INS]
     164 00000008 0C30              LSRS      A1, V3, #16           ; [DPU_3_PIPE]  ; [ORIG 16-BIT INS]
     165 0000000a 4688              MOV       V5, A2                ; [DPU_3_PIPE] |125|  ; [ORIG 16-BIT INS]
TI ARM Assembler PC v16.9.4 Sat Nov 18 18:46:21 2017

Tools Copyright (c) 1996-2017 Texas Instruments Incorporated
C:\Users\Kevin\AppData\Local\Temp\{91E5085D-660D-4F25-9A12-879222E44D75} PAGE    4

     166 0000000c 0410F1A5          SUB       V1, V2, #16           ; [DPU_3_PIPE]  ; [KEEP 32-BIT INS]
     167 00000010 1E40              SUBS      A1, A1, #1            ; [DPU_3_PIPE]  ; [ORIG 16-BIT INS]
     168 00000012 0980EA4F          LSL       V6, A1, #2            ; [DPU_3_PIPE]  ; [KEEP 32-BIT INS]
     169 00000016 0480EB04          ADD       V1, V1, A1, LSL #2    ; [DPU_3_PIPE]  ; [KEEP 32-BIT INS]
     170 0000001a E002              B         ||$C$L2||             ; [DPU_3_PIPE]  ; [ORIG 16-BIT INS]
     171                            ; BRANCH OCCURS {||$C$L2||}      ; [] 
     172                    ;* --------------------------------------------------------------------------*
     173 0000001c           ||$C$L1||:    
     174 0000001c B108              CBZ       A1, ||$C$L2||         ; []  ; [ORIG 16-BIT INS]
     175                            .dwpsn  file "../Application/MAC/HAL/target/dbg.c",line 143,column 10,is_stmt,isa 1
     176                            ; BRANCHCC OCCURS {||$C$L2||}    ; [] |143| 
     177                    ;* --------------------------------------------------------------------------*
     178                    $C$DW$12        .dwtag  DW_TAG_TI_branch
     179                            .dwattr $C$DW$12, DW_AT_low_pc(0x00)
     180                            .dwattr $C$DW$12, DW_AT_name("NOROM_CPUcpsie")
     181                            .dwattr $C$DW$12, DW_AT_TI_call
     182                    
     183 0000001e FFFEF7FF!         BL        NOROM_CPUcpsie        ; [DPU_3_PIPE] |143|  ; [KEEP 32-BIT INS]
     184                            ; CALL OCCURS {NOROM_CPUcpsie }  ; [] |143| 
     185                    ;* --------------------------------------------------------------------------*
     186                    ;*   BEGIN LOOP ||$C$L2||
     187                    ;*
     188                    ;*   Loop source line                : 143
     189                    ;*   Loop closing brace source line  : 143
     190                    ;*   Known Minimum Trip Count        : 1
     191                    ;*   Known Maximum Trip Count        : 4294967295
     192                    ;*   Known Max Trip Count Factor     : 1
     193                    ;* --------------------------------------------------------------------------*
     194 00000022           ||$C$L2||:    
     195                            .dwpsn  file "../Application/MAC/HAL/target/dbg.c",line 132,column 7,is_stmt,isa 1
     196                    $C$DW$13        .dwtag  DW_TAG_TI_branch
     197                            .dwattr $C$DW$13, DW_AT_low_pc(0x00)
     198                            .dwattr $C$DW$13, DW_AT_name("NOROM_CPUcpsid")
     199                            .dwattr $C$DW$13, DW_AT_TI_call
     200                    
     201 00000022 FFFEF7FF!         BL        NOROM_CPUcpsid        ; [DPU_3_PIPE] |132|  ; [KEEP 32-BIT INS]
     202                            ; CALL OCCURS {NOROM_CPUcpsid }  ; [] |132| 
     203 00000026 2700              MOVS      V4, #0                ; [DPU_3_PIPE] |132|  ; [ORIG 16-BIT INS]
     204 00000028 B900              CBNZ      A1, ||$C$L3||         ; []  ; [ORIG 16-BIT INS]
     205 0000002a 2701              MOVS      V4, #1                ; [DPU_3_PIPE] |132|  ; [ORIG 16-BIT INS]
     206                    ;* --------------------------------------------------------------------------*
     207 0000002c           ||$C$L3||:    
     208                            .dwpsn  file "../Application/MAC/HAL/target/dbg.c",line 133,column 7,is_stmt,isa 1
     209 0000002c 6821              LDR       A2, [V1, #0]          ; [DPU_3_PIPE] |133|  ; [ORIG 16-BIT INS]
     210                            .dwpsn  file "../Application/MAC/HAL/target/dbg.c",line 132,column 7,is_stmt,isa 1
     211 0000002e 4638              MOV       A1, V4                ; [DPU_3_PIPE] |132|  ; [ORIG 16-BIT INS]
     212                            .dwpsn  file "../Application/MAC/HAL/target/dbg.c",line 133,column 7,is_stmt,isa 1
     213 00000030 4F7FF411          TST       A2, #65280            ; [DPU_3_PIPE] |133|  ; [KEEP 32-BIT INS]
     214 00000034 D1F2              BNE       ||$C$L1||             ; [DPU_3_PIPE] |133|  ; [ORIG 16-BIT INS]
     215                            ; BRANCHCC OCCURS {||$C$L1||}    ; [] |133| 
     216                    ;* --------------------------------------------------------------------------*
     217                            .dwpsn  file "../Application/MAC/HAL/target/dbg.c",line 135,column 10,is_stmt,isa 1
     218 00000036 8009F845          STR       V5, [V2, +V6]         ; [DPU_3_PIPE] |135|  ; [KEEP 32-BIT INS]
     219                            .dwpsn  file "../Application/MAC/HAL/target/dbg.c",line 136,column 10,is_stmt,isa 1
     220 0000003a 6026              STR       V3, [V1, #0]          ; [DPU_3_PIPE] |136|  ; [ORIG 16-BIT INS]
TI ARM Assembler PC v16.9.4 Sat Nov 18 18:46:21 2017

Tools Copyright (c) 1996-2017 Texas Instruments Incorporated
C:\Users\Kevin\AppData\Local\Temp\{91E5085D-660D-4F25-9A12-879222E44D75} PAGE    5

     221 0000003c B108              CBZ       A1, ||$C$L4||         ; []  ; [ORIG 16-BIT INS]
     222                            .dwpsn  file "../Application/MAC/HAL/target/dbg.c",line 138,column 10,is_stmt,isa 1
     223                            ; BRANCHCC OCCURS {||$C$L4||}    ; [] |138| 
     224                    ;* --------------------------------------------------------------------------*
     225                    $C$DW$14        .dwtag  DW_TAG_TI_branch
     226                            .dwattr $C$DW$14, DW_AT_low_pc(0x00)
     227                            .dwattr $C$DW$14, DW_AT_name("NOROM_CPUcpsie")
     228                            .dwattr $C$DW$14, DW_AT_TI_call
     229                    
     230 0000003e FFFEF7FF!         BL        NOROM_CPUcpsie        ; [DPU_3_PIPE] |138|  ; [KEEP 32-BIT INS]
     231                            ; CALL OCCURS {NOROM_CPUcpsie }  ; [] |138| 
     232                    ;* --------------------------------------------------------------------------*
     233                    ||$C$L4||:    
     234                    $C$DW$15        .dwtag  DW_TAG_TI_branch
     235                            .dwattr $C$DW$15, DW_AT_low_pc(0x00)
     236                            .dwattr $C$DW$15, DW_AT_TI_return
     237                    
     238 00000042 83F8E8BD          POP       {A4, V1, V2, V3, V4, V5, V6, PC} ; [DPU_3_PIPE]  ; [KEEP 32-BIT INS]
     239                            .dwcfi  cfa_offset, 0
     240                            ; BRANCH OCCURS                  ; [] 
     241                            .dwattr $C$DW$6, DW_AT_TI_end_file("../Application/MAC/HAL/target/dbg.c")
     242                            .dwattr $C$DW$6, DW_AT_TI_end_line(0x92)
     243                            .dwattr $C$DW$6, DW_AT_TI_end_column(0x01)
     244                            .dwendentry
     245                            .dwendtag $C$DW$6
     246                    
     247 00000000                   .sect   ".text:dbgPrintf0"
     248                            .clink
     249                            .thumbfunc dbgPrintf0
     250 00000000                   .thumb
     251                            .global dbgPrintf0
     252                    
     253                    $C$DW$16        .dwtag  DW_TAG_subprogram
     254                            .dwattr $C$DW$16, DW_AT_name("dbgPrintf0")
     255                            .dwattr $C$DW$16, DW_AT_low_pc(dbgPrintf0)
     256                            .dwattr $C$DW$16, DW_AT_high_pc(0x00)
     257                            .dwattr $C$DW$16, DW_AT_TI_symbol_name("dbgPrintf0")
     258                            .dwattr $C$DW$16, DW_AT_external
     259                            .dwattr $C$DW$16, DW_AT_TI_begin_file("../Application/MAC/HAL/target/dbg.c")
     260                            .dwattr $C$DW$16, DW_AT_TI_begin_line(0xa1)
     261                            .dwattr $C$DW$16, DW_AT_TI_begin_column(0x06)
     262                            .dwattr $C$DW$16, DW_AT_decl_file("../Application/MAC/HAL/target/dbg.c")
     263                            .dwattr $C$DW$16, DW_AT_decl_line(0xa1)
     264                            .dwattr $C$DW$16, DW_AT_decl_column(0x06)
     265                            .dwattr $C$DW$16, DW_AT_TI_max_frame_size(0x10)
     266                            .dwpsn  file "../Application/MAC/HAL/target/dbg.c",line 162,column 1,is_stmt,address dbgPrintf
     267                    
     268                            .dwfde $C$DW$CIE, dbgPrintf0
     269                    $C$DW$17        .dwtag  DW_TAG_formal_parameter
     270                            .dwattr $C$DW$17, DW_AT_name("x")
     271                            .dwattr $C$DW$17, DW_AT_TI_symbol_name("x")
     272                            .dwattr $C$DW$17, DW_AT_type(*$C$DW$T$94)
     273                            .dwattr $C$DW$17, DW_AT_location[DW_OP_reg0]
     274                    
     275                    
TI ARM Assembler PC v16.9.4 Sat Nov 18 18:46:21 2017

Tools Copyright (c) 1996-2017 Texas Instruments Incorporated
C:\Users\Kevin\AppData\Local\Temp\{91E5085D-660D-4F25-9A12-879222E44D75} PAGE    6

     276                    ;*****************************************************************************
     277                    ;* FUNCTION NAME: dbgPrintf0                                                 *
     278                    ;*                                                                           *
     279                    ;*   Regs Modified     : A1,A2,A3,A4,V1,V2,V4,V9,SP,LR,SR                    *
     280                    ;*   Regs Used         : A1,A2,A3,A4,V1,V2,V4,V9,SP,LR,SR                    *
     281                    ;*   Local Frame Size  : 0 Args + 0 Auto + 16 Save = 16 byte                 *
     282                    ;*****************************************************************************
     283                    dbgPrintf0:
     284                    ;* --------------------------------------------------------------------------*
     285                    ;* V1    assigned to $O$U13
     286                    ;* V2    assigned to x
     287                    $C$DW$18        .dwtag  DW_TAG_variable
     288                            .dwattr $C$DW$18, DW_AT_name("x")
     289                            .dwattr $C$DW$18, DW_AT_TI_symbol_name("x")
     290                            .dwattr $C$DW$18, DW_AT_type(*$C$DW$T$948)
     291                            .dwattr $C$DW$18, DW_AT_location[DW_OP_reg5]
     292                    
     293                    ;* A1    assigned to cs
     294                    $C$DW$19        .dwtag  DW_TAG_variable
     295                            .dwattr $C$DW$19, DW_AT_name("cs")
     296                            .dwattr $C$DW$19, DW_AT_TI_symbol_name("cs")
     297                            .dwattr $C$DW$19, DW_AT_type(*$C$DW$T$10)
     298                            .dwattr $C$DW$19, DW_AT_location[DW_OP_reg0]
     299                    
     300                            .dwcfi  cfa_offset, 0
     301 00000000 B5B0              PUSH      {V1, V2, V4, LR}      ; [DPU_3_PIPE]  ; [ORIG 16-BIT INS]
     302                            .dwcfi  cfa_offset, 16
     303                            .dwcfi  save_reg_to_mem, 14, -4
     304                            .dwcfi  save_reg_to_mem, 7, -8
     305                            .dwcfi  save_reg_to_mem, 5, -12
     306                            .dwcfi  save_reg_to_mem, 4, -16
     307 00000002 4C0D              LDR       V1, $C$CON4           ; [DPU_3_PIPE]  ; [ORIG 16-BIT INS]
     308 00000004 4605              MOV       V2, A1                ; [DPU_3_PIPE] |162|  ; [ORIG 16-BIT INS]
     309 00000006 0C28              LSRS      A1, V2, #16           ; [DPU_3_PIPE]  ; [ORIG 16-BIT INS]
     310 00000008 0080              LSLS      A1, A1, #2            ; [DPU_3_PIPE]  ; [ORIG 16-BIT INS]
     311 0000000a 3C10              SUBS      V1, V1, #16           ; [DPU_3_PIPE]  ; [ORIG 16-BIT INS]
     312 0000000c 1F00              SUBS      A1, A1, #4            ; [DPU_3_PIPE]  ; [ORIG 16-BIT INS]
     313 0000000e 1824              ADDS      V1, V1, A1            ; [DPU_3_PIPE]  ; [ORIG 16-BIT INS]
     314 00000010 E002              B         ||$C$L6||             ; [DPU_3_PIPE]  ; [ORIG 16-BIT INS]
     315                            ; BRANCH OCCURS {||$C$L6||}      ; [] 
     316                    ;* --------------------------------------------------------------------------*
     317 00000012           ||$C$L5||:    
     318 00000012 B108              CBZ       A1, ||$C$L6||         ; []  ; [ORIG 16-BIT INS]
     319                            .dwpsn  file "../Application/MAC/HAL/target/dbg.c",line 179,column 10,is_stmt,isa 1
     320                            ; BRANCHCC OCCURS {||$C$L6||}    ; [] |179| 
     321                    ;* --------------------------------------------------------------------------*
     322                    $C$DW$20        .dwtag  DW_TAG_TI_branch
     323                            .dwattr $C$DW$20, DW_AT_low_pc(0x00)
     324                            .dwattr $C$DW$20, DW_AT_name("NOROM_CPUcpsie")
     325                            .dwattr $C$DW$20, DW_AT_TI_call
     326                    
     327 00000014 FFFEF7FF!         BL        NOROM_CPUcpsie        ; [DPU_3_PIPE] |179|  ; [KEEP 32-BIT INS]
     328                            ; CALL OCCURS {NOROM_CPUcpsie }  ; [] |179| 
     329                    ;* --------------------------------------------------------------------------*
     330                    ;*   BEGIN LOOP ||$C$L6||
TI ARM Assembler PC v16.9.4 Sat Nov 18 18:46:21 2017

Tools Copyright (c) 1996-2017 Texas Instruments Incorporated
C:\Users\Kevin\AppData\Local\Temp\{91E5085D-660D-4F25-9A12-879222E44D75} PAGE    7

     331                    ;*
     332                    ;*   Loop source line                : 179
     333                    ;*   Loop closing brace source line  : 179
     334                    ;*   Known Minimum Trip Count        : 1
     335                    ;*   Known Maximum Trip Count        : 4294967295
     336                    ;*   Known Max Trip Count Factor     : 1
     337                    ;* --------------------------------------------------------------------------*
     338 00000018           ||$C$L6||:    
     339                            .dwpsn  file "../Application/MAC/HAL/target/dbg.c",line 169,column 7,is_stmt,isa 1
     340                    $C$DW$21        .dwtag  DW_TAG_TI_branch
     341                            .dwattr $C$DW$21, DW_AT_low_pc(0x00)
     342                            .dwattr $C$DW$21, DW_AT_name("NOROM_CPUcpsid")
     343                            .dwattr $C$DW$21, DW_AT_TI_call
     344                    
     345 00000018 FFFEF7FF!         BL        NOROM_CPUcpsid        ; [DPU_3_PIPE] |169|  ; [KEEP 32-BIT INS]
     346                            ; CALL OCCURS {NOROM_CPUcpsid }  ; [] |169| 
     347 0000001c 2700              MOVS      V4, #0                ; [DPU_3_PIPE] |169|  ; [ORIG 16-BIT INS]
     348 0000001e B900              CBNZ      A1, ||$C$L7||         ; []  ; [ORIG 16-BIT INS]
     349 00000020 2701              MOVS      V4, #1                ; [DPU_3_PIPE] |169|  ; [ORIG 16-BIT INS]
     350                    ;* --------------------------------------------------------------------------*
     351 00000022           ||$C$L7||:    
     352                            .dwpsn  file "../Application/MAC/HAL/target/dbg.c",line 170,column 7,is_stmt,isa 1
     353 00000022 6821              LDR       A2, [V1, #0]          ; [DPU_3_PIPE] |170|  ; [ORIG 16-BIT INS]
     354                            .dwpsn  file "../Application/MAC/HAL/target/dbg.c",line 169,column 7,is_stmt,isa 1
     355 00000024 4638              MOV       A1, V4                ; [DPU_3_PIPE] |169|  ; [ORIG 16-BIT INS]
     356                            .dwpsn  file "../Application/MAC/HAL/target/dbg.c",line 170,column 7,is_stmt,isa 1
     357 00000026 4F7FF411          TST       A2, #65280            ; [DPU_3_PIPE] |170|  ; [KEEP 32-BIT INS]
     358 0000002a D1F2              BNE       ||$C$L5||             ; [DPU_3_PIPE] |170|  ; [ORIG 16-BIT INS]
     359                            ; BRANCHCC OCCURS {||$C$L5||}    ; [] |170| 
     360                    ;* --------------------------------------------------------------------------*
     361                            .dwpsn  file "../Application/MAC/HAL/target/dbg.c",line 172,column 10,is_stmt,isa 1
     362 0000002c 6025              STR       V2, [V1, #0]          ; [DPU_3_PIPE] |172|  ; [ORIG 16-BIT INS]
     363 0000002e B108              CBZ       A1, ||$C$L8||         ; []  ; [ORIG 16-BIT INS]
     364                            .dwpsn  file "../Application/MAC/HAL/target/dbg.c",line 174,column 10,is_stmt,isa 1
     365                            ; BRANCHCC OCCURS {||$C$L8||}    ; [] |174| 
     366                    ;* --------------------------------------------------------------------------*
     367                    $C$DW$22        .dwtag  DW_TAG_TI_branch
     368                            .dwattr $C$DW$22, DW_AT_low_pc(0x00)
     369                            .dwattr $C$DW$22, DW_AT_name("NOROM_CPUcpsie")
     370                            .dwattr $C$DW$22, DW_AT_TI_call
     371                    
     372 00000030 FFFEF7FF!         BL        NOROM_CPUcpsie        ; [DPU_3_PIPE] |174|  ; [KEEP 32-BIT INS]
     373                            ; CALL OCCURS {NOROM_CPUcpsie }  ; [] |174| 
     374                    ;* --------------------------------------------------------------------------*
     375                    ||$C$L8||:    
     376                    $C$DW$23        .dwtag  DW_TAG_TI_branch
     377                            .dwattr $C$DW$23, DW_AT_low_pc(0x00)
     378                            .dwattr $C$DW$23, DW_AT_TI_return
     379                    
     380 00000034 BDB0              POP       {V1, V2, V4, PC}      ; [DPU_3_PIPE]  ; [ORIG 16-BIT INS]
     381                            .dwcfi  cfa_offset, 0
     382                            ; BRANCH OCCURS                  ; [] 
     383                            .dwattr $C$DW$16, DW_AT_TI_end_file("../Application/MAC/HAL/target/dbg.c")
     384                            .dwattr $C$DW$16, DW_AT_TI_end_line(0xb6)
     385                            .dwattr $C$DW$16, DW_AT_TI_end_column(0x01)
TI ARM Assembler PC v16.9.4 Sat Nov 18 18:46:21 2017

Tools Copyright (c) 1996-2017 Texas Instruments Incorporated
C:\Users\Kevin\AppData\Local\Temp\{91E5085D-660D-4F25-9A12-879222E44D75} PAGE    8

     386                            .dwendentry
     387                            .dwendtag $C$DW$16
     388                    
     389 00000000                   .sect   ".text:dbgPrintf"
     390                            .clink
     391                            .thumbfunc dbgPrintf
     392 00000000                   .thumb
     393                            .global dbgPrintf
     394                    
     395                    $C$DW$24        .dwtag  DW_TAG_subprogram
     396                            .dwattr $C$DW$24, DW_AT_name("dbgPrintf")
     397                            .dwattr $C$DW$24, DW_AT_low_pc(dbgPrintf)
     398                            .dwattr $C$DW$24, DW_AT_high_pc(0x00)
     399                            .dwattr $C$DW$24, DW_AT_TI_symbol_name("dbgPrintf")
     400                            .dwattr $C$DW$24, DW_AT_external
     401                            .dwattr $C$DW$24, DW_AT_TI_begin_file("../Application/MAC/HAL/target/dbg.c")
     402                            .dwattr $C$DW$24, DW_AT_TI_begin_line(0x54)
     403                            .dwattr $C$DW$24, DW_AT_TI_begin_column(0x06)
     404                            .dwattr $C$DW$24, DW_AT_decl_file("../Application/MAC/HAL/target/dbg.c")
     405                            .dwattr $C$DW$24, DW_AT_decl_line(0x54)
     406                            .dwattr $C$DW$24, DW_AT_decl_column(0x06)
     407                            .dwattr $C$DW$24, DW_AT_TI_max_frame_size(0x20)
     408                            .dwpsn  file "../Application/MAC/HAL/target/dbg.c",line 85,column 1,is_stmt,address dbgPrintf,
     409                    
     410                            .dwfde $C$DW$CIE, dbgPrintf
     411                    $C$DW$25        .dwtag  DW_TAG_formal_parameter
     412                            .dwattr $C$DW$25, DW_AT_name("x")
     413                            .dwattr $C$DW$25, DW_AT_TI_symbol_name("x")
     414                            .dwattr $C$DW$25, DW_AT_type(*$C$DW$T$94)
     415                            .dwattr $C$DW$25, DW_AT_location[DW_OP_reg0]
     416                    
     417                    $C$DW$26        .dwtag  DW_TAG_formal_parameter
     418                            .dwattr $C$DW$26, DW_AT_name("y")
     419                            .dwattr $C$DW$26, DW_AT_TI_symbol_name("y")
     420                            .dwattr $C$DW$26, DW_AT_type(*$C$DW$T$94)
     421                            .dwattr $C$DW$26, DW_AT_location[DW_OP_reg1]
     422                    
     423                    $C$DW$27        .dwtag  DW_TAG_formal_parameter
     424                            .dwattr $C$DW$27, DW_AT_name("z")
     425                            .dwattr $C$DW$27, DW_AT_TI_symbol_name("z")
     426                            .dwattr $C$DW$27, DW_AT_type(*$C$DW$T$94)
     427                            .dwattr $C$DW$27, DW_AT_location[DW_OP_reg2]
     428                    
     429                    
     430                    ;*****************************************************************************
     431                    ;* FUNCTION NAME: dbgPrintf                                                  *
     432                    ;*                                                                           *
     433                    ;*   Regs Modified     : A1,A2,A3,A4,V1,V2,V3,V4,V5,V6,V9,SP,LR,SR           *
     434                    ;*   Regs Used         : A1,A2,A3,A4,V1,V2,V3,V4,V5,V6,V9,SP,LR,SR           *
     435                    ;*   Local Frame Size  : 0 Args + 0 Auto + 28 Save = 28 byte                 *
     436                    ;*****************************************************************************
     437                    dbgPrintf:
     438                    ;* --------------------------------------------------------------------------*
     439                    ;* A1    assigned to $O$C1
     440                    ;* V1    assigned to $O$U15
TI ARM Assembler PC v16.9.4 Sat Nov 18 18:46:21 2017

Tools Copyright (c) 1996-2017 Texas Instruments Incorporated
C:\Users\Kevin\AppData\Local\Temp\{91E5085D-660D-4F25-9A12-879222E44D75} PAGE    9

     441                    ;* V3    assigned to $O$U12
     442                    ;* V2    assigned to x
     443                    $C$DW$28        .dwtag  DW_TAG_variable
     444                            .dwattr $C$DW$28, DW_AT_name("x")
     445                            .dwattr $C$DW$28, DW_AT_TI_symbol_name("x")
     446                            .dwattr $C$DW$28, DW_AT_type(*$C$DW$T$948)
     447                            .dwattr $C$DW$28, DW_AT_location[DW_OP_reg5]
     448                    
     449                    ;* V6    assigned to y
     450                    $C$DW$29        .dwtag  DW_TAG_variable
     451                            .dwattr $C$DW$29, DW_AT_name("y")
     452                            .dwattr $C$DW$29, DW_AT_TI_symbol_name("y")
     453                            .dwattr $C$DW$29, DW_AT_type(*$C$DW$T$948)
     454                            .dwattr $C$DW$29, DW_AT_location[DW_OP_reg9]
     455                    
     456                    ;* V5    assigned to z
     457                    $C$DW$30        .dwtag  DW_TAG_variable
     458                            .dwattr $C$DW$30, DW_AT_name("z")
     459                            .dwattr $C$DW$30, DW_AT_TI_symbol_name("z")
     460                            .dwattr $C$DW$30, DW_AT_type(*$C$DW$T$948)
     461                            .dwattr $C$DW$30, DW_AT_location[DW_OP_reg8]
     462                    
     463                    ;* V4    assigned to cs
     464                    $C$DW$31        .dwtag  DW_TAG_variable
     465                            .dwattr $C$DW$31, DW_AT_name("cs")
     466                            .dwattr $C$DW$31, DW_AT_TI_symbol_name("cs")
     467                            .dwattr $C$DW$31, DW_AT_type(*$C$DW$T$10)
     468                            .dwattr $C$DW$31, DW_AT_location[DW_OP_reg7]
     469                    
     470                            .dwcfi  cfa_offset, 0
     471 00000000 43F8E92D          PUSH      {A4, V1, V2, V3, V4, V5, V6, LR} ; [DPU_3_PIPE]  ; [KEEP 32-BIT INS]
     472                            .dwcfi  cfa_offset, 32
     473                            .dwcfi  save_reg_to_mem, 14, -4
     474                            .dwcfi  save_reg_to_mem, 9, -8
     475                            .dwcfi  save_reg_to_mem, 8, -12
     476                            .dwcfi  save_reg_to_mem, 7, -16
     477                            .dwcfi  save_reg_to_mem, 6, -20
     478                            .dwcfi  save_reg_to_mem, 5, -24
     479                            .dwcfi  save_reg_to_mem, 4, -28
     480                            .dwcfi  save_reg_to_mem, 3, -32
     481 00000004 4C12              LDR       V1, $C$CON8           ; [DPU_3_PIPE]  ; [ORIG 16-BIT INS]
     482 00000006 4605              MOV       V2, A1                ; [DPU_3_PIPE] |85|  ; [ORIG 16-BIT INS]
     483 00000008 0C28              LSRS      A1, V2, #16           ; [DPU_3_PIPE]  ; [ORIG 16-BIT INS]
     484 0000000a 4690              MOV       V5, A3                ; [DPU_3_PIPE] |85|  ; [ORIG 16-BIT INS]
     485 0000000c 4689              MOV       V6, A2                ; [DPU_3_PIPE] |85|  ; [ORIG 16-BIT INS]
     486 0000000e 1E40              SUBS      A1, A1, #1            ; [DPU_3_PIPE]  ; [ORIG 16-BIT INS]
     487 00000010 3C10              SUBS      V1, V1, #16           ; [DPU_3_PIPE]  ; [ORIG 16-BIT INS]
     488 00000012 0086              LSLS      V3, A1, #2            ; [DPU_3_PIPE]  ; [ORIG 16-BIT INS]
     489 00000014 0480EB04          ADD       V1, V1, A1, LSL #2    ; [DPU_3_PIPE]  ; [KEEP 32-BIT INS]
     490 00000018 E002              B         ||$C$L10||            ; [DPU_3_PIPE]  ; [ORIG 16-BIT INS]
     491                            ; BRANCH OCCURS {||$C$L10||}     ; [] 
     492                    ;* --------------------------------------------------------------------------*
     493 0000001a           ||$C$L9||:    
     494 0000001a B10F              CBZ       V4, ||$C$L10||        ; []  ; [ORIG 16-BIT INS]
     495                            .dwpsn  file "../Application/MAC/HAL/target/dbg.c",line 104,column 10,is_stmt,isa 1
TI ARM Assembler PC v16.9.4 Sat Nov 18 18:46:21 2017

Tools Copyright (c) 1996-2017 Texas Instruments Incorporated
C:\Users\Kevin\AppData\Local\Temp\{91E5085D-660D-4F25-9A12-879222E44D75} PAGE   10

     496                            ; BRANCHCC OCCURS {||$C$L10||}   ; [] |104| 
     497                    ;* --------------------------------------------------------------------------*
     498                    $C$DW$32        .dwtag  DW_TAG_TI_branch
     499                            .dwattr $C$DW$32, DW_AT_low_pc(0x00)
     500                            .dwattr $C$DW$32, DW_AT_name("NOROM_CPUcpsie")
     501                            .dwattr $C$DW$32, DW_AT_TI_call
     502                    
     503 0000001c FFFEF7FF!         BL        NOROM_CPUcpsie        ; [DPU_3_PIPE] |104|  ; [KEEP 32-BIT INS]
     504                            ; CALL OCCURS {NOROM_CPUcpsie }  ; [] |104| 
     505                    ;* --------------------------------------------------------------------------*
     506                    ;*   BEGIN LOOP ||$C$L10||
     507                    ;*
     508                    ;*   Loop source line                : 104
     509                    ;*   Loop closing brace source line  : 104
     510                    ;*   Known Minimum Trip Count        : 1
     511                    ;*   Known Maximum Trip Count        : 4294967295
     512                    ;*   Known Max Trip Count Factor     : 1
     513                    ;* --------------------------------------------------------------------------*
     514 00000020           ||$C$L10||:    
     515                            .dwpsn  file "../Application/MAC/HAL/target/dbg.c",line 92,column 7,is_stmt,isa 1
     516                    $C$DW$33        .dwtag  DW_TAG_TI_branch
     517                            .dwattr $C$DW$33, DW_AT_low_pc(0x00)
     518                            .dwattr $C$DW$33, DW_AT_name("NOROM_CPUcpsid")
     519                            .dwattr $C$DW$33, DW_AT_TI_call
     520                    
     521 00000020 FFFEF7FF!         BL        NOROM_CPUcpsid        ; [DPU_3_PIPE] |92|  ; [KEEP 32-BIT INS]
     522                            ; CALL OCCURS {NOROM_CPUcpsid }  ; [] |92| 
     523 00000024 2700              MOVS      V4, #0                ; [DPU_3_PIPE] |92|  ; [ORIG 16-BIT INS]
     524 00000026 B900              CBNZ      A1, ||$C$L11||        ; []  ; [ORIG 16-BIT INS]
     525 00000028 2701              MOVS      V4, #1                ; [DPU_3_PIPE] |92|  ; [ORIG 16-BIT INS]
     526                    ;* --------------------------------------------------------------------------*
     527 0000002a           ||$C$L11||:    
     528                            .dwpsn  file "../Application/MAC/HAL/target/dbg.c",line 93,column 7,is_stmt,isa 1
     529 0000002a 6820              LDR       A1, [V1, #0]          ; [DPU_3_PIPE] |93|  ; [ORIG 16-BIT INS]
     530 0000002c 4F7FF410          TST       A1, #65280            ; [DPU_3_PIPE] |93|  ; [KEEP 32-BIT INS]
     531 00000030 D1F3              BNE       ||$C$L9||             ; [DPU_3_PIPE] |93|  ; [ORIG 16-BIT INS]
     532                            ; BRANCHCC OCCURS {||$C$L9||}    ; [] |93| 
     533                    ;* --------------------------------------------------------------------------*
     534                            .dwpsn  file "../Application/MAC/HAL/target/dbg.c",line 95,column 10,is_stmt,isa 1
     535 00000032 4806              LDR       A1, $C$CON7           ; [DPU_3_PIPE] |95|  ; [ORIG 16-BIT INS]
     536 00000034 0110F1A0          SUB       A2, A1, #16           ; [DPU_3_PIPE]  ; [KEEP 32-BIT INS]
     537 00000038 9006F841          STR       V6, [A2, +V3]         ; [DPU_3_PIPE] |95|  ; [KEEP 32-BIT INS]
     538                            .dwpsn  file "../Application/MAC/HAL/target/dbg.c",line 96,column 10,is_stmt,isa 1
     539 0000003c 8006F840          STR       V5, [A1, +V3]         ; [DPU_3_PIPE] |96|  ; [KEEP 32-BIT INS]
     540                            .dwpsn  file "../Application/MAC/HAL/target/dbg.c",line 97,column 10,is_stmt,isa 1
     541 00000040 6025              STR       V2, [V1, #0]          ; [DPU_3_PIPE] |97|  ; [ORIG 16-BIT INS]
     542 00000042 B10F              CBZ       V4, ||$C$L12||        ; []  ; [ORIG 16-BIT INS]
     543                            .dwpsn  file "../Application/MAC/HAL/target/dbg.c",line 99,column 10,is_stmt,isa 1
     544                            ; BRANCHCC OCCURS {||$C$L12||}   ; [] |99| 
     545                    ;* --------------------------------------------------------------------------*
     546                    $C$DW$34        .dwtag  DW_TAG_TI_branch
     547                            .dwattr $C$DW$34, DW_AT_low_pc(0x00)
     548                            .dwattr $C$DW$34, DW_AT_name("NOROM_CPUcpsie")
     549                            .dwattr $C$DW$34, DW_AT_TI_call
     550                    
TI ARM Assembler PC v16.9.4 Sat Nov 18 18:46:21 2017

Tools Copyright (c) 1996-2017 Texas Instruments Incorporated
C:\Users\Kevin\AppData\Local\Temp\{91E5085D-660D-4F25-9A12-879222E44D75} PAGE   11

     551 00000044 FFFEF7FF!         BL        NOROM_CPUcpsie        ; [DPU_3_PIPE] |99|  ; [KEEP 32-BIT INS]
     552                            ; CALL OCCURS {NOROM_CPUcpsie }  ; [] |99| 
     553                    ;* --------------------------------------------------------------------------*
     554                    ||$C$L12||:    
     555                    $C$DW$35        .dwtag  DW_TAG_TI_branch
     556                            .dwattr $C$DW$35, DW_AT_low_pc(0x00)
     557                            .dwattr $C$DW$35, DW_AT_TI_return
     558                    
     559 00000048 83F8E8BD          POP       {A4, V1, V2, V3, V4, V5, V6, PC} ; [DPU_3_PIPE]  ; [KEEP 32-BIT INS]
     560                            .dwcfi  cfa_offset, 0
     561                            ; BRANCH OCCURS                  ; [] 
     562                            .dwattr $C$DW$24, DW_AT_TI_end_file("../Application/MAC/HAL/target/dbg.c")
     563                            .dwattr $C$DW$24, DW_AT_TI_end_line(0x6b)
     564                            .dwattr $C$DW$24, DW_AT_TI_end_column(0x01)
     565                            .dwendentry
     566                            .dwendtag $C$DW$24
     567                    
     568                    ;******************************************************************************
     569                    ;* CONSTANT TABLE                                                             *
     570                    ;******************************************************************************
     571 00000046                   .sect   ".text:dbgPrintf2"
     572                            .align  4
     573 00000046 701446C0  ||$C$CON2||:    .bits   1074032660,32
         0000004a 00004004 
     574                    ;******************************************************************************
     575                    ;* CONSTANT TABLE                                                             *
     576                    ;******************************************************************************
     577 00000036                   .sect   ".text:dbgPrintf0"
     578                            .align  4
     579 00000036 701446C0  ||$C$CON4||:    .bits   1074032660,32
         0000003a 00004004 
     580                    ;******************************************************************************
     581                    ;* CONSTANT TABLE                                                             *
     582                    ;******************************************************************************
     583 0000004c                   .sect   ".text:dbgPrintf"
     584                            .align  4
     585 0000004c 40047024  ||$C$CON7||:    .bits   1074032676,32
     586                            .align  4
     587 00000050 40047014  ||$C$CON8||:    .bits   1074032660,32
     588                    ;*****************************************************************************
     589                    ;* UNDEFINED EXTERNAL REFERENCES                                             *
     590                    ;*****************************************************************************
     591                            .global NOROM_CPUcpsid
     592                            .global NOROM_CPUcpsie
     593                    
     594                    ;******************************************************************************
     595                    ;* BUILD ATTRIBUTES                                                           *
     596                    ;******************************************************************************
     597                            .battr "aeabi", Tag_File, 1, Tag_ABI_PCS_wchar_t(2)
     598                            .battr "aeabi", Tag_File, 1, Tag_ABI_FP_rounding(0)
     599                            .battr "aeabi", Tag_File, 1, Tag_ABI_FP_denormal(0)
     600                            .battr "aeabi", Tag_File, 1, Tag_ABI_FP_exceptions(0)
     601                            .battr "aeabi", Tag_File, 1, Tag_ABI_FP_number_model(1)
     602                            .battr "aeabi", Tag_File, 1, Tag_ABI_enum_size(1)
     603                            .battr "aeabi", Tag_File, 1, Tag_ABI_optimization_goals(0)
TI ARM Assembler PC v16.9.4 Sat Nov 18 18:46:21 2017

Tools Copyright (c) 1996-2017 Texas Instruments Incorporated
C:\Users\Kevin\AppData\Local\Temp\{91E5085D-660D-4F25-9A12-879222E44D75} PAGE   12

     604                            .battr "aeabi", Tag_File, 1, Tag_ABI_FP_optimization_goals(0)
     605                            .battr "TI", Tag_File, 1, Tag_Bitfield_layout(0)
     606                            .battr "aeabi", Tag_File, 1, Tag_ABI_VFP_args(3)
     607                            .battr "TI", Tag_File, 1, Tag_FP_interface(1)
     608                    
     609                    ;******************************************************************************
     610                    ;* TYPE INFORMATION                                                           *
     611                    ;******************************************************************************
     612                    
     613                    $C$DW$T$214     .dwtag  DW_TAG_enumeration_type
     614                            .dwattr $C$DW$T$214, DW_AT_byte_size(0x01)
     615                    $C$DW$36        .dwtag  DW_TAG_enumerator
     616                            .dwattr $C$DW$36, DW_AT_name("RF_PriorityHighest")
     617                            .dwattr $C$DW$36, DW_AT_const_value(0x02)
     618                            .dwattr $C$DW$36, DW_AT_decl_file("C:/ti/simplelink_cc13x0_sdk_1_50_00_08/source/ti/drivers/rf
     619                            .dwattr $C$DW$36, DW_AT_decl_line(0x2c9)
     620                            .dwattr $C$DW$36, DW_AT_decl_column(0x05)
     621                    
     622                    $C$DW$37        .dwtag  DW_TAG_enumerator
     623                            .dwattr $C$DW$37, DW_AT_name("RF_PriorityHigh")
     624                            .dwattr $C$DW$37, DW_AT_const_value(0x01)
     625                            .dwattr $C$DW$37, DW_AT_decl_file("C:/ti/simplelink_cc13x0_sdk_1_50_00_08/source/ti/drivers/rf
     626                            .dwattr $C$DW$37, DW_AT_decl_line(0x2ca)
     627                            .dwattr $C$DW$37, DW_AT_decl_column(0x05)
     628                    
     629                    $C$DW$38        .dwtag  DW_TAG_enumerator
     630                            .dwattr $C$DW$38, DW_AT_name("RF_PriorityNormal")
     631                            .dwattr $C$DW$38, DW_AT_const_value(0x00)
     632                            .dwattr $C$DW$38, DW_AT_decl_file("C:/ti/simplelink_cc13x0_sdk_1_50_00_08/source/ti/drivers/rf
     633                            .dwattr $C$DW$38, DW_AT_decl_line(0x2cb)
     634                            .dwattr $C$DW$38, DW_AT_decl_column(0x05)
     635                    
     636                            .dwattr $C$DW$T$214, DW_AT_decl_file("C:/ti/simplelink_cc13x0_sdk_1_50_00_08/source/ti/drivers
     637                            .dwattr $C$DW$T$214, DW_AT_decl_line(0x2c8)
     638                            .dwattr $C$DW$T$214, DW_AT_decl_column(0x0e)
     639                            .dwendtag $C$DW$T$214
     640                    
     641                    $C$DW$T$215     .dwtag  DW_TAG_typedef
     642                            .dwattr $C$DW$T$215, DW_AT_name("RF_Priority")
     643                            .dwattr $C$DW$T$215, DW_AT_type(*$C$DW$T$214)
     644                            .dwattr $C$DW$T$215, DW_AT_language(DW_LANG_C)
     645                            .dwattr $C$DW$T$215, DW_AT_decl_file("C:/ti/simplelink_cc13x0_sdk_1_50_00_08/source/ti/drivers
     646                            .dwattr $C$DW$T$215, DW_AT_decl_line(0x2cc)
     647                            .dwattr $C$DW$T$215, DW_AT_decl_column(0x03)
     648                    
     649                    
     650                    $C$DW$T$224     .dwtag  DW_TAG_enumeration_type
     651                            .dwattr $C$DW$T$224, DW_AT_byte_size(0x01)
     652                    $C$DW$39        .dwtag  DW_TAG_enumerator
     653                            .dwattr $C$DW$39, DW_AT_name("RF_ClientEventPowerUpFinished")
     654                            .dwattr $C$DW$39, DW_AT_const_value(0x01)
     655                            .dwattr $C$DW$39, DW_AT_decl_file("C:/ti/simplelink_cc13x0_sdk_1_50_00_08/source/ti/drivers/rf
     656                            .dwattr $C$DW$39, DW_AT_decl_line(0x319)
     657                            .dwattr $C$DW$39, DW_AT_decl_column(0x05)
     658                    
TI ARM Assembler PC v16.9.4 Sat Nov 18 18:46:21 2017

Tools Copyright (c) 1996-2017 Texas Instruments Incorporated
C:\Users\Kevin\AppData\Local\Temp\{91E5085D-660D-4F25-9A12-879222E44D75} PAGE   13

     659                    $C$DW$40        .dwtag  DW_TAG_enumerator
     660                            .dwattr $C$DW$40, DW_AT_name("RF_ClientEventRadioFree")
     661                            .dwattr $C$DW$40, DW_AT_const_value(0x02)
     662                            .dwattr $C$DW$40, DW_AT_decl_file("C:/ti/simplelink_cc13x0_sdk_1_50_00_08/source/ti/drivers/rf
     663                            .dwattr $C$DW$40, DW_AT_decl_line(0x31a)
     664                            .dwattr $C$DW$40, DW_AT_decl_column(0x05)
     665                    
     666                    $C$DW$41        .dwtag  DW_TAG_enumerator
     667                            .dwattr $C$DW$41, DW_AT_name("RF_ClientEventSwitchClientEntered")
     668                            .dwattr $C$DW$41, DW_AT_const_value(0x04)
     669                            .dwattr $C$DW$41, DW_AT_decl_file("C:/ti/simplelink_cc13x0_sdk_1_50_00_08/source/ti/drivers/rf
     670                            .dwattr $C$DW$41, DW_AT_decl_line(0x31e)
     671                            .dwattr $C$DW$41, DW_AT_decl_column(0x05)
     672                    
     673                            .dwattr $C$DW$T$224, DW_AT_decl_file("C:/ti/simplelink_cc13x0_sdk_1_50_00_08/source/ti/drivers
     674                            .dwattr $C$DW$T$224, DW_AT_decl_line(0x318)
     675                            .dwattr $C$DW$T$224, DW_AT_decl_column(0x0e)
     676                            .dwendtag $C$DW$T$224
     677                    
     678                    $C$DW$T$225     .dwtag  DW_TAG_typedef
     679                            .dwattr $C$DW$T$225, DW_AT_name("RF_ClientEvent")
     680                            .dwattr $C$DW$T$225, DW_AT_type(*$C$DW$T$224)
     681                            .dwattr $C$DW$T$225, DW_AT_language(DW_LANG_C)
     682                            .dwattr $C$DW$T$225, DW_AT_decl_file("C:/ti/simplelink_cc13x0_sdk_1_50_00_08/source/ti/drivers
     683                            .dwattr $C$DW$T$225, DW_AT_decl_line(0x31f)
     684                            .dwattr $C$DW$T$225, DW_AT_decl_column(0x03)
     685                    
     686                    
     687                    $C$DW$T$237     .dwtag  DW_TAG_enumeration_type
     688                            .dwattr $C$DW$T$237, DW_AT_byte_size(0x01)
     689                    $C$DW$42        .dwtag  DW_TAG_enumerator
     690                            .dwattr $C$DW$42, DW_AT_name("ApiMac_addrType_none")
     691                            .dwattr $C$DW$42, DW_AT_const_value(0x00)
     692                            .dwattr $C$DW$42, DW_AT_decl_file("C:/Users/Kevin/workspace_v7/sensor_cc1310lp/Application/api
     693                            .dwattr $C$DW$42, DW_AT_decl_line(0x189)
     694                            .dwattr $C$DW$42, DW_AT_decl_column(0x05)
     695                    
     696                    $C$DW$43        .dwtag  DW_TAG_enumerator
     697                            .dwattr $C$DW$43, DW_AT_name("ApiMac_addrType_short")
     698                            .dwattr $C$DW$43, DW_AT_const_value(0x02)
     699                            .dwattr $C$DW$43, DW_AT_decl_file("C:/Users/Kevin/workspace_v7/sensor_cc1310lp/Application/api
     700                            .dwattr $C$DW$43, DW_AT_decl_line(0x18b)
     701                            .dwattr $C$DW$43, DW_AT_decl_column(0x05)
     702                    
     703                    $C$DW$44        .dwtag  DW_TAG_enumerator
     704                            .dwattr $C$DW$44, DW_AT_name("ApiMac_addrType_extended")
     705                            .dwattr $C$DW$44, DW_AT_const_value(0x03)
     706                            .dwattr $C$DW$44, DW_AT_decl_file("C:/Users/Kevin/workspace_v7/sensor_cc1310lp/Application/api
     707                            .dwattr $C$DW$44, DW_AT_decl_line(0x18d)
     708                            .dwattr $C$DW$44, DW_AT_decl_column(0x05)
     709                    
     710                            .dwattr $C$DW$T$237, DW_AT_decl_file("C:/Users/Kevin/workspace_v7/sensor_cc1310lp/Application/
     711                            .dwattr $C$DW$T$237, DW_AT_decl_line(0x187)
     712                            .dwattr $C$DW$T$237, DW_AT_decl_column(0x01)
     713                            .dwendtag $C$DW$T$237
TI ARM Assembler PC v16.9.4 Sat Nov 18 18:46:21 2017

Tools Copyright (c) 1996-2017 Texas Instruments Incorporated
C:\Users\Kevin\AppData\Local\Temp\{91E5085D-660D-4F25-9A12-879222E44D75} PAGE   14

     714                    
     715                    $C$DW$T$238     .dwtag  DW_TAG_typedef
     716                            .dwattr $C$DW$T$238, DW_AT_name("ApiMac_addrType_t")
     717                            .dwattr $C$DW$T$238, DW_AT_type(*$C$DW$T$237)
     718                            .dwattr $C$DW$T$238, DW_AT_language(DW_LANG_C)
     719                            .dwattr $C$DW$T$238, DW_AT_decl_file("C:/Users/Kevin/workspace_v7/sensor_cc1310lp/Application/
     720                            .dwattr $C$DW$T$238, DW_AT_decl_line(0x18e)
     721                            .dwattr $C$DW$T$238, DW_AT_decl_column(0x03)
     722                    
     723                    
     724                    $C$DW$T$240     .dwtag  DW_TAG_enumeration_type
     725                            .dwattr $C$DW$T$240, DW_AT_byte_size(0x01)
     726                    $C$DW$45        .dwtag  DW_TAG_enumerator
     727                            .dwattr $C$DW$45, DW_AT_name("ApiMac_beaconType_normal")
     728                            .dwattr $C$DW$45, DW_AT_const_value(0x00)
     729                            .dwattr $C$DW$45, DW_AT_decl_file("C:/Users/Kevin/workspace_v7/sensor_cc1310lp/Application/api
     730                            .dwattr $C$DW$45, DW_AT_decl_line(0x194)
     731                            .dwattr $C$DW$45, DW_AT_decl_column(0x05)
     732                    
     733                    $C$DW$46        .dwtag  DW_TAG_enumerator
     734                            .dwattr $C$DW$46, DW_AT_name("ApiMac_beaconType_enhanced")
     735                            .dwattr $C$DW$46, DW_AT_const_value(0x01)
     736                            .dwattr $C$DW$46, DW_AT_decl_file("C:/Users/Kevin/workspace_v7/sensor_cc1310lp/Application/api
     737                            .dwattr $C$DW$46, DW_AT_decl_line(0x196)
     738                            .dwattr $C$DW$46, DW_AT_decl_column(0x05)
     739                    
     740                            .dwattr $C$DW$T$240, DW_AT_decl_file("C:/Users/Kevin/workspace_v7/sensor_cc1310lp/Application/
     741                            .dwattr $C$DW$T$240, DW_AT_decl_line(0x192)
     742                            .dwattr $C$DW$T$240, DW_AT_decl_column(0x01)
     743                            .dwendtag $C$DW$T$240
     744                    
     745                    $C$DW$T$241     .dwtag  DW_TAG_typedef
     746                            .dwattr $C$DW$T$241, DW_AT_name("ApiMac_beaconType_t")
     747                            .dwattr $C$DW$T$241, DW_AT_type(*$C$DW$T$240)
     748                            .dwattr $C$DW$T$241, DW_AT_language(DW_LANG_C)
     749                            .dwattr $C$DW$T$241, DW_AT_decl_file("C:/Users/Kevin/workspace_v7/sensor_cc1310lp/Application/
     750                            .dwattr $C$DW$T$241, DW_AT_decl_line(0x197)
     751                            .dwattr $C$DW$T$241, DW_AT_decl_column(0x03)
     752                    
     753                    
     754                    $C$DW$T$548     .dwtag  DW_TAG_enumeration_type
     755                            .dwattr $C$DW$T$548, DW_AT_byte_size(0x01)
     756                    $C$DW$47        .dwtag  DW_TAG_enumerator
     757                            .dwattr $C$DW$47, DW_AT_name("ApiMac_status_success")
     758                            .dwattr $C$DW$47, DW_AT_const_value(0x00)
     759                            .dwattr $C$DW$47, DW_AT_decl_file("C:/Users/Kevin/workspace_v7/sensor_cc1310lp/Application/api
     760                            .dwattr $C$DW$47, DW_AT_decl_line(0x1b7)
     761                            .dwattr $C$DW$47, DW_AT_decl_column(0x05)
     762                    
     763                    $C$DW$48        .dwtag  DW_TAG_enumerator
     764                            .dwattr $C$DW$48, DW_AT_name("ApiMac_status_subSystemError")
     765                            .dwattr $C$DW$48, DW_AT_const_value(0x25)
     766                            .dwattr $C$DW$48, DW_AT_decl_file("C:/Users/Kevin/workspace_v7/sensor_cc1310lp/Application/api
     767                            .dwattr $C$DW$48, DW_AT_decl_line(0x1b9)
     768                            .dwattr $C$DW$48, DW_AT_decl_column(0x05)
TI ARM Assembler PC v16.9.4 Sat Nov 18 18:46:21 2017

Tools Copyright (c) 1996-2017 Texas Instruments Incorporated
C:\Users\Kevin\AppData\Local\Temp\{91E5085D-660D-4F25-9A12-879222E44D75} PAGE   15

     769                    
     770                    $C$DW$49        .dwtag  DW_TAG_enumerator
     771                            .dwattr $C$DW$49, DW_AT_name("ApiMac_status_commandIDError")
     772                            .dwattr $C$DW$49, DW_AT_const_value(0x26)
     773                            .dwattr $C$DW$49, DW_AT_decl_file("C:/Users/Kevin/workspace_v7/sensor_cc1310lp/Application/api
     774                            .dwattr $C$DW$49, DW_AT_decl_line(0x1bb)
     775                            .dwattr $C$DW$49, DW_AT_decl_column(0x05)
     776                    
     777                    $C$DW$50        .dwtag  DW_TAG_enumerator
     778                            .dwattr $C$DW$50, DW_AT_name("ApiMac_status_lengthError")
     779                            .dwattr $C$DW$50, DW_AT_const_value(0x27)
     780                            .dwattr $C$DW$50, DW_AT_decl_file("C:/Users/Kevin/workspace_v7/sensor_cc1310lp/Application/api
     781                            .dwattr $C$DW$50, DW_AT_decl_line(0x1bd)
     782                            .dwattr $C$DW$50, DW_AT_decl_column(0x05)
     783                    
     784                    $C$DW$51        .dwtag  DW_TAG_enumerator
     785                            .dwattr $C$DW$51, DW_AT_name("ApiMac_status_unsupportedType")
     786                            .dwattr $C$DW$51, DW_AT_const_value(0x28)
     787                            .dwattr $C$DW$51, DW_AT_decl_file("C:/Users/Kevin/workspace_v7/sensor_cc1310lp/Application/api
     788                            .dwattr $C$DW$51, DW_AT_decl_line(0x1bf)
     789                            .dwattr $C$DW$51, DW_AT_decl_column(0x05)
     790                    
     791                    $C$DW$52        .dwtag  DW_TAG_enumerator
     792                            .dwattr $C$DW$52, DW_AT_name("ApiMac_status_autoAckPendingAllOn")
     793                            .dwattr $C$DW$52, DW_AT_const_value(0xfe)
     794                            .dwattr $C$DW$52, DW_AT_decl_file("C:/Users/Kevin/workspace_v7/sensor_cc1310lp/Application/api
     795                            .dwattr $C$DW$52, DW_AT_decl_line(0x1c1)
     796                            .dwattr $C$DW$52, DW_AT_decl_column(0x05)
     797                    
     798                    $C$DW$53        .dwtag  DW_TAG_enumerator
     799                            .dwattr $C$DW$53, DW_AT_name("ApiMac_status_autoAckPendingAllOff")
     800                            .dwattr $C$DW$53, DW_AT_const_value(0xff)
     801                            .dwattr $C$DW$53, DW_AT_decl_file("C:/Users/Kevin/workspace_v7/sensor_cc1310lp/Application/api
     802                            .dwattr $C$DW$53, DW_AT_decl_line(0x1c3)
     803                            .dwattr $C$DW$53, DW_AT_decl_column(0x05)
     804                    
     805                    $C$DW$54        .dwtag  DW_TAG_enumerator
     806                            .dwattr $C$DW$54, DW_AT_name("ApiMac_status_beaconLoss")
     807                            .dwattr $C$DW$54, DW_AT_const_value(0xe0)
     808                            .dwattr $C$DW$54, DW_AT_decl_file("C:/Users/Kevin/workspace_v7/sensor_cc1310lp/Application/api
     809                            .dwattr $C$DW$54, DW_AT_decl_line(0x1c5)
     810                            .dwattr $C$DW$54, DW_AT_decl_column(0x05)
     811                    
     812                    $C$DW$55        .dwtag  DW_TAG_enumerator
     813                            .dwattr $C$DW$55, DW_AT_name("ApiMac_status_channelAccessFailure")
     814                            .dwattr $C$DW$55, DW_AT_const_value(0xe1)
     815                            .dwattr $C$DW$55, DW_AT_decl_file("C:/Users/Kevin/workspace_v7/sensor_cc1310lp/Application/api
     816                            .dwattr $C$DW$55, DW_AT_decl_line(0x1c9)
     817                            .dwattr $C$DW$55, DW_AT_decl_column(0x05)
     818                    
     819                    $C$DW$56        .dwtag  DW_TAG_enumerator
     820                            .dwattr $C$DW$56, DW_AT_name("ApiMac_status_counterError")
     821                            .dwattr $C$DW$56, DW_AT_const_value(0xdb)
     822                            .dwattr $C$DW$56, DW_AT_decl_file("C:/Users/Kevin/workspace_v7/sensor_cc1310lp/Application/api
     823                            .dwattr $C$DW$56, DW_AT_decl_line(0x1ce)
TI ARM Assembler PC v16.9.4 Sat Nov 18 18:46:21 2017

Tools Copyright (c) 1996-2017 Texas Instruments Incorporated
C:\Users\Kevin\AppData\Local\Temp\{91E5085D-660D-4F25-9A12-879222E44D75} PAGE   16

     824                            .dwattr $C$DW$56, DW_AT_decl_column(0x05)
     825                    
     826                    $C$DW$57        .dwtag  DW_TAG_enumerator
     827                            .dwattr $C$DW$57, DW_AT_name("ApiMac_status_denied")
     828                            .dwattr $C$DW$57, DW_AT_const_value(0xe2)
     829                            .dwattr $C$DW$57, DW_AT_decl_file("C:/Users/Kevin/workspace_v7/sensor_cc1310lp/Application/api
     830                            .dwattr $C$DW$57, DW_AT_decl_line(0x1d0)
     831                            .dwattr $C$DW$57, DW_AT_decl_column(0x05)
     832                    
     833                    $C$DW$58        .dwtag  DW_TAG_enumerator
     834                            .dwattr $C$DW$58, DW_AT_name("ApiMac_status_disabledTrxFailure")
     835                            .dwattr $C$DW$58, DW_AT_const_value(0xe3)
     836                            .dwattr $C$DW$58, DW_AT_decl_file("C:/Users/Kevin/workspace_v7/sensor_cc1310lp/Application/api
     837                            .dwattr $C$DW$58, DW_AT_decl_line(0x1d2)
     838                            .dwattr $C$DW$58, DW_AT_decl_column(0x05)
     839                    
     840                    $C$DW$59        .dwtag  DW_TAG_enumerator
     841                            .dwattr $C$DW$59, DW_AT_name("ApiMac_status_frameTooLong")
     842                            .dwattr $C$DW$59, DW_AT_const_value(0xe5)
     843                            .dwattr $C$DW$59, DW_AT_decl_file("C:/Users/Kevin/workspace_v7/sensor_cc1310lp/Application/api
     844                            .dwattr $C$DW$59, DW_AT_decl_line(0x1d7)
     845                            .dwattr $C$DW$59, DW_AT_decl_column(0x05)
     846                    
     847                    $C$DW$60        .dwtag  DW_TAG_enumerator
     848                            .dwattr $C$DW$60, DW_AT_name("ApiMac_status_improperKeyType")
     849                            .dwattr $C$DW$60, DW_AT_const_value(0xdc)
     850                            .dwattr $C$DW$60, DW_AT_decl_file("C:/Users/Kevin/workspace_v7/sensor_cc1310lp/Application/api
     851                            .dwattr $C$DW$60, DW_AT_decl_line(0x1dc)
     852                            .dwattr $C$DW$60, DW_AT_decl_column(0x05)
     853                    
     854                    $C$DW$61        .dwtag  DW_TAG_enumerator
     855                            .dwattr $C$DW$61, DW_AT_name("ApiMac_status_improperSecurityLevel")
     856                            .dwattr $C$DW$61, DW_AT_const_value(0xdd)
     857                            .dwattr $C$DW$61, DW_AT_decl_file("C:/Users/Kevin/workspace_v7/sensor_cc1310lp/Application/api
     858                            .dwattr $C$DW$61, DW_AT_decl_line(0x1e1)
     859                            .dwattr $C$DW$61, DW_AT_decl_column(0x05)
     860                    
     861                    $C$DW$62        .dwtag  DW_TAG_enumerator
     862                            .dwattr $C$DW$62, DW_AT_name("ApiMac_status_invalidAddress")
     863                            .dwattr $C$DW$62, DW_AT_const_value(0xf5)
     864                            .dwattr $C$DW$62, DW_AT_decl_file("C:/Users/Kevin/workspace_v7/sensor_cc1310lp/Application/api
     865                            .dwattr $C$DW$62, DW_AT_decl_line(0x1e6)
     866                            .dwattr $C$DW$62, DW_AT_decl_column(0x05)
     867                    
     868                    $C$DW$63        .dwtag  DW_TAG_enumerator
     869                            .dwattr $C$DW$63, DW_AT_name("ApiMac_status_invalidGts")
     870                            .dwattr $C$DW$63, DW_AT_const_value(0xe6)
     871                            .dwattr $C$DW$63, DW_AT_decl_file("C:/Users/Kevin/workspace_v7/sensor_cc1310lp/Application/api
     872                            .dwattr $C$DW$63, DW_AT_decl_line(0x1e8)
     873                            .dwattr $C$DW$63, DW_AT_decl_column(0x05)
     874                    
     875                    $C$DW$64        .dwtag  DW_TAG_enumerator
     876                            .dwattr $C$DW$64, DW_AT_name("ApiMac_status_invalidHandle")
     877                            .dwattr $C$DW$64, DW_AT_const_value(0xe7)
     878                            .dwattr $C$DW$64, DW_AT_decl_file("C:/Users/Kevin/workspace_v7/sensor_cc1310lp/Application/api
TI ARM Assembler PC v16.9.4 Sat Nov 18 18:46:21 2017

Tools Copyright (c) 1996-2017 Texas Instruments Incorporated
C:\Users\Kevin\AppData\Local\Temp\{91E5085D-660D-4F25-9A12-879222E44D75} PAGE   17

     879                            .dwattr $C$DW$64, DW_AT_decl_line(0x1ea)
     880                            .dwattr $C$DW$64, DW_AT_decl_column(0x05)
     881                    
     882                    $C$DW$65        .dwtag  DW_TAG_enumerator
     883                            .dwattr $C$DW$65, DW_AT_name("ApiMac_status_invalidIndex")
     884                            .dwattr $C$DW$65, DW_AT_const_value(0xf9)
     885                            .dwattr $C$DW$65, DW_AT_decl_file("C:/Users/Kevin/workspace_v7/sensor_cc1310lp/Application/api
     886                            .dwattr $C$DW$65, DW_AT_decl_line(0x1ec)
     887                            .dwattr $C$DW$65, DW_AT_decl_column(0x05)
     888                    
     889                    $C$DW$66        .dwtag  DW_TAG_enumerator
     890                            .dwattr $C$DW$66, DW_AT_name("ApiMac_status_invalidParameter")
     891                            .dwattr $C$DW$66, DW_AT_const_value(0xe8)
     892                            .dwattr $C$DW$66, DW_AT_decl_file("C:/Users/Kevin/workspace_v7/sensor_cc1310lp/Application/api
     893                            .dwattr $C$DW$66, DW_AT_decl_line(0x1ee)
     894                            .dwattr $C$DW$66, DW_AT_decl_column(0x05)
     895                    
     896                    $C$DW$67        .dwtag  DW_TAG_enumerator
     897                            .dwattr $C$DW$67, DW_AT_name("ApiMac_status_limitReached")
     898                            .dwattr $C$DW$67, DW_AT_const_value(0xfa)
     899                            .dwattr $C$DW$67, DW_AT_decl_file("C:/Users/Kevin/workspace_v7/sensor_cc1310lp/Application/api
     900                            .dwattr $C$DW$67, DW_AT_decl_line(0x1f3)
     901                            .dwattr $C$DW$67, DW_AT_decl_column(0x05)
     902                    
     903                    $C$DW$68        .dwtag  DW_TAG_enumerator
     904                            .dwattr $C$DW$68, DW_AT_name("ApiMac_status_noAck")
     905                            .dwattr $C$DW$68, DW_AT_const_value(0xe9)
     906                            .dwattr $C$DW$68, DW_AT_decl_file("C:/Users/Kevin/workspace_v7/sensor_cc1310lp/Application/api
     907                            .dwattr $C$DW$68, DW_AT_decl_line(0x1f8)
     908                            .dwattr $C$DW$68, DW_AT_decl_column(0x05)
     909                    
     910                    $C$DW$69        .dwtag  DW_TAG_enumerator
     911                            .dwattr $C$DW$69, DW_AT_name("ApiMac_status_noBeacon")
     912                            .dwattr $C$DW$69, DW_AT_const_value(0xea)
     913                            .dwattr $C$DW$69, DW_AT_decl_file("C:/Users/Kevin/workspace_v7/sensor_cc1310lp/Application/api
     914                            .dwattr $C$DW$69, DW_AT_decl_line(0x1fd)
     915                            .dwattr $C$DW$69, DW_AT_decl_column(0x05)
     916                    
     917                    $C$DW$70        .dwtag  DW_TAG_enumerator
     918                            .dwattr $C$DW$70, DW_AT_name("ApiMac_status_noData")
     919                            .dwattr $C$DW$70, DW_AT_const_value(0xeb)
     920                            .dwattr $C$DW$70, DW_AT_decl_file("C:/Users/Kevin/workspace_v7/sensor_cc1310lp/Application/api
     921                            .dwattr $C$DW$70, DW_AT_decl_line(0x202)
     922                            .dwattr $C$DW$70, DW_AT_decl_column(0x05)
     923                    
     924                    $C$DW$71        .dwtag  DW_TAG_enumerator
     925                            .dwattr $C$DW$71, DW_AT_name("ApiMac_status_noShortAddress")
     926                            .dwattr $C$DW$71, DW_AT_const_value(0xec)
     927                            .dwattr $C$DW$71, DW_AT_decl_file("C:/Users/Kevin/workspace_v7/sensor_cc1310lp/Application/api
     928                            .dwattr $C$DW$71, DW_AT_decl_line(0x204)
     929                            .dwattr $C$DW$71, DW_AT_decl_column(0x05)
     930                    
     931                    $C$DW$72        .dwtag  DW_TAG_enumerator
     932                            .dwattr $C$DW$72, DW_AT_name("ApiMac_status_onTimeTooLong")
     933                            .dwattr $C$DW$72, DW_AT_const_value(0xf6)
TI ARM Assembler PC v16.9.4 Sat Nov 18 18:46:21 2017

Tools Copyright (c) 1996-2017 Texas Instruments Incorporated
C:\Users\Kevin\AppData\Local\Temp\{91E5085D-660D-4F25-9A12-879222E44D75} PAGE   18

     934                            .dwattr $C$DW$72, DW_AT_decl_file("C:/Users/Kevin/workspace_v7/sensor_cc1310lp/Application/api
     935                            .dwattr $C$DW$72, DW_AT_decl_line(0x206)
     936                            .dwattr $C$DW$72, DW_AT_decl_column(0x05)
     937                    
     938                    $C$DW$73        .dwtag  DW_TAG_enumerator
     939                            .dwattr $C$DW$73, DW_AT_name("ApiMac_status_outOfCap")
     940                            .dwattr $C$DW$73, DW_AT_const_value(0xed)
     941                            .dwattr $C$DW$73, DW_AT_decl_file("C:/Users/Kevin/workspace_v7/sensor_cc1310lp/Application/api
     942                            .dwattr $C$DW$73, DW_AT_decl_line(0x208)
     943                            .dwattr $C$DW$73, DW_AT_decl_column(0x05)
     944                    
     945                    $C$DW$74        .dwtag  DW_TAG_enumerator
     946                            .dwattr $C$DW$74, DW_AT_name("ApiMac_status_panIdConflict")
     947                            .dwattr $C$DW$74, DW_AT_const_value(0xee)
     948                            .dwattr $C$DW$74, DW_AT_decl_file("C:/Users/Kevin/workspace_v7/sensor_cc1310lp/Application/api
     949                            .dwattr $C$DW$74, DW_AT_decl_line(0x20d)
     950                            .dwattr $C$DW$74, DW_AT_decl_column(0x05)
     951                    
     952                    $C$DW$75        .dwtag  DW_TAG_enumerator
     953                            .dwattr $C$DW$75, DW_AT_name("ApiMac_status_pastTime")
     954                            .dwattr $C$DW$75, DW_AT_const_value(0xf7)
     955                            .dwattr $C$DW$75, DW_AT_decl_file("C:/Users/Kevin/workspace_v7/sensor_cc1310lp/Application/api
     956                            .dwattr $C$DW$75, DW_AT_decl_line(0x20f)
     957                            .dwattr $C$DW$75, DW_AT_decl_column(0x05)
     958                    
     959                    $C$DW$76        .dwtag  DW_TAG_enumerator
     960                            .dwattr $C$DW$76, DW_AT_name("ApiMac_status_readOnly")
     961                            .dwattr $C$DW$76, DW_AT_const_value(0xfb)
     962                            .dwattr $C$DW$76, DW_AT_decl_file("C:/Users/Kevin/workspace_v7/sensor_cc1310lp/Application/api
     963                            .dwattr $C$DW$76, DW_AT_decl_line(0x211)
     964                            .dwattr $C$DW$76, DW_AT_decl_column(0x05)
     965                    
     966                    $C$DW$77        .dwtag  DW_TAG_enumerator
     967                            .dwattr $C$DW$77, DW_AT_name("ApiMac_status_realignment")
     968                            .dwattr $C$DW$77, DW_AT_const_value(0xef)
     969                            .dwattr $C$DW$77, DW_AT_decl_file("C:/Users/Kevin/workspace_v7/sensor_cc1310lp/Application/api
     970                            .dwattr $C$DW$77, DW_AT_decl_line(0x213)
     971                            .dwattr $C$DW$77, DW_AT_decl_column(0x05)
     972                    
     973                    $C$DW$78        .dwtag  DW_TAG_enumerator
     974                            .dwattr $C$DW$78, DW_AT_name("ApiMac_status_scanInProgress")
     975                            .dwattr $C$DW$78, DW_AT_const_value(0xfc)
     976                            .dwattr $C$DW$78, DW_AT_decl_file("C:/Users/Kevin/workspace_v7/sensor_cc1310lp/Application/api
     977                            .dwattr $C$DW$78, DW_AT_decl_line(0x215)
     978                            .dwattr $C$DW$78, DW_AT_decl_column(0x05)
     979                    
     980                    $C$DW$79        .dwtag  DW_TAG_enumerator
     981                            .dwattr $C$DW$79, DW_AT_name("ApiMac_status_securityError")
     982                            .dwattr $C$DW$79, DW_AT_const_value(0xe4)
     983                            .dwattr $C$DW$79, DW_AT_decl_file("C:/Users/Kevin/workspace_v7/sensor_cc1310lp/Application/api
     984                            .dwattr $C$DW$79, DW_AT_decl_line(0x217)
     985                            .dwattr $C$DW$79, DW_AT_decl_column(0x05)
     986                    
     987                    $C$DW$80        .dwtag  DW_TAG_enumerator
     988                            .dwattr $C$DW$80, DW_AT_name("ApiMac_status_superframeOverlap")
TI ARM Assembler PC v16.9.4 Sat Nov 18 18:46:21 2017

Tools Copyright (c) 1996-2017 Texas Instruments Incorporated
C:\Users\Kevin\AppData\Local\Temp\{91E5085D-660D-4F25-9A12-879222E44D75} PAGE   19

     989                            .dwattr $C$DW$80, DW_AT_const_value(0xfd)
     990                            .dwattr $C$DW$80, DW_AT_decl_file("C:/Users/Kevin/workspace_v7/sensor_cc1310lp/Application/api
     991                            .dwattr $C$DW$80, DW_AT_decl_line(0x219)
     992                            .dwattr $C$DW$80, DW_AT_decl_column(0x05)
     993                    
     994                    $C$DW$81        .dwtag  DW_TAG_enumerator
     995                            .dwattr $C$DW$81, DW_AT_name("ApiMac_status_trackingOff")
     996                            .dwattr $C$DW$81, DW_AT_const_value(0xf8)
     997                            .dwattr $C$DW$81, DW_AT_decl_file("C:/Users/Kevin/workspace_v7/sensor_cc1310lp/Application/api
     998                            .dwattr $C$DW$81, DW_AT_decl_line(0x21e)
     999                            .dwattr $C$DW$81, DW_AT_decl_column(0x05)
    1000                    
    1001                    $C$DW$82        .dwtag  DW_TAG_enumerator
    1002                            .dwattr $C$DW$82, DW_AT_name("ApiMac_status_transactionExpired")
    1003                            .dwattr $C$DW$82, DW_AT_const_value(0xf0)
    1004                            .dwattr $C$DW$82, DW_AT_decl_file("C:/Users/Kevin/workspace_v7/sensor_cc1310lp/Application/api
    1005                            .dwattr $C$DW$82, DW_AT_decl_line(0x224)
    1006                            .dwattr $C$DW$82, DW_AT_decl_column(0x05)
    1007                    
    1008                    $C$DW$83        .dwtag  DW_TAG_enumerator
    1009                            .dwattr $C$DW$83, DW_AT_name("ApiMac_status_transactionOverflow")
    1010                            .dwattr $C$DW$83, DW_AT_const_value(0xf1)
    1011                            .dwattr $C$DW$83, DW_AT_decl_file("C:/Users/Kevin/workspace_v7/sensor_cc1310lp/Application/api
    1012                            .dwattr $C$DW$83, DW_AT_decl_line(0x226)
    1013                            .dwattr $C$DW$83, DW_AT_decl_column(0x05)
    1014                    
    1015                    $C$DW$84        .dwtag  DW_TAG_enumerator
    1016                            .dwattr $C$DW$84, DW_AT_name("ApiMac_status_txActive")
    1017                            .dwattr $C$DW$84, DW_AT_const_value(0xf2)
    1018                            .dwattr $C$DW$84, DW_AT_decl_file("C:/Users/Kevin/workspace_v7/sensor_cc1310lp/Application/api
    1019                            .dwattr $C$DW$84, DW_AT_decl_line(0x228)
    1020                            .dwattr $C$DW$84, DW_AT_decl_column(0x05)
    1021                    
    1022                    $C$DW$85        .dwtag  DW_TAG_enumerator
    1023                            .dwattr $C$DW$85, DW_AT_name("ApiMac_status_unavailableKey")
    1024                            .dwattr $C$DW$85, DW_AT_const_value(0xf3)
    1025                            .dwattr $C$DW$85, DW_AT_decl_file("C:/Users/Kevin/workspace_v7/sensor_cc1310lp/Application/api
    1026                            .dwattr $C$DW$85, DW_AT_decl_line(0x22d)
    1027                            .dwattr $C$DW$85, DW_AT_decl_column(0x05)
    1028                    
    1029                    $C$DW$86        .dwtag  DW_TAG_enumerator
    1030                            .dwattr $C$DW$86, DW_AT_name("ApiMac_status_unsupportedAttribute")
    1031                            .dwattr $C$DW$86, DW_AT_const_value(0xf4)
    1032                            .dwattr $C$DW$86, DW_AT_decl_file("C:/Users/Kevin/workspace_v7/sensor_cc1310lp/Application/api
    1033                            .dwattr $C$DW$86, DW_AT_decl_line(0x22f)
    1034                            .dwattr $C$DW$86, DW_AT_decl_column(0x05)
    1035                    
    1036                    $C$DW$87        .dwtag  DW_TAG_enumerator
    1037                            .dwattr $C$DW$87, DW_AT_name("ApiMac_status_unsupportedLegacy")
    1038                            .dwattr $C$DW$87, DW_AT_const_value(0xde)
    1039                            .dwattr $C$DW$87, DW_AT_decl_file("C:/Users/Kevin/workspace_v7/sensor_cc1310lp/Application/api
    1040                            .dwattr $C$DW$87, DW_AT_decl_line(0x234)
    1041                            .dwattr $C$DW$87, DW_AT_decl_column(0x05)
    1042                    
    1043                    $C$DW$88        .dwtag  DW_TAG_enumerator
TI ARM Assembler PC v16.9.4 Sat Nov 18 18:46:21 2017

Tools Copyright (c) 1996-2017 Texas Instruments Incorporated
C:\Users\Kevin\AppData\Local\Temp\{91E5085D-660D-4F25-9A12-879222E44D75} PAGE   20

    1044                            .dwattr $C$DW$88, DW_AT_name("ApiMac_status_unsupportedSecurity")
    1045                            .dwattr $C$DW$88, DW_AT_const_value(0xdf)
    1046                            .dwattr $C$DW$88, DW_AT_decl_file("C:/Users/Kevin/workspace_v7/sensor_cc1310lp/Application/api
    1047                            .dwattr $C$DW$88, DW_AT_decl_line(0x236)
    1048                            .dwattr $C$DW$88, DW_AT_decl_column(0x05)
    1049                    
    1050                    $C$DW$89        .dwtag  DW_TAG_enumerator
    1051                            .dwattr $C$DW$89, DW_AT_name("ApiMac_status_unsupported")
    1052                            .dwattr $C$DW$89, DW_AT_const_value(0x18)
    1053                            .dwattr $C$DW$89, DW_AT_decl_file("C:/Users/Kevin/workspace_v7/sensor_cc1310lp/Application/api
    1054                            .dwattr $C$DW$89, DW_AT_decl_line(0x238)
    1055                            .dwattr $C$DW$89, DW_AT_decl_column(0x05)
    1056                    
    1057                    $C$DW$90        .dwtag  DW_TAG_enumerator
    1058                            .dwattr $C$DW$90, DW_AT_name("ApiMac_status_badState")
    1059                            .dwattr $C$DW$90, DW_AT_const_value(0x19)
    1060                            .dwattr $C$DW$90, DW_AT_decl_file("C:/Users/Kevin/workspace_v7/sensor_cc1310lp/Application/api
    1061                            .dwattr $C$DW$90, DW_AT_decl_line(0x23a)
    1062                            .dwattr $C$DW$90, DW_AT_decl_column(0x05)
    1063                    
    1064                    $C$DW$91        .dwtag  DW_TAG_enumerator
    1065                            .dwattr $C$DW$91, DW_AT_name("ApiMac_status_noResources")
    1066                            .dwattr $C$DW$91, DW_AT_const_value(0x1a)
    1067                            .dwattr $C$DW$91, DW_AT_decl_file("C:/Users/Kevin/workspace_v7/sensor_cc1310lp/Application/api
    1068                            .dwattr $C$DW$91, DW_AT_decl_line(0x23f)
    1069                            .dwattr $C$DW$91, DW_AT_decl_column(0x05)
    1070                    
    1071                    $C$DW$92        .dwtag  DW_TAG_enumerator
    1072                            .dwattr $C$DW$92, DW_AT_name("ApiMac_status_ackPending")
    1073                            .dwattr $C$DW$92, DW_AT_const_value(0x1b)
    1074                            .dwattr $C$DW$92, DW_AT_decl_file("C:/Users/Kevin/workspace_v7/sensor_cc1310lp/Application/api
    1075                            .dwattr $C$DW$92, DW_AT_decl_line(0x241)
    1076                            .dwattr $C$DW$92, DW_AT_decl_column(0x05)
    1077                    
    1078                    $C$DW$93        .dwtag  DW_TAG_enumerator
    1079                            .dwattr $C$DW$93, DW_AT_name("ApiMac_status_noTime")
    1080                            .dwattr $C$DW$93, DW_AT_const_value(0x1c)
    1081                            .dwattr $C$DW$93, DW_AT_decl_file("C:/Users/Kevin/workspace_v7/sensor_cc1310lp/Application/api
    1082                            .dwattr $C$DW$93, DW_AT_decl_line(0x243)
    1083                            .dwattr $C$DW$93, DW_AT_decl_column(0x05)
    1084                    
    1085                    $C$DW$94        .dwtag  DW_TAG_enumerator
    1086                            .dwattr $C$DW$94, DW_AT_name("ApiMac_status_txAborted")
    1087                            .dwattr $C$DW$94, DW_AT_const_value(0x1d)
    1088                            .dwattr $C$DW$94, DW_AT_decl_file("C:/Users/Kevin/workspace_v7/sensor_cc1310lp/Application/api
    1089                            .dwattr $C$DW$94, DW_AT_decl_line(0x245)
    1090                            .dwattr $C$DW$94, DW_AT_decl_column(0x05)
    1091                    
    1092                    $C$DW$95        .dwtag  DW_TAG_enumerator
    1093                            .dwattr $C$DW$95, DW_AT_name("ApiMac_status_duplicateEntry")
    1094                            .dwattr $C$DW$95, DW_AT_const_value(0x1e)
    1095                            .dwattr $C$DW$95, DW_AT_decl_file("C:/Users/Kevin/workspace_v7/sensor_cc1310lp/Application/api
    1096                            .dwattr $C$DW$95, DW_AT_decl_line(0x24a)
    1097                            .dwattr $C$DW$95, DW_AT_decl_column(0x05)
    1098                    
TI ARM Assembler PC v16.9.4 Sat Nov 18 18:46:21 2017

Tools Copyright (c) 1996-2017 Texas Instruments Incorporated
C:\Users\Kevin\AppData\Local\Temp\{91E5085D-660D-4F25-9A12-879222E44D75} PAGE   21

    1099                    $C$DW$96        .dwtag  DW_TAG_enumerator
    1100                            .dwattr $C$DW$96, DW_AT_name("ApiMac_status_fhError")
    1101                            .dwattr $C$DW$96, DW_AT_const_value(0x61)
    1102                            .dwattr $C$DW$96, DW_AT_decl_file("C:/Users/Kevin/workspace_v7/sensor_cc1310lp/Application/api
    1103                            .dwattr $C$DW$96, DW_AT_decl_line(0x24c)
    1104                            .dwattr $C$DW$96, DW_AT_decl_column(0x05)
    1105                    
    1106                    $C$DW$97        .dwtag  DW_TAG_enumerator
    1107                            .dwattr $C$DW$97, DW_AT_name("ApiMac_status_fhIeNotSupported")
    1108                            .dwattr $C$DW$97, DW_AT_const_value(0x62)
    1109                            .dwattr $C$DW$97, DW_AT_decl_file("C:/Users/Kevin/workspace_v7/sensor_cc1310lp/Application/api
    1110                            .dwattr $C$DW$97, DW_AT_decl_line(0x24e)
    1111                            .dwattr $C$DW$97, DW_AT_decl_column(0x05)
    1112                    
    1113                    $C$DW$98        .dwtag  DW_TAG_enumerator
    1114                            .dwattr $C$DW$98, DW_AT_name("ApiMac_status_fhNotInAsync")
    1115                            .dwattr $C$DW$98, DW_AT_const_value(0x63)
    1116                            .dwattr $C$DW$98, DW_AT_decl_file("C:/Users/Kevin/workspace_v7/sensor_cc1310lp/Application/api
    1117                            .dwattr $C$DW$98, DW_AT_decl_line(0x250)
    1118                            .dwattr $C$DW$98, DW_AT_decl_column(0x05)
    1119                    
    1120                    $C$DW$99        .dwtag  DW_TAG_enumerator
    1121                            .dwattr $C$DW$99, DW_AT_name("ApiMac_status_fhNotInNeighborTable")
    1122                            .dwattr $C$DW$99, DW_AT_const_value(0x64)
    1123                            .dwattr $C$DW$99, DW_AT_decl_file("C:/Users/Kevin/workspace_v7/sensor_cc1310lp/Application/api
    1124                            .dwattr $C$DW$99, DW_AT_decl_line(0x252)
    1125                            .dwattr $C$DW$99, DW_AT_decl_column(0x05)
    1126                    
    1127                    $C$DW$100       .dwtag  DW_TAG_enumerator
    1128                            .dwattr $C$DW$100, DW_AT_name("ApiMac_status_fhOutSlot")
    1129                            .dwattr $C$DW$100, DW_AT_const_value(0x65)
    1130                            .dwattr $C$DW$100, DW_AT_decl_file("C:/Users/Kevin/workspace_v7/sensor_cc1310lp/Application/ap
    1131                            .dwattr $C$DW$100, DW_AT_decl_line(0x254)
    1132                            .dwattr $C$DW$100, DW_AT_decl_column(0x05)
    1133                    
    1134                    $C$DW$101       .dwtag  DW_TAG_enumerator
    1135                            .dwattr $C$DW$101, DW_AT_name("ApiMac_status_fhInvalidAddress")
    1136                            .dwattr $C$DW$101, DW_AT_const_value(0x66)
    1137                            .dwattr $C$DW$101, DW_AT_decl_file("C:/Users/Kevin/workspace_v7/sensor_cc1310lp/Application/ap
    1138                            .dwattr $C$DW$101, DW_AT_decl_line(0x256)
    1139                            .dwattr $C$DW$101, DW_AT_decl_column(0x05)
    1140                    
    1141                    $C$DW$102       .dwtag  DW_TAG_enumerator
    1142                            .dwattr $C$DW$102, DW_AT_name("ApiMac_status_fhIeFormatInvalid")
    1143                            .dwattr $C$DW$102, DW_AT_const_value(0x67)
    1144                            .dwattr $C$DW$102, DW_AT_decl_file("C:/Users/Kevin/workspace_v7/sensor_cc1310lp/Application/ap
    1145                            .dwattr $C$DW$102, DW_AT_decl_line(0x258)
    1146                            .dwattr $C$DW$102, DW_AT_decl_column(0x05)
    1147                    
    1148                    $C$DW$103       .dwtag  DW_TAG_enumerator
    1149                            .dwattr $C$DW$103, DW_AT_name("ApiMac_status_fhPibNotSupported")
    1150                            .dwattr $C$DW$103, DW_AT_const_value(0x68)
    1151                            .dwattr $C$DW$103, DW_AT_decl_file("C:/Users/Kevin/workspace_v7/sensor_cc1310lp/Application/ap
    1152                            .dwattr $C$DW$103, DW_AT_decl_line(0x25a)
    1153                            .dwattr $C$DW$103, DW_AT_decl_column(0x05)
TI ARM Assembler PC v16.9.4 Sat Nov 18 18:46:21 2017

Tools Copyright (c) 1996-2017 Texas Instruments Incorporated
C:\Users\Kevin\AppData\Local\Temp\{91E5085D-660D-4F25-9A12-879222E44D75} PAGE   22

    1154                    
    1155                    $C$DW$104       .dwtag  DW_TAG_enumerator
    1156                            .dwattr $C$DW$104, DW_AT_name("ApiMac_status_fhPibReadOnly")
    1157                            .dwattr $C$DW$104, DW_AT_const_value(0x69)
    1158                            .dwattr $C$DW$104, DW_AT_decl_file("C:/Users/Kevin/workspace_v7/sensor_cc1310lp/Application/ap
    1159                            .dwattr $C$DW$104, DW_AT_decl_line(0x25c)
    1160                            .dwattr $C$DW$104, DW_AT_decl_column(0x05)
    1161                    
    1162                    $C$DW$105       .dwtag  DW_TAG_enumerator
    1163                            .dwattr $C$DW$105, DW_AT_name("ApiMac_status_fhPibInvalidParameter")
    1164                            .dwattr $C$DW$105, DW_AT_const_value(0x6a)
    1165                            .dwattr $C$DW$105, DW_AT_decl_file("C:/Users/Kevin/workspace_v7/sensor_cc1310lp/Application/ap
    1166                            .dwattr $C$DW$105, DW_AT_decl_line(0x25e)
    1167                            .dwattr $C$DW$105, DW_AT_decl_column(0x05)
    1168                    
    1169                    $C$DW$106       .dwtag  DW_TAG_enumerator
    1170                            .dwattr $C$DW$106, DW_AT_name("ApiMac_status_fhInvalidFrameType")
    1171                            .dwattr $C$DW$106, DW_AT_const_value(0x6b)
    1172                            .dwattr $C$DW$106, DW_AT_decl_file("C:/Users/Kevin/workspace_v7/sensor_cc1310lp/Application/ap
    1173                            .dwattr $C$DW$106, DW_AT_decl_line(0x260)
    1174                            .dwattr $C$DW$106, DW_AT_decl_column(0x05)
    1175                    
    1176                    $C$DW$107       .dwtag  DW_TAG_enumerator
    1177                            .dwattr $C$DW$107, DW_AT_name("ApiMac_status_fhExpiredNode")
    1178                            .dwattr $C$DW$107, DW_AT_const_value(0x6c)
    1179                            .dwattr $C$DW$107, DW_AT_decl_file("C:/Users/Kevin/workspace_v7/sensor_cc1310lp/Application/ap
    1180                            .dwattr $C$DW$107, DW_AT_decl_line(0x262)
    1181                            .dwattr $C$DW$107, DW_AT_decl_column(0x05)
    1182                    
    1183                            .dwattr $C$DW$T$548, DW_AT_decl_file("C:/Users/Kevin/workspace_v7/sensor_cc1310lp/Application/
    1184                            .dwattr $C$DW$T$548, DW_AT_decl_line(0x1b5)
    1185                            .dwattr $C$DW$T$548, DW_AT_decl_column(0x01)
    1186                            .dwendtag $C$DW$T$548
    1187                    
    1188                    $C$DW$T$549     .dwtag  DW_TAG_typedef
    1189                            .dwattr $C$DW$T$549, DW_AT_name("ApiMac_status_t")
    1190                            .dwattr $C$DW$T$549, DW_AT_type(*$C$DW$T$548)
    1191                            .dwattr $C$DW$T$549, DW_AT_language(DW_LANG_C)
    1192                            .dwattr $C$DW$T$549, DW_AT_decl_file("C:/Users/Kevin/workspace_v7/sensor_cc1310lp/Application/
    1193                            .dwattr $C$DW$T$549, DW_AT_decl_line(0x263)
    1194                            .dwattr $C$DW$T$549, DW_AT_decl_column(0x03)
    1195                    
    1196                    
    1197                    $C$DW$T$552     .dwtag  DW_TAG_enumeration_type
    1198                            .dwattr $C$DW$T$552, DW_AT_byte_size(0x01)
    1199                    $C$DW$108       .dwtag  DW_TAG_enumerator
    1200                            .dwattr $C$DW$108, DW_AT_name("ApiMac_fhFrameType_panAdvert")
    1201                            .dwattr $C$DW$108, DW_AT_const_value(0x00)
    1202                            .dwattr $C$DW$108, DW_AT_decl_file("C:/Users/Kevin/workspace_v7/sensor_cc1310lp/Application/ap
    1203                            .dwattr $C$DW$108, DW_AT_decl_line(0x416)
    1204                            .dwattr $C$DW$108, DW_AT_decl_column(0x05)
    1205                    
    1206                    $C$DW$109       .dwtag  DW_TAG_enumerator
    1207                            .dwattr $C$DW$109, DW_AT_name("ApiMac_fhFrameType_panAdvertSolicit")
    1208                            .dwattr $C$DW$109, DW_AT_const_value(0x01)
TI ARM Assembler PC v16.9.4 Sat Nov 18 18:46:21 2017

Tools Copyright (c) 1996-2017 Texas Instruments Incorporated
C:\Users\Kevin\AppData\Local\Temp\{91E5085D-660D-4F25-9A12-879222E44D75} PAGE   23

    1209                            .dwattr $C$DW$109, DW_AT_decl_file("C:/Users/Kevin/workspace_v7/sensor_cc1310lp/Application/ap
    1210                            .dwattr $C$DW$109, DW_AT_decl_line(0x418)
    1211                            .dwattr $C$DW$109, DW_AT_decl_column(0x05)
    1212                    
    1213                    $C$DW$110       .dwtag  DW_TAG_enumerator
    1214                            .dwattr $C$DW$110, DW_AT_name("ApiMac_fhFrameType_config")
    1215                            .dwattr $C$DW$110, DW_AT_const_value(0x02)
    1216                            .dwattr $C$DW$110, DW_AT_decl_file("C:/Users/Kevin/workspace_v7/sensor_cc1310lp/Application/ap
    1217                            .dwattr $C$DW$110, DW_AT_decl_line(0x41a)
    1218                            .dwattr $C$DW$110, DW_AT_decl_column(0x05)
    1219                    
    1220                    $C$DW$111       .dwtag  DW_TAG_enumerator
    1221                            .dwattr $C$DW$111, DW_AT_name("ApiMac_fhFrameType_configSolicit")
    1222                            .dwattr $C$DW$111, DW_AT_const_value(0x03)
    1223                            .dwattr $C$DW$111, DW_AT_decl_file("C:/Users/Kevin/workspace_v7/sensor_cc1310lp/Application/ap
    1224                            .dwattr $C$DW$111, DW_AT_decl_line(0x41c)
    1225                            .dwattr $C$DW$111, DW_AT_decl_column(0x05)
    1226                    
    1227                    $C$DW$112       .dwtag  DW_TAG_enumerator
    1228                            .dwattr $C$DW$112, DW_AT_name("ApiMac_fhFrameType_data")
    1229                            .dwattr $C$DW$112, DW_AT_const_value(0x04)
    1230                            .dwattr $C$DW$112, DW_AT_decl_file("C:/Users/Kevin/workspace_v7/sensor_cc1310lp/Application/ap
    1231                            .dwattr $C$DW$112, DW_AT_decl_line(0x41e)
    1232                            .dwattr $C$DW$112, DW_AT_decl_column(0x05)
    1233                    
    1234                    $C$DW$113       .dwtag  DW_TAG_enumerator
    1235                            .dwattr $C$DW$113, DW_AT_name("ApiMac_fhFrameType_ack")
    1236                            .dwattr $C$DW$113, DW_AT_const_value(0x05)
    1237                            .dwattr $C$DW$113, DW_AT_decl_file("C:/Users/Kevin/workspace_v7/sensor_cc1310lp/Application/ap
    1238                            .dwattr $C$DW$113, DW_AT_decl_line(0x420)
    1239                            .dwattr $C$DW$113, DW_AT_decl_column(0x05)
    1240                    
    1241                    $C$DW$114       .dwtag  DW_TAG_enumerator
    1242                            .dwattr $C$DW$114, DW_AT_name("ApiMac_fhFrameType_eapol")
    1243                            .dwattr $C$DW$114, DW_AT_const_value(0x06)
    1244                            .dwattr $C$DW$114, DW_AT_decl_file("C:/Users/Kevin/workspace_v7/sensor_cc1310lp/Application/ap
    1245                            .dwattr $C$DW$114, DW_AT_decl_line(0x422)
    1246                            .dwattr $C$DW$114, DW_AT_decl_column(0x05)
    1247                    
    1248                    $C$DW$115       .dwtag  DW_TAG_enumerator
    1249                            .dwattr $C$DW$115, DW_AT_name("ApiMac_fhFrameType_invalid")
    1250                            .dwattr $C$DW$115, DW_AT_const_value(0xff)
    1251                            .dwattr $C$DW$115, DW_AT_decl_file("C:/Users/Kevin/workspace_v7/sensor_cc1310lp/Application/ap
    1252                            .dwattr $C$DW$115, DW_AT_decl_line(0x424)
    1253                            .dwattr $C$DW$115, DW_AT_decl_column(0x05)
    1254                    
    1255                            .dwattr $C$DW$T$552, DW_AT_decl_file("C:/Users/Kevin/workspace_v7/sensor_cc1310lp/Application/
    1256                            .dwattr $C$DW$T$552, DW_AT_decl_line(0x414)
    1257                            .dwattr $C$DW$T$552, DW_AT_decl_column(0x01)
    1258                            .dwendtag $C$DW$T$552
    1259                    
    1260                    $C$DW$T$553     .dwtag  DW_TAG_typedef
    1261                            .dwattr $C$DW$T$553, DW_AT_name("ApiMac_fhFrameType_t")
    1262                            .dwattr $C$DW$T$553, DW_AT_type(*$C$DW$T$552)
    1263                            .dwattr $C$DW$T$553, DW_AT_language(DW_LANG_C)
TI ARM Assembler PC v16.9.4 Sat Nov 18 18:46:21 2017

Tools Copyright (c) 1996-2017 Texas Instruments Incorporated
C:\Users\Kevin\AppData\Local\Temp\{91E5085D-660D-4F25-9A12-879222E44D75} PAGE   24

    1264                            .dwattr $C$DW$T$553, DW_AT_decl_file("C:/Users/Kevin/workspace_v7/sensor_cc1310lp/Application/
    1265                            .dwattr $C$DW$T$553, DW_AT_decl_line(0x425)
    1266                            .dwattr $C$DW$T$553, DW_AT_decl_column(0x03)
    1267                    
    1268                    
    1269                    $C$DW$T$554     .dwtag  DW_TAG_enumeration_type
    1270                            .dwattr $C$DW$T$554, DW_AT_byte_size(0x01)
    1271                    $C$DW$116       .dwtag  DW_TAG_enumerator
    1272                            .dwattr $C$DW$116, DW_AT_name("ApiMac_fhDispatchType_none")
    1273                            .dwattr $C$DW$116, DW_AT_const_value(0x00)
    1274                            .dwattr $C$DW$116, DW_AT_decl_file("C:/Users/Kevin/workspace_v7/sensor_cc1310lp/Application/ap
    1275                            .dwattr $C$DW$116, DW_AT_decl_line(0x48c)
    1276                            .dwattr $C$DW$116, DW_AT_decl_column(0x05)
    1277                    
    1278                    $C$DW$117       .dwtag  DW_TAG_enumerator
    1279                            .dwattr $C$DW$117, DW_AT_name("ApiMac_fhDispatchType_MHD_PDU")
    1280                            .dwattr $C$DW$117, DW_AT_const_value(0x01)
    1281                            .dwattr $C$DW$117, DW_AT_decl_file("C:/Users/Kevin/workspace_v7/sensor_cc1310lp/Application/ap
    1282                            .dwattr $C$DW$117, DW_AT_decl_line(0x48e)
    1283                            .dwattr $C$DW$117, DW_AT_decl_column(0x05)
    1284                    
    1285                    $C$DW$118       .dwtag  DW_TAG_enumerator
    1286                            .dwattr $C$DW$118, DW_AT_name("ApiMac_fhDispatchType_6LowPAN")
    1287                            .dwattr $C$DW$118, DW_AT_const_value(0x02)
    1288                            .dwattr $C$DW$118, DW_AT_decl_file("C:/Users/Kevin/workspace_v7/sensor_cc1310lp/Application/ap
    1289                            .dwattr $C$DW$118, DW_AT_decl_line(0x490)
    1290                            .dwattr $C$DW$118, DW_AT_decl_column(0x05)
    1291                    
    1292                            .dwattr $C$DW$T$554, DW_AT_decl_file("C:/Users/Kevin/workspace_v7/sensor_cc1310lp/Application/
    1293                            .dwattr $C$DW$T$554, DW_AT_decl_line(0x48a)
    1294                            .dwattr $C$DW$T$554, DW_AT_decl_column(0x01)
    1295                            .dwendtag $C$DW$T$554
    1296                    
    1297                    $C$DW$T$555     .dwtag  DW_TAG_typedef
    1298                            .dwattr $C$DW$T$555, DW_AT_name("ApiMac_fhDispatchType_t")
    1299                            .dwattr $C$DW$T$555, DW_AT_type(*$C$DW$T$554)
    1300                            .dwattr $C$DW$T$555, DW_AT_language(DW_LANG_C)
    1301                            .dwattr $C$DW$T$555, DW_AT_decl_file("C:/Users/Kevin/workspace_v7/sensor_cc1310lp/Application/
    1302                            .dwattr $C$DW$T$555, DW_AT_decl_line(0x491)
    1303                            .dwattr $C$DW$T$555, DW_AT_decl_column(0x03)
    1304                    
    1305                    
    1306                    $C$DW$T$561     .dwtag  DW_TAG_enumeration_type
    1307                            .dwattr $C$DW$T$561, DW_AT_byte_size(0x01)
    1308                    $C$DW$119       .dwtag  DW_TAG_enumerator
    1309                            .dwattr $C$DW$119, DW_AT_name("ApiMac_assocStatus_success")
    1310                            .dwattr $C$DW$119, DW_AT_const_value(0x00)
    1311                            .dwattr $C$DW$119, DW_AT_decl_file("C:/Users/Kevin/workspace_v7/sensor_cc1310lp/Application/ap
    1312                            .dwattr $C$DW$119, DW_AT_decl_line(0x17c)
    1313                            .dwattr $C$DW$119, DW_AT_decl_column(0x05)
    1314                    
    1315                    $C$DW$120       .dwtag  DW_TAG_enumerator
    1316                            .dwattr $C$DW$120, DW_AT_name("ApiMac_assocStatus_panAtCapacity")
    1317                            .dwattr $C$DW$120, DW_AT_const_value(0x01)
    1318                            .dwattr $C$DW$120, DW_AT_decl_file("C:/Users/Kevin/workspace_v7/sensor_cc1310lp/Application/ap
TI ARM Assembler PC v16.9.4 Sat Nov 18 18:46:21 2017

Tools Copyright (c) 1996-2017 Texas Instruments Incorporated
C:\Users\Kevin\AppData\Local\Temp\{91E5085D-660D-4F25-9A12-879222E44D75} PAGE   25

    1319                            .dwattr $C$DW$120, DW_AT_decl_line(0x17e)
    1320                            .dwattr $C$DW$120, DW_AT_decl_column(0x05)
    1321                    
    1322                    $C$DW$121       .dwtag  DW_TAG_enumerator
    1323                            .dwattr $C$DW$121, DW_AT_name("ApiMac_assocStatus_panAccessDenied")
    1324                            .dwattr $C$DW$121, DW_AT_const_value(0x02)
    1325                            .dwattr $C$DW$121, DW_AT_decl_file("C:/Users/Kevin/workspace_v7/sensor_cc1310lp/Application/ap
    1326                            .dwattr $C$DW$121, DW_AT_decl_line(0x180)
    1327                            .dwattr $C$DW$121, DW_AT_decl_column(0x05)
    1328                    
    1329                            .dwattr $C$DW$T$561, DW_AT_decl_file("C:/Users/Kevin/workspace_v7/sensor_cc1310lp/Application/
    1330                            .dwattr $C$DW$T$561, DW_AT_decl_line(0x17a)
    1331                            .dwattr $C$DW$T$561, DW_AT_decl_column(0x01)
    1332                            .dwendtag $C$DW$T$561
    1333                    
    1334                    $C$DW$T$562     .dwtag  DW_TAG_typedef
    1335                            .dwattr $C$DW$T$562, DW_AT_name("ApiMac_assocStatus_t")
    1336                            .dwattr $C$DW$T$562, DW_AT_type(*$C$DW$T$561)
    1337                            .dwattr $C$DW$T$562, DW_AT_language(DW_LANG_C)
    1338                            .dwattr $C$DW$T$562, DW_AT_decl_file("C:/Users/Kevin/workspace_v7/sensor_cc1310lp/Application/
    1339                            .dwattr $C$DW$T$562, DW_AT_decl_line(0x181)
    1340                            .dwattr $C$DW$T$562, DW_AT_decl_column(0x03)
    1341                    
    1342                    
    1343                    $C$DW$T$566     .dwtag  DW_TAG_enumeration_type
    1344                            .dwattr $C$DW$T$566, DW_AT_byte_size(0x01)
    1345                    $C$DW$122       .dwtag  DW_TAG_enumerator
    1346                            .dwattr $C$DW$122, DW_AT_name("ApiMac_commStatusReason_assocRsp")
    1347                            .dwattr $C$DW$122, DW_AT_const_value(0x00)
    1348                            .dwattr $C$DW$122, DW_AT_decl_file("C:/Users/Kevin/workspace_v7/sensor_cc1310lp/Application/ap
    1349                            .dwattr $C$DW$122, DW_AT_decl_line(0x1a8)
    1350                            .dwattr $C$DW$122, DW_AT_decl_column(0x05)
    1351                    
    1352                    $C$DW$123       .dwtag  DW_TAG_enumerator
    1353                            .dwattr $C$DW$123, DW_AT_name("ApiMac_commStatusReason_orphanRsp")
    1354                            .dwattr $C$DW$123, DW_AT_const_value(0x01)
    1355                            .dwattr $C$DW$123, DW_AT_decl_file("C:/Users/Kevin/workspace_v7/sensor_cc1310lp/Application/ap
    1356                            .dwattr $C$DW$123, DW_AT_decl_line(0x1ac)
    1357                            .dwattr $C$DW$123, DW_AT_decl_column(0x05)
    1358                    
    1359                    $C$DW$124       .dwtag  DW_TAG_enumerator
    1360                            .dwattr $C$DW$124, DW_AT_name("ApiMac_commStatusReason_rxSecure")
    1361                            .dwattr $C$DW$124, DW_AT_const_value(0x02)
    1362                            .dwattr $C$DW$124, DW_AT_decl_file("C:/Users/Kevin/workspace_v7/sensor_cc1310lp/Application/ap
    1363                            .dwattr $C$DW$124, DW_AT_decl_line(0x1b0)
    1364                            .dwattr $C$DW$124, DW_AT_decl_column(0x05)
    1365                    
    1366                            .dwattr $C$DW$T$566, DW_AT_decl_file("C:/Users/Kevin/workspace_v7/sensor_cc1310lp/Application/
    1367                            .dwattr $C$DW$T$566, DW_AT_decl_line(0x1a4)
    1368                            .dwattr $C$DW$T$566, DW_AT_decl_column(0x01)
    1369                            .dwendtag $C$DW$T$566
    1370                    
    1371                    $C$DW$T$567     .dwtag  DW_TAG_typedef
    1372                            .dwattr $C$DW$T$567, DW_AT_name("ApiMac_commStatusReason_t")
    1373                            .dwattr $C$DW$T$567, DW_AT_type(*$C$DW$T$566)
TI ARM Assembler PC v16.9.4 Sat Nov 18 18:46:21 2017

Tools Copyright (c) 1996-2017 Texas Instruments Incorporated
C:\Users\Kevin\AppData\Local\Temp\{91E5085D-660D-4F25-9A12-879222E44D75} PAGE   26

    1374                            .dwattr $C$DW$T$567, DW_AT_language(DW_LANG_C)
    1375                            .dwattr $C$DW$T$567, DW_AT_decl_file("C:/Users/Kevin/workspace_v7/sensor_cc1310lp/Application/
    1376                            .dwattr $C$DW$T$567, DW_AT_decl_line(0x1b1)
    1377                            .dwattr $C$DW$T$567, DW_AT_decl_column(0x03)
    1378                    
    1379                    
    1380                    $C$DW$T$570     .dwtag  DW_TAG_enumeration_type
    1381                            .dwattr $C$DW$T$570, DW_AT_byte_size(0x01)
    1382                    $C$DW$125       .dwtag  DW_TAG_enumerator
    1383                            .dwattr $C$DW$125, DW_AT_name("ApiMac_disassocateReason_coord")
    1384                            .dwattr $C$DW$125, DW_AT_const_value(0x01)
    1385                            .dwattr $C$DW$125, DW_AT_decl_file("C:/Users/Kevin/workspace_v7/sensor_cc1310lp/Application/ap
    1386                            .dwattr $C$DW$125, DW_AT_decl_line(0x19d)
    1387                            .dwattr $C$DW$125, DW_AT_decl_column(0x05)
    1388                    
    1389                    $C$DW$126       .dwtag  DW_TAG_enumerator
    1390                            .dwattr $C$DW$126, DW_AT_name("ApiMac_disassocateReason_device")
    1391                            .dwattr $C$DW$126, DW_AT_const_value(0x02)
    1392                            .dwattr $C$DW$126, DW_AT_decl_file("C:/Users/Kevin/workspace_v7/sensor_cc1310lp/Application/ap
    1393                            .dwattr $C$DW$126, DW_AT_decl_line(0x19f)
    1394                            .dwattr $C$DW$126, DW_AT_decl_column(0x05)
    1395                    
    1396                            .dwattr $C$DW$T$570, DW_AT_decl_file("C:/Users/Kevin/workspace_v7/sensor_cc1310lp/Application/
    1397                            .dwattr $C$DW$T$570, DW_AT_decl_line(0x19b)
    1398                            .dwattr $C$DW$T$570, DW_AT_decl_column(0x01)
    1399                            .dwendtag $C$DW$T$570
    1400                    
    1401                    $C$DW$T$571     .dwtag  DW_TAG_typedef
    1402                            .dwattr $C$DW$T$571, DW_AT_name("ApiMac_disassocateReason_t")
    1403                            .dwattr $C$DW$T$571, DW_AT_type(*$C$DW$T$570)
    1404                            .dwattr $C$DW$T$571, DW_AT_language(DW_LANG_C)
    1405                            .dwattr $C$DW$T$571, DW_AT_decl_file("C:/Users/Kevin/workspace_v7/sensor_cc1310lp/Application/
    1406                            .dwattr $C$DW$T$571, DW_AT_decl_line(0x1a0)
    1407                            .dwattr $C$DW$T$571, DW_AT_decl_column(0x03)
    1408                    
    1409                    
    1410                    $C$DW$T$579     .dwtag  DW_TAG_enumeration_type
    1411                            .dwattr $C$DW$T$579, DW_AT_byte_size(0x01)
    1412                    $C$DW$127       .dwtag  DW_TAG_enumerator
    1413                            .dwattr $C$DW$127, DW_AT_name("ApiMac_scantype_energyDetect")
    1414                            .dwattr $C$DW$127, DW_AT_const_value(0x00)
    1415                            .dwattr $C$DW$127, DW_AT_decl_file("C:/Users/Kevin/workspace_v7/sensor_cc1310lp/Application/ap
    1416                            .dwattr $C$DW$127, DW_AT_decl_line(0x458)
    1417                            .dwattr $C$DW$127, DW_AT_decl_column(0x05)
    1418                    
    1419                    $C$DW$128       .dwtag  DW_TAG_enumerator
    1420                            .dwattr $C$DW$128, DW_AT_name("ApiMac_scantype_active")
    1421                            .dwattr $C$DW$128, DW_AT_const_value(0x01)
    1422                            .dwattr $C$DW$128, DW_AT_decl_file("C:/Users/Kevin/workspace_v7/sensor_cc1310lp/Application/ap
    1423                            .dwattr $C$DW$128, DW_AT_decl_line(0x45e)
    1424                            .dwattr $C$DW$128, DW_AT_decl_column(0x05)
    1425                    
    1426                    $C$DW$129       .dwtag  DW_TAG_enumerator
    1427                            .dwattr $C$DW$129, DW_AT_name("ApiMac_scantype_passive")
    1428                            .dwattr $C$DW$129, DW_AT_const_value(0x02)
TI ARM Assembler PC v16.9.4 Sat Nov 18 18:46:21 2017

Tools Copyright (c) 1996-2017 Texas Instruments Incorporated
C:\Users\Kevin\AppData\Local\Temp\{91E5085D-660D-4F25-9A12-879222E44D75} PAGE   27

    1429                            .dwattr $C$DW$129, DW_AT_decl_file("C:/Users/Kevin/workspace_v7/sensor_cc1310lp/Application/ap
    1430                            .dwattr $C$DW$129, DW_AT_decl_line(0x463)
    1431                            .dwattr $C$DW$129, DW_AT_decl_column(0x05)
    1432                    
    1433                    $C$DW$130       .dwtag  DW_TAG_enumerator
    1434                            .dwattr $C$DW$130, DW_AT_name("ApiMac_scantype_orphan")
    1435                            .dwattr $C$DW$130, DW_AT_const_value(0x03)
    1436                            .dwattr $C$DW$130, DW_AT_decl_file("C:/Users/Kevin/workspace_v7/sensor_cc1310lp/Application/ap
    1437                            .dwattr $C$DW$130, DW_AT_decl_line(0x469)
    1438                            .dwattr $C$DW$130, DW_AT_decl_column(0x05)
    1439                    
    1440                    $C$DW$131       .dwtag  DW_TAG_enumerator
    1441                            .dwattr $C$DW$131, DW_AT_name("ApiMac_scantype_activeEnhanced")
    1442                            .dwattr $C$DW$131, DW_AT_const_value(0x05)
    1443                            .dwattr $C$DW$131, DW_AT_decl_file("C:/Users/Kevin/workspace_v7/sensor_cc1310lp/Application/ap
    1444                            .dwattr $C$DW$131, DW_AT_decl_line(0x46f)
    1445                            .dwattr $C$DW$131, DW_AT_decl_column(0x05)
    1446                    
    1447                            .dwattr $C$DW$T$579, DW_AT_decl_file("C:/Users/Kevin/workspace_v7/sensor_cc1310lp/Application/
    1448                            .dwattr $C$DW$T$579, DW_AT_decl_line(0x452)
    1449                            .dwattr $C$DW$T$579, DW_AT_decl_column(0x01)
    1450                            .dwendtag $C$DW$T$579
    1451                    
    1452                    $C$DW$T$580     .dwtag  DW_TAG_typedef
    1453                            .dwattr $C$DW$T$580, DW_AT_name("ApiMac_scantype_t")
    1454                            .dwattr $C$DW$T$580, DW_AT_type(*$C$DW$T$579)
    1455                            .dwattr $C$DW$T$580, DW_AT_language(DW_LANG_C)
    1456                            .dwattr $C$DW$T$580, DW_AT_decl_file("C:/Users/Kevin/workspace_v7/sensor_cc1310lp/Application/
    1457                            .dwattr $C$DW$T$580, DW_AT_decl_line(0x470)
    1458                            .dwattr $C$DW$T$580, DW_AT_decl_column(0x03)
    1459                    
    1460                    
    1461                    $C$DW$T$590     .dwtag  DW_TAG_enumeration_type
    1462                            .dwattr $C$DW$T$590, DW_AT_byte_size(0x01)
    1463                    $C$DW$132       .dwtag  DW_TAG_enumerator
    1464                            .dwattr $C$DW$132, DW_AT_name("ApiMac_wisunAsycnOperation_start")
    1465                            .dwattr $C$DW$132, DW_AT_const_value(0x00)
    1466                            .dwattr $C$DW$132, DW_AT_decl_file("C:/Users/Kevin/workspace_v7/sensor_cc1310lp/Application/ap
    1467                            .dwattr $C$DW$132, DW_AT_decl_line(0x476)
    1468                            .dwattr $C$DW$132, DW_AT_decl_column(0x05)
    1469                    
    1470                    $C$DW$133       .dwtag  DW_TAG_enumerator
    1471                            .dwattr $C$DW$133, DW_AT_name("ApiMac_wisunAsycnOperation_stop")
    1472                            .dwattr $C$DW$133, DW_AT_const_value(0x01)
    1473                            .dwattr $C$DW$133, DW_AT_decl_file("C:/Users/Kevin/workspace_v7/sensor_cc1310lp/Application/ap
    1474                            .dwattr $C$DW$133, DW_AT_decl_line(0x478)
    1475                            .dwattr $C$DW$133, DW_AT_decl_column(0x05)
    1476                    
    1477                            .dwattr $C$DW$T$590, DW_AT_decl_file("C:/Users/Kevin/workspace_v7/sensor_cc1310lp/Application/
    1478                            .dwattr $C$DW$T$590, DW_AT_decl_line(0x474)
    1479                            .dwattr $C$DW$T$590, DW_AT_decl_column(0x01)
    1480                            .dwendtag $C$DW$T$590
    1481                    
    1482                    $C$DW$T$591     .dwtag  DW_TAG_typedef
    1483                            .dwattr $C$DW$T$591, DW_AT_name("ApiMac_wisunAsycnOperation_t")
TI ARM Assembler PC v16.9.4 Sat Nov 18 18:46:21 2017

Tools Copyright (c) 1996-2017 Texas Instruments Incorporated
C:\Users\Kevin\AppData\Local\Temp\{91E5085D-660D-4F25-9A12-879222E44D75} PAGE   28

    1484                            .dwattr $C$DW$T$591, DW_AT_type(*$C$DW$T$590)
    1485                            .dwattr $C$DW$T$591, DW_AT_language(DW_LANG_C)
    1486                            .dwattr $C$DW$T$591, DW_AT_decl_file("C:/Users/Kevin/workspace_v7/sensor_cc1310lp/Application/
    1487                            .dwattr $C$DW$T$591, DW_AT_decl_line(0x479)
    1488                            .dwattr $C$DW$T$591, DW_AT_decl_column(0x03)
    1489                    
    1490                    
    1491                    $C$DW$T$592     .dwtag  DW_TAG_enumeration_type
    1492                            .dwattr $C$DW$T$592, DW_AT_byte_size(0x01)
    1493                    $C$DW$134       .dwtag  DW_TAG_enumerator
    1494                            .dwattr $C$DW$134, DW_AT_name("ApiMac_wisunAsyncFrame_advertisement")
    1495                            .dwattr $C$DW$134, DW_AT_const_value(0x00)
    1496                            .dwattr $C$DW$134, DW_AT_decl_file("C:/Users/Kevin/workspace_v7/sensor_cc1310lp/Application/ap
    1497                            .dwattr $C$DW$134, DW_AT_decl_line(0x47f)
    1498                            .dwattr $C$DW$134, DW_AT_decl_column(0x05)
    1499                    
    1500                    $C$DW$135       .dwtag  DW_TAG_enumerator
    1501                            .dwattr $C$DW$135, DW_AT_name("ApiMac_wisunAsyncFrame_advertisementSolicit")
    1502                            .dwattr $C$DW$135, DW_AT_const_value(0x01)
    1503                            .dwattr $C$DW$135, DW_AT_decl_file("C:/Users/Kevin/workspace_v7/sensor_cc1310lp/Application/ap
    1504                            .dwattr $C$DW$135, DW_AT_decl_line(0x481)
    1505                            .dwattr $C$DW$135, DW_AT_decl_column(0x05)
    1506                    
    1507                    $C$DW$136       .dwtag  DW_TAG_enumerator
    1508                            .dwattr $C$DW$136, DW_AT_name("ApiMac_wisunAsyncFrame_config")
    1509                            .dwattr $C$DW$136, DW_AT_const_value(0x02)
    1510                            .dwattr $C$DW$136, DW_AT_decl_file("C:/Users/Kevin/workspace_v7/sensor_cc1310lp/Application/ap
    1511                            .dwattr $C$DW$136, DW_AT_decl_line(0x483)
    1512                            .dwattr $C$DW$136, DW_AT_decl_column(0x05)
    1513                    
    1514                    $C$DW$137       .dwtag  DW_TAG_enumerator
    1515                            .dwattr $C$DW$137, DW_AT_name("ApiMac_wisunAsyncFrame_configSolicit")
    1516                            .dwattr $C$DW$137, DW_AT_const_value(0x03)
    1517                            .dwattr $C$DW$137, DW_AT_decl_file("C:/Users/Kevin/workspace_v7/sensor_cc1310lp/Application/ap
    1518                            .dwattr $C$DW$137, DW_AT_decl_line(0x485)
    1519                            .dwattr $C$DW$137, DW_AT_decl_column(0x05)
    1520                    
    1521                            .dwattr $C$DW$T$592, DW_AT_decl_file("C:/Users/Kevin/workspace_v7/sensor_cc1310lp/Application/
    1522                            .dwattr $C$DW$T$592, DW_AT_decl_line(0x47d)
    1523                            .dwattr $C$DW$T$592, DW_AT_decl_column(0x01)
    1524                            .dwendtag $C$DW$T$592
    1525                    
    1526                    $C$DW$T$593     .dwtag  DW_TAG_typedef
    1527                            .dwattr $C$DW$T$593, DW_AT_name("ApiMac_wisunAsyncFrame_t")
    1528                            .dwattr $C$DW$T$593, DW_AT_type(*$C$DW$T$592)
    1529                            .dwattr $C$DW$T$593, DW_AT_language(DW_LANG_C)
    1530                            .dwattr $C$DW$T$593, DW_AT_decl_file("C:/Users/Kevin/workspace_v7/sensor_cc1310lp/Application/
    1531                            .dwattr $C$DW$T$593, DW_AT_decl_line(0x486)
    1532                            .dwattr $C$DW$T$593, DW_AT_decl_column(0x03)
    1533                    
    1534                    
    1535                    $C$DW$T$819     .dwtag  DW_TAG_enumeration_type
    1536                            .dwattr $C$DW$T$819, DW_AT_byte_size(0x01)
    1537                    $C$DW$138       .dwtag  DW_TAG_enumerator
    1538                            .dwattr $C$DW$138, DW_AT_name("RF_StatBusyError")
TI ARM Assembler PC v16.9.4 Sat Nov 18 18:46:21 2017

Tools Copyright (c) 1996-2017 Texas Instruments Incorporated
C:\Users\Kevin\AppData\Local\Temp\{91E5085D-660D-4F25-9A12-879222E44D75} PAGE   29

    1539                            .dwattr $C$DW$138, DW_AT_const_value(0x00)
    1540                            .dwattr $C$DW$138, DW_AT_decl_file("C:/ti/simplelink_cc13x0_sdk_1_50_00_08/source/ti/drivers/r
    1541                            .dwattr $C$DW$138, DW_AT_decl_line(0x2d7)
    1542                            .dwattr $C$DW$138, DW_AT_decl_column(0x05)
    1543                    
    1544                    $C$DW$139       .dwtag  DW_TAG_enumerator
    1545                            .dwattr $C$DW$139, DW_AT_name("RF_StatRadioInactiveError")
    1546                            .dwattr $C$DW$139, DW_AT_const_value(0x01)
    1547                            .dwattr $C$DW$139, DW_AT_decl_file("C:/ti/simplelink_cc13x0_sdk_1_50_00_08/source/ti/drivers/r
    1548                            .dwattr $C$DW$139, DW_AT_decl_line(0x2d8)
    1549                            .dwattr $C$DW$139, DW_AT_decl_column(0x05)
    1550                    
    1551                    $C$DW$140       .dwtag  DW_TAG_enumerator
    1552                            .dwattr $C$DW$140, DW_AT_name("RF_StatCmdDoneError")
    1553                            .dwattr $C$DW$140, DW_AT_const_value(0x02)
    1554                            .dwattr $C$DW$140, DW_AT_decl_file("C:/ti/simplelink_cc13x0_sdk_1_50_00_08/source/ti/drivers/r
    1555                            .dwattr $C$DW$140, DW_AT_decl_line(0x2d9)
    1556                            .dwattr $C$DW$140, DW_AT_decl_column(0x05)
    1557                    
    1558                    $C$DW$141       .dwtag  DW_TAG_enumerator
    1559                            .dwattr $C$DW$141, DW_AT_name("RF_StatInvalidParamsError")
    1560                            .dwattr $C$DW$141, DW_AT_const_value(0x03)
    1561                            .dwattr $C$DW$141, DW_AT_decl_file("C:/ti/simplelink_cc13x0_sdk_1_50_00_08/source/ti/drivers/r
    1562                            .dwattr $C$DW$141, DW_AT_decl_line(0x2da)
    1563                            .dwattr $C$DW$141, DW_AT_decl_column(0x05)
    1564                    
    1565                    $C$DW$142       .dwtag  DW_TAG_enumerator
    1566                            .dwattr $C$DW$142, DW_AT_name("RF_StatCmdEnded")
    1567                            .dwattr $C$DW$142, DW_AT_const_value(0x04)
    1568                            .dwattr $C$DW$142, DW_AT_decl_file("C:/ti/simplelink_cc13x0_sdk_1_50_00_08/source/ti/drivers/r
    1569                            .dwattr $C$DW$142, DW_AT_decl_line(0x2db)
    1570                            .dwattr $C$DW$142, DW_AT_decl_column(0x05)
    1571                    
    1572                    $C$DW$143       .dwtag  DW_TAG_enumerator
    1573                            .dwattr $C$DW$143, DW_AT_name("RF_StatError")
    1574                            .dwattr $C$DW$143, DW_AT_const_value(0x80)
    1575                            .dwattr $C$DW$143, DW_AT_decl_file("C:/ti/simplelink_cc13x0_sdk_1_50_00_08/source/ti/drivers/r
    1576                            .dwattr $C$DW$143, DW_AT_decl_line(0x2dc)
    1577                            .dwattr $C$DW$143, DW_AT_decl_column(0x05)
    1578                    
    1579                    $C$DW$144       .dwtag  DW_TAG_enumerator
    1580                            .dwattr $C$DW$144, DW_AT_name("RF_StatCmdDoneSuccess")
    1581                            .dwattr $C$DW$144, DW_AT_const_value(0x81)
    1582                            .dwattr $C$DW$144, DW_AT_decl_file("C:/ti/simplelink_cc13x0_sdk_1_50_00_08/source/ti/drivers/r
    1583                            .dwattr $C$DW$144, DW_AT_decl_line(0x2dd)
    1584                            .dwattr $C$DW$144, DW_AT_decl_column(0x05)
    1585                    
    1586                    $C$DW$145       .dwtag  DW_TAG_enumerator
    1587                            .dwattr $C$DW$145, DW_AT_name("RF_StatCmdSch")
    1588                            .dwattr $C$DW$145, DW_AT_const_value(0x82)
    1589                            .dwattr $C$DW$145, DW_AT_decl_file("C:/ti/simplelink_cc13x0_sdk_1_50_00_08/source/ti/drivers/r
    1590                            .dwattr $C$DW$145, DW_AT_decl_line(0x2de)
    1591                            .dwattr $C$DW$145, DW_AT_decl_column(0x05)
    1592                    
    1593                    $C$DW$146       .dwtag  DW_TAG_enumerator
TI ARM Assembler PC v16.9.4 Sat Nov 18 18:46:21 2017

Tools Copyright (c) 1996-2017 Texas Instruments Incorporated
C:\Users\Kevin\AppData\Local\Temp\{91E5085D-660D-4F25-9A12-879222E44D75} PAGE   30

    1594                            .dwattr $C$DW$146, DW_AT_name("RF_StatSuccess")
    1595                            .dwattr $C$DW$146, DW_AT_const_value(0x83)
    1596                            .dwattr $C$DW$146, DW_AT_decl_file("C:/ti/simplelink_cc13x0_sdk_1_50_00_08/source/ti/drivers/r
    1597                            .dwattr $C$DW$146, DW_AT_decl_line(0x2df)
    1598                            .dwattr $C$DW$146, DW_AT_decl_column(0x05)
    1599                    
    1600                            .dwattr $C$DW$T$819, DW_AT_decl_file("C:/ti/simplelink_cc13x0_sdk_1_50_00_08/source/ti/drivers
    1601                            .dwattr $C$DW$T$819, DW_AT_decl_line(0x2d6)
    1602                            .dwattr $C$DW$T$819, DW_AT_decl_column(0x0e)
    1603                            .dwendtag $C$DW$T$819
    1604                    
    1605                    $C$DW$T$820     .dwtag  DW_TAG_typedef
    1606                            .dwattr $C$DW$T$820, DW_AT_name("RF_Stat")
    1607                            .dwattr $C$DW$T$820, DW_AT_type(*$C$DW$T$819)
    1608                            .dwattr $C$DW$T$820, DW_AT_language(DW_LANG_C)
    1609                            .dwattr $C$DW$T$820, DW_AT_decl_file("C:/ti/simplelink_cc13x0_sdk_1_50_00_08/source/ti/drivers
    1610                            .dwattr $C$DW$T$820, DW_AT_decl_line(0x2e0)
    1611                            .dwattr $C$DW$T$820, DW_AT_decl_column(0x03)
    1612                    
    1613                    
    1614                    $C$DW$T$821     .dwtag  DW_TAG_enumeration_type
    1615                            .dwattr $C$DW$T$821, DW_AT_byte_size(0x01)
    1616                    $C$DW$147       .dwtag  DW_TAG_enumerator
    1617                            .dwattr $C$DW$147, DW_AT_name("RF_GET_CURR_CMD")
    1618                            .dwattr $C$DW$147, DW_AT_const_value(0x00)
    1619                            .dwattr $C$DW$147, DW_AT_decl_file("C:/ti/simplelink_cc13x0_sdk_1_50_00_08/source/ti/drivers/r
    1620                            .dwattr $C$DW$147, DW_AT_decl_line(0x3aa)
    1621                            .dwattr $C$DW$147, DW_AT_decl_column(0x05)
    1622                    
    1623                    $C$DW$148       .dwtag  DW_TAG_enumerator
    1624                            .dwattr $C$DW$148, DW_AT_name("RF_GET_AVAIL_RAT_CH")
    1625                            .dwattr $C$DW$148, DW_AT_const_value(0x01)
    1626                            .dwattr $C$DW$148, DW_AT_decl_file("C:/ti/simplelink_cc13x0_sdk_1_50_00_08/source/ti/drivers/r
    1627                            .dwattr $C$DW$148, DW_AT_decl_line(0x3ab)
    1628                            .dwattr $C$DW$148, DW_AT_decl_column(0x05)
    1629                    
    1630                    $C$DW$149       .dwtag  DW_TAG_enumerator
    1631                            .dwattr $C$DW$149, DW_AT_name("RF_GET_RADIO_STATE")
    1632                            .dwattr $C$DW$149, DW_AT_const_value(0x02)
    1633                            .dwattr $C$DW$149, DW_AT_decl_file("C:/ti/simplelink_cc13x0_sdk_1_50_00_08/source/ti/drivers/r
    1634                            .dwattr $C$DW$149, DW_AT_decl_line(0x3ac)
    1635                            .dwattr $C$DW$149, DW_AT_decl_column(0x05)
    1636                    
    1637                    $C$DW$150       .dwtag  DW_TAG_enumerator
    1638                            .dwattr $C$DW$150, DW_AT_name("RF_GET_SCHEDULE_MAP")
    1639                            .dwattr $C$DW$150, DW_AT_const_value(0x03)
    1640                            .dwattr $C$DW$150, DW_AT_decl_file("C:/ti/simplelink_cc13x0_sdk_1_50_00_08/source/ti/drivers/r
    1641                            .dwattr $C$DW$150, DW_AT_decl_line(0x3ad)
    1642                            .dwattr $C$DW$150, DW_AT_decl_column(0x05)
    1643                    
    1644                            .dwattr $C$DW$T$821, DW_AT_decl_file("C:/ti/simplelink_cc13x0_sdk_1_50_00_08/source/ti/drivers
    1645                            .dwattr $C$DW$T$821, DW_AT_decl_line(0x3a9)
    1646                            .dwattr $C$DW$T$821, DW_AT_decl_column(0x0e)
    1647                            .dwendtag $C$DW$T$821
    1648                    
TI ARM Assembler PC v16.9.4 Sat Nov 18 18:46:21 2017

Tools Copyright (c) 1996-2017 Texas Instruments Incorporated
C:\Users\Kevin\AppData\Local\Temp\{91E5085D-660D-4F25-9A12-879222E44D75} PAGE   31

    1649                    $C$DW$T$822     .dwtag  DW_TAG_typedef
    1650                            .dwattr $C$DW$T$822, DW_AT_name("RF_InfoType")
    1651                            .dwattr $C$DW$T$822, DW_AT_type(*$C$DW$T$821)
    1652                            .dwattr $C$DW$T$822, DW_AT_language(DW_LANG_C)
    1653                            .dwattr $C$DW$T$822, DW_AT_decl_file("C:/ti/simplelink_cc13x0_sdk_1_50_00_08/source/ti/drivers
    1654                            .dwattr $C$DW$T$822, DW_AT_decl_line(0x3ae)
    1655                            .dwattr $C$DW$T$822, DW_AT_decl_column(0x03)
    1656                    
    1657                    
    1658                    $C$DW$T$823     .dwtag  DW_TAG_enumeration_type
    1659                            .dwattr $C$DW$T$823, DW_AT_byte_size(0x01)
    1660                    $C$DW$151       .dwtag  DW_TAG_enumerator
    1661                            .dwattr $C$DW$151, DW_AT_name("ApiMac_secLevel_none")
    1662                            .dwattr $C$DW$151, DW_AT_const_value(0x00)
    1663                            .dwattr $C$DW$151, DW_AT_decl_file("C:/Users/Kevin/workspace_v7/sensor_cc1310lp/Application/ap
    1664                            .dwattr $C$DW$151, DW_AT_decl_line(0x269)
    1665                            .dwattr $C$DW$151, DW_AT_decl_column(0x05)
    1666                    
    1667                    $C$DW$152       .dwtag  DW_TAG_enumerator
    1668                            .dwattr $C$DW$152, DW_AT_name("ApiMac_secLevel_mic32")
    1669                            .dwattr $C$DW$152, DW_AT_const_value(0x01)
    1670                            .dwattr $C$DW$152, DW_AT_decl_file("C:/Users/Kevin/workspace_v7/sensor_cc1310lp/Application/ap
    1671                            .dwattr $C$DW$152, DW_AT_decl_line(0x26b)
    1672                            .dwattr $C$DW$152, DW_AT_decl_column(0x05)
    1673                    
    1674                    $C$DW$153       .dwtag  DW_TAG_enumerator
    1675                            .dwattr $C$DW$153, DW_AT_name("ApiMac_secLevel_mic64")
    1676                            .dwattr $C$DW$153, DW_AT_const_value(0x02)
    1677                            .dwattr $C$DW$153, DW_AT_decl_file("C:/Users/Kevin/workspace_v7/sensor_cc1310lp/Application/ap
    1678                            .dwattr $C$DW$153, DW_AT_decl_line(0x26d)
    1679                            .dwattr $C$DW$153, DW_AT_decl_column(0x05)
    1680                    
    1681                    $C$DW$154       .dwtag  DW_TAG_enumerator
    1682                            .dwattr $C$DW$154, DW_AT_name("ApiMac_secLevel_mic128")
    1683                            .dwattr $C$DW$154, DW_AT_const_value(0x03)
    1684                            .dwattr $C$DW$154, DW_AT_decl_file("C:/Users/Kevin/workspace_v7/sensor_cc1310lp/Application/ap
    1685                            .dwattr $C$DW$154, DW_AT_decl_line(0x26f)
    1686                            .dwattr $C$DW$154, DW_AT_decl_column(0x05)
    1687                    
    1688                    $C$DW$155       .dwtag  DW_TAG_enumerator
    1689                            .dwattr $C$DW$155, DW_AT_name("ApiMac_secLevel_enc")
    1690                            .dwattr $C$DW$155, DW_AT_const_value(0x04)
    1691                            .dwattr $C$DW$155, DW_AT_decl_file("C:/Users/Kevin/workspace_v7/sensor_cc1310lp/Application/ap
    1692                            .dwattr $C$DW$155, DW_AT_decl_line(0x271)
    1693                            .dwattr $C$DW$155, DW_AT_decl_column(0x05)
    1694                    
    1695                    $C$DW$156       .dwtag  DW_TAG_enumerator
    1696                            .dwattr $C$DW$156, DW_AT_name("ApiMac_secLevel_encMic32")
    1697                            .dwattr $C$DW$156, DW_AT_const_value(0x05)
    1698                            .dwattr $C$DW$156, DW_AT_decl_file("C:/Users/Kevin/workspace_v7/sensor_cc1310lp/Application/ap
    1699                            .dwattr $C$DW$156, DW_AT_decl_line(0x273)
    1700                            .dwattr $C$DW$156, DW_AT_decl_column(0x05)
    1701                    
    1702                    $C$DW$157       .dwtag  DW_TAG_enumerator
    1703                            .dwattr $C$DW$157, DW_AT_name("ApiMac_secLevel_encMic64")
TI ARM Assembler PC v16.9.4 Sat Nov 18 18:46:21 2017

Tools Copyright (c) 1996-2017 Texas Instruments Incorporated
C:\Users\Kevin\AppData\Local\Temp\{91E5085D-660D-4F25-9A12-879222E44D75} PAGE   32

    1704                            .dwattr $C$DW$157, DW_AT_const_value(0x06)
    1705                            .dwattr $C$DW$157, DW_AT_decl_file("C:/Users/Kevin/workspace_v7/sensor_cc1310lp/Application/ap
    1706                            .dwattr $C$DW$157, DW_AT_decl_line(0x275)
    1707                            .dwattr $C$DW$157, DW_AT_decl_column(0x05)
    1708                    
    1709                    $C$DW$158       .dwtag  DW_TAG_enumerator
    1710                            .dwattr $C$DW$158, DW_AT_name("ApiMac_secLevel_encMic128")
    1711                            .dwattr $C$DW$158, DW_AT_const_value(0x07)
    1712                            .dwattr $C$DW$158, DW_AT_decl_file("C:/Users/Kevin/workspace_v7/sensor_cc1310lp/Application/ap
    1713                            .dwattr $C$DW$158, DW_AT_decl_line(0x277)
    1714                            .dwattr $C$DW$158, DW_AT_decl_column(0x05)
    1715                    
    1716                            .dwattr $C$DW$T$823, DW_AT_decl_file("C:/Users/Kevin/workspace_v7/sensor_cc1310lp/Application/
    1717                            .dwattr $C$DW$T$823, DW_AT_decl_line(0x267)
    1718                            .dwattr $C$DW$T$823, DW_AT_decl_column(0x01)
    1719                            .dwendtag $C$DW$T$823
    1720                    
    1721                    $C$DW$T$824     .dwtag  DW_TAG_typedef
    1722                            .dwattr $C$DW$T$824, DW_AT_name("ApiMac_secLevel_t")
    1723                            .dwattr $C$DW$T$824, DW_AT_type(*$C$DW$T$823)
    1724                            .dwattr $C$DW$T$824, DW_AT_language(DW_LANG_C)
    1725                            .dwattr $C$DW$T$824, DW_AT_decl_file("C:/Users/Kevin/workspace_v7/sensor_cc1310lp/Application/
    1726                            .dwattr $C$DW$T$824, DW_AT_decl_line(0x278)
    1727                            .dwattr $C$DW$T$824, DW_AT_decl_column(0x03)
    1728                    
    1729                    
    1730                    $C$DW$T$825     .dwtag  DW_TAG_enumeration_type
    1731                            .dwattr $C$DW$T$825, DW_AT_byte_size(0x01)
    1732                    $C$DW$159       .dwtag  DW_TAG_enumerator
    1733                            .dwattr $C$DW$159, DW_AT_name("ApiMac_keyIdMode_implicit")
    1734                            .dwattr $C$DW$159, DW_AT_const_value(0x00)
    1735                            .dwattr $C$DW$159, DW_AT_decl_file("C:/Users/Kevin/workspace_v7/sensor_cc1310lp/Application/ap
    1736                            .dwattr $C$DW$159, DW_AT_decl_line(0x27e)
    1737                            .dwattr $C$DW$159, DW_AT_decl_column(0x05)
    1738                    
    1739                    $C$DW$160       .dwtag  DW_TAG_enumerator
    1740                            .dwattr $C$DW$160, DW_AT_name("ApiMac_keyIdMode_1")
    1741                            .dwattr $C$DW$160, DW_AT_const_value(0x01)
    1742                            .dwattr $C$DW$160, DW_AT_decl_file("C:/Users/Kevin/workspace_v7/sensor_cc1310lp/Application/ap
    1743                            .dwattr $C$DW$160, DW_AT_decl_line(0x280)
    1744                            .dwattr $C$DW$160, DW_AT_decl_column(0x05)
    1745                    
    1746                    $C$DW$161       .dwtag  DW_TAG_enumerator
    1747                            .dwattr $C$DW$161, DW_AT_name("ApiMac_keyIdMode_4")
    1748                            .dwattr $C$DW$161, DW_AT_const_value(0x02)
    1749                            .dwattr $C$DW$161, DW_AT_decl_file("C:/Users/Kevin/workspace_v7/sensor_cc1310lp/Application/ap
    1750                            .dwattr $C$DW$161, DW_AT_decl_line(0x282)
    1751                            .dwattr $C$DW$161, DW_AT_decl_column(0x05)
    1752                    
    1753                    $C$DW$162       .dwtag  DW_TAG_enumerator
    1754                            .dwattr $C$DW$162, DW_AT_name("ApiMac_keyIdMode_8")
    1755                            .dwattr $C$DW$162, DW_AT_const_value(0x03)
    1756                            .dwattr $C$DW$162, DW_AT_decl_file("C:/Users/Kevin/workspace_v7/sensor_cc1310lp/Application/ap
    1757                            .dwattr $C$DW$162, DW_AT_decl_line(0x284)
    1758                            .dwattr $C$DW$162, DW_AT_decl_column(0x05)
TI ARM Assembler PC v16.9.4 Sat Nov 18 18:46:21 2017

Tools Copyright (c) 1996-2017 Texas Instruments Incorporated
C:\Users\Kevin\AppData\Local\Temp\{91E5085D-660D-4F25-9A12-879222E44D75} PAGE   33

    1759                    
    1760                            .dwattr $C$DW$T$825, DW_AT_decl_file("C:/Users/Kevin/workspace_v7/sensor_cc1310lp/Application/
    1761                            .dwattr $C$DW$T$825, DW_AT_decl_line(0x27c)
    1762                            .dwattr $C$DW$T$825, DW_AT_decl_column(0x01)
    1763                            .dwendtag $C$DW$T$825
    1764                    
    1765                    $C$DW$T$826     .dwtag  DW_TAG_typedef
    1766                            .dwattr $C$DW$T$826, DW_AT_name("ApiMac_keyIdMode_t")
    1767                            .dwattr $C$DW$T$826, DW_AT_type(*$C$DW$T$825)
    1768                            .dwattr $C$DW$T$826, DW_AT_language(DW_LANG_C)
    1769                            .dwattr $C$DW$T$826, DW_AT_decl_file("C:/Users/Kevin/workspace_v7/sensor_cc1310lp/Application/
    1770                            .dwattr $C$DW$T$826, DW_AT_decl_line(0x285)
    1771                            .dwattr $C$DW$T$826, DW_AT_decl_column(0x03)
    1772                    
    1773                    
    1774                    $C$DW$T$827     .dwtag  DW_TAG_enumeration_type
    1775                            .dwattr $C$DW$T$827, DW_AT_byte_size(0x01)
    1776                    $C$DW$163       .dwtag  DW_TAG_enumerator
    1777                            .dwattr $C$DW$163, DW_AT_name("ApiMac_attribute_associatePermit")
    1778                            .dwattr $C$DW$163, DW_AT_const_value(0x41)
    1779                            .dwattr $C$DW$163, DW_AT_decl_file("C:/Users/Kevin/workspace_v7/sensor_cc1310lp/Application/ap
    1780                            .dwattr $C$DW$163, DW_AT_decl_line(0x28b)
    1781                            .dwattr $C$DW$163, DW_AT_decl_column(0x05)
    1782                    
    1783                    $C$DW$164       .dwtag  DW_TAG_enumerator
    1784                            .dwattr $C$DW$164, DW_AT_name("ApiMac_attribute_autoRequest")
    1785                            .dwattr $C$DW$164, DW_AT_const_value(0x42)
    1786                            .dwattr $C$DW$164, DW_AT_decl_file("C:/Users/Kevin/workspace_v7/sensor_cc1310lp/Application/ap
    1787                            .dwattr $C$DW$164, DW_AT_decl_line(0x290)
    1788                            .dwattr $C$DW$164, DW_AT_decl_column(0x05)
    1789                    
    1790                    $C$DW$165       .dwtag  DW_TAG_enumerator
    1791                            .dwattr $C$DW$165, DW_AT_name("ApiMac_attribute_battLifeExt")
    1792                            .dwattr $C$DW$165, DW_AT_const_value(0x43)
    1793                            .dwattr $C$DW$165, DW_AT_decl_file("C:/Users/Kevin/workspace_v7/sensor_cc1310lp/Application/ap
    1794                            .dwattr $C$DW$165, DW_AT_decl_line(0x292)
    1795                            .dwattr $C$DW$165, DW_AT_decl_column(0x05)
    1796                    
    1797                    $C$DW$166       .dwtag  DW_TAG_enumerator
    1798                            .dwattr $C$DW$166, DW_AT_name("ApiMac_attribute_gtsPermit")
    1799                            .dwattr $C$DW$166, DW_AT_const_value(0x4d)
    1800                            .dwattr $C$DW$166, DW_AT_decl_file("C:/Users/Kevin/workspace_v7/sensor_cc1310lp/Application/ap
    1801                            .dwattr $C$DW$166, DW_AT_decl_line(0x294)
    1802                            .dwattr $C$DW$166, DW_AT_decl_column(0x05)
    1803                    
    1804                    $C$DW$167       .dwtag  DW_TAG_enumerator
    1805                            .dwattr $C$DW$167, DW_AT_name("ApiMac_attribute_promiscuousMode")
    1806                            .dwattr $C$DW$167, DW_AT_const_value(0x51)
    1807                            .dwattr $C$DW$167, DW_AT_decl_file("C:/Users/Kevin/workspace_v7/sensor_cc1310lp/Application/ap
    1808                            .dwattr $C$DW$167, DW_AT_decl_line(0x296)
    1809                            .dwattr $C$DW$167, DW_AT_decl_column(0x05)
    1810                    
    1811                    $C$DW$168       .dwtag  DW_TAG_enumerator
    1812                            .dwattr $C$DW$168, DW_AT_name("ApiMac_attribute_RxOnWhenIdle")
    1813                            .dwattr $C$DW$168, DW_AT_const_value(0x52)
TI ARM Assembler PC v16.9.4 Sat Nov 18 18:46:21 2017

Tools Copyright (c) 1996-2017 Texas Instruments Incorporated
C:\Users\Kevin\AppData\Local\Temp\{91E5085D-660D-4F25-9A12-879222E44D75} PAGE   34

    1814                            .dwattr $C$DW$168, DW_AT_decl_file("C:/Users/Kevin/workspace_v7/sensor_cc1310lp/Application/ap
    1815                            .dwattr $C$DW$168, DW_AT_decl_line(0x298)
    1816                            .dwattr $C$DW$168, DW_AT_decl_column(0x05)
    1817                    
    1818                    $C$DW$169       .dwtag  DW_TAG_enumerator
    1819                            .dwattr $C$DW$169, DW_AT_name("ApiMac_attribute_associatedPanCoord")
    1820                            .dwattr $C$DW$169, DW_AT_const_value(0x56)
    1821                            .dwattr $C$DW$169, DW_AT_decl_file("C:/Users/Kevin/workspace_v7/sensor_cc1310lp/Application/ap
    1822                            .dwattr $C$DW$169, DW_AT_decl_line(0x29a)
    1823                            .dwattr $C$DW$169, DW_AT_decl_column(0x05)
    1824                    
    1825                    $C$DW$170       .dwtag  DW_TAG_enumerator
    1826                            .dwattr $C$DW$170, DW_AT_name("ApiMac_attribute_timestampSupported")
    1827                            .dwattr $C$DW$170, DW_AT_const_value(0x5c)
    1828                            .dwattr $C$DW$170, DW_AT_decl_file("C:/Users/Kevin/workspace_v7/sensor_cc1310lp/Application/ap
    1829                            .dwattr $C$DW$170, DW_AT_decl_line(0x29c)
    1830                            .dwattr $C$DW$170, DW_AT_decl_column(0x05)
    1831                    
    1832                    $C$DW$171       .dwtag  DW_TAG_enumerator
    1833                            .dwattr $C$DW$171, DW_AT_name("ApiMac_attribute_securityEnabled")
    1834                            .dwattr $C$DW$171, DW_AT_const_value(0x5d)
    1835                            .dwattr $C$DW$171, DW_AT_decl_file("C:/Users/Kevin/workspace_v7/sensor_cc1310lp/Application/ap
    1836                            .dwattr $C$DW$171, DW_AT_decl_line(0x29e)
    1837                            .dwattr $C$DW$171, DW_AT_decl_column(0x05)
    1838                    
    1839                    $C$DW$172       .dwtag  DW_TAG_enumerator
    1840                            .dwattr $C$DW$172, DW_AT_name("ApiMac_attribute_includeMPMIE")
    1841                            .dwattr $C$DW$172, DW_AT_const_value(0x62)
    1842                            .dwattr $C$DW$172, DW_AT_decl_file("C:/Users/Kevin/workspace_v7/sensor_cc1310lp/Application/ap
    1843                            .dwattr $C$DW$172, DW_AT_decl_line(0x2a0)
    1844                            .dwattr $C$DW$172, DW_AT_decl_column(0x05)
    1845                    
    1846                    $C$DW$173       .dwtag  DW_TAG_enumerator
    1847                            .dwattr $C$DW$173, DW_AT_name("ApiMac_attribute_fcsType")
    1848                            .dwattr $C$DW$173, DW_AT_const_value(0xe9)
    1849                            .dwattr $C$DW$173, DW_AT_decl_file("C:/Users/Kevin/workspace_v7/sensor_cc1310lp/Application/ap
    1850                            .dwattr $C$DW$173, DW_AT_decl_line(0x2a2)
    1851                            .dwattr $C$DW$173, DW_AT_decl_column(0x05)
    1852                    
    1853                            .dwattr $C$DW$T$827, DW_AT_decl_file("C:/Users/Kevin/workspace_v7/sensor_cc1310lp/Application/
    1854                            .dwattr $C$DW$T$827, DW_AT_decl_line(0x289)
    1855                            .dwattr $C$DW$T$827, DW_AT_decl_column(0x01)
    1856                            .dwendtag $C$DW$T$827
    1857                    
    1858                    $C$DW$T$828     .dwtag  DW_TAG_typedef
    1859                            .dwattr $C$DW$T$828, DW_AT_name("ApiMac_attribute_bool_t")
    1860                            .dwattr $C$DW$T$828, DW_AT_type(*$C$DW$T$827)
    1861                            .dwattr $C$DW$T$828, DW_AT_language(DW_LANG_C)
    1862                            .dwattr $C$DW$T$828, DW_AT_decl_file("C:/Users/Kevin/workspace_v7/sensor_cc1310lp/Application/
    1863                            .dwattr $C$DW$T$828, DW_AT_decl_line(0x2a3)
    1864                            .dwattr $C$DW$T$828, DW_AT_decl_column(0x03)
    1865                    
    1866                    
    1867                    $C$DW$T$829     .dwtag  DW_TAG_enumeration_type
    1868                            .dwattr $C$DW$T$829, DW_AT_byte_size(0x01)
TI ARM Assembler PC v16.9.4 Sat Nov 18 18:46:21 2017

Tools Copyright (c) 1996-2017 Texas Instruments Incorporated
C:\Users\Kevin\AppData\Local\Temp\{91E5085D-660D-4F25-9A12-879222E44D75} PAGE   35

    1869                    $C$DW$174       .dwtag  DW_TAG_enumerator
    1870                            .dwattr $C$DW$174, DW_AT_name("ApiMac_attribute_ackWaitDuration")
    1871                            .dwattr $C$DW$174, DW_AT_const_value(0x40)
    1872                            .dwattr $C$DW$174, DW_AT_decl_file("C:/Users/Kevin/workspace_v7/sensor_cc1310lp/Application/ap
    1873                            .dwattr $C$DW$174, DW_AT_decl_line(0x2a9)
    1874                            .dwattr $C$DW$174, DW_AT_decl_column(0x05)
    1875                    
    1876                    $C$DW$175       .dwtag  DW_TAG_enumerator
    1877                            .dwattr $C$DW$175, DW_AT_name("ApiMac_attribute_battLifeExtPeriods")
    1878                            .dwattr $C$DW$175, DW_AT_const_value(0x44)
    1879                            .dwattr $C$DW$175, DW_AT_decl_file("C:/Users/Kevin/workspace_v7/sensor_cc1310lp/Application/ap
    1880                            .dwattr $C$DW$175, DW_AT_decl_line(0x2ae)
    1881                            .dwattr $C$DW$175, DW_AT_decl_column(0x05)
    1882                    
    1883                    $C$DW$176       .dwtag  DW_TAG_enumerator
    1884                            .dwattr $C$DW$176, DW_AT_name("ApiMac_attribute_beaconPayloadLength")
    1885                            .dwattr $C$DW$176, DW_AT_const_value(0x46)
    1886                            .dwattr $C$DW$176, DW_AT_decl_file("C:/Users/Kevin/workspace_v7/sensor_cc1310lp/Application/ap
    1887                            .dwattr $C$DW$176, DW_AT_decl_line(0x2b3)
    1888                            .dwattr $C$DW$176, DW_AT_decl_column(0x05)
    1889                    
    1890                    $C$DW$177       .dwtag  DW_TAG_enumerator
    1891                            .dwattr $C$DW$177, DW_AT_name("ApiMac_attribute_beaconOrder")
    1892                            .dwattr $C$DW$177, DW_AT_const_value(0x47)
    1893                            .dwattr $C$DW$177, DW_AT_decl_file("C:/Users/Kevin/workspace_v7/sensor_cc1310lp/Application/ap
    1894                            .dwattr $C$DW$177, DW_AT_decl_line(0x2b5)
    1895                            .dwattr $C$DW$177, DW_AT_decl_column(0x05)
    1896                    
    1897                    $C$DW$178       .dwtag  DW_TAG_enumerator
    1898                            .dwattr $C$DW$178, DW_AT_name("ApiMac_attribute_bsn")
    1899                            .dwattr $C$DW$178, DW_AT_const_value(0x49)
    1900                            .dwattr $C$DW$178, DW_AT_decl_file("C:/Users/Kevin/workspace_v7/sensor_cc1310lp/Application/ap
    1901                            .dwattr $C$DW$178, DW_AT_decl_line(0x2b7)
    1902                            .dwattr $C$DW$178, DW_AT_decl_column(0x05)
    1903                    
    1904                    $C$DW$179       .dwtag  DW_TAG_enumerator
    1905                            .dwattr $C$DW$179, DW_AT_name("ApiMac_attribute_dsn")
    1906                            .dwattr $C$DW$179, DW_AT_const_value(0x4c)
    1907                            .dwattr $C$DW$179, DW_AT_decl_file("C:/Users/Kevin/workspace_v7/sensor_cc1310lp/Application/ap
    1908                            .dwattr $C$DW$179, DW_AT_decl_line(0x2b9)
    1909                            .dwattr $C$DW$179, DW_AT_decl_column(0x05)
    1910                    
    1911                    $C$DW$180       .dwtag  DW_TAG_enumerator
    1912                            .dwattr $C$DW$180, DW_AT_name("ApiMac_attribute_maxCsmaBackoffs")
    1913                            .dwattr $C$DW$180, DW_AT_const_value(0x4e)
    1914                            .dwattr $C$DW$180, DW_AT_decl_file("C:/Users/Kevin/workspace_v7/sensor_cc1310lp/Application/ap
    1915                            .dwattr $C$DW$180, DW_AT_decl_line(0x2be)
    1916                            .dwattr $C$DW$180, DW_AT_decl_column(0x05)
    1917                    
    1918                    $C$DW$181       .dwtag  DW_TAG_enumerator
    1919                            .dwattr $C$DW$181, DW_AT_name("ApiMac_attribute_backoffExponent")
    1920                            .dwattr $C$DW$181, DW_AT_const_value(0x4f)
    1921                            .dwattr $C$DW$181, DW_AT_decl_file("C:/Users/Kevin/workspace_v7/sensor_cc1310lp/Application/ap
    1922                            .dwattr $C$DW$181, DW_AT_decl_line(0x2c6)
    1923                            .dwattr $C$DW$181, DW_AT_decl_column(0x05)
TI ARM Assembler PC v16.9.4 Sat Nov 18 18:46:21 2017

Tools Copyright (c) 1996-2017 Texas Instruments Incorporated
C:\Users\Kevin\AppData\Local\Temp\{91E5085D-660D-4F25-9A12-879222E44D75} PAGE   36

    1924                    
    1925                    $C$DW$182       .dwtag  DW_TAG_enumerator
    1926                            .dwattr $C$DW$182, DW_AT_name("ApiMac_attribute_superframeOrder")
    1927                            .dwattr $C$DW$182, DW_AT_const_value(0x54)
    1928                            .dwattr $C$DW$182, DW_AT_decl_file("C:/Users/Kevin/workspace_v7/sensor_cc1310lp/Application/ap
    1929                            .dwattr $C$DW$182, DW_AT_decl_line(0x2c8)
    1930                            .dwattr $C$DW$182, DW_AT_decl_column(0x05)
    1931                    
    1932                    $C$DW$183       .dwtag  DW_TAG_enumerator
    1933                            .dwattr $C$DW$183, DW_AT_name("ApiMac_attribute_maxBackoffExponent")
    1934                            .dwattr $C$DW$183, DW_AT_const_value(0x57)
    1935                            .dwattr $C$DW$183, DW_AT_decl_file("C:/Users/Kevin/workspace_v7/sensor_cc1310lp/Application/ap
    1936                            .dwattr $C$DW$183, DW_AT_decl_line(0x2ca)
    1937                            .dwattr $C$DW$183, DW_AT_decl_column(0x05)
    1938                    
    1939                    $C$DW$184       .dwtag  DW_TAG_enumerator
    1940                            .dwattr $C$DW$184, DW_AT_name("ApiMac_attribute_maxFrameRetries")
    1941                            .dwattr $C$DW$184, DW_AT_const_value(0x59)
    1942                            .dwattr $C$DW$184, DW_AT_decl_file("C:/Users/Kevin/workspace_v7/sensor_cc1310lp/Application/ap
    1943                            .dwattr $C$DW$184, DW_AT_decl_line(0x2cc)
    1944                            .dwattr $C$DW$184, DW_AT_decl_column(0x05)
    1945                    
    1946                    $C$DW$185       .dwtag  DW_TAG_enumerator
    1947                            .dwattr $C$DW$185, DW_AT_name("ApiMac_attribute_responseWaitTime")
    1948                            .dwattr $C$DW$185, DW_AT_const_value(0x5a)
    1949                            .dwattr $C$DW$185, DW_AT_decl_file("C:/Users/Kevin/workspace_v7/sensor_cc1310lp/Application/ap
    1950                            .dwattr $C$DW$185, DW_AT_decl_line(0x2d2)
    1951                            .dwattr $C$DW$185, DW_AT_decl_column(0x05)
    1952                    
    1953                    $C$DW$186       .dwtag  DW_TAG_enumerator
    1954                            .dwattr $C$DW$186, DW_AT_name("ApiMac_attribute_syncSymbolOffset")
    1955                            .dwattr $C$DW$186, DW_AT_const_value(0x5b)
    1956                            .dwattr $C$DW$186, DW_AT_decl_file("C:/Users/Kevin/workspace_v7/sensor_cc1310lp/Application/ap
    1957                            .dwattr $C$DW$186, DW_AT_decl_line(0x2d4)
    1958                            .dwattr $C$DW$186, DW_AT_decl_column(0x05)
    1959                    
    1960                    $C$DW$187       .dwtag  DW_TAG_enumerator
    1961                            .dwattr $C$DW$187, DW_AT_name("ApiMac_attribute_eBeaconSequenceNumber")
    1962                            .dwattr $C$DW$187, DW_AT_const_value(0x5e)
    1963                            .dwattr $C$DW$187, DW_AT_decl_file("C:/Users/Kevin/workspace_v7/sensor_cc1310lp/Application/ap
    1964                            .dwattr $C$DW$187, DW_AT_decl_line(0x2d6)
    1965                            .dwattr $C$DW$187, DW_AT_decl_column(0x05)
    1966                    
    1967                    $C$DW$188       .dwtag  DW_TAG_enumerator
    1968                            .dwattr $C$DW$188, DW_AT_name("ApiMac_attribute_eBeaconOrder")
    1969                            .dwattr $C$DW$188, DW_AT_const_value(0x5f)
    1970                            .dwattr $C$DW$188, DW_AT_decl_file("C:/Users/Kevin/workspace_v7/sensor_cc1310lp/Application/ap
    1971                            .dwattr $C$DW$188, DW_AT_decl_line(0x2d8)
    1972                            .dwattr $C$DW$188, DW_AT_decl_column(0x05)
    1973                    
    1974                    $C$DW$189       .dwtag  DW_TAG_enumerator
    1975                            .dwattr $C$DW$189, DW_AT_name("ApiMac_attribute_offsetTimeslot")
    1976                            .dwattr $C$DW$189, DW_AT_const_value(0x61)
    1977                            .dwattr $C$DW$189, DW_AT_decl_file("C:/Users/Kevin/workspace_v7/sensor_cc1310lp/Application/ap
    1978                            .dwattr $C$DW$189, DW_AT_decl_line(0x2da)
TI ARM Assembler PC v16.9.4 Sat Nov 18 18:46:21 2017

Tools Copyright (c) 1996-2017 Texas Instruments Incorporated
C:\Users\Kevin\AppData\Local\Temp\{91E5085D-660D-4F25-9A12-879222E44D75} PAGE   37

    1979                            .dwattr $C$DW$189, DW_AT_decl_column(0x05)
    1980                    
    1981                    $C$DW$190       .dwtag  DW_TAG_enumerator
    1982                            .dwattr $C$DW$190, DW_AT_name("ApiMac_attribute_phyTransmitPowerSigned")
    1983                            .dwattr $C$DW$190, DW_AT_const_value(0xe0)
    1984                            .dwattr $C$DW$190, DW_AT_decl_file("C:/Users/Kevin/workspace_v7/sensor_cc1310lp/Application/ap
    1985                            .dwattr $C$DW$190, DW_AT_decl_line(0x2df)
    1986                            .dwattr $C$DW$190, DW_AT_decl_column(0x05)
    1987                    
    1988                    $C$DW$191       .dwtag  DW_TAG_enumerator
    1989                            .dwattr $C$DW$191, DW_AT_name("ApiMac_attribute_logicalChannel")
    1990                            .dwattr $C$DW$191, DW_AT_const_value(0xe1)
    1991                            .dwattr $C$DW$191, DW_AT_decl_file("C:/Users/Kevin/workspace_v7/sensor_cc1310lp/Application/ap
    1992                            .dwattr $C$DW$191, DW_AT_decl_line(0x2e1)
    1993                            .dwattr $C$DW$191, DW_AT_decl_column(0x05)
    1994                    
    1995                    $C$DW$192       .dwtag  DW_TAG_enumerator
    1996                            .dwattr $C$DW$192, DW_AT_name("ApiMac_attribute_altBackoffExponent")
    1997                            .dwattr $C$DW$192, DW_AT_const_value(0xe3)
    1998                            .dwattr $C$DW$192, DW_AT_decl_file("C:/Users/Kevin/workspace_v7/sensor_cc1310lp/Application/ap
    1999                            .dwattr $C$DW$192, DW_AT_decl_line(0x2e3)
    2000                            .dwattr $C$DW$192, DW_AT_decl_column(0x05)
    2001                    
    2002                    $C$DW$193       .dwtag  DW_TAG_enumerator
    2003                            .dwattr $C$DW$193, DW_AT_name("ApiMac_attribute_deviceBeaconOrder")
    2004                            .dwattr $C$DW$193, DW_AT_const_value(0xe4)
    2005                            .dwattr $C$DW$193, DW_AT_decl_file("C:/Users/Kevin/workspace_v7/sensor_cc1310lp/Application/ap
    2006                            .dwattr $C$DW$193, DW_AT_decl_line(0x2e5)
    2007                            .dwattr $C$DW$193, DW_AT_decl_column(0x05)
    2008                    
    2009                    $C$DW$194       .dwtag  DW_TAG_enumerator
    2010                            .dwattr $C$DW$194, DW_AT_name("ApiMac_attribute_rf4cePowerSavings")
    2011                            .dwattr $C$DW$194, DW_AT_const_value(0xe5)
    2012                            .dwattr $C$DW$194, DW_AT_decl_file("C:/Users/Kevin/workspace_v7/sensor_cc1310lp/Application/ap
    2013                            .dwattr $C$DW$194, DW_AT_decl_line(0x2e7)
    2014                            .dwattr $C$DW$194, DW_AT_decl_column(0x05)
    2015                    
    2016                    $C$DW$195       .dwtag  DW_TAG_enumerator
    2017                            .dwattr $C$DW$195, DW_AT_name("ApiMac_attribute_frameVersionSupport")
    2018                            .dwattr $C$DW$195, DW_AT_const_value(0xe6)
    2019                            .dwattr $C$DW$195, DW_AT_decl_file("C:/Users/Kevin/workspace_v7/sensor_cc1310lp/Application/ap
    2020                            .dwattr $C$DW$195, DW_AT_decl_line(0x2ee)
    2021                            .dwattr $C$DW$195, DW_AT_decl_column(0x05)
    2022                    
    2023                    $C$DW$196       .dwtag  DW_TAG_enumerator
    2024                            .dwattr $C$DW$196, DW_AT_name("ApiMac_attribute_channelPage")
    2025                            .dwattr $C$DW$196, DW_AT_const_value(0xe7)
    2026                            .dwattr $C$DW$196, DW_AT_decl_file("C:/Users/Kevin/workspace_v7/sensor_cc1310lp/Application/ap
    2027                            .dwattr $C$DW$196, DW_AT_decl_line(0x2f0)
    2028                            .dwattr $C$DW$196, DW_AT_decl_column(0x05)
    2029                    
    2030                    $C$DW$197       .dwtag  DW_TAG_enumerator
    2031                            .dwattr $C$DW$197, DW_AT_name("ApiMac_attribute_phyCurrentDescriptorId")
    2032                            .dwattr $C$DW$197, DW_AT_const_value(0xe8)
    2033                            .dwattr $C$DW$197, DW_AT_decl_file("C:/Users/Kevin/workspace_v7/sensor_cc1310lp/Application/ap
TI ARM Assembler PC v16.9.4 Sat Nov 18 18:46:21 2017

Tools Copyright (c) 1996-2017 Texas Instruments Incorporated
C:\Users\Kevin\AppData\Local\Temp\{91E5085D-660D-4F25-9A12-879222E44D75} PAGE   38

    2034                            .dwattr $C$DW$197, DW_AT_decl_line(0x2f5)
    2035                            .dwattr $C$DW$197, DW_AT_decl_column(0x05)
    2036                    
    2037                    $C$DW$198       .dwtag  DW_TAG_enumerator
    2038                            .dwattr $C$DW$198, DW_AT_name("ApiMac_attribute_rssiThreshold")
    2039                            .dwattr $C$DW$198, DW_AT_const_value(0xf4)
    2040                            .dwattr $C$DW$198, DW_AT_decl_file("C:/Users/Kevin/workspace_v7/sensor_cc1310lp/Application/ap
    2041                            .dwattr $C$DW$198, DW_AT_decl_line(0x2f9)
    2042                            .dwattr $C$DW$198, DW_AT_decl_column(0x05)
    2043                    
    2044                    $C$DW$199       .dwtag  DW_TAG_enumerator
    2045                            .dwattr $C$DW$199, DW_AT_name("ApiMac_attribute_rangeExtender")
    2046                            .dwattr $C$DW$199, DW_AT_const_value(0xf5)
    2047                            .dwattr $C$DW$199, DW_AT_decl_file("C:/Users/Kevin/workspace_v7/sensor_cc1310lp/Application/ap
    2048                            .dwattr $C$DW$199, DW_AT_decl_line(0x2fd)
    2049                            .dwattr $C$DW$199, DW_AT_decl_column(0x05)
    2050                    
    2051                            .dwattr $C$DW$T$829, DW_AT_decl_file("C:/Users/Kevin/workspace_v7/sensor_cc1310lp/Application/
    2052                            .dwattr $C$DW$T$829, DW_AT_decl_line(0x2a7)
    2053                            .dwattr $C$DW$T$829, DW_AT_decl_column(0x01)
    2054                            .dwendtag $C$DW$T$829
    2055                    
    2056                    $C$DW$T$830     .dwtag  DW_TAG_typedef
    2057                            .dwattr $C$DW$T$830, DW_AT_name("ApiMac_attribute_uint8_t")
    2058                            .dwattr $C$DW$T$830, DW_AT_type(*$C$DW$T$829)
    2059                            .dwattr $C$DW$T$830, DW_AT_language(DW_LANG_C)
    2060                            .dwattr $C$DW$T$830, DW_AT_decl_file("C:/Users/Kevin/workspace_v7/sensor_cc1310lp/Application/
    2061                            .dwattr $C$DW$T$830, DW_AT_decl_line(0x2fe)
    2062                            .dwattr $C$DW$T$830, DW_AT_decl_column(0x03)
    2063                    
    2064                    
    2065                    $C$DW$T$831     .dwtag  DW_TAG_enumeration_type
    2066                            .dwattr $C$DW$T$831, DW_AT_byte_size(0x01)
    2067                    $C$DW$200       .dwtag  DW_TAG_enumerator
    2068                            .dwattr $C$DW$200, DW_AT_name("ApiMac_attribute_coordShortAddress")
    2069                            .dwattr $C$DW$200, DW_AT_const_value(0x4b)
    2070                            .dwattr $C$DW$200, DW_AT_decl_file("C:/Users/Kevin/workspace_v7/sensor_cc1310lp/Application/ap
    2071                            .dwattr $C$DW$200, DW_AT_decl_line(0x308)
    2072                            .dwattr $C$DW$200, DW_AT_decl_column(0x05)
    2073                    
    2074                    $C$DW$201       .dwtag  DW_TAG_enumerator
    2075                            .dwattr $C$DW$201, DW_AT_name("ApiMac_attribute_panId")
    2076                            .dwattr $C$DW$201, DW_AT_const_value(0x50)
    2077                            .dwattr $C$DW$201, DW_AT_decl_file("C:/Users/Kevin/workspace_v7/sensor_cc1310lp/Application/ap
    2078                            .dwattr $C$DW$201, DW_AT_decl_line(0x30d)
    2079                            .dwattr $C$DW$201, DW_AT_decl_column(0x05)
    2080                    
    2081                    $C$DW$202       .dwtag  DW_TAG_enumerator
    2082                            .dwattr $C$DW$202, DW_AT_name("ApiMac_attribute_shortAddress")
    2083                            .dwattr $C$DW$202, DW_AT_const_value(0x53)
    2084                            .dwattr $C$DW$202, DW_AT_decl_file("C:/Users/Kevin/workspace_v7/sensor_cc1310lp/Application/ap
    2085                            .dwattr $C$DW$202, DW_AT_decl_line(0x315)
    2086                            .dwattr $C$DW$202, DW_AT_decl_column(0x05)
    2087                    
    2088                    $C$DW$203       .dwtag  DW_TAG_enumerator
TI ARM Assembler PC v16.9.4 Sat Nov 18 18:46:21 2017

Tools Copyright (c) 1996-2017 Texas Instruments Incorporated
C:\Users\Kevin\AppData\Local\Temp\{91E5085D-660D-4F25-9A12-879222E44D75} PAGE   39

    2089                            .dwattr $C$DW$203, DW_AT_name("ApiMac_attribute_transactionPersistenceTime")
    2090                            .dwattr $C$DW$203, DW_AT_const_value(0x55)
    2091                            .dwattr $C$DW$203, DW_AT_decl_file("C:/Users/Kevin/workspace_v7/sensor_cc1310lp/Application/ap
    2092                            .dwattr $C$DW$203, DW_AT_decl_line(0x31a)
    2093                            .dwattr $C$DW$203, DW_AT_decl_column(0x05)
    2094                    
    2095                    $C$DW$204       .dwtag  DW_TAG_enumerator
    2096                            .dwattr $C$DW$204, DW_AT_name("ApiMac_attribute_maxFrameTotalWaitTime")
    2097                            .dwattr $C$DW$204, DW_AT_const_value(0x58)
    2098                            .dwattr $C$DW$204, DW_AT_decl_file("C:/Users/Kevin/workspace_v7/sensor_cc1310lp/Application/ap
    2099                            .dwattr $C$DW$204, DW_AT_decl_line(0x320)
    2100                            .dwattr $C$DW$204, DW_AT_decl_column(0x05)
    2101                    
    2102                    $C$DW$205       .dwtag  DW_TAG_enumerator
    2103                            .dwattr $C$DW$205, DW_AT_name("ApiMac_attribute_eBeaconOrderNBPAN")
    2104                            .dwattr $C$DW$205, DW_AT_const_value(0x60)
    2105                            .dwattr $C$DW$205, DW_AT_decl_file("C:/Users/Kevin/workspace_v7/sensor_cc1310lp/Application/ap
    2106                            .dwattr $C$DW$205, DW_AT_decl_line(0x322)
    2107                            .dwattr $C$DW$205, DW_AT_decl_column(0x05)
    2108                    
    2109                            .dwattr $C$DW$T$831, DW_AT_decl_file("C:/Users/Kevin/workspace_v7/sensor_cc1310lp/Application/
    2110                            .dwattr $C$DW$T$831, DW_AT_decl_line(0x302)
    2111                            .dwattr $C$DW$T$831, DW_AT_decl_column(0x01)
    2112                            .dwendtag $C$DW$T$831
    2113                    
    2114                    $C$DW$T$832     .dwtag  DW_TAG_typedef
    2115                            .dwattr $C$DW$T$832, DW_AT_name("ApiMac_attribute_uint16_t")
    2116                            .dwattr $C$DW$T$832, DW_AT_type(*$C$DW$T$831)
    2117                            .dwattr $C$DW$T$832, DW_AT_language(DW_LANG_C)
    2118                            .dwattr $C$DW$T$832, DW_AT_decl_file("C:/Users/Kevin/workspace_v7/sensor_cc1310lp/Application/
    2119                            .dwattr $C$DW$T$832, DW_AT_decl_line(0x323)
    2120                            .dwattr $C$DW$T$832, DW_AT_decl_column(0x03)
    2121                    
    2122                    
    2123                    $C$DW$T$833     .dwtag  DW_TAG_enumeration_type
    2124                            .dwattr $C$DW$T$833, DW_AT_byte_size(0x01)
    2125                    $C$DW$206       .dwtag  DW_TAG_enumerator
    2126                            .dwattr $C$DW$206, DW_AT_name("ApiMac_attribute_beaconTxTime")
    2127                            .dwattr $C$DW$206, DW_AT_const_value(0x48)
    2128                            .dwattr $C$DW$206, DW_AT_decl_file("C:/Users/Kevin/workspace_v7/sensor_cc1310lp/Application/ap
    2129                            .dwattr $C$DW$206, DW_AT_decl_line(0x32d)
    2130                            .dwattr $C$DW$206, DW_AT_decl_column(0x05)
    2131                    
    2132                    $C$DW$207       .dwtag  DW_TAG_enumerator
    2133                            .dwattr $C$DW$207, DW_AT_name("ApiMac_attribute_diagRxCrcPass")
    2134                            .dwattr $C$DW$207, DW_AT_const_value(0xea)
    2135                            .dwattr $C$DW$207, DW_AT_decl_file("C:/Users/Kevin/workspace_v7/sensor_cc1310lp/Application/ap
    2136                            .dwattr $C$DW$207, DW_AT_decl_line(0x32f)
    2137                            .dwattr $C$DW$207, DW_AT_decl_column(0x05)
    2138                    
    2139                    $C$DW$208       .dwtag  DW_TAG_enumerator
    2140                            .dwattr $C$DW$208, DW_AT_name("ApiMac_attribute_diagRxCrcFail")
    2141                            .dwattr $C$DW$208, DW_AT_const_value(0xeb)
    2142                            .dwattr $C$DW$208, DW_AT_decl_file("C:/Users/Kevin/workspace_v7/sensor_cc1310lp/Application/ap
    2143                            .dwattr $C$DW$208, DW_AT_decl_line(0x331)
TI ARM Assembler PC v16.9.4 Sat Nov 18 18:46:21 2017

Tools Copyright (c) 1996-2017 Texas Instruments Incorporated
C:\Users\Kevin\AppData\Local\Temp\{91E5085D-660D-4F25-9A12-879222E44D75} PAGE   40

    2144                            .dwattr $C$DW$208, DW_AT_decl_column(0x05)
    2145                    
    2146                    $C$DW$209       .dwtag  DW_TAG_enumerator
    2147                            .dwattr $C$DW$209, DW_AT_name("ApiMac_attribute_diagRxBroadcast")
    2148                            .dwattr $C$DW$209, DW_AT_const_value(0xec)
    2149                            .dwattr $C$DW$209, DW_AT_decl_file("C:/Users/Kevin/workspace_v7/sensor_cc1310lp/Application/ap
    2150                            .dwattr $C$DW$209, DW_AT_decl_line(0x333)
    2151                            .dwattr $C$DW$209, DW_AT_decl_column(0x05)
    2152                    
    2153                    $C$DW$210       .dwtag  DW_TAG_enumerator
    2154                            .dwattr $C$DW$210, DW_AT_name("ApiMac_attribute_diagTxBroadcast")
    2155                            .dwattr $C$DW$210, DW_AT_const_value(0xed)
    2156                            .dwattr $C$DW$210, DW_AT_decl_file("C:/Users/Kevin/workspace_v7/sensor_cc1310lp/Application/ap
    2157                            .dwattr $C$DW$210, DW_AT_decl_line(0x335)
    2158                            .dwattr $C$DW$210, DW_AT_decl_column(0x05)
    2159                    
    2160                    $C$DW$211       .dwtag  DW_TAG_enumerator
    2161                            .dwattr $C$DW$211, DW_AT_name("ApiMac_attribute_diagRxUnicast")
    2162                            .dwattr $C$DW$211, DW_AT_const_value(0xee)
    2163                            .dwattr $C$DW$211, DW_AT_decl_file("C:/Users/Kevin/workspace_v7/sensor_cc1310lp/Application/ap
    2164                            .dwattr $C$DW$211, DW_AT_decl_line(0x337)
    2165                            .dwattr $C$DW$211, DW_AT_decl_column(0x05)
    2166                    
    2167                    $C$DW$212       .dwtag  DW_TAG_enumerator
    2168                            .dwattr $C$DW$212, DW_AT_name("ApiMac_attribute_diagTxUnicast")
    2169                            .dwattr $C$DW$212, DW_AT_const_value(0xef)
    2170                            .dwattr $C$DW$212, DW_AT_decl_file("C:/Users/Kevin/workspace_v7/sensor_cc1310lp/Application/ap
    2171                            .dwattr $C$DW$212, DW_AT_decl_line(0x339)
    2172                            .dwattr $C$DW$212, DW_AT_decl_column(0x05)
    2173                    
    2174                    $C$DW$213       .dwtag  DW_TAG_enumerator
    2175                            .dwattr $C$DW$213, DW_AT_name("ApiMac_attribute_diagTxUnicastRetry")
    2176                            .dwattr $C$DW$213, DW_AT_const_value(0xf0)
    2177                            .dwattr $C$DW$213, DW_AT_decl_file("C:/Users/Kevin/workspace_v7/sensor_cc1310lp/Application/ap
    2178                            .dwattr $C$DW$213, DW_AT_decl_line(0x33b)
    2179                            .dwattr $C$DW$213, DW_AT_decl_column(0x05)
    2180                    
    2181                    $C$DW$214       .dwtag  DW_TAG_enumerator
    2182                            .dwattr $C$DW$214, DW_AT_name("ApiMac_attribute_diagTxUnicastFail")
    2183                            .dwattr $C$DW$214, DW_AT_const_value(0xf1)
    2184                            .dwattr $C$DW$214, DW_AT_decl_file("C:/Users/Kevin/workspace_v7/sensor_cc1310lp/Application/ap
    2185                            .dwattr $C$DW$214, DW_AT_decl_line(0x33d)
    2186                            .dwattr $C$DW$214, DW_AT_decl_column(0x05)
    2187                    
    2188                    $C$DW$215       .dwtag  DW_TAG_enumerator
    2189                            .dwattr $C$DW$215, DW_AT_name("ApiMac_attribute_diagRxSecureFail")
    2190                            .dwattr $C$DW$215, DW_AT_const_value(0xf2)
    2191                            .dwattr $C$DW$215, DW_AT_decl_file("C:/Users/Kevin/workspace_v7/sensor_cc1310lp/Application/ap
    2192                            .dwattr $C$DW$215, DW_AT_decl_line(0x33f)
    2193                            .dwattr $C$DW$215, DW_AT_decl_column(0x05)
    2194                    
    2195                    $C$DW$216       .dwtag  DW_TAG_enumerator
    2196                            .dwattr $C$DW$216, DW_AT_name("ApiMac_attribute_diagTxSecureFail")
    2197                            .dwattr $C$DW$216, DW_AT_const_value(0xf3)
    2198                            .dwattr $C$DW$216, DW_AT_decl_file("C:/Users/Kevin/workspace_v7/sensor_cc1310lp/Application/ap
TI ARM Assembler PC v16.9.4 Sat Nov 18 18:46:21 2017

Tools Copyright (c) 1996-2017 Texas Instruments Incorporated
C:\Users\Kevin\AppData\Local\Temp\{91E5085D-660D-4F25-9A12-879222E44D75} PAGE   41

    2199                            .dwattr $C$DW$216, DW_AT_decl_line(0x341)
    2200                            .dwattr $C$DW$216, DW_AT_decl_column(0x05)
    2201                    
    2202                            .dwattr $C$DW$T$833, DW_AT_decl_file("C:/Users/Kevin/workspace_v7/sensor_cc1310lp/Application/
    2203                            .dwattr $C$DW$T$833, DW_AT_decl_line(0x328)
    2204                            .dwattr $C$DW$T$833, DW_AT_decl_column(0x01)
    2205                            .dwendtag $C$DW$T$833
    2206                    
    2207                    $C$DW$T$834     .dwtag  DW_TAG_typedef
    2208                            .dwattr $C$DW$T$834, DW_AT_name("ApiMac_attribute_uint32_t")
    2209                            .dwattr $C$DW$T$834, DW_AT_type(*$C$DW$T$833)
    2210                            .dwattr $C$DW$T$834, DW_AT_language(DW_LANG_C)
    2211                            .dwattr $C$DW$T$834, DW_AT_decl_file("C:/Users/Kevin/workspace_v7/sensor_cc1310lp/Application/
    2212                            .dwattr $C$DW$T$834, DW_AT_decl_line(0x342)
    2213                            .dwattr $C$DW$T$834, DW_AT_decl_column(0x03)
    2214                    
    2215                    
    2216                    $C$DW$T$835     .dwtag  DW_TAG_enumeration_type
    2217                            .dwattr $C$DW$T$835, DW_AT_byte_size(0x01)
    2218                    $C$DW$217       .dwtag  DW_TAG_enumerator
    2219                            .dwattr $C$DW$217, DW_AT_name("ApiMac_attribute_beaconPayload")
    2220                            .dwattr $C$DW$217, DW_AT_const_value(0x45)
    2221                            .dwattr $C$DW$217, DW_AT_decl_file("C:/Users/Kevin/workspace_v7/sensor_cc1310lp/Application/ap
    2222                            .dwattr $C$DW$217, DW_AT_decl_line(0x348)
    2223                            .dwattr $C$DW$217, DW_AT_decl_column(0x05)
    2224                    
    2225                    $C$DW$218       .dwtag  DW_TAG_enumerator
    2226                            .dwattr $C$DW$218, DW_AT_name("ApiMac_attribute_coordExtendedAddress")
    2227                            .dwattr $C$DW$218, DW_AT_const_value(0x4a)
    2228                            .dwattr $C$DW$218, DW_AT_decl_file("C:/Users/Kevin/workspace_v7/sensor_cc1310lp/Application/ap
    2229                            .dwattr $C$DW$218, DW_AT_decl_line(0x34d)
    2230                            .dwattr $C$DW$218, DW_AT_decl_column(0x05)
    2231                    
    2232                    $C$DW$219       .dwtag  DW_TAG_enumerator
    2233                            .dwattr $C$DW$219, DW_AT_name("ApiMac_attribute_extendedAddress")
    2234                            .dwattr $C$DW$219, DW_AT_const_value(0xe2)
    2235                            .dwattr $C$DW$219, DW_AT_decl_file("C:/Users/Kevin/workspace_v7/sensor_cc1310lp/Application/ap
    2236                            .dwattr $C$DW$219, DW_AT_decl_line(0x34f)
    2237                            .dwattr $C$DW$219, DW_AT_decl_column(0x05)
    2238                    
    2239                            .dwattr $C$DW$T$835, DW_AT_decl_file("C:/Users/Kevin/workspace_v7/sensor_cc1310lp/Application/
    2240                            .dwattr $C$DW$T$835, DW_AT_decl_line(0x346)
    2241                            .dwattr $C$DW$T$835, DW_AT_decl_column(0x01)
    2242                            .dwendtag $C$DW$T$835
    2243                    
    2244                    $C$DW$T$836     .dwtag  DW_TAG_typedef
    2245                            .dwattr $C$DW$T$836, DW_AT_name("ApiMac_attribute_array_t")
    2246                            .dwattr $C$DW$T$836, DW_AT_type(*$C$DW$T$835)
    2247                            .dwattr $C$DW$T$836, DW_AT_language(DW_LANG_C)
    2248                            .dwattr $C$DW$T$836, DW_AT_decl_file("C:/Users/Kevin/workspace_v7/sensor_cc1310lp/Application/
    2249                            .dwattr $C$DW$T$836, DW_AT_decl_line(0x350)
    2250                            .dwattr $C$DW$T$836, DW_AT_decl_column(0x03)
    2251                    
    2252                    
    2253                    $C$DW$T$837     .dwtag  DW_TAG_enumeration_type
TI ARM Assembler PC v16.9.4 Sat Nov 18 18:46:21 2017

Tools Copyright (c) 1996-2017 Texas Instruments Incorporated
C:\Users\Kevin\AppData\Local\Temp\{91E5085D-660D-4F25-9A12-879222E44D75} PAGE   42

    2254                            .dwattr $C$DW$T$837, DW_AT_byte_size(0x01)
    2255                    $C$DW$220       .dwtag  DW_TAG_enumerator
    2256                            .dwattr $C$DW$220, DW_AT_name("ApiMac_securityAttribute_keyTableEntries")
    2257                            .dwattr $C$DW$220, DW_AT_const_value(0x81)
    2258                            .dwattr $C$DW$220, DW_AT_decl_file("C:/Users/Kevin/workspace_v7/sensor_cc1310lp/Application/ap
    2259                            .dwattr $C$DW$220, DW_AT_decl_line(0x356)
    2260                            .dwattr $C$DW$220, DW_AT_decl_column(0x05)
    2261                    
    2262                    $C$DW$221       .dwtag  DW_TAG_enumerator
    2263                            .dwattr $C$DW$221, DW_AT_name("ApiMac_securityAttribute_deviceTableEntries")
    2264                            .dwattr $C$DW$221, DW_AT_const_value(0x82)
    2265                            .dwattr $C$DW$221, DW_AT_decl_file("C:/Users/Kevin/workspace_v7/sensor_cc1310lp/Application/ap
    2266                            .dwattr $C$DW$221, DW_AT_decl_line(0x358)
    2267                            .dwattr $C$DW$221, DW_AT_decl_column(0x05)
    2268                    
    2269                    $C$DW$222       .dwtag  DW_TAG_enumerator
    2270                            .dwattr $C$DW$222, DW_AT_name("ApiMac_securityAttribute_securityLevelTableEntries")
    2271                            .dwattr $C$DW$222, DW_AT_const_value(0x83)
    2272                            .dwattr $C$DW$222, DW_AT_decl_file("C:/Users/Kevin/workspace_v7/sensor_cc1310lp/Application/ap
    2273                            .dwattr $C$DW$222, DW_AT_decl_line(0x35a)
    2274                            .dwattr $C$DW$222, DW_AT_decl_column(0x05)
    2275                    
    2276                    $C$DW$223       .dwtag  DW_TAG_enumerator
    2277                            .dwattr $C$DW$223, DW_AT_name("ApiMac_securityAttribute_autoRequestSecurityLevel")
    2278                            .dwattr $C$DW$223, DW_AT_const_value(0x85)
    2279                            .dwattr $C$DW$223, DW_AT_decl_file("C:/Users/Kevin/workspace_v7/sensor_cc1310lp/Application/ap
    2280                            .dwattr $C$DW$223, DW_AT_decl_line(0x35c)
    2281                            .dwattr $C$DW$223, DW_AT_decl_column(0x05)
    2282                    
    2283                    $C$DW$224       .dwtag  DW_TAG_enumerator
    2284                            .dwattr $C$DW$224, DW_AT_name("ApiMac_securityAttribute_autoRequestKeyIdMode")
    2285                            .dwattr $C$DW$224, DW_AT_const_value(0x86)
    2286                            .dwattr $C$DW$224, DW_AT_decl_file("C:/Users/Kevin/workspace_v7/sensor_cc1310lp/Application/ap
    2287                            .dwattr $C$DW$224, DW_AT_decl_line(0x35e)
    2288                            .dwattr $C$DW$224, DW_AT_decl_column(0x05)
    2289                    
    2290                    $C$DW$225       .dwtag  DW_TAG_enumerator
    2291                            .dwattr $C$DW$225, DW_AT_name("ApiMac_securityAttribute_autoRequestKeyIndex")
    2292                            .dwattr $C$DW$225, DW_AT_const_value(0x88)
    2293                            .dwattr $C$DW$225, DW_AT_decl_file("C:/Users/Kevin/workspace_v7/sensor_cc1310lp/Application/ap
    2294                            .dwattr $C$DW$225, DW_AT_decl_line(0x360)
    2295                            .dwattr $C$DW$225, DW_AT_decl_column(0x05)
    2296                    
    2297                            .dwattr $C$DW$T$837, DW_AT_decl_file("C:/Users/Kevin/workspace_v7/sensor_cc1310lp/Application/
    2298                            .dwattr $C$DW$T$837, DW_AT_decl_line(0x354)
    2299                            .dwattr $C$DW$T$837, DW_AT_decl_column(0x01)
    2300                            .dwendtag $C$DW$T$837
    2301                    
    2302                    $C$DW$T$838     .dwtag  DW_TAG_typedef
    2303                            .dwattr $C$DW$T$838, DW_AT_name("ApiMac_securityAttribute_uint8_t")
    2304                            .dwattr $C$DW$T$838, DW_AT_type(*$C$DW$T$837)
    2305                            .dwattr $C$DW$T$838, DW_AT_language(DW_LANG_C)
    2306                            .dwattr $C$DW$T$838, DW_AT_decl_file("C:/Users/Kevin/workspace_v7/sensor_cc1310lp/Application/
    2307                            .dwattr $C$DW$T$838, DW_AT_decl_line(0x361)
    2308                            .dwattr $C$DW$T$838, DW_AT_decl_column(0x03)
TI ARM Assembler PC v16.9.4 Sat Nov 18 18:46:21 2017

Tools Copyright (c) 1996-2017 Texas Instruments Incorporated
C:\Users\Kevin\AppData\Local\Temp\{91E5085D-660D-4F25-9A12-879222E44D75} PAGE   43

    2309                    
    2310                    
    2311                    $C$DW$T$839     .dwtag  DW_TAG_enumeration_type
    2312                            .dwattr $C$DW$T$839, DW_AT_byte_size(0x01)
    2313                    $C$DW$226       .dwtag  DW_TAG_enumerator
    2314                            .dwattr $C$DW$226, DW_AT_name("ApiMac_securityAttribute_panCoordShortAddress")
    2315                            .dwattr $C$DW$226, DW_AT_const_value(0x8b)
    2316                            .dwattr $C$DW$226, DW_AT_decl_file("C:/Users/Kevin/workspace_v7/sensor_cc1310lp/Application/ap
    2317                            .dwattr $C$DW$226, DW_AT_decl_line(0x367)
    2318                            .dwattr $C$DW$226, DW_AT_decl_column(0x05)
    2319                    
    2320                            .dwattr $C$DW$T$839, DW_AT_decl_file("C:/Users/Kevin/workspace_v7/sensor_cc1310lp/Application/
    2321                            .dwattr $C$DW$T$839, DW_AT_decl_line(0x365)
    2322                            .dwattr $C$DW$T$839, DW_AT_decl_column(0x01)
    2323                            .dwendtag $C$DW$T$839
    2324                    
    2325                    $C$DW$T$840     .dwtag  DW_TAG_typedef
    2326                            .dwattr $C$DW$T$840, DW_AT_name("ApiMac_securityAttribute_uint16_t")
    2327                            .dwattr $C$DW$T$840, DW_AT_type(*$C$DW$T$839)
    2328                            .dwattr $C$DW$T$840, DW_AT_language(DW_LANG_C)
    2329                            .dwattr $C$DW$T$840, DW_AT_decl_file("C:/Users/Kevin/workspace_v7/sensor_cc1310lp/Application/
    2330                            .dwattr $C$DW$T$840, DW_AT_decl_line(0x368)
    2331                            .dwattr $C$DW$T$840, DW_AT_decl_column(0x03)
    2332                    
    2333                    
    2334                    $C$DW$T$841     .dwtag  DW_TAG_enumeration_type
    2335                            .dwattr $C$DW$T$841, DW_AT_byte_size(0x01)
    2336                    $C$DW$227       .dwtag  DW_TAG_enumerator
    2337                            .dwattr $C$DW$227, DW_AT_name("ApiMac_securityAttribute_autoRequestKeySource")
    2338                            .dwattr $C$DW$227, DW_AT_const_value(0x87)
    2339                            .dwattr $C$DW$227, DW_AT_decl_file("C:/Users/Kevin/workspace_v7/sensor_cc1310lp/Application/ap
    2340                            .dwattr $C$DW$227, DW_AT_decl_line(0x36e)
    2341                            .dwattr $C$DW$227, DW_AT_decl_column(0x05)
    2342                    
    2343                    $C$DW$228       .dwtag  DW_TAG_enumerator
    2344                            .dwattr $C$DW$228, DW_AT_name("ApiMac_securityAttribute_defaultKeySource")
    2345                            .dwattr $C$DW$228, DW_AT_const_value(0x89)
    2346                            .dwattr $C$DW$228, DW_AT_decl_file("C:/Users/Kevin/workspace_v7/sensor_cc1310lp/Application/ap
    2347                            .dwattr $C$DW$228, DW_AT_decl_line(0x370)
    2348                            .dwattr $C$DW$228, DW_AT_decl_column(0x05)
    2349                    
    2350                    $C$DW$229       .dwtag  DW_TAG_enumerator
    2351                            .dwattr $C$DW$229, DW_AT_name("ApiMac_securityAttribute_panCoordExtendedAddress")
    2352                            .dwattr $C$DW$229, DW_AT_const_value(0x8a)
    2353                            .dwattr $C$DW$229, DW_AT_decl_file("C:/Users/Kevin/workspace_v7/sensor_cc1310lp/Application/ap
    2354                            .dwattr $C$DW$229, DW_AT_decl_line(0x372)
    2355                            .dwattr $C$DW$229, DW_AT_decl_column(0x05)
    2356                    
    2357                            .dwattr $C$DW$T$841, DW_AT_decl_file("C:/Users/Kevin/workspace_v7/sensor_cc1310lp/Application/
    2358                            .dwattr $C$DW$T$841, DW_AT_decl_line(0x36c)
    2359                            .dwattr $C$DW$T$841, DW_AT_decl_column(0x01)
    2360                            .dwendtag $C$DW$T$841
    2361                    
    2362                    $C$DW$T$842     .dwtag  DW_TAG_typedef
    2363                            .dwattr $C$DW$T$842, DW_AT_name("ApiMac_securityAttribute_array_t")
TI ARM Assembler PC v16.9.4 Sat Nov 18 18:46:21 2017

Tools Copyright (c) 1996-2017 Texas Instruments Incorporated
C:\Users\Kevin\AppData\Local\Temp\{91E5085D-660D-4F25-9A12-879222E44D75} PAGE   44

    2364                            .dwattr $C$DW$T$842, DW_AT_type(*$C$DW$T$841)
    2365                            .dwattr $C$DW$T$842, DW_AT_language(DW_LANG_C)
    2366                            .dwattr $C$DW$T$842, DW_AT_decl_file("C:/Users/Kevin/workspace_v7/sensor_cc1310lp/Application/
    2367                            .dwattr $C$DW$T$842, DW_AT_decl_line(0x373)
    2368                            .dwattr $C$DW$T$842, DW_AT_decl_column(0x03)
    2369                    
    2370                    
    2371                    $C$DW$T$843     .dwtag  DW_TAG_enumeration_type
    2372                            .dwattr $C$DW$T$843, DW_AT_byte_size(0x01)
    2373                    $C$DW$230       .dwtag  DW_TAG_enumerator
    2374                            .dwattr $C$DW$230, DW_AT_name("ApiMac_securityAttribute_keyTable")
    2375                            .dwattr $C$DW$230, DW_AT_const_value(0x71)
    2376                            .dwattr $C$DW$230, DW_AT_decl_file("C:/Users/Kevin/workspace_v7/sensor_cc1310lp/Application/ap
    2377                            .dwattr $C$DW$230, DW_AT_decl_line(0x37e)
    2378                            .dwattr $C$DW$230, DW_AT_decl_column(0x05)
    2379                    
    2380                    $C$DW$231       .dwtag  DW_TAG_enumerator
    2381                            .dwattr $C$DW$231, DW_AT_name("ApiMac_securityAttribute_keyIdLookupEntry")
    2382                            .dwattr $C$DW$231, DW_AT_const_value(0xd0)
    2383                            .dwattr $C$DW$231, DW_AT_decl_file("C:/Users/Kevin/workspace_v7/sensor_cc1310lp/Application/ap
    2384                            .dwattr $C$DW$231, DW_AT_decl_line(0x387)
    2385                            .dwattr $C$DW$231, DW_AT_decl_column(0x05)
    2386                    
    2387                    $C$DW$232       .dwtag  DW_TAG_enumerator
    2388                            .dwattr $C$DW$232, DW_AT_name("ApiMac_securityAttribute_keyDeviceEntry")
    2389                            .dwattr $C$DW$232, DW_AT_const_value(0xd1)
    2390                            .dwattr $C$DW$232, DW_AT_decl_file("C:/Users/Kevin/workspace_v7/sensor_cc1310lp/Application/ap
    2391                            .dwattr $C$DW$232, DW_AT_decl_line(0x390)
    2392                            .dwattr $C$DW$232, DW_AT_decl_column(0x05)
    2393                    
    2394                    $C$DW$233       .dwtag  DW_TAG_enumerator
    2395                            .dwattr $C$DW$233, DW_AT_name("ApiMac_securityAttribute_keyUsageEntry")
    2396                            .dwattr $C$DW$233, DW_AT_const_value(0xd2)
    2397                            .dwattr $C$DW$233, DW_AT_decl_file("C:/Users/Kevin/workspace_v7/sensor_cc1310lp/Application/ap
    2398                            .dwattr $C$DW$233, DW_AT_decl_line(0x399)
    2399                            .dwattr $C$DW$233, DW_AT_decl_column(0x05)
    2400                    
    2401                    $C$DW$234       .dwtag  DW_TAG_enumerator
    2402                            .dwattr $C$DW$234, DW_AT_name("ApiMac_securityAttribute_keyEntry")
    2403                            .dwattr $C$DW$234, DW_AT_const_value(0xd3)
    2404                            .dwattr $C$DW$234, DW_AT_decl_file("C:/Users/Kevin/workspace_v7/sensor_cc1310lp/Application/ap
    2405                            .dwattr $C$DW$234, DW_AT_decl_line(0x3a2)
    2406                            .dwattr $C$DW$234, DW_AT_decl_column(0x05)
    2407                    
    2408                    $C$DW$235       .dwtag  DW_TAG_enumerator
    2409                            .dwattr $C$DW$235, DW_AT_name("ApiMac_securityAttribute_deviceEntry")
    2410                            .dwattr $C$DW$235, DW_AT_const_value(0xd4)
    2411                            .dwattr $C$DW$235, DW_AT_decl_file("C:/Users/Kevin/workspace_v7/sensor_cc1310lp/Application/ap
    2412                            .dwattr $C$DW$235, DW_AT_decl_line(0x3ab)
    2413                            .dwattr $C$DW$235, DW_AT_decl_column(0x05)
    2414                    
    2415                    $C$DW$236       .dwtag  DW_TAG_enumerator
    2416                            .dwattr $C$DW$236, DW_AT_name("ApiMac_securityAttribute_securityLevelEntry")
    2417                            .dwattr $C$DW$236, DW_AT_const_value(0xd5)
    2418                            .dwattr $C$DW$236, DW_AT_decl_file("C:/Users/Kevin/workspace_v7/sensor_cc1310lp/Application/ap
TI ARM Assembler PC v16.9.4 Sat Nov 18 18:46:21 2017

Tools Copyright (c) 1996-2017 Texas Instruments Incorporated
C:\Users\Kevin\AppData\Local\Temp\{91E5085D-660D-4F25-9A12-879222E44D75} PAGE   45

    2419                            .dwattr $C$DW$236, DW_AT_decl_line(0x3b4)
    2420                            .dwattr $C$DW$236, DW_AT_decl_column(0x05)
    2421                    
    2422                            .dwattr $C$DW$T$843, DW_AT_decl_file("C:/Users/Kevin/workspace_v7/sensor_cc1310lp/Application/
    2423                            .dwattr $C$DW$T$843, DW_AT_decl_line(0x377)
    2424                            .dwattr $C$DW$T$843, DW_AT_decl_column(0x01)
    2425                            .dwendtag $C$DW$T$843
    2426                    
    2427                    $C$DW$T$844     .dwtag  DW_TAG_typedef
    2428                            .dwattr $C$DW$T$844, DW_AT_name("ApiMac_securityAttribute_struct_t")
    2429                            .dwattr $C$DW$T$844, DW_AT_type(*$C$DW$T$843)
    2430                            .dwattr $C$DW$T$844, DW_AT_language(DW_LANG_C)
    2431                            .dwattr $C$DW$T$844, DW_AT_decl_file("C:/Users/Kevin/workspace_v7/sensor_cc1310lp/Application/
    2432                            .dwattr $C$DW$T$844, DW_AT_decl_line(0x3b5)
    2433                            .dwattr $C$DW$T$844, DW_AT_decl_column(0x03)
    2434                    
    2435                    
    2436                    $C$DW$T$845     .dwtag  DW_TAG_enumeration_type
    2437                            .dwattr $C$DW$T$845, DW_AT_byte_size(0x02)
    2438                    $C$DW$237       .dwtag  DW_TAG_enumerator
    2439                            .dwattr $C$DW$237, DW_AT_name("ApiMac_FHAttribute_unicastDwellInterval")
    2440                            .dwattr $C$DW$237, DW_AT_const_value(0x2004)
    2441                            .dwattr $C$DW$237, DW_AT_decl_file("C:/Users/Kevin/workspace_v7/sensor_cc1310lp/Application/ap
    2442                            .dwattr $C$DW$237, DW_AT_decl_line(0x3bb)
    2443                            .dwattr $C$DW$237, DW_AT_decl_column(0x05)
    2444                    
    2445                    $C$DW$238       .dwtag  DW_TAG_enumerator
    2446                            .dwattr $C$DW$238, DW_AT_name("ApiMac_FHAttribute_broadcastDwellInterval")
    2447                            .dwattr $C$DW$238, DW_AT_const_value(0x2005)
    2448                            .dwattr $C$DW$238, DW_AT_decl_file("C:/Users/Kevin/workspace_v7/sensor_cc1310lp/Application/ap
    2449                            .dwattr $C$DW$238, DW_AT_decl_line(0x3bd)
    2450                            .dwattr $C$DW$238, DW_AT_decl_column(0x05)
    2451                    
    2452                    $C$DW$239       .dwtag  DW_TAG_enumerator
    2453                            .dwattr $C$DW$239, DW_AT_name("ApiMac_FHAttribute_clockDrift")
    2454                            .dwattr $C$DW$239, DW_AT_const_value(0x2006)
    2455                            .dwattr $C$DW$239, DW_AT_decl_file("C:/Users/Kevin/workspace_v7/sensor_cc1310lp/Application/ap
    2456                            .dwattr $C$DW$239, DW_AT_decl_line(0x3bf)
    2457                            .dwattr $C$DW$239, DW_AT_decl_column(0x05)
    2458                    
    2459                    $C$DW$240       .dwtag  DW_TAG_enumerator
    2460                            .dwattr $C$DW$240, DW_AT_name("ApiMac_FHAttribute_timingAccuracy")
    2461                            .dwattr $C$DW$240, DW_AT_const_value(0x2007)
    2462                            .dwattr $C$DW$240, DW_AT_decl_file("C:/Users/Kevin/workspace_v7/sensor_cc1310lp/Application/ap
    2463                            .dwattr $C$DW$240, DW_AT_decl_line(0x3c1)
    2464                            .dwattr $C$DW$240, DW_AT_decl_column(0x05)
    2465                    
    2466                    $C$DW$241       .dwtag  DW_TAG_enumerator
    2467                            .dwattr $C$DW$241, DW_AT_name("ApiMac_FHAttribute_unicastChannelFunction")
    2468                            .dwattr $C$DW$241, DW_AT_const_value(0x2008)
    2469                            .dwattr $C$DW$241, DW_AT_decl_file("C:/Users/Kevin/workspace_v7/sensor_cc1310lp/Application/ap
    2470                            .dwattr $C$DW$241, DW_AT_decl_line(0x3c3)
    2471                            .dwattr $C$DW$241, DW_AT_decl_column(0x05)
    2472                    
    2473                    $C$DW$242       .dwtag  DW_TAG_enumerator
TI ARM Assembler PC v16.9.4 Sat Nov 18 18:46:21 2017

Tools Copyright (c) 1996-2017 Texas Instruments Incorporated
C:\Users\Kevin\AppData\Local\Temp\{91E5085D-660D-4F25-9A12-879222E44D75} PAGE   46

    2474                            .dwattr $C$DW$242, DW_AT_name("ApiMac_FHAttribute_broadcastChannelFunction")
    2475                            .dwattr $C$DW$242, DW_AT_const_value(0x2009)
    2476                            .dwattr $C$DW$242, DW_AT_decl_file("C:/Users/Kevin/workspace_v7/sensor_cc1310lp/Application/ap
    2477                            .dwattr $C$DW$242, DW_AT_decl_line(0x3c5)
    2478                            .dwattr $C$DW$242, DW_AT_decl_column(0x05)
    2479                    
    2480                    $C$DW$243       .dwtag  DW_TAG_enumerator
    2481                            .dwattr $C$DW$243, DW_AT_name("ApiMac_FHAttribute_useParentBSIE")
    2482                            .dwattr $C$DW$243, DW_AT_const_value(0x200a)
    2483                            .dwattr $C$DW$243, DW_AT_decl_file("C:/Users/Kevin/workspace_v7/sensor_cc1310lp/Application/ap
    2484                            .dwattr $C$DW$243, DW_AT_decl_line(0x3c7)
    2485                            .dwattr $C$DW$243, DW_AT_decl_column(0x05)
    2486                    
    2487                    $C$DW$244       .dwtag  DW_TAG_enumerator
    2488                            .dwattr $C$DW$244, DW_AT_name("ApiMac_FHAttribute_routingCost")
    2489                            .dwattr $C$DW$244, DW_AT_const_value(0x200f)
    2490                            .dwattr $C$DW$244, DW_AT_decl_file("C:/Users/Kevin/workspace_v7/sensor_cc1310lp/Application/ap
    2491                            .dwattr $C$DW$244, DW_AT_decl_line(0x3c9)
    2492                            .dwattr $C$DW$244, DW_AT_decl_column(0x05)
    2493                    
    2494                    $C$DW$245       .dwtag  DW_TAG_enumerator
    2495                            .dwattr $C$DW$245, DW_AT_name("ApiMac_FHAttribute_routingMethod")
    2496                            .dwattr $C$DW$245, DW_AT_const_value(0x2010)
    2497                            .dwattr $C$DW$245, DW_AT_decl_file("C:/Users/Kevin/workspace_v7/sensor_cc1310lp/Application/ap
    2498                            .dwattr $C$DW$245, DW_AT_decl_line(0x3cb)
    2499                            .dwattr $C$DW$245, DW_AT_decl_column(0x05)
    2500                    
    2501                    $C$DW$246       .dwtag  DW_TAG_enumerator
    2502                            .dwattr $C$DW$246, DW_AT_name("ApiMac_FHAttribute_eapolReady")
    2503                            .dwattr $C$DW$246, DW_AT_const_value(0x2011)
    2504                            .dwattr $C$DW$246, DW_AT_decl_file("C:/Users/Kevin/workspace_v7/sensor_cc1310lp/Application/ap
    2505                            .dwattr $C$DW$246, DW_AT_decl_line(0x3cd)
    2506                            .dwattr $C$DW$246, DW_AT_decl_column(0x05)
    2507                    
    2508                    $C$DW$247       .dwtag  DW_TAG_enumerator
    2509                            .dwattr $C$DW$247, DW_AT_name("ApiMac_FHAttribute_fanTPSVersion")
    2510                            .dwattr $C$DW$247, DW_AT_const_value(0x2012)
    2511                            .dwattr $C$DW$247, DW_AT_decl_file("C:/Users/Kevin/workspace_v7/sensor_cc1310lp/Application/ap
    2512                            .dwattr $C$DW$247, DW_AT_decl_line(0x3cf)
    2513                            .dwattr $C$DW$247, DW_AT_decl_column(0x05)
    2514                    
    2515                    $C$DW$248       .dwtag  DW_TAG_enumerator
    2516                            .dwattr $C$DW$248, DW_AT_name("ApiMac_FHAttribute_CsmaBaseBacoff")
    2517                            .dwattr $C$DW$248, DW_AT_const_value(0x201a)
    2518                            .dwattr $C$DW$248, DW_AT_decl_file("C:/Users/Kevin/workspace_v7/sensor_cc1310lp/Application/ap
    2519                            .dwattr $C$DW$248, DW_AT_decl_line(0x3d1)
    2520                            .dwattr $C$DW$248, DW_AT_decl_column(0x05)
    2521                    
    2522                    $C$DW$249       .dwtag  DW_TAG_enumerator
    2523                            .dwattr $C$DW$249, DW_AT_name("ApiMac_FHAttribute_numNonSleepDevice")
    2524                            .dwattr $C$DW$249, DW_AT_const_value(0x201b)
    2525                            .dwattr $C$DW$249, DW_AT_decl_file("C:/Users/Kevin/workspace_v7/sensor_cc1310lp/Application/ap
    2526                            .dwattr $C$DW$249, DW_AT_decl_line(0x3d3)
    2527                            .dwattr $C$DW$249, DW_AT_decl_column(0x05)
    2528                    
TI ARM Assembler PC v16.9.4 Sat Nov 18 18:46:21 2017

Tools Copyright (c) 1996-2017 Texas Instruments Incorporated
C:\Users\Kevin\AppData\Local\Temp\{91E5085D-660D-4F25-9A12-879222E44D75} PAGE   47

    2529                    $C$DW$250       .dwtag  DW_TAG_enumerator
    2530                            .dwattr $C$DW$250, DW_AT_name("ApiMac_FHAttribute_numSleepDevice")
    2531                            .dwattr $C$DW$250, DW_AT_const_value(0x201c)
    2532                            .dwattr $C$DW$250, DW_AT_decl_file("C:/Users/Kevin/workspace_v7/sensor_cc1310lp/Application/ap
    2533                            .dwattr $C$DW$250, DW_AT_decl_line(0x3d5)
    2534                            .dwattr $C$DW$250, DW_AT_decl_column(0x05)
    2535                    
    2536                            .dwattr $C$DW$T$845, DW_AT_decl_file("C:/Users/Kevin/workspace_v7/sensor_cc1310lp/Application/
    2537                            .dwattr $C$DW$T$845, DW_AT_decl_line(0x3b9)
    2538                            .dwattr $C$DW$T$845, DW_AT_decl_column(0x01)
    2539                            .dwendtag $C$DW$T$845
    2540                    
    2541                    $C$DW$T$846     .dwtag  DW_TAG_typedef
    2542                            .dwattr $C$DW$T$846, DW_AT_name("ApiMac_FHAttribute_uint8_t")
    2543                            .dwattr $C$DW$T$846, DW_AT_type(*$C$DW$T$845)
    2544                            .dwattr $C$DW$T$846, DW_AT_language(DW_LANG_C)
    2545                            .dwattr $C$DW$T$846, DW_AT_decl_file("C:/Users/Kevin/workspace_v7/sensor_cc1310lp/Application/
    2546                            .dwattr $C$DW$T$846, DW_AT_decl_line(0x3d7)
    2547                            .dwattr $C$DW$T$846, DW_AT_decl_column(0x03)
    2548                    
    2549                    
    2550                    $C$DW$T$847     .dwtag  DW_TAG_enumeration_type
    2551                            .dwattr $C$DW$T$847, DW_AT_byte_size(0x02)
    2552                    $C$DW$251       .dwtag  DW_TAG_enumerator
    2553                            .dwattr $C$DW$251, DW_AT_name("ApiMac_FHAttribute_broadcastSchedId")
    2554                            .dwattr $C$DW$251, DW_AT_const_value(0x200b)
    2555                            .dwattr $C$DW$251, DW_AT_decl_file("C:/Users/Kevin/workspace_v7/sensor_cc1310lp/Application/ap
    2556                            .dwattr $C$DW$251, DW_AT_decl_line(0x3df)
    2557                            .dwattr $C$DW$251, DW_AT_decl_column(0x05)
    2558                    
    2559                    $C$DW$252       .dwtag  DW_TAG_enumerator
    2560                            .dwattr $C$DW$252, DW_AT_name("ApiMac_FHAttribute_unicastFixedChannel")
    2561                            .dwattr $C$DW$252, DW_AT_const_value(0x200c)
    2562                            .dwattr $C$DW$252, DW_AT_decl_file("C:/Users/Kevin/workspace_v7/sensor_cc1310lp/Application/ap
    2563                            .dwattr $C$DW$252, DW_AT_decl_line(0x3e1)
    2564                            .dwattr $C$DW$252, DW_AT_decl_column(0x05)
    2565                    
    2566                    $C$DW$253       .dwtag  DW_TAG_enumerator
    2567                            .dwattr $C$DW$253, DW_AT_name("ApiMac_FHAttribute_broadcastFixedChannel")
    2568                            .dwattr $C$DW$253, DW_AT_const_value(0x200d)
    2569                            .dwattr $C$DW$253, DW_AT_decl_file("C:/Users/Kevin/workspace_v7/sensor_cc1310lp/Application/ap
    2570                            .dwattr $C$DW$253, DW_AT_decl_line(0x3e3)
    2571                            .dwattr $C$DW$253, DW_AT_decl_column(0x05)
    2572                    
    2573                    $C$DW$254       .dwtag  DW_TAG_enumerator
    2574                            .dwattr $C$DW$254, DW_AT_name("ApiMac_FHAttribute_panSize")
    2575                            .dwattr $C$DW$254, DW_AT_const_value(0x200e)
    2576                            .dwattr $C$DW$254, DW_AT_decl_file("C:/Users/Kevin/workspace_v7/sensor_cc1310lp/Application/ap
    2577                            .dwattr $C$DW$254, DW_AT_decl_line(0x3e5)
    2578                            .dwattr $C$DW$254, DW_AT_decl_column(0x05)
    2579                    
    2580                    $C$DW$255       .dwtag  DW_TAG_enumerator
    2581                            .dwattr $C$DW$255, DW_AT_name("ApiMac_FHAttribute_panVersion")
    2582                            .dwattr $C$DW$255, DW_AT_const_value(0x2014)
    2583                            .dwattr $C$DW$255, DW_AT_decl_file("C:/Users/Kevin/workspace_v7/sensor_cc1310lp/Application/ap
TI ARM Assembler PC v16.9.4 Sat Nov 18 18:46:21 2017

Tools Copyright (c) 1996-2017 Texas Instruments Incorporated
C:\Users\Kevin\AppData\Local\Temp\{91E5085D-660D-4F25-9A12-879222E44D75} PAGE   48

    2584                            .dwattr $C$DW$255, DW_AT_decl_line(0x3e7)
    2585                            .dwattr $C$DW$255, DW_AT_decl_column(0x05)
    2586                    
    2587                    $C$DW$256       .dwtag  DW_TAG_enumerator
    2588                            .dwattr $C$DW$256, DW_AT_name("ApiMac_FHAttribute_neighborValidTime")
    2589                            .dwattr $C$DW$256, DW_AT_const_value(0x2019)
    2590                            .dwattr $C$DW$256, DW_AT_decl_file("C:/Users/Kevin/workspace_v7/sensor_cc1310lp/Application/ap
    2591                            .dwattr $C$DW$256, DW_AT_decl_line(0x3e9)
    2592                            .dwattr $C$DW$256, DW_AT_decl_column(0x05)
    2593                    
    2594                            .dwattr $C$DW$T$847, DW_AT_decl_file("C:/Users/Kevin/workspace_v7/sensor_cc1310lp/Application/
    2595                            .dwattr $C$DW$T$847, DW_AT_decl_line(0x3db)
    2596                            .dwattr $C$DW$T$847, DW_AT_decl_column(0x01)
    2597                            .dwendtag $C$DW$T$847
    2598                    
    2599                    $C$DW$T$848     .dwtag  DW_TAG_typedef
    2600                            .dwattr $C$DW$T$848, DW_AT_name("ApiMac_FHAttribute_uint16_t")
    2601                            .dwattr $C$DW$T$848, DW_AT_type(*$C$DW$T$847)
    2602                            .dwattr $C$DW$T$848, DW_AT_language(DW_LANG_C)
    2603                            .dwattr $C$DW$T$848, DW_AT_decl_file("C:/Users/Kevin/workspace_v7/sensor_cc1310lp/Application/
    2604                            .dwattr $C$DW$T$848, DW_AT_decl_line(0x3ea)
    2605                            .dwattr $C$DW$T$848, DW_AT_decl_column(0x03)
    2606                    
    2607                    
    2608                    $C$DW$T$849     .dwtag  DW_TAG_enumeration_type
    2609                            .dwattr $C$DW$T$849, DW_AT_byte_size(0x02)
    2610                    $C$DW$257       .dwtag  DW_TAG_enumerator
    2611                            .dwattr $C$DW$257, DW_AT_name("ApiMac_FHAttribute_BCInterval")
    2612                            .dwattr $C$DW$257, DW_AT_const_value(0x2001)
    2613                            .dwattr $C$DW$257, DW_AT_decl_file("C:/Users/Kevin/workspace_v7/sensor_cc1310lp/Application/ap
    2614                            .dwattr $C$DW$257, DW_AT_decl_line(0x3f2)
    2615                            .dwattr $C$DW$257, DW_AT_decl_column(0x05)
    2616                    
    2617                            .dwattr $C$DW$T$849, DW_AT_decl_file("C:/Users/Kevin/workspace_v7/sensor_cc1310lp/Application/
    2618                            .dwattr $C$DW$T$849, DW_AT_decl_line(0x3ee)
    2619                            .dwattr $C$DW$T$849, DW_AT_decl_column(0x01)
    2620                            .dwendtag $C$DW$T$849
    2621                    
    2622                    $C$DW$T$850     .dwtag  DW_TAG_typedef
    2623                            .dwattr $C$DW$T$850, DW_AT_name("ApiMac_FHAttribute_uint32_t")
    2624                            .dwattr $C$DW$T$850, DW_AT_type(*$C$DW$T$849)
    2625                            .dwattr $C$DW$T$850, DW_AT_language(DW_LANG_C)
    2626                            .dwattr $C$DW$T$850, DW_AT_decl_file("C:/Users/Kevin/workspace_v7/sensor_cc1310lp/Application/
    2627                            .dwattr $C$DW$T$850, DW_AT_decl_line(0x3f3)
    2628                            .dwattr $C$DW$T$850, DW_AT_decl_column(0x03)
    2629                    
    2630                    
    2631                    $C$DW$T$851     .dwtag  DW_TAG_enumeration_type
    2632                            .dwattr $C$DW$T$851, DW_AT_byte_size(0x02)
    2633                    $C$DW$258       .dwtag  DW_TAG_enumerator
    2634                            .dwattr $C$DW$258, DW_AT_name("ApiMac_FHAttribute_trackParentEUI")
    2635                            .dwattr $C$DW$258, DW_AT_const_value(0x2000)
    2636                            .dwattr $C$DW$258, DW_AT_decl_file("C:/Users/Kevin/workspace_v7/sensor_cc1310lp/Application/ap
    2637                            .dwattr $C$DW$258, DW_AT_decl_line(0x3f9)
    2638                            .dwattr $C$DW$258, DW_AT_decl_column(0x05)
TI ARM Assembler PC v16.9.4 Sat Nov 18 18:46:21 2017

Tools Copyright (c) 1996-2017 Texas Instruments Incorporated
C:\Users\Kevin\AppData\Local\Temp\{91E5085D-660D-4F25-9A12-879222E44D75} PAGE   49

    2639                    
    2640                    $C$DW$259       .dwtag  DW_TAG_enumerator
    2641                            .dwattr $C$DW$259, DW_AT_name("ApiMac_FHAttribute_unicastExcludedChannels")
    2642                            .dwattr $C$DW$259, DW_AT_const_value(0x2002)
    2643                            .dwattr $C$DW$259, DW_AT_decl_file("C:/Users/Kevin/workspace_v7/sensor_cc1310lp/Application/ap
    2644                            .dwattr $C$DW$259, DW_AT_decl_line(0x3fb)
    2645                            .dwattr $C$DW$259, DW_AT_decl_column(0x05)
    2646                    
    2647                    $C$DW$260       .dwtag  DW_TAG_enumerator
    2648                            .dwattr $C$DW$260, DW_AT_name("ApiMac_FHAttribute_broadcastExcludedChannels")
    2649                            .dwattr $C$DW$260, DW_AT_const_value(0x2003)
    2650                            .dwattr $C$DW$260, DW_AT_decl_file("C:/Users/Kevin/workspace_v7/sensor_cc1310lp/Application/ap
    2651                            .dwattr $C$DW$260, DW_AT_decl_line(0x3fd)
    2652                            .dwattr $C$DW$260, DW_AT_decl_column(0x05)
    2653                    
    2654                    $C$DW$261       .dwtag  DW_TAG_enumerator
    2655                            .dwattr $C$DW$261, DW_AT_name("ApiMac_FHAttribute_netName")
    2656                            .dwattr $C$DW$261, DW_AT_const_value(0x2013)
    2657                            .dwattr $C$DW$261, DW_AT_decl_file("C:/Users/Kevin/workspace_v7/sensor_cc1310lp/Application/ap
    2658                            .dwattr $C$DW$261, DW_AT_decl_line(0x3ff)
    2659                            .dwattr $C$DW$261, DW_AT_decl_column(0x05)
    2660                    
    2661                    $C$DW$262       .dwtag  DW_TAG_enumerator
    2662                            .dwattr $C$DW$262, DW_AT_name("ApiMac_FHAttribute_gtk0Hash")
    2663                            .dwattr $C$DW$262, DW_AT_const_value(0x2015)
    2664                            .dwattr $C$DW$262, DW_AT_decl_file("C:/Users/Kevin/workspace_v7/sensor_cc1310lp/Application/ap
    2665                            .dwattr $C$DW$262, DW_AT_decl_line(0x403)
    2666                            .dwattr $C$DW$262, DW_AT_decl_column(0x05)
    2667                    
    2668                    $C$DW$263       .dwtag  DW_TAG_enumerator
    2669                            .dwattr $C$DW$263, DW_AT_name("ApiMac_FHAttribute_gtk1Hash")
    2670                            .dwattr $C$DW$263, DW_AT_const_value(0x2016)
    2671                            .dwattr $C$DW$263, DW_AT_decl_file("C:/Users/Kevin/workspace_v7/sensor_cc1310lp/Application/ap
    2672                            .dwattr $C$DW$263, DW_AT_decl_line(0x407)
    2673                            .dwattr $C$DW$263, DW_AT_decl_column(0x05)
    2674                    
    2675                    $C$DW$264       .dwtag  DW_TAG_enumerator
    2676                            .dwattr $C$DW$264, DW_AT_name("ApiMac_FHAttribute_gtk2Hash")
    2677                            .dwattr $C$DW$264, DW_AT_const_value(0x2017)
    2678                            .dwattr $C$DW$264, DW_AT_decl_file("C:/Users/Kevin/workspace_v7/sensor_cc1310lp/Application/ap
    2679                            .dwattr $C$DW$264, DW_AT_decl_line(0x40b)
    2680                            .dwattr $C$DW$264, DW_AT_decl_column(0x05)
    2681                    
    2682                    $C$DW$265       .dwtag  DW_TAG_enumerator
    2683                            .dwattr $C$DW$265, DW_AT_name("ApiMac_FHAttribute_gtk3Hash")
    2684                            .dwattr $C$DW$265, DW_AT_const_value(0x2018)
    2685                            .dwattr $C$DW$265, DW_AT_decl_file("C:/Users/Kevin/workspace_v7/sensor_cc1310lp/Application/ap
    2686                            .dwattr $C$DW$265, DW_AT_decl_line(0x40f)
    2687                            .dwattr $C$DW$265, DW_AT_decl_column(0x05)
    2688                    
    2689                            .dwattr $C$DW$T$851, DW_AT_decl_file("C:/Users/Kevin/workspace_v7/sensor_cc1310lp/Application/
    2690                            .dwattr $C$DW$T$851, DW_AT_decl_line(0x3f7)
    2691                            .dwattr $C$DW$T$851, DW_AT_decl_column(0x01)
    2692                            .dwendtag $C$DW$T$851
    2693                    
TI ARM Assembler PC v16.9.4 Sat Nov 18 18:46:21 2017

Tools Copyright (c) 1996-2017 Texas Instruments Incorporated
C:\Users\Kevin\AppData\Local\Temp\{91E5085D-660D-4F25-9A12-879222E44D75} PAGE   50

    2694                    $C$DW$T$852     .dwtag  DW_TAG_typedef
    2695                            .dwattr $C$DW$T$852, DW_AT_name("ApiMac_FHAttribute_array_t")
    2696                            .dwattr $C$DW$T$852, DW_AT_type(*$C$DW$T$851)
    2697                            .dwattr $C$DW$T$852, DW_AT_language(DW_LANG_C)
    2698                            .dwattr $C$DW$T$852, DW_AT_decl_file("C:/Users/Kevin/workspace_v7/sensor_cc1310lp/Application/
    2699                            .dwattr $C$DW$T$852, DW_AT_decl_line(0x410)
    2700                            .dwattr $C$DW$T$852, DW_AT_decl_column(0x03)
    2701                    
    2702                    
    2703                    $C$DW$T$853     .dwtag  DW_TAG_enumeration_type
    2704                            .dwattr $C$DW$T$853, DW_AT_byte_size(0x01)
    2705                    $C$DW$266       .dwtag  DW_TAG_enumerator
    2706                            .dwattr $C$DW$266, DW_AT_name("ApiMac_payloadIEGroup_ESDU")
    2707                            .dwattr $C$DW$266, DW_AT_const_value(0x00)
    2708                            .dwattr $C$DW$266, DW_AT_decl_file("C:/Users/Kevin/workspace_v7/sensor_cc1310lp/Application/ap
    2709                            .dwattr $C$DW$266, DW_AT_decl_line(0x42b)
    2710                            .dwattr $C$DW$266, DW_AT_decl_column(0x05)
    2711                    
    2712                    $C$DW$267       .dwtag  DW_TAG_enumerator
    2713                            .dwattr $C$DW$267, DW_AT_name("ApiMac_payloadIEGroup_MLME")
    2714                            .dwattr $C$DW$267, DW_AT_const_value(0x01)
    2715                            .dwattr $C$DW$267, DW_AT_decl_file("C:/Users/Kevin/workspace_v7/sensor_cc1310lp/Application/ap
    2716                            .dwattr $C$DW$267, DW_AT_decl_line(0x42d)
    2717                            .dwattr $C$DW$267, DW_AT_decl_column(0x05)
    2718                    
    2719                    $C$DW$268       .dwtag  DW_TAG_enumerator
    2720                            .dwattr $C$DW$268, DW_AT_name("ApiMac_payloadIEGroup_WiSUN")
    2721                            .dwattr $C$DW$268, DW_AT_const_value(0x04)
    2722                            .dwattr $C$DW$268, DW_AT_decl_file("C:/Users/Kevin/workspace_v7/sensor_cc1310lp/Application/ap
    2723                            .dwattr $C$DW$268, DW_AT_decl_line(0x42f)
    2724                            .dwattr $C$DW$268, DW_AT_decl_column(0x05)
    2725                    
    2726                    $C$DW$269       .dwtag  DW_TAG_enumerator
    2727                            .dwattr $C$DW$269, DW_AT_name("ApiMac_payloadIEGroup_term")
    2728                            .dwattr $C$DW$269, DW_AT_const_value(0x0f)
    2729                            .dwattr $C$DW$269, DW_AT_decl_file("C:/Users/Kevin/workspace_v7/sensor_cc1310lp/Application/ap
    2730                            .dwattr $C$DW$269, DW_AT_decl_line(0x431)
    2731                            .dwattr $C$DW$269, DW_AT_decl_column(0x05)
    2732                    
    2733                            .dwattr $C$DW$T$853, DW_AT_decl_file("C:/Users/Kevin/workspace_v7/sensor_cc1310lp/Application/
    2734                            .dwattr $C$DW$T$853, DW_AT_decl_line(0x429)
    2735                            .dwattr $C$DW$T$853, DW_AT_decl_column(0x01)
    2736                            .dwendtag $C$DW$T$853
    2737                    
    2738                    $C$DW$T$854     .dwtag  DW_TAG_typedef
    2739                            .dwattr $C$DW$T$854, DW_AT_name("ApiMac_payloadIEGroup_t")
    2740                            .dwattr $C$DW$T$854, DW_AT_type(*$C$DW$T$853)
    2741                            .dwattr $C$DW$T$854, DW_AT_language(DW_LANG_C)
    2742                            .dwattr $C$DW$T$854, DW_AT_decl_file("C:/Users/Kevin/workspace_v7/sensor_cc1310lp/Application/
    2743                            .dwattr $C$DW$T$854, DW_AT_decl_line(0x432)
    2744                            .dwattr $C$DW$T$854, DW_AT_decl_column(0x03)
    2745                    
    2746                    
    2747                    $C$DW$T$855     .dwtag  DW_TAG_enumeration_type
    2748                            .dwattr $C$DW$T$855, DW_AT_byte_size(0x01)
TI ARM Assembler PC v16.9.4 Sat Nov 18 18:46:21 2017

Tools Copyright (c) 1996-2017 Texas Instruments Incorporated
C:\Users\Kevin\AppData\Local\Temp\{91E5085D-660D-4F25-9A12-879222E44D75} PAGE   51

    2749                    $C$DW$270       .dwtag  DW_TAG_enumerator
    2750                            .dwattr $C$DW$270, DW_AT_name("ApiMac_MLMESubIE_coexist")
    2751                            .dwattr $C$DW$270, DW_AT_const_value(0x21)
    2752                            .dwattr $C$DW$270, DW_AT_decl_file("C:/Users/Kevin/workspace_v7/sensor_cc1310lp/Application/ap
    2753                            .dwattr $C$DW$270, DW_AT_decl_line(0x438)
    2754                            .dwattr $C$DW$270, DW_AT_decl_column(0x05)
    2755                    
    2756                    $C$DW$271       .dwtag  DW_TAG_enumerator
    2757                            .dwattr $C$DW$271, DW_AT_name("ApiMac_MLMESubIE_sunDevCap")
    2758                            .dwattr $C$DW$271, DW_AT_const_value(0x22)
    2759                            .dwattr $C$DW$271, DW_AT_decl_file("C:/Users/Kevin/workspace_v7/sensor_cc1310lp/Application/ap
    2760                            .dwattr $C$DW$271, DW_AT_decl_line(0x43a)
    2761                            .dwattr $C$DW$271, DW_AT_decl_column(0x05)
    2762                    
    2763                    $C$DW$272       .dwtag  DW_TAG_enumerator
    2764                            .dwattr $C$DW$272, DW_AT_name("ApiMac_MLMESubIE_sunFSKGenPhy")
    2765                            .dwattr $C$DW$272, DW_AT_const_value(0x23)
    2766                            .dwattr $C$DW$272, DW_AT_decl_file("C:/Users/Kevin/workspace_v7/sensor_cc1310lp/Application/ap
    2767                            .dwattr $C$DW$272, DW_AT_decl_line(0x43c)
    2768                            .dwattr $C$DW$272, DW_AT_decl_column(0x05)
    2769                    
    2770                            .dwattr $C$DW$T$855, DW_AT_decl_file("C:/Users/Kevin/workspace_v7/sensor_cc1310lp/Application/
    2771                            .dwattr $C$DW$T$855, DW_AT_decl_line(0x436)
    2772                            .dwattr $C$DW$T$855, DW_AT_decl_column(0x01)
    2773                            .dwendtag $C$DW$T$855
    2774                    
    2775                    $C$DW$T$856     .dwtag  DW_TAG_typedef
    2776                            .dwattr $C$DW$T$856, DW_AT_name("ApiMac_MLMESubIE_t")
    2777                            .dwattr $C$DW$T$856, DW_AT_type(*$C$DW$T$855)
    2778                            .dwattr $C$DW$T$856, DW_AT_language(DW_LANG_C)
    2779                            .dwattr $C$DW$T$856, DW_AT_decl_file("C:/Users/Kevin/workspace_v7/sensor_cc1310lp/Application/
    2780                            .dwattr $C$DW$T$856, DW_AT_decl_line(0x43d)
    2781                            .dwattr $C$DW$T$856, DW_AT_decl_column(0x03)
    2782                    
    2783                    
    2784                    $C$DW$T$857     .dwtag  DW_TAG_enumeration_type
    2785                            .dwattr $C$DW$T$857, DW_AT_byte_size(0x01)
    2786                    $C$DW$273       .dwtag  DW_TAG_enumerator
    2787                            .dwattr $C$DW$273, DW_AT_name("ApiMac_wisunSubIE_USIE")
    2788                            .dwattr $C$DW$273, DW_AT_const_value(0x01)
    2789                            .dwattr $C$DW$273, DW_AT_decl_file("C:/Users/Kevin/workspace_v7/sensor_cc1310lp/Application/ap
    2790                            .dwattr $C$DW$273, DW_AT_decl_line(0x443)
    2791                            .dwattr $C$DW$273, DW_AT_decl_column(0x05)
    2792                    
    2793                    $C$DW$274       .dwtag  DW_TAG_enumerator
    2794                            .dwattr $C$DW$274, DW_AT_name("ApiMac_wisunSubIE_BSIE")
    2795                            .dwattr $C$DW$274, DW_AT_const_value(0x02)
    2796                            .dwattr $C$DW$274, DW_AT_decl_file("C:/Users/Kevin/workspace_v7/sensor_cc1310lp/Application/ap
    2797                            .dwattr $C$DW$274, DW_AT_decl_line(0x445)
    2798                            .dwattr $C$DW$274, DW_AT_decl_column(0x05)
    2799                    
    2800                    $C$DW$275       .dwtag  DW_TAG_enumerator
    2801                            .dwattr $C$DW$275, DW_AT_name("ApiMac_wisunSubIE_PANIE")
    2802                            .dwattr $C$DW$275, DW_AT_const_value(0x04)
    2803                            .dwattr $C$DW$275, DW_AT_decl_file("C:/Users/Kevin/workspace_v7/sensor_cc1310lp/Application/ap
TI ARM Assembler PC v16.9.4 Sat Nov 18 18:46:21 2017

Tools Copyright (c) 1996-2017 Texas Instruments Incorporated
C:\Users\Kevin\AppData\Local\Temp\{91E5085D-660D-4F25-9A12-879222E44D75} PAGE   52

    2804                            .dwattr $C$DW$275, DW_AT_decl_line(0x447)
    2805                            .dwattr $C$DW$275, DW_AT_decl_column(0x05)
    2806                    
    2807                    $C$DW$276       .dwtag  DW_TAG_enumerator
    2808                            .dwattr $C$DW$276, DW_AT_name("ApiMac_wisunSubIE_netNameIE")
    2809                            .dwattr $C$DW$276, DW_AT_const_value(0x05)
    2810                            .dwattr $C$DW$276, DW_AT_decl_file("C:/Users/Kevin/workspace_v7/sensor_cc1310lp/Application/ap
    2811                            .dwattr $C$DW$276, DW_AT_decl_line(0x449)
    2812                            .dwattr $C$DW$276, DW_AT_decl_column(0x05)
    2813                    
    2814                    $C$DW$277       .dwtag  DW_TAG_enumerator
    2815                            .dwattr $C$DW$277, DW_AT_name("ApiMac_wisunSubIE_PANVersionIE")
    2816                            .dwattr $C$DW$277, DW_AT_const_value(0x06)
    2817                            .dwattr $C$DW$277, DW_AT_decl_file("C:/Users/Kevin/workspace_v7/sensor_cc1310lp/Application/ap
    2818                            .dwattr $C$DW$277, DW_AT_decl_line(0x44b)
    2819                            .dwattr $C$DW$277, DW_AT_decl_column(0x05)
    2820                    
    2821                    $C$DW$278       .dwtag  DW_TAG_enumerator
    2822                            .dwattr $C$DW$278, DW_AT_name("ApiMac_wisunSubIE_GTKHashIE")
    2823                            .dwattr $C$DW$278, DW_AT_const_value(0x07)
    2824                            .dwattr $C$DW$278, DW_AT_decl_file("C:/Users/Kevin/workspace_v7/sensor_cc1310lp/Application/ap
    2825                            .dwattr $C$DW$278, DW_AT_decl_line(0x44d)
    2826                            .dwattr $C$DW$278, DW_AT_decl_column(0x05)
    2827                    
    2828                            .dwattr $C$DW$T$857, DW_AT_decl_file("C:/Users/Kevin/workspace_v7/sensor_cc1310lp/Application/
    2829                            .dwattr $C$DW$T$857, DW_AT_decl_line(0x441)
    2830                            .dwattr $C$DW$T$857, DW_AT_decl_column(0x01)
    2831                            .dwendtag $C$DW$T$857
    2832                    
    2833                    $C$DW$T$858     .dwtag  DW_TAG_typedef
    2834                            .dwattr $C$DW$T$858, DW_AT_name("ApiMac_wisunSubIE_t")
    2835                            .dwattr $C$DW$T$858, DW_AT_type(*$C$DW$T$857)
    2836                            .dwattr $C$DW$T$858, DW_AT_language(DW_LANG_C)
    2837                            .dwattr $C$DW$T$858, DW_AT_decl_file("C:/Users/Kevin/workspace_v7/sensor_cc1310lp/Application/
    2838                            .dwattr $C$DW$T$858, DW_AT_decl_line(0x44e)
    2839                            .dwattr $C$DW$T$858, DW_AT_decl_column(0x03)
    2840                    
    2841                    
    2842                    $C$DW$T$859     .dwtag  DW_TAG_enumeration_type
    2843                            .dwattr $C$DW$T$859, DW_AT_byte_size(0x01)
    2844                    $C$DW$279       .dwtag  DW_TAG_enumerator
    2845                            .dwattr $C$DW$279, DW_AT_name("ICALL_RTI_APP_CMD_EVENT")
    2846                            .dwattr $C$DW$279, DW_AT_const_value(0xe0)
    2847                            .dwattr $C$DW$279, DW_AT_decl_file("C:/ti/simplelink_cc13x0_sdk_1_50_00_08/source/ti/ti154stac
    2848                            .dwattr $C$DW$279, DW_AT_decl_line(0x3de)
    2849                            .dwattr $C$DW$279, DW_AT_decl_column(0x04)
    2850                    
    2851                    $C$DW$280       .dwtag  DW_TAG_enumerator
    2852                            .dwattr $C$DW$280, DW_AT_name("ICALL_RTI_STACK_CMD_EVENT")
    2853                            .dwattr $C$DW$280, DW_AT_const_value(0xe1)
    2854                            .dwattr $C$DW$280, DW_AT_decl_file("C:/ti/simplelink_cc13x0_sdk_1_50_00_08/source/ti/ti154stac
    2855                            .dwattr $C$DW$280, DW_AT_decl_line(0x3e0)
    2856                            .dwattr $C$DW$280, DW_AT_decl_column(0x04)
    2857                    
    2858                    $C$DW$281       .dwtag  DW_TAG_enumerator
TI ARM Assembler PC v16.9.4 Sat Nov 18 18:46:21 2017

Tools Copyright (c) 1996-2017 Texas Instruments Incorporated
C:\Users\Kevin\AppData\Local\Temp\{91E5085D-660D-4F25-9A12-879222E44D75} PAGE   53

    2859                            .dwattr $C$DW$281, DW_AT_name("ICALL_RTI_APP_ASYNC_CMD_EVENT")
    2860                            .dwattr $C$DW$281, DW_AT_const_value(0xe2)
    2861                            .dwattr $C$DW$281, DW_AT_decl_file("C:/ti/simplelink_cc13x0_sdk_1_50_00_08/source/ti/ti154stac
    2862                            .dwattr $C$DW$281, DW_AT_decl_line(0x3e2)
    2863                            .dwattr $C$DW$281, DW_AT_decl_column(0x04)
    2864                    
    2865                    $C$DW$282       .dwtag  DW_TAG_enumerator
    2866                            .dwattr $C$DW$282, DW_AT_name("ICALL_RTI_APP_SYNC_CMD_EVENT")
    2867                            .dwattr $C$DW$282, DW_AT_const_value(0xe3)
    2868                            .dwattr $C$DW$282, DW_AT_decl_file("C:/ti/simplelink_cc13x0_sdk_1_50_00_08/source/ti/ti154stac
    2869                            .dwattr $C$DW$282, DW_AT_decl_line(0x3e4)
    2870                            .dwattr $C$DW$282, DW_AT_decl_column(0x04)
    2871                    
    2872                    $C$DW$283       .dwtag  DW_TAG_enumerator
    2873                            .dwattr $C$DW$283, DW_AT_name("ICALL_RCN_APP_ASYNC_CMD_EVENT")
    2874                            .dwattr $C$DW$283, DW_AT_const_value(0xe4)
    2875                            .dwattr $C$DW$283, DW_AT_decl_file("C:/ti/simplelink_cc13x0_sdk_1_50_00_08/source/ti/ti154stac
    2876                            .dwattr $C$DW$283, DW_AT_decl_line(0x3e6)
    2877                            .dwattr $C$DW$283, DW_AT_decl_column(0x04)
    2878                    
    2879                    $C$DW$284       .dwtag  DW_TAG_enumerator
    2880                            .dwattr $C$DW$284, DW_AT_name("ICALL_RCN_APP_SYNC_CMD_EVENT")
    2881                            .dwattr $C$DW$284, DW_AT_const_value(0xe5)
    2882                            .dwattr $C$DW$284, DW_AT_decl_file("C:/ti/simplelink_cc13x0_sdk_1_50_00_08/source/ti/ti154stac
    2883                            .dwattr $C$DW$284, DW_AT_decl_line(0x3e8)
    2884                            .dwattr $C$DW$284, DW_AT_decl_column(0x04)
    2885                    
    2886                            .dwattr $C$DW$T$859, DW_AT_decl_file("C:/ti/simplelink_cc13x0_sdk_1_50_00_08/source/ti/ti154st
    2887                            .dwattr $C$DW$T$859, DW_AT_decl_line(0x3dc)
    2888                            .dwattr $C$DW$T$859, DW_AT_decl_column(0x01)
    2889                            .dwendtag $C$DW$T$859
    2890                    
    2891                    $C$DW$T$860     .dwtag  DW_TAG_typedef
    2892                            .dwattr $C$DW$T$860, DW_AT_name("ICall_RemotiCmdEvent_t")
    2893                            .dwattr $C$DW$T$860, DW_AT_type(*$C$DW$T$859)
    2894                            .dwattr $C$DW$T$860, DW_AT_language(DW_LANG_C)
    2895                            .dwattr $C$DW$T$860, DW_AT_decl_file("C:/ti/simplelink_cc13x0_sdk_1_50_00_08/source/ti/ti154st
    2896                            .dwattr $C$DW$T$860, DW_AT_decl_line(0x3e9)
    2897                            .dwattr $C$DW$T$860, DW_AT_decl_column(0x02)
    2898                    
    2899                    
    2900                    $C$DW$T$861     .dwtag  DW_TAG_enumeration_type
    2901                            .dwattr $C$DW$T$861, DW_AT_byte_size(0x01)
    2902                    $C$DW$285       .dwtag  DW_TAG_enumerator
    2903                            .dwattr $C$DW$285, DW_AT_name("FAPI_PROGRAM_DATA")
    2904                            .dwattr $C$DW$285, DW_AT_const_value(0x02)
    2905                            .dwattr $C$DW$285, DW_AT_decl_file("C:/ti/simplelink_cc13x0_sdk_1_50_00_08/source/ti/devices/c
    2906                            .dwattr $C$DW$285, DW_AT_decl_line(0xa6)
    2907                            .dwattr $C$DW$285, DW_AT_decl_column(0x05)
    2908                    
    2909                    $C$DW$286       .dwtag  DW_TAG_enumerator
    2910                            .dwattr $C$DW$286, DW_AT_name("FAPI_ERASE_SECTOR")
    2911                            .dwattr $C$DW$286, DW_AT_const_value(0x06)
    2912                            .dwattr $C$DW$286, DW_AT_decl_file("C:/ti/simplelink_cc13x0_sdk_1_50_00_08/source/ti/devices/c
    2913                            .dwattr $C$DW$286, DW_AT_decl_line(0xa7)
TI ARM Assembler PC v16.9.4 Sat Nov 18 18:46:21 2017

Tools Copyright (c) 1996-2017 Texas Instruments Incorporated
C:\Users\Kevin\AppData\Local\Temp\{91E5085D-660D-4F25-9A12-879222E44D75} PAGE   54

    2914                            .dwattr $C$DW$286, DW_AT_decl_column(0x05)
    2915                    
    2916                    $C$DW$287       .dwtag  DW_TAG_enumerator
    2917                            .dwattr $C$DW$287, DW_AT_name("FAPI_ERASE_BANK")
    2918                            .dwattr $C$DW$287, DW_AT_const_value(0x08)
    2919                            .dwattr $C$DW$287, DW_AT_decl_file("C:/ti/simplelink_cc13x0_sdk_1_50_00_08/source/ti/devices/c
    2920                            .dwattr $C$DW$287, DW_AT_decl_line(0xa8)
    2921                            .dwattr $C$DW$287, DW_AT_decl_column(0x05)
    2922                    
    2923                    $C$DW$288       .dwtag  DW_TAG_enumerator
    2924                            .dwattr $C$DW$288, DW_AT_name("FAPI_VALIDATE_SECTOR")
    2925                            .dwattr $C$DW$288, DW_AT_const_value(0x0e)
    2926                            .dwattr $C$DW$288, DW_AT_decl_file("C:/ti/simplelink_cc13x0_sdk_1_50_00_08/source/ti/devices/c
    2927                            .dwattr $C$DW$288, DW_AT_decl_line(0xa9)
    2928                            .dwattr $C$DW$288, DW_AT_decl_column(0x05)
    2929                    
    2930                    $C$DW$289       .dwtag  DW_TAG_enumerator
    2931                            .dwattr $C$DW$289, DW_AT_name("FAPI_CLEAR_STATUS")
    2932                            .dwattr $C$DW$289, DW_AT_const_value(0x10)
    2933                            .dwattr $C$DW$289, DW_AT_decl_file("C:/ti/simplelink_cc13x0_sdk_1_50_00_08/source/ti/devices/c
    2934                            .dwattr $C$DW$289, DW_AT_decl_line(0xaa)
    2935                            .dwattr $C$DW$289, DW_AT_decl_column(0x05)
    2936                    
    2937                    $C$DW$290       .dwtag  DW_TAG_enumerator
    2938                            .dwattr $C$DW$290, DW_AT_name("FAPI_PROGRAM_RESUME")
    2939                            .dwattr $C$DW$290, DW_AT_const_value(0x14)
    2940                            .dwattr $C$DW$290, DW_AT_decl_file("C:/ti/simplelink_cc13x0_sdk_1_50_00_08/source/ti/devices/c
    2941                            .dwattr $C$DW$290, DW_AT_decl_line(0xab)
    2942                            .dwattr $C$DW$290, DW_AT_decl_column(0x05)
    2943                    
    2944                    $C$DW$291       .dwtag  DW_TAG_enumerator
    2945                            .dwattr $C$DW$291, DW_AT_name("FAPI_ERASE_RESUME")
    2946                            .dwattr $C$DW$291, DW_AT_const_value(0x16)
    2947                            .dwattr $C$DW$291, DW_AT_decl_file("C:/ti/simplelink_cc13x0_sdk_1_50_00_08/source/ti/devices/c
    2948                            .dwattr $C$DW$291, DW_AT_decl_line(0xac)
    2949                            .dwattr $C$DW$291, DW_AT_decl_column(0x05)
    2950                    
    2951                    $C$DW$292       .dwtag  DW_TAG_enumerator
    2952                            .dwattr $C$DW$292, DW_AT_name("FAPI_CLEAR_MORE")
    2953                            .dwattr $C$DW$292, DW_AT_const_value(0x18)
    2954                            .dwattr $C$DW$292, DW_AT_decl_file("C:/ti/simplelink_cc13x0_sdk_1_50_00_08/source/ti/devices/c
    2955                            .dwattr $C$DW$292, DW_AT_decl_line(0xad)
    2956                            .dwattr $C$DW$292, DW_AT_decl_column(0x05)
    2957                    
    2958                    $C$DW$293       .dwtag  DW_TAG_enumerator
    2959                            .dwattr $C$DW$293, DW_AT_name("FAPI_PROGRAM_SECTOR")
    2960                            .dwattr $C$DW$293, DW_AT_const_value(0x20)
    2961                            .dwattr $C$DW$293, DW_AT_decl_file("C:/ti/simplelink_cc13x0_sdk_1_50_00_08/source/ti/devices/c
    2962                            .dwattr $C$DW$293, DW_AT_decl_line(0xae)
    2963                            .dwattr $C$DW$293, DW_AT_decl_column(0x05)
    2964                    
    2965                    $C$DW$294       .dwtag  DW_TAG_enumerator
    2966                            .dwattr $C$DW$294, DW_AT_name("FAPI_ERASE_OTP")
    2967                            .dwattr $C$DW$294, DW_AT_const_value(0x30)
    2968                            .dwattr $C$DW$294, DW_AT_decl_file("C:/ti/simplelink_cc13x0_sdk_1_50_00_08/source/ti/devices/c
TI ARM Assembler PC v16.9.4 Sat Nov 18 18:46:21 2017

Tools Copyright (c) 1996-2017 Texas Instruments Incorporated
C:\Users\Kevin\AppData\Local\Temp\{91E5085D-660D-4F25-9A12-879222E44D75} PAGE   55

    2969                            .dwattr $C$DW$294, DW_AT_decl_line(0xaf)
    2970                            .dwattr $C$DW$294, DW_AT_decl_column(0x05)
    2971                    
    2972                            .dwattr $C$DW$T$861, DW_AT_decl_file("C:/ti/simplelink_cc13x0_sdk_1_50_00_08/source/ti/devices
    2973                            .dwattr $C$DW$T$861, DW_AT_decl_line(0xa5)
    2974                            .dwattr $C$DW$T$861, DW_AT_decl_column(0x01)
    2975                            .dwendtag $C$DW$T$861
    2976                    
    2977                    $C$DW$T$862     .dwtag  DW_TAG_typedef
    2978                            .dwattr $C$DW$T$862, DW_AT_name("tFlashStateCommandsType")
    2979                            .dwattr $C$DW$T$862, DW_AT_type(*$C$DW$T$861)
    2980                            .dwattr $C$DW$T$862, DW_AT_language(DW_LANG_C)
    2981                            .dwattr $C$DW$T$862, DW_AT_decl_file("C:/ti/simplelink_cc13x0_sdk_1_50_00_08/source/ti/devices
    2982                            .dwattr $C$DW$T$862, DW_AT_decl_line(0xb0)
    2983                            .dwattr $C$DW$T$862, DW_AT_decl_column(0x03)
    2984                    
    2985                    
    2986                    $C$DW$T$21      .dwtag  DW_TAG_structure_type
    2987                            .dwattr $C$DW$T$21, DW_AT_byte_size(0x08)
    2988                    $C$DW$295       .dwtag  DW_TAG_member
    2989                            .dwattr $C$DW$295, DW_AT_type(*$C$DW$T$20)
    2990                            .dwattr $C$DW$295, DW_AT_name("pCurrEntry")
    2991                            .dwattr $C$DW$295, DW_AT_TI_symbol_name("pCurrEntry")
    2992                            .dwattr $C$DW$295, DW_AT_data_member_location[DW_OP_plus_uconst 0x0]
    2993                            .dwattr $C$DW$295, DW_AT_accessibility(DW_ACCESS_public)
    2994                            .dwattr $C$DW$295, DW_AT_decl_file("C:\ti\simplelink_cc13x0_sdk_1_50_00_08\source\ti\devices\c
    2995                            .dwattr $C$DW$295, DW_AT_decl_line(0x41)
    2996                            .dwattr $C$DW$295, DW_AT_decl_column(0x0d)
    2997                    
    2998                    $C$DW$296       .dwtag  DW_TAG_member
    2999                            .dwattr $C$DW$296, DW_AT_type(*$C$DW$T$20)
    3000                            .dwattr $C$DW$296, DW_AT_name("pLastEntry")
    3001                            .dwattr $C$DW$296, DW_AT_TI_symbol_name("pLastEntry")
    3002                            .dwattr $C$DW$296, DW_AT_data_member_location[DW_OP_plus_uconst 0x4]
    3003                            .dwattr $C$DW$296, DW_AT_accessibility(DW_ACCESS_public)
    3004                            .dwattr $C$DW$296, DW_AT_decl_file("C:\ti\simplelink_cc13x0_sdk_1_50_00_08\source\ti\devices\c
    3005                            .dwattr $C$DW$296, DW_AT_decl_line(0x42)
    3006                            .dwattr $C$DW$296, DW_AT_decl_column(0x0d)
    3007                    
    3008                            .dwattr $C$DW$T$21, DW_AT_decl_file("C:\ti\simplelink_cc13x0_sdk_1_50_00_08\source\ti\devices\
    3009                            .dwattr $C$DW$T$21, DW_AT_decl_line(0x40)
    3010                            .dwattr $C$DW$T$21, DW_AT_decl_column(0x10)
    3011                            .dwendtag $C$DW$T$21
    3012                    
    3013                    $C$DW$T$705     .dwtag  DW_TAG_typedef
    3014                            .dwattr $C$DW$T$705, DW_AT_name("dataQueue_t")
