TI ARM Assembler PC v16.9.4 Sat Nov 18 18:46:22 2017

Tools Copyright (c) 1996-2017 Texas Instruments Incorporated
C:\Users\Kevin\AppData\Local\Temp\{5FC2008A-5F32-4C25-9FE7-4FDE3869A457} PAGE    1

       1                    ;******************************************************************************
       2                    ;* TI ARM C/C++ Codegen                                        PC v16.9.4.LTS *
       3                    ;* Date/Time created: Sat Nov 18 18:46:22 2017                                *
       4                    ;******************************************************************************
       5                            .compiler_opts --abi=eabi --arm_vmrs_si_workaround=off --code_state=16 --diag_wrap=off --embed
       6 00000000                   .thumb
       7                    
       8                    $C$DW$CU        .dwtag  DW_TAG_compile_unit
       9                            .dwattr $C$DW$CU, DW_AT_name("../Application/MAC/HAL/target/hal_aes.c")
      10                            .dwattr $C$DW$CU, DW_AT_producer("TI TI ARM C/C++ Codegen PC v16.9.4.LTS Copyright (c) 1996-20
      11                            .dwattr $C$DW$CU, DW_AT_TI_version(0x01)
      12                            .dwattr $C$DW$CU, DW_AT_comp_dir("C:\Users\Kevin\workspace_v7\sensor_cc1310lp\sensor_cc1310lp"
      13                    
      14                    $C$DW$1 .dwtag  DW_TAG_subprogram
      15                            .dwattr $C$DW$1, DW_AT_name("NOROM_CRYPTOAesLoadKey")
      16                            .dwattr $C$DW$1, DW_AT_TI_symbol_name("NOROM_CRYPTOAesLoadKey")
      17                            .dwattr $C$DW$1, DW_AT_type(*$C$DW$T$22)
      18                            .dwattr $C$DW$1, DW_AT_declaration
      19                            .dwattr $C$DW$1, DW_AT_external
      20                            .dwattr $C$DW$1, DW_AT_decl_file("C:/ti/simplelink_cc13x0_sdk_1_50_00_08/source/ti/devices/cc1
      21                            .dwattr $C$DW$1, DW_AT_decl_line(0xe6)
      22                            .dwattr $C$DW$1, DW_AT_decl_column(0x11)
      23                    $C$DW$2 .dwtag  DW_TAG_formal_parameter
      24                            .dwattr $C$DW$2, DW_AT_type(*$C$DW$T$60)
      25                    
      26                    $C$DW$3 .dwtag  DW_TAG_formal_parameter
      27                            .dwattr $C$DW$3, DW_AT_type(*$C$DW$T$22)
      28                    
      29                            .dwendtag $C$DW$1
      30                    
      31                    
      32                    $C$DW$4 .dwtag  DW_TAG_subprogram
      33                            .dwattr $C$DW$4, DW_AT_name("NOROM_CRYPTOAesEcb")
      34                            .dwattr $C$DW$4, DW_AT_TI_symbol_name("NOROM_CRYPTOAesEcb")
      35                            .dwattr $C$DW$4, DW_AT_type(*$C$DW$T$22)
      36                            .dwattr $C$DW$4, DW_AT_declaration
      37                            .dwattr $C$DW$4, DW_AT_external
      38                            .dwattr $C$DW$4, DW_AT_decl_file("C:/ti/simplelink_cc13x0_sdk_1_50_00_08/source/ti/devices/cc1
      39                            .dwattr $C$DW$4, DW_AT_decl_line(0x13e)
      40                            .dwattr $C$DW$4, DW_AT_decl_column(0x11)
      41                    $C$DW$5 .dwtag  DW_TAG_formal_parameter
      42                            .dwattr $C$DW$5, DW_AT_type(*$C$DW$T$60)
      43                    
      44                    $C$DW$6 .dwtag  DW_TAG_formal_parameter
      45                            .dwattr $C$DW$6, DW_AT_type(*$C$DW$T$60)
      46                    
      47                    $C$DW$7 .dwtag  DW_TAG_formal_parameter
      48                            .dwattr $C$DW$7, DW_AT_type(*$C$DW$T$22)
      49                    
      50                    $C$DW$8 .dwtag  DW_TAG_formal_parameter
      51                            .dwattr $C$DW$8, DW_AT_type(*$C$DW$T$114)
      52                    
      53                    $C$DW$9 .dwtag  DW_TAG_formal_parameter
      54                            .dwattr $C$DW$9, DW_AT_type(*$C$DW$T$114)
      55                    
TI ARM Assembler PC v16.9.4 Sat Nov 18 18:46:22 2017

Tools Copyright (c) 1996-2017 Texas Instruments Incorporated
C:\Users\Kevin\AppData\Local\Temp\{5FC2008A-5F32-4C25-9FE7-4FDE3869A457} PAGE    2

      56                            .dwendtag $C$DW$4
      57                    
      58                    
      59                    $C$DW$10        .dwtag  DW_TAG_subprogram
      60                            .dwattr $C$DW$10, DW_AT_name("NOROM_CRYPTOAesEcbStatus")
      61                            .dwattr $C$DW$10, DW_AT_TI_symbol_name("NOROM_CRYPTOAesEcbStatus")
      62                            .dwattr $C$DW$10, DW_AT_type(*$C$DW$T$22)
      63                            .dwattr $C$DW$10, DW_AT_declaration
      64                            .dwattr $C$DW$10, DW_AT_external
      65                            .dwattr $C$DW$10, DW_AT_decl_file("C:/ti/simplelink_cc13x0_sdk_1_50_00_08/source/ti/devices/cc
      66                            .dwattr $C$DW$10, DW_AT_decl_line(0x151)
      67                            .dwattr $C$DW$10, DW_AT_decl_column(0x11)
      68                            .dwendtag $C$DW$10
      69                    
      70                            .global pSspAesEncrypt
      71 00000000                   .data
      72                            .align  4
      73                            .elfsym pSspAesEncrypt,SYM_SIZE(4)
      74 00000000           pSspAesEncrypt:
      75 00000000 00000000          .bits   0,32                    ; pSspAesEncrypt @ 0
      76                    
      77                    $C$DW$11        .dwtag  DW_TAG_variable
      78                            .dwattr $C$DW$11, DW_AT_name("pSspAesEncrypt")
      79                            .dwattr $C$DW$11, DW_AT_TI_symbol_name("pSspAesEncrypt")
      80                            .dwattr $C$DW$11, DW_AT_location[DW_OP_addr pSspAesEncrypt]
      81                            .dwattr $C$DW$11, DW_AT_type(*$C$DW$T$193)
      82                            .dwattr $C$DW$11, DW_AT_external
      83                            .dwattr $C$DW$11, DW_AT_decl_file("../Application/MAC/HAL/target/hal_aes.c")
      84                            .dwattr $C$DW$11, DW_AT_decl_line(0x4b)
      85                            .dwattr $C$DW$11, DW_AT_decl_column(0x08)
      86                    
      87                    ;       C:\ti\ccsv7\tools\compiler\ti-cgt-arm_16.9.4.LTS\bin\armopt.exe C:/Users/Kevin/workspace_v7/se
      88 00000000                   .sect   ".text:ssp_HW_KeyInit"
      89                            .clink
      90                            .thumbfunc ssp_HW_KeyInit
      91 00000000                   .thumb
      92                            .global ssp_HW_KeyInit
      93                    
      94                    $C$DW$12        .dwtag  DW_TAG_subprogram
      95                            .dwattr $C$DW$12, DW_AT_name("ssp_HW_KeyInit")
      96                            .dwattr $C$DW$12, DW_AT_low_pc(ssp_HW_KeyInit)
      97                            .dwattr $C$DW$12, DW_AT_high_pc(0x00)
      98                            .dwattr $C$DW$12, DW_AT_TI_symbol_name("ssp_HW_KeyInit")
      99                            .dwattr $C$DW$12, DW_AT_external
     100                            .dwattr $C$DW$12, DW_AT_TI_begin_file("../Application/MAC/HAL/target/hal_aes.c")
     101                            .dwattr $C$DW$12, DW_AT_TI_begin_line(0x6e)
     102                            .dwattr $C$DW$12, DW_AT_TI_begin_column(0x06)
     103                            .dwattr $C$DW$12, DW_AT_decl_file("../Application/MAC/HAL/target/hal_aes.c")
     104                            .dwattr $C$DW$12, DW_AT_decl_line(0x6e)
     105                            .dwattr $C$DW$12, DW_AT_decl_column(0x06)
     106                            .dwattr $C$DW$12, DW_AT_TI_max_frame_size(0x00)
     107                            .dwpsn  file "../Application/MAC/HAL/target/hal_aes.c",line 111,column 1,is_stmt,address ssp_H
     108                    
     109                            .dwfde $C$DW$CIE, ssp_HW_KeyInit
     110                    $C$DW$13        .dwtag  DW_TAG_formal_parameter
TI ARM Assembler PC v16.9.4 Sat Nov 18 18:46:22 2017

Tools Copyright (c) 1996-2017 Texas Instruments Incorporated
C:\Users\Kevin\AppData\Local\Temp\{5FC2008A-5F32-4C25-9FE7-4FDE3869A457} PAGE    3

     111                            .dwattr $C$DW$13, DW_AT_name("AesKey")
     112                            .dwattr $C$DW$13, DW_AT_TI_symbol_name("AesKey")
     113                            .dwattr $C$DW$13, DW_AT_type(*$C$DW$T$190)
     114                            .dwattr $C$DW$13, DW_AT_location[DW_OP_reg0]
     115                    
     116                    
     117                    ;*****************************************************************************
     118                    ;* FUNCTION NAME: ssp_HW_KeyInit                                             *
     119                    ;*                                                                           *
     120                    ;*   Regs Modified     : A1,A2,A3,A4,V9,LR,SR                                *
     121                    ;*   Regs Used         : A1,A2,A3,A4,V9,SP,LR,SR                             *
     122                    ;*   Local Frame Size  : 0 Args + 0 Auto + 0 Save = 0 byte                   *
     123                    ;*****************************************************************************
     124 00000000           ssp_HW_KeyInit:
     125                    ;* --------------------------------------------------------------------------*
     126                            .dwcfi  cfa_offset, 0
     127                            .dwpsn  file "../Application/MAC/HAL/target/hal_aes.c",line 115,column 3,is_stmt,isa 1
     128 00000000 2100              MOVS      A2, #0                ; [DPU_3_PIPE] |115|  ; [ORIG 16-BIT INS]
     129                    $C$DW$14        .dwtag  DW_TAG_TI_branch
     130                            .dwattr $C$DW$14, DW_AT_low_pc(0x00)
     131                            .dwattr $C$DW$14, DW_AT_name("NOROM_CRYPTOAesLoadKey")
     132                            .dwattr $C$DW$14, DW_AT_TI_call
     133                            .dwattr $C$DW$14, DW_AT_TI_return
     134                    
     135 00000002 BFFEF7FF!         CRET      NOROM_CRYPTOAesLoadKey ; [DPU_3_PIPE] |115|  ; [KEEP 32-BIT INS]
     136                            ; CALL OCCURS {NOROM_CRYPTOAesLoadKey }  ; [] |115| 
     137                            .dwattr $C$DW$12, DW_AT_TI_end_file("../Application/MAC/HAL/target/hal_aes.c")
     138                            .dwattr $C$DW$12, DW_AT_TI_end_line(0x74)
     139                            .dwattr $C$DW$12, DW_AT_TI_end_column(0x01)
     140                            .dwendentry
     141                            .dwendtag $C$DW$12
     142                    
     143 00000000                   .sect   ".text:sspAesEncryptHW_keylocation"
     144                            .clink
     145                            .thumbfunc sspAesEncryptHW_keylocation
     146 00000000                   .thumb
     147                            .global sspAesEncryptHW_keylocation
     148                    
     149                    $C$DW$15        .dwtag  DW_TAG_subprogram
     150                            .dwattr $C$DW$15, DW_AT_name("sspAesEncryptHW_keylocation")
     151                            .dwattr $C$DW$15, DW_AT_low_pc(sspAesEncryptHW_keylocation)
     152                            .dwattr $C$DW$15, DW_AT_high_pc(0x00)
     153                            .dwattr $C$DW$15, DW_AT_TI_symbol_name("sspAesEncryptHW_keylocation")
     154                            .dwattr $C$DW$15, DW_AT_external
     155                            .dwattr $C$DW$15, DW_AT_TI_begin_file("../Application/MAC/HAL/target/hal_aes.c")
     156                            .dwattr $C$DW$15, DW_AT_TI_begin_line(0xcc)
     157                            .dwattr $C$DW$15, DW_AT_TI_begin_column(0x06)
     158                            .dwattr $C$DW$15, DW_AT_decl_file("../Application/MAC/HAL/target/hal_aes.c")
     159                            .dwattr $C$DW$15, DW_AT_decl_line(0xcc)
     160                            .dwattr $C$DW$15, DW_AT_decl_column(0x06)
     161                            .dwattr $C$DW$15, DW_AT_TI_max_frame_size(0x10)
     162                            .dwpsn  file "../Application/MAC/HAL/target/hal_aes.c",line 205,column 1,is_stmt,address sspAe
     163                    
     164                            .dwfde $C$DW$CIE, sspAesEncryptHW_keylocation
     165                    $C$DW$16        .dwtag  DW_TAG_formal_parameter
TI ARM Assembler PC v16.9.4 Sat Nov 18 18:46:22 2017

Tools Copyright (c) 1996-2017 Texas Instruments Incorporated
C:\Users\Kevin\AppData\Local\Temp\{5FC2008A-5F32-4C25-9FE7-4FDE3869A457} PAGE    4

     166                            .dwattr $C$DW$16, DW_AT_name("msg_in")
     167                            .dwattr $C$DW$16, DW_AT_TI_symbol_name("msg_in")
     168                            .dwattr $C$DW$16, DW_AT_type(*$C$DW$T$190)
     169                            .dwattr $C$DW$16, DW_AT_location[DW_OP_reg0]
     170                    
     171                    $C$DW$17        .dwtag  DW_TAG_formal_parameter
     172                            .dwattr $C$DW$17, DW_AT_name("msg_out")
     173                            .dwattr $C$DW$17, DW_AT_TI_symbol_name("msg_out")
     174                            .dwattr $C$DW$17, DW_AT_type(*$C$DW$T$190)
     175                            .dwattr $C$DW$17, DW_AT_location[DW_OP_reg1]
     176                    
     177                    $C$DW$18        .dwtag  DW_TAG_formal_parameter
     178                            .dwattr $C$DW$18, DW_AT_name("key_location")
     179                            .dwattr $C$DW$18, DW_AT_TI_symbol_name("key_location")
     180                            .dwattr $C$DW$18, DW_AT_type(*$C$DW$T$30)
     181                            .dwattr $C$DW$18, DW_AT_location[DW_OP_reg2]
     182                    
     183                    
     184                    ;*****************************************************************************
     185                    ;* FUNCTION NAME: sspAesEncryptHW_keylocation                                *
     186                    ;*                                                                           *
     187                    ;*   Regs Modified     : A1,A2,A3,A4,V1,V9,SP,LR,SR                          *
     188                    ;*   Regs Used         : A1,A2,A3,A4,V1,V9,SP,LR,SR                          *
     189                    ;*   Local Frame Size  : 4 Args + 0 Auto + 8 Save = 12 byte                  *
     190                    ;*****************************************************************************
     191 00000000           sspAesEncryptHW_keylocation:
     192                    ;* --------------------------------------------------------------------------*
     193                    ;* A1    assigned to $O$C1
     194                    ;* V1    assigned to $O$C2
     195                            .dwcfi  cfa_offset, 0
     196 00000000 B51C              PUSH      {A3, A4, V1, LR}      ; [DPU_3_PIPE]  ; [ORIG 16-BIT INS]
     197                            .dwcfi  cfa_offset, 16
     198                            .dwcfi  save_reg_to_mem, 14, -4
     199                            .dwcfi  save_reg_to_mem, 4, -8
     200                            .dwcfi  save_reg_to_mem, 3, -12
     201                            .dwcfi  save_reg_to_mem, 2, -16
     202                            .dwpsn  file "../Application/MAC/HAL/target/hal_aes.c",line 209,column 3,is_stmt,isa 1
     203 00000002 2400              MOVS      V1, #0                ; [DPU_3_PIPE] |209|  ; [ORIG 16-BIT INS]
     204 00000004 2301              MOVS      A4, #1                ; [DPU_3_PIPE] |209|  ; [ORIG 16-BIT INS]
     205 00000006 9400              STR       V1, [SP, #0]          ; [DPU_3_PIPE] |209|  ; [ORIG 16-BIT INS]
     206                    $C$DW$19        .dwtag  DW_TAG_TI_branch
     207                            .dwattr $C$DW$19, DW_AT_low_pc(0x00)
     208                            .dwattr $C$DW$19, DW_AT_name("NOROM_CRYPTOAesEcb")
     209                            .dwattr $C$DW$19, DW_AT_TI_call
     210                    
     211 00000008 FFFEF7FF!         BL        NOROM_CRYPTOAesEcb    ; [DPU_3_PIPE] |209|  ; [KEEP 32-BIT INS]
     212                            ; CALL OCCURS {NOROM_CRYPTOAesEcb }  ; [] |209| 
     213                    ;* --------------------------------------------------------------------------*
     214                    ;*   BEGIN LOOP ||$C$L1||
     215                    ;*
     216                    ;*   Loop source line                : 212
     217                    ;*   Loop closing brace source line  : 215
     218                    ;*   Known Minimum Trip Count        : 1
     219                    ;*   Known Maximum Trip Count        : 4294967295
     220                    ;*   Known Max Trip Count Factor     : 1
TI ARM Assembler PC v16.9.4 Sat Nov 18 18:46:22 2017

Tools Copyright (c) 1996-2017 Texas Instruments Incorporated
C:\Users\Kevin\AppData\Local\Temp\{5FC2008A-5F32-4C25-9FE7-4FDE3869A457} PAGE    5

     221                    ;* --------------------------------------------------------------------------*
     222 0000000c           ||$C$L1||:    
     223 0000000c BF00       NOP ; [ORIG 16-BIT INS]
     224                            .dwpsn  file "../Application/MAC/HAL/target/hal_aes.c",line 215,column 10,is_stmt,isa 1
     225                    $C$DW$20        .dwtag  DW_TAG_TI_branch
     226                            .dwattr $C$DW$20, DW_AT_low_pc(0x00)
     227                            .dwattr $C$DW$20, DW_AT_name("NOROM_CRYPTOAesEcbStatus")
     228                            .dwattr $C$DW$20, DW_AT_TI_call
     229                    
     230 0000000e FFFEF7FF!         BL        NOROM_CRYPTOAesEcbStatus ; [DPU_3_PIPE] |215|  ; [KEEP 32-BIT INS]
     231                            ; CALL OCCURS {NOROM_CRYPTOAesEcbStatus }  ; [] |215| 
     232 00000012 2800              CMP       A1, #0                ; [DPU_3_PIPE] |215|  ; [ORIG 16-BIT INS]
     233 00000014 D0FA              BEQ       ||$C$L1||             ; [DPU_3_PIPE] |215|  ; [ORIG 16-BIT INS]
     234                            ; BRANCHCC OCCURS {||$C$L1||}    ; [] |215| 
     235                    ;* --------------------------------------------------------------------------*
     236                            .dwpsn  file "C:/ti/simplelink_cc13x0_sdk_1_50_00_08/source/ti/devices/cc13x0/driverlib/crypto
     237 00000016 4802              LDR       A1, $C$CON1           ; [DPU_3_PIPE] |356|  ; [ORIG 16-BIT INS]
     238 00000018 41B0F8C0          STR       V1, [A1, #432]        ; [DPU_3_PIPE] |356|  ; [KEEP 32-BIT INS]
     239                            .dwpsn  file "C:/ti/simplelink_cc13x0_sdk_1_50_00_08/source/ti/devices/cc13x0/driverlib/crypto
     240 0000001c 6004              STR       V1, [A1, #0]          ; [DPU_3_PIPE] |357|  ; [ORIG 16-BIT INS]
     241                    $C$DW$21        .dwtag  DW_TAG_TI_branch
     242                            .dwattr $C$DW$21, DW_AT_low_pc(0x00)
     243                            .dwattr $C$DW$21, DW_AT_TI_return
     244                    
     245 0000001e BD1C              POP       {A3, A4, V1, PC}      ; [DPU_3_PIPE]  ; [ORIG 16-BIT INS]
     246                            .dwcfi  cfa_offset, 0
     247                            ; BRANCH OCCURS                  ; [] 
     248                            .dwattr $C$DW$15, DW_AT_TI_end_file("../Application/MAC/HAL/target/hal_aes.c")
     249                            .dwattr $C$DW$15, DW_AT_TI_end_line(0xda)
     250                            .dwattr $C$DW$15, DW_AT_TI_end_column(0x01)
     251                            .dwendentry
     252                            .dwendtag $C$DW$15
     253                    
     254 00000000                   .sect   ".text:sspAesEncryptHW"
     255                            .clink
     256                            .thumbfunc sspAesEncryptHW
     257 00000000                   .thumb
     258                            .global sspAesEncryptHW
     259                    
     260                    $C$DW$22        .dwtag  DW_TAG_subprogram
     261                            .dwattr $C$DW$22, DW_AT_name("sspAesEncryptHW")
     262                            .dwattr $C$DW$22, DW_AT_low_pc(sspAesEncryptHW)
     263                            .dwattr $C$DW$22, DW_AT_high_pc(0x00)
     264                            .dwattr $C$DW$22, DW_AT_TI_symbol_name("sspAesEncryptHW")
     265                            .dwattr $C$DW$22, DW_AT_external
     266                            .dwattr $C$DW$22, DW_AT_TI_begin_file("../Application/MAC/HAL/target/hal_aes.c")
     267                            .dwattr $C$DW$22, DW_AT_TI_begin_line(0x88)
     268                            .dwattr $C$DW$22, DW_AT_TI_begin_column(0x06)
     269                            .dwattr $C$DW$22, DW_AT_decl_file("../Application/MAC/HAL/target/hal_aes.c")
     270                            .dwattr $C$DW$22, DW_AT_decl_line(0x88)
     271                            .dwattr $C$DW$22, DW_AT_decl_column(0x06)
     272                            .dwattr $C$DW$22, DW_AT_TI_max_frame_size(0x10)
     273                            .dwpsn  file "../Application/MAC/HAL/target/hal_aes.c",line 137,column 1,is_stmt,address sspAe
     274                    
     275                            .dwfde $C$DW$CIE, sspAesEncryptHW
TI ARM Assembler PC v16.9.4 Sat Nov 18 18:46:22 2017

Tools Copyright (c) 1996-2017 Texas Instruments Incorporated
C:\Users\Kevin\AppData\Local\Temp\{5FC2008A-5F32-4C25-9FE7-4FDE3869A457} PAGE    6

     276                    $C$DW$23        .dwtag  DW_TAG_formal_parameter
     277                            .dwattr $C$DW$23, DW_AT_name("AesKey")
     278                            .dwattr $C$DW$23, DW_AT_TI_symbol_name("AesKey")
     279                            .dwattr $C$DW$23, DW_AT_type(*$C$DW$T$190)
     280                            .dwattr $C$DW$23, DW_AT_location[DW_OP_reg0]
     281                    
     282                    $C$DW$24        .dwtag  DW_TAG_formal_parameter
     283                            .dwattr $C$DW$24, DW_AT_name("Cstate")
     284                            .dwattr $C$DW$24, DW_AT_TI_symbol_name("Cstate")
     285                            .dwattr $C$DW$24, DW_AT_type(*$C$DW$T$190)
     286                            .dwattr $C$DW$24, DW_AT_location[DW_OP_reg1]
     287                    
     288                    
     289                    ;*****************************************************************************
     290                    ;* FUNCTION NAME: sspAesEncryptHW                                            *
     291                    ;*                                                                           *
     292                    ;*   Regs Modified     : A1,A2,A3,A4,V1,V9,SP,LR,SR                          *
     293                    ;*   Regs Used         : A1,A2,A3,A4,V1,V9,SP,LR,SR                          *
     294                    ;*   Local Frame Size  : 4 Args + 0 Auto + 8 Save = 12 byte                  *
     295                    ;*****************************************************************************
     296                    sspAesEncryptHW:
     297                    ;* --------------------------------------------------------------------------*
     298                    ;* A1    assigned to $O$C1
     299                    ;* V1    assigned to $O$C2
     300                    ;* A2    assigned to Cstate
     301                    $C$DW$25        .dwtag  DW_TAG_variable
     302                            .dwattr $C$DW$25, DW_AT_name("Cstate")
     303                            .dwattr $C$DW$25, DW_AT_TI_symbol_name("Cstate")
     304                            .dwattr $C$DW$25, DW_AT_type(*$C$DW$T$212)
     305                            .dwattr $C$DW$25, DW_AT_location[DW_OP_reg1]
     306                    
     307                            .dwcfi  cfa_offset, 0
     308 00000000 B51C              PUSH      {A3, A4, V1, LR}      ; [DPU_3_PIPE]  ; [ORIG 16-BIT INS]
     309                            .dwcfi  cfa_offset, 16
     310                            .dwcfi  save_reg_to_mem, 14, -4
     311                            .dwcfi  save_reg_to_mem, 4, -8
     312                            .dwcfi  save_reg_to_mem, 3, -12
     313                            .dwcfi  save_reg_to_mem, 2, -16
     314                            .dwpsn  file "../Application/MAC/HAL/target/hal_aes.c",line 141,column 3,is_stmt,isa 1
     315 00000002 2400              MOVS      V1, #0                ; [DPU_3_PIPE] |141|  ; [ORIG 16-BIT INS]
     316 00000004 4608              MOV       A1, A2                ; [DPU_3_PIPE] |141|  ; [ORIG 16-BIT INS]
     317 00000006 2301              MOVS      A4, #1                ; [DPU_3_PIPE] |141|  ; [ORIG 16-BIT INS]
     318 00000008 4622              MOV       A3, V1                ; [DPU_3_PIPE] |141|  ; [ORIG 16-BIT INS]
     319 0000000a 9400              STR       V1, [SP, #0]          ; [DPU_3_PIPE] |141|  ; [ORIG 16-BIT INS]
     320                    $C$DW$26        .dwtag  DW_TAG_TI_branch
     321                            .dwattr $C$DW$26, DW_AT_low_pc(0x00)
     322                            .dwattr $C$DW$26, DW_AT_name("NOROM_CRYPTOAesEcb")
     323                            .dwattr $C$DW$26, DW_AT_TI_call
     324                    
     325 0000000c FFFEF7FF!         BL        NOROM_CRYPTOAesEcb    ; [DPU_3_PIPE] |141|  ; [KEEP 32-BIT INS]
     326                            ; CALL OCCURS {NOROM_CRYPTOAesEcb }  ; [] |141| 
     327                    ;* --------------------------------------------------------------------------*
     328                    ;*   BEGIN LOOP ||$C$L2||
     329                    ;*
     330                    ;*   Loop source line                : 144
TI ARM Assembler PC v16.9.4 Sat Nov 18 18:46:22 2017

Tools Copyright (c) 1996-2017 Texas Instruments Incorporated
C:\Users\Kevin\AppData\Local\Temp\{5FC2008A-5F32-4C25-9FE7-4FDE3869A457} PAGE    7

     331                    ;*   Loop closing brace source line  : 147
     332                    ;*   Known Minimum Trip Count        : 1
     333                    ;*   Known Maximum Trip Count        : 4294967295
     334                    ;*   Known Max Trip Count Factor     : 1
     335                    ;* --------------------------------------------------------------------------*
     336 00000010           ||$C$L2||:    
     337 00000010 BF00       NOP ; [ORIG 16-BIT INS]
     338                            .dwpsn  file "../Application/MAC/HAL/target/hal_aes.c",line 144,column 3,is_stmt,isa 1
     339                    $C$DW$27        .dwtag  DW_TAG_TI_branch
     340                            .dwattr $C$DW$27, DW_AT_low_pc(0x00)
     341                            .dwattr $C$DW$27, DW_AT_name("NOROM_CRYPTOAesEcbStatus")
     342                            .dwattr $C$DW$27, DW_AT_TI_call
     343                    
     344 00000012 FFFEF7FF!         BL        NOROM_CRYPTOAesEcbStatus ; [DPU_3_PIPE] |144|  ; [KEEP 32-BIT INS]
     345                            ; CALL OCCURS {NOROM_CRYPTOAesEcbStatus }  ; [] |144| 
     346 00000016 2800              CMP       A1, #0                ; [DPU_3_PIPE] |144|  ; [ORIG 16-BIT INS]
     347 00000018 D1FA              BNE       ||$C$L2||             ; [DPU_3_PIPE] |144|  ; [ORIG 16-BIT INS]
     348                            ; BRANCHCC OCCURS {||$C$L2||}    ; [] |144| 
     349                    ;* --------------------------------------------------------------------------*
     350                            .dwpsn  file "C:/ti/simplelink_cc13x0_sdk_1_50_00_08/source/ti/devices/cc13x0/driverlib/crypto
     351 0000001a 4802              LDR       A1, $C$CON2           ; [DPU_3_PIPE] |356|  ; [ORIG 16-BIT INS]
     352 0000001c 41B0F8C0          STR       V1, [A1, #432]        ; [DPU_3_PIPE] |356|  ; [KEEP 32-BIT INS]
     353                            .dwpsn  file "C:/ti/simplelink_cc13x0_sdk_1_50_00_08/source/ti/devices/cc13x0/driverlib/crypto
     354 00000020 6004              STR       V1, [A1, #0]          ; [DPU_3_PIPE] |357|  ; [ORIG 16-BIT INS]
     355                    $C$DW$28        .dwtag  DW_TAG_TI_branch
     356                            .dwattr $C$DW$28, DW_AT_low_pc(0x00)
     357                            .dwattr $C$DW$28, DW_AT_TI_return
     358                    
     359 00000022 BD1C              POP       {A3, A4, V1, PC}      ; [DPU_3_PIPE]  ; [ORIG 16-BIT INS]
     360                            .dwcfi  cfa_offset, 0
     361                            ; BRANCH OCCURS                  ; [] 
     362                            .dwattr $C$DW$22, DW_AT_TI_end_file("../Application/MAC/HAL/target/hal_aes.c")
     363                            .dwattr $C$DW$22, DW_AT_TI_end_line(0x96)
     364                            .dwattr $C$DW$22, DW_AT_TI_end_column(0x01)
     365                            .dwendentry
     366                            .dwendtag $C$DW$22
     367                    
     368 00000000                   .sect   ".text:sspAesDecryptHW_keylocation"
     369                            .clink
     370                            .thumbfunc sspAesDecryptHW_keylocation
     371 00000000                   .thumb
     372                            .global sspAesDecryptHW_keylocation
     373                    
     374                    $C$DW$29        .dwtag  DW_TAG_subprogram
     375                            .dwattr $C$DW$29, DW_AT_name("sspAesDecryptHW_keylocation")
     376                            .dwattr $C$DW$29, DW_AT_low_pc(sspAesDecryptHW_keylocation)
     377                            .dwattr $C$DW$29, DW_AT_high_pc(0x00)
     378                            .dwattr $C$DW$29, DW_AT_TI_symbol_name("sspAesDecryptHW_keylocation")
     379                            .dwattr $C$DW$29, DW_AT_external
     380                            .dwattr $C$DW$29, DW_AT_TI_begin_file("../Application/MAC/HAL/target/hal_aes.c")
     381                            .dwattr $C$DW$29, DW_AT_TI_begin_line(0xee)
     382                            .dwattr $C$DW$29, DW_AT_TI_begin_column(0x06)
     383                            .dwattr $C$DW$29, DW_AT_decl_file("../Application/MAC/HAL/target/hal_aes.c")
     384                            .dwattr $C$DW$29, DW_AT_decl_line(0xee)
     385                            .dwattr $C$DW$29, DW_AT_decl_column(0x06)
TI ARM Assembler PC v16.9.4 Sat Nov 18 18:46:22 2017

Tools Copyright (c) 1996-2017 Texas Instruments Incorporated
C:\Users\Kevin\AppData\Local\Temp\{5FC2008A-5F32-4C25-9FE7-4FDE3869A457} PAGE    8

     386                            .dwattr $C$DW$29, DW_AT_TI_max_frame_size(0x10)
     387                            .dwpsn  file "../Application/MAC/HAL/target/hal_aes.c",line 239,column 1,is_stmt,address sspAe
     388                    
     389                            .dwfde $C$DW$CIE, sspAesDecryptHW_keylocation
     390                    $C$DW$30        .dwtag  DW_TAG_formal_parameter
     391                            .dwattr $C$DW$30, DW_AT_name("msg_in")
     392                            .dwattr $C$DW$30, DW_AT_TI_symbol_name("msg_in")
     393                            .dwattr $C$DW$30, DW_AT_type(*$C$DW$T$190)
     394                            .dwattr $C$DW$30, DW_AT_location[DW_OP_reg0]
     395                    
     396                    $C$DW$31        .dwtag  DW_TAG_formal_parameter
     397                            .dwattr $C$DW$31, DW_AT_name("msg_out")
     398                            .dwattr $C$DW$31, DW_AT_TI_symbol_name("msg_out")
     399                            .dwattr $C$DW$31, DW_AT_type(*$C$DW$T$190)
     400                            .dwattr $C$DW$31, DW_AT_location[DW_OP_reg1]
     401                    
     402                    $C$DW$32        .dwtag  DW_TAG_formal_parameter
     403                            .dwattr $C$DW$32, DW_AT_name("key_location")
     404                            .dwattr $C$DW$32, DW_AT_TI_symbol_name("key_location")
     405                            .dwattr $C$DW$32, DW_AT_type(*$C$DW$T$30)
     406                            .dwattr $C$DW$32, DW_AT_location[DW_OP_reg2]
     407                    
     408                    
     409                    ;*****************************************************************************
     410                    ;* FUNCTION NAME: sspAesDecryptHW_keylocation                                *
     411                    ;*                                                                           *
     412                    ;*   Regs Modified     : A1,A2,A3,A4,V1,V9,SP,LR,SR                          *
     413                    ;*   Regs Used         : A1,A2,A3,A4,V1,V9,SP,LR,SR                          *
     414                    ;*   Local Frame Size  : 4 Args + 0 Auto + 8 Save = 12 byte                  *
     415                    ;*****************************************************************************
     416 00000000           sspAesDecryptHW_keylocation:
     417                    ;* --------------------------------------------------------------------------*
     418                    ;* A1    assigned to $O$C1
     419                    ;* V1    assigned to $O$C2
     420                            .dwcfi  cfa_offset, 0
     421 00000000 B51C              PUSH      {A3, A4, V1, LR}      ; [DPU_3_PIPE]  ; [ORIG 16-BIT INS]
     422                            .dwcfi  cfa_offset, 16
     423                            .dwcfi  save_reg_to_mem, 14, -4
     424                            .dwcfi  save_reg_to_mem, 4, -8
     425                            .dwcfi  save_reg_to_mem, 3, -12
     426                            .dwcfi  save_reg_to_mem, 2, -16
     427                            .dwpsn  file "../Application/MAC/HAL/target/hal_aes.c",line 243,column 3,is_stmt,isa 1
     428 00000002 2400              MOVS      V1, #0                ; [DPU_3_PIPE] |243|  ; [ORIG 16-BIT INS]
     429 00000004 4623              MOV       A4, V1                ; [DPU_3_PIPE] |243|  ; [ORIG 16-BIT INS]
     430 00000006 9400              STR       V1, [SP, #0]          ; [DPU_3_PIPE] |243|  ; [ORIG 16-BIT INS]
     431                    $C$DW$33        .dwtag  DW_TAG_TI_branch
     432                            .dwattr $C$DW$33, DW_AT_low_pc(0x00)
     433                            .dwattr $C$DW$33, DW_AT_name("NOROM_CRYPTOAesEcb")
     434                            .dwattr $C$DW$33, DW_AT_TI_call
     435                    
     436 00000008 FFFEF7FF!         BL        NOROM_CRYPTOAesEcb    ; [DPU_3_PIPE] |243|  ; [KEEP 32-BIT INS]
     437                            ; CALL OCCURS {NOROM_CRYPTOAesEcb }  ; [] |243| 
     438                    ;* --------------------------------------------------------------------------*
     439                    ;*   BEGIN LOOP ||$C$L3||
     440                    ;*
TI ARM Assembler PC v16.9.4 Sat Nov 18 18:46:22 2017

Tools Copyright (c) 1996-2017 Texas Instruments Incorporated
C:\Users\Kevin\AppData\Local\Temp\{5FC2008A-5F32-4C25-9FE7-4FDE3869A457} PAGE    9

     441                    ;*   Loop source line                : 246
     442                    ;*   Loop closing brace source line  : 249
     443                    ;*   Known Minimum Trip Count        : 1
     444                    ;*   Known Maximum Trip Count        : 4294967295
     445                    ;*   Known Max Trip Count Factor     : 1
     446                    ;* --------------------------------------------------------------------------*
     447 0000000c           ||$C$L3||:    
     448 0000000c BF00       NOP ; [ORIG 16-BIT INS]
     449                            .dwpsn  file "../Application/MAC/HAL/target/hal_aes.c",line 246,column 3,is_stmt,isa 1
     450                    $C$DW$34        .dwtag  DW_TAG_TI_branch
     451                            .dwattr $C$DW$34, DW_AT_low_pc(0x00)
     452                            .dwattr $C$DW$34, DW_AT_name("NOROM_CRYPTOAesEcbStatus")
     453                            .dwattr $C$DW$34, DW_AT_TI_call
     454                    
     455 0000000e FFFEF7FF!         BL        NOROM_CRYPTOAesEcbStatus ; [DPU_3_PIPE] |246|  ; [KEEP 32-BIT INS]
     456                            ; CALL OCCURS {NOROM_CRYPTOAesEcbStatus }  ; [] |246| 
     457 00000012 2800              CMP       A1, #0                ; [DPU_3_PIPE] |246|  ; [ORIG 16-BIT INS]
     458 00000014 D1FA              BNE       ||$C$L3||             ; [DPU_3_PIPE] |246|  ; [ORIG 16-BIT INS]
     459                            ; BRANCHCC OCCURS {||$C$L3||}    ; [] |246| 
     460                    ;* --------------------------------------------------------------------------*
     461                            .dwpsn  file "C:/ti/simplelink_cc13x0_sdk_1_50_00_08/source/ti/devices/cc13x0/driverlib/crypto
     462 00000016 4802              LDR       A1, $C$CON3           ; [DPU_3_PIPE] |356|  ; [ORIG 16-BIT INS]
     463 00000018 41B0F8C0          STR       V1, [A1, #432]        ; [DPU_3_PIPE] |356|  ; [KEEP 32-BIT INS]
     464                            .dwpsn  file "C:/ti/simplelink_cc13x0_sdk_1_50_00_08/source/ti/devices/cc13x0/driverlib/crypto
     465 0000001c 6004              STR       V1, [A1, #0]          ; [DPU_3_PIPE] |357|  ; [ORIG 16-BIT INS]
     466                    $C$DW$35        .dwtag  DW_TAG_TI_branch
     467                            .dwattr $C$DW$35, DW_AT_low_pc(0x00)
     468                            .dwattr $C$DW$35, DW_AT_TI_return
     469                    
     470 0000001e BD1C              POP       {A3, A4, V1, PC}      ; [DPU_3_PIPE]  ; [ORIG 16-BIT INS]
     471                            .dwcfi  cfa_offset, 0
     472                            ; BRANCH OCCURS                  ; [] 
     473                            .dwattr $C$DW$29, DW_AT_TI_end_file("../Application/MAC/HAL/target/hal_aes.c")
     474                            .dwattr $C$DW$29, DW_AT_TI_end_line(0xfc)
     475                            .dwattr $C$DW$29, DW_AT_TI_end_column(0x01)
     476                            .dwendentry
     477                            .dwendtag $C$DW$29
     478                    
     479 00000000                   .sect   ".text:sspAesDecryptHW"
     480                            .clink
     481                            .thumbfunc sspAesDecryptHW
     482 00000000                   .thumb
     483                            .global sspAesDecryptHW
     484                    
     485                    $C$DW$36        .dwtag  DW_TAG_subprogram
     486                            .dwattr $C$DW$36, DW_AT_name("sspAesDecryptHW")
     487                            .dwattr $C$DW$36, DW_AT_low_pc(sspAesDecryptHW)
     488                            .dwattr $C$DW$36, DW_AT_high_pc(0x00)
     489                            .dwattr $C$DW$36, DW_AT_TI_symbol_name("sspAesDecryptHW")
     490                            .dwattr $C$DW$36, DW_AT_external
     491                            .dwattr $C$DW$36, DW_AT_TI_begin_file("../Application/MAC/HAL/target/hal_aes.c")
     492                            .dwattr $C$DW$36, DW_AT_TI_begin_line(0xaa)
     493                            .dwattr $C$DW$36, DW_AT_TI_begin_column(0x06)
     494                            .dwattr $C$DW$36, DW_AT_decl_file("../Application/MAC/HAL/target/hal_aes.c")
     495                            .dwattr $C$DW$36, DW_AT_decl_line(0xaa)
TI ARM Assembler PC v16.9.4 Sat Nov 18 18:46:22 2017

Tools Copyright (c) 1996-2017 Texas Instruments Incorporated
C:\Users\Kevin\AppData\Local\Temp\{5FC2008A-5F32-4C25-9FE7-4FDE3869A457} PAGE   10

     496                            .dwattr $C$DW$36, DW_AT_decl_column(0x06)
     497                            .dwattr $C$DW$36, DW_AT_TI_max_frame_size(0x10)
     498                            .dwpsn  file "../Application/MAC/HAL/target/hal_aes.c",line 171,column 1,is_stmt,address sspAe
     499                    
     500                            .dwfde $C$DW$CIE, sspAesDecryptHW
     501                    $C$DW$37        .dwtag  DW_TAG_formal_parameter
     502                            .dwattr $C$DW$37, DW_AT_name("AesKey")
     503                            .dwattr $C$DW$37, DW_AT_TI_symbol_name("AesKey")
     504                            .dwattr $C$DW$37, DW_AT_type(*$C$DW$T$190)
     505                            .dwattr $C$DW$37, DW_AT_location[DW_OP_reg0]
     506                    
     507                    $C$DW$38        .dwtag  DW_TAG_formal_parameter
     508                            .dwattr $C$DW$38, DW_AT_name("Cstate")
     509                            .dwattr $C$DW$38, DW_AT_TI_symbol_name("Cstate")
     510                            .dwattr $C$DW$38, DW_AT_type(*$C$DW$T$190)
     511                            .dwattr $C$DW$38, DW_AT_location[DW_OP_reg1]
     512                    
     513                    
     514                    ;*****************************************************************************
     515                    ;* FUNCTION NAME: sspAesDecryptHW                                            *
     516                    ;*                                                                           *
     517                    ;*   Regs Modified     : A1,A2,A3,A4,V1,V9,SP,LR,SR                          *
     518                    ;*   Regs Used         : A1,A2,A3,A4,V1,V9,SP,LR,SR                          *
     519                    ;*   Local Frame Size  : 4 Args + 0 Auto + 8 Save = 12 byte                  *
     520                    ;*****************************************************************************
     521                    sspAesDecryptHW:
     522                    ;* --------------------------------------------------------------------------*
     523                    ;* A1    assigned to $O$C1
     524                    ;* V1    assigned to $O$C2
     525                    ;* A2    assigned to Cstate
     526                    $C$DW$39        .dwtag  DW_TAG_variable
     527                            .dwattr $C$DW$39, DW_AT_name("Cstate")
     528                            .dwattr $C$DW$39, DW_AT_TI_symbol_name("Cstate")
     529                            .dwattr $C$DW$39, DW_AT_type(*$C$DW$T$212)
     530                            .dwattr $C$DW$39, DW_AT_location[DW_OP_reg1]
     531                    
     532                            .dwcfi  cfa_offset, 0
     533 00000000 B51C              PUSH      {A3, A4, V1, LR}      ; [DPU_3_PIPE]  ; [ORIG 16-BIT INS]
     534                            .dwcfi  cfa_offset, 16
     535                            .dwcfi  save_reg_to_mem, 14, -4
     536                            .dwcfi  save_reg_to_mem, 4, -8
     537                            .dwcfi  save_reg_to_mem, 3, -12
     538                            .dwcfi  save_reg_to_mem, 2, -16
     539                            .dwpsn  file "../Application/MAC/HAL/target/hal_aes.c",line 175,column 3,is_stmt,isa 1
     540 00000002 2400              MOVS      V1, #0                ; [DPU_3_PIPE] |175|  ; [ORIG 16-BIT INS]
     541 00000004 4608              MOV       A1, A2                ; [DPU_3_PIPE] |175|  ; [ORIG 16-BIT INS]
     542 00000006 4622              MOV       A3, V1                ; [DPU_3_PIPE] |175|  ; [ORIG 16-BIT INS]
     543 00000008 9400              STR       V1, [SP, #0]          ; [DPU_3_PIPE] |175|  ; [ORIG 16-BIT INS]
     544 0000000a 4613              MOV       A4, A3                ; [DPU_3_PIPE] |175|  ; [ORIG 16-BIT INS]
     545                    $C$DW$40        .dwtag  DW_TAG_TI_branch
     546                            .dwattr $C$DW$40, DW_AT_low_pc(0x00)
     547                            .dwattr $C$DW$40, DW_AT_name("NOROM_CRYPTOAesEcb")
     548                            .dwattr $C$DW$40, DW_AT_TI_call
     549                    
     550 0000000c FFFEF7FF!         BL        NOROM_CRYPTOAesEcb    ; [DPU_3_PIPE] |175|  ; [KEEP 32-BIT INS]
TI ARM Assembler PC v16.9.4 Sat Nov 18 18:46:22 2017

Tools Copyright (c) 1996-2017 Texas Instruments Incorporated
C:\Users\Kevin\AppData\Local\Temp\{5FC2008A-5F32-4C25-9FE7-4FDE3869A457} PAGE   11

     551                            ; CALL OCCURS {NOROM_CRYPTOAesEcb }  ; [] |175| 
     552                    ;* --------------------------------------------------------------------------*
     553                    ;*   BEGIN LOOP ||$C$L4||
     554                    ;*
     555                    ;*   Loop source line                : 178
     556                    ;*   Loop closing brace source line  : 181
     557                    ;*   Known Minimum Trip Count        : 1
     558                    ;*   Known Maximum Trip Count        : 4294967295
     559                    ;*   Known Max Trip Count Factor     : 1
     560                    ;* --------------------------------------------------------------------------*
     561 00000010           ||$C$L4||:    
     562 00000010 BF00       NOP ; [ORIG 16-BIT INS]
     563                            .dwpsn  file "../Application/MAC/HAL/target/hal_aes.c",line 181,column 10,is_stmt,isa 1
     564                    $C$DW$41        .dwtag  DW_TAG_TI_branch
     565                            .dwattr $C$DW$41, DW_AT_low_pc(0x00)
     566                            .dwattr $C$DW$41, DW_AT_name("NOROM_CRYPTOAesEcbStatus")
     567                            .dwattr $C$DW$41, DW_AT_TI_call
     568                    
     569 00000012 FFFEF7FF!         BL        NOROM_CRYPTOAesEcbStatus ; [DPU_3_PIPE] |181|  ; [KEEP 32-BIT INS]
     570                            ; CALL OCCURS {NOROM_CRYPTOAesEcbStatus }  ; [] |181| 
     571 00000016 2800              CMP       A1, #0                ; [DPU_3_PIPE] |181|  ; [ORIG 16-BIT INS]
     572 00000018 D0FA              BEQ       ||$C$L4||             ; [DPU_3_PIPE] |181|  ; [ORIG 16-BIT INS]
     573                            ; BRANCHCC OCCURS {||$C$L4||}    ; [] |181| 
     574                    ;* --------------------------------------------------------------------------*
     575                            .dwpsn  file "C:/ti/simplelink_cc13x0_sdk_1_50_00_08/source/ti/devices/cc13x0/driverlib/crypto
     576 0000001a 4802              LDR       A1, $C$CON4           ; [DPU_3_PIPE] |356|  ; [ORIG 16-BIT INS]
     577 0000001c 41B0F8C0          STR       V1, [A1, #432]        ; [DPU_3_PIPE] |356|  ; [KEEP 32-BIT INS]
     578                            .dwpsn  file "C:/ti/simplelink_cc13x0_sdk_1_50_00_08/source/ti/devices/cc13x0/driverlib/crypto
     579 00000020 6004              STR       V1, [A1, #0]          ; [DPU_3_PIPE] |357|  ; [ORIG 16-BIT INS]
     580                    $C$DW$42        .dwtag  DW_TAG_TI_branch
     581                            .dwattr $C$DW$42, DW_AT_low_pc(0x00)
     582                            .dwattr $C$DW$42, DW_AT_TI_return
     583                    
     584 00000022 BD1C              POP       {A3, A4, V1, PC}      ; [DPU_3_PIPE]  ; [ORIG 16-BIT INS]
     585                            .dwcfi  cfa_offset, 0
     586                            ; BRANCH OCCURS                  ; [] 
     587                            .dwattr $C$DW$36, DW_AT_TI_end_file("../Application/MAC/HAL/target/hal_aes.c")
     588                            .dwattr $C$DW$36, DW_AT_TI_end_line(0xb8)
     589                            .dwattr $C$DW$36, DW_AT_TI_end_column(0x01)
     590                            .dwendentry
     591                            .dwendtag $C$DW$36
     592                    
     593 00000000                   .sect   ".text:HalAesInit"
     594                            .clink
     595                            .thumbfunc HalAesInit
     596 00000000                   .thumb
     597                            .global HalAesInit
     598                    
     599                    $C$DW$43        .dwtag  DW_TAG_subprogram
     600                            .dwattr $C$DW$43, DW_AT_name("HalAesInit")
     601                            .dwattr $C$DW$43, DW_AT_low_pc(HalAesInit)
     602                            .dwattr $C$DW$43, DW_AT_high_pc(0x00)
     603                            .dwattr $C$DW$43, DW_AT_TI_symbol_name("HalAesInit")
     604                            .dwattr $C$DW$43, DW_AT_external
     605                            .dwattr $C$DW$43, DW_AT_TI_begin_file("../Application/MAC/HAL/target/hal_aes.c")
TI ARM Assembler PC v16.9.4 Sat Nov 18 18:46:22 2017

Tools Copyright (c) 1996-2017 Texas Instruments Incorporated
C:\Users\Kevin\AppData\Local\Temp\{5FC2008A-5F32-4C25-9FE7-4FDE3869A457} PAGE   12

     606                            .dwattr $C$DW$43, DW_AT_TI_begin_line(0x5c)
     607                            .dwattr $C$DW$43, DW_AT_TI_begin_column(0x06)
     608                            .dwattr $C$DW$43, DW_AT_decl_file("../Application/MAC/HAL/target/hal_aes.c")
     609                            .dwattr $C$DW$43, DW_AT_decl_line(0x5c)
     610                            .dwattr $C$DW$43, DW_AT_decl_column(0x06)
     611                            .dwattr $C$DW$43, DW_AT_TI_max_frame_size(0x00)
     612                            .dwpsn  file "../Application/MAC/HAL/target/hal_aes.c",line 93,column 1,is_stmt,address HalAes
     613                    
     614                            .dwfde $C$DW$CIE, HalAesInit
     615                    
     616                    ;*****************************************************************************
     617                    ;* FUNCTION NAME: HalAesInit                                                 *
     618                    ;*                                                                           *
     619                    ;*   Regs Modified     : A1,A2                                               *
     620                    ;*   Regs Used         : A1,A2,LR                                            *
     621                    ;*   Local Frame Size  : 0 Args + 0 Auto + 0 Save = 0 byte                   *
     622                    ;*****************************************************************************
     623 00000000           HalAesInit:
     624                    ;* --------------------------------------------------------------------------*
     625                    ;* A1    assigned to $O$C1
     626                            .dwcfi  cfa_offset, 0
     627                            .dwpsn  file "../Application/MAC/HAL/target/hal_aes.c",line 94,column 3,is_stmt,isa 1
     628 00000000 4804              LDR       A1, $C$CON5           ; [DPU_3_PIPE] |94|  ; [ORIG 16-BIT INS]
     629 00000002 6801              LDR       A2, [A1, #0]          ; [DPU_3_PIPE] |94|  ; [ORIG 16-BIT INS]
     630 00000004 0101F041          ORR       A2, A2, #1            ; [DPU_3_PIPE] |94|  ; [KEEP 32-BIT INS]
     631 00000008 6001              STR       A2, [A1, #0]          ; [DPU_3_PIPE] |94|  ; [ORIG 16-BIT INS]
     632                            .dwpsn  file "../Application/MAC/HAL/target/hal_aes.c",line 95,column 3,is_stmt,isa 1
     633 0000000a 6841              LDR       A2, [A1, #4]          ; [DPU_3_PIPE] |95|  ; [ORIG 16-BIT INS]
     634 0000000c 0103F041          ORR       A2, A2, #3            ; [DPU_3_PIPE] |95|  ; [KEEP 32-BIT INS]
     635 00000010 6041              STR       A2, [A1, #4]          ; [DPU_3_PIPE] |95|  ; [ORIG 16-BIT INS]
     636                    $C$DW$44        .dwtag  DW_TAG_TI_branch
     637                            .dwattr $C$DW$44, DW_AT_low_pc(0x00)
     638                            .dwattr $C$DW$44, DW_AT_TI_return
     639                    
     640 00000012 4770              BX        LR                    ; [DPU_3_PIPE]  ; [ORIG 16-BIT INS]
     641                            ; BRANCH OCCURS                  ; [] 
     642                            .dwattr $C$DW$43, DW_AT_TI_end_file("../Application/MAC/HAL/target/hal_aes.c")
     643                            .dwattr $C$DW$43, DW_AT_TI_end_line(0x60)
     644                            .dwattr $C$DW$43, DW_AT_TI_end_column(0x01)
     645                            .dwendentry
     646                            .dwendtag $C$DW$43
     647                    
     648                    ;******************************************************************************
     649                    ;* CONSTANT TABLE                                                             *
     650                    ;******************************************************************************
     651 00000020                   .sect   ".text:sspAesEncryptHW_keylocation"
     652                            .align  4
     653 00000020 40024550  ||$C$CON1||:    .bits   1073890640,32
     654                    ;******************************************************************************
     655                    ;* CONSTANT TABLE                                                             *
     656                    ;******************************************************************************
     657 00000024                   .sect   ".text:sspAesEncryptHW"
     658                            .align  4
     659 00000024 40024550  ||$C$CON2||:    .bits   1073890640,32
     660                    ;******************************************************************************
TI ARM Assembler PC v16.9.4 Sat Nov 18 18:46:22 2017

Tools Copyright (c) 1996-2017 Texas Instruments Incorporated
C:\Users\Kevin\AppData\Local\Temp\{5FC2008A-5F32-4C25-9FE7-4FDE3869A457} PAGE   13

     661                    ;* CONSTANT TABLE                                                             *
     662                    ;******************************************************************************
     663 00000020                   .sect   ".text:sspAesDecryptHW_keylocation"
     664                            .align  4
     665 00000020 40024550  ||$C$CON3||:    .bits   1073890640,32
     666                    ;******************************************************************************
     667                    ;* CONSTANT TABLE                                                             *
     668                    ;******************************************************************************
     669 00000024                   .sect   ".text:sspAesDecryptHW"
     670                            .align  4
     671 00000024 40024550  ||$C$CON4||:    .bits   1073890640,32
     672                    ;******************************************************************************
     673                    ;* CONSTANT TABLE                                                             *
     674                    ;******************************************************************************
     675 00000014                   .sect   ".text:HalAesInit"
     676                            .align  4
     677 00000014 40024780  ||$C$CON5||:    .bits   1073891200,32
     678                    ;*****************************************************************************
     679                    ;* UNDEFINED EXTERNAL REFERENCES                                             *
     680                    ;*****************************************************************************
     681                            .global NOROM_CRYPTOAesLoadKey
     682                            .global NOROM_CRYPTOAesEcb
     683                            .global NOROM_CRYPTOAesEcbStatus
     684                    
     685                    ;******************************************************************************
     686                    ;* BUILD ATTRIBUTES                                                           *
     687                    ;******************************************************************************
     688                            .battr "aeabi", Tag_File, 1, Tag_ABI_PCS_wchar_t(2)
     689                            .battr "aeabi", Tag_File, 1, Tag_ABI_FP_rounding(0)
     690                            .battr "aeabi", Tag_File, 1, Tag_ABI_FP_denormal(0)
     691                            .battr "aeabi", Tag_File, 1, Tag_ABI_FP_exceptions(0)
     692                            .battr "aeabi", Tag_File, 1, Tag_ABI_FP_number_model(1)
     693                            .battr "aeabi", Tag_File, 1, Tag_ABI_enum_size(1)
     694                            .battr "aeabi", Tag_File, 1, Tag_ABI_optimization_goals(0)
     695                            .battr "aeabi", Tag_File, 1, Tag_ABI_FP_optimization_goals(0)
     696                            .battr "TI", Tag_File, 1, Tag_Bitfield_layout(2)
     697                            .battr "aeabi", Tag_File, 1, Tag_ABI_VFP_args(3)
     698                            .battr "TI", Tag_File, 1, Tag_FP_interface(1)
     699                    
     700                    ;******************************************************************************
     701                    ;* TYPE INFORMATION                                                           *
     702                    ;******************************************************************************
     703                    
     704                    $C$DW$T$168     .dwtag  DW_TAG_enumeration_type
     705                            .dwattr $C$DW$T$168, DW_AT_byte_size(0x01)
     706                    $C$DW$45        .dwtag  DW_TAG_enumerator
     707                            .dwattr $C$DW$45, DW_AT_name("ICALL_RTI_APP_CMD_EVENT")
     708                            .dwattr $C$DW$45, DW_AT_const_value(0xe0)
     709                            .dwattr $C$DW$45, DW_AT_decl_file("C:/ti/simplelink_cc13x0_sdk_1_50_00_08/source/ti/ti154stack
     710                            .dwattr $C$DW$45, DW_AT_decl_line(0x3de)
     711                            .dwattr $C$DW$45, DW_AT_decl_column(0x04)
     712                    
     713                    $C$DW$46        .dwtag  DW_TAG_enumerator
     714                            .dwattr $C$DW$46, DW_AT_name("ICALL_RTI_STACK_CMD_EVENT")
     715                            .dwattr $C$DW$46, DW_AT_const_value(0xe1)
TI ARM Assembler PC v16.9.4 Sat Nov 18 18:46:22 2017

Tools Copyright (c) 1996-2017 Texas Instruments Incorporated
C:\Users\Kevin\AppData\Local\Temp\{5FC2008A-5F32-4C25-9FE7-4FDE3869A457} PAGE   14

     716                            .dwattr $C$DW$46, DW_AT_decl_file("C:/ti/simplelink_cc13x0_sdk_1_50_00_08/source/ti/ti154stack
     717                            .dwattr $C$DW$46, DW_AT_decl_line(0x3e0)
     718                            .dwattr $C$DW$46, DW_AT_decl_column(0x04)
     719                    
     720                    $C$DW$47        .dwtag  DW_TAG_enumerator
     721                            .dwattr $C$DW$47, DW_AT_name("ICALL_RTI_APP_ASYNC_CMD_EVENT")
     722                            .dwattr $C$DW$47, DW_AT_const_value(0xe2)
     723                            .dwattr $C$DW$47, DW_AT_decl_file("C:/ti/simplelink_cc13x0_sdk_1_50_00_08/source/ti/ti154stack
     724                            .dwattr $C$DW$47, DW_AT_decl_line(0x3e2)
     725                            .dwattr $C$DW$47, DW_AT_decl_column(0x04)
     726                    
     727                    $C$DW$48        .dwtag  DW_TAG_enumerator
     728                            .dwattr $C$DW$48, DW_AT_name("ICALL_RTI_APP_SYNC_CMD_EVENT")
     729                            .dwattr $C$DW$48, DW_AT_const_value(0xe3)
     730                            .dwattr $C$DW$48, DW_AT_decl_file("C:/ti/simplelink_cc13x0_sdk_1_50_00_08/source/ti/ti154stack
     731                            .dwattr $C$DW$48, DW_AT_decl_line(0x3e4)
     732                            .dwattr $C$DW$48, DW_AT_decl_column(0x04)
     733                    
     734                    $C$DW$49        .dwtag  DW_TAG_enumerator
     735                            .dwattr $C$DW$49, DW_AT_name("ICALL_RCN_APP_ASYNC_CMD_EVENT")
     736                            .dwattr $C$DW$49, DW_AT_const_value(0xe4)
     737                            .dwattr $C$DW$49, DW_AT_decl_file("C:/ti/simplelink_cc13x0_sdk_1_50_00_08/source/ti/ti154stack
     738                            .dwattr $C$DW$49, DW_AT_decl_line(0x3e6)
     739                            .dwattr $C$DW$49, DW_AT_decl_column(0x04)
     740                    
     741                    $C$DW$50        .dwtag  DW_TAG_enumerator
     742                            .dwattr $C$DW$50, DW_AT_name("ICALL_RCN_APP_SYNC_CMD_EVENT")
     743                            .dwattr $C$DW$50, DW_AT_const_value(0xe5)
     744                            .dwattr $C$DW$50, DW_AT_decl_file("C:/ti/simplelink_cc13x0_sdk_1_50_00_08/source/ti/ti154stack
     745                            .dwattr $C$DW$50, DW_AT_decl_line(0x3e8)
     746                            .dwattr $C$DW$50, DW_AT_decl_column(0x04)
     747                    
     748                            .dwattr $C$DW$T$168, DW_AT_decl_file("C:/ti/simplelink_cc13x0_sdk_1_50_00_08/source/ti/ti154st
     749                            .dwattr $C$DW$T$168, DW_AT_decl_line(0x3dc)
     750                            .dwattr $C$DW$T$168, DW_AT_decl_column(0x01)
     751                            .dwendtag $C$DW$T$168
     752                    
     753                    $C$DW$T$169     .dwtag  DW_TAG_typedef
     754                            .dwattr $C$DW$T$169, DW_AT_name("ICall_RemotiCmdEvent_t")
     755                            .dwattr $C$DW$T$169, DW_AT_type(*$C$DW$T$168)
     756                            .dwattr $C$DW$T$169, DW_AT_language(DW_LANG_C)
     757                            .dwattr $C$DW$T$169, DW_AT_decl_file("C:/ti/simplelink_cc13x0_sdk_1_50_00_08/source/ti/ti154st
     758                            .dwattr $C$DW$T$169, DW_AT_decl_line(0x3e9)
     759                            .dwattr $C$DW$T$169, DW_AT_decl_column(0x02)
     760                    
     761                    
     762                    $C$DW$T$170     .dwtag  DW_TAG_enumeration_type
     763                            .dwattr $C$DW$T$170, DW_AT_byte_size(0x01)
     764                    $C$DW$51        .dwtag  DW_TAG_enumerator
     765                            .dwattr $C$DW$51, DW_AT_name("AddrNotPresent")
     766                            .dwattr $C$DW$51, DW_AT_const_value(0x00)
     767                            .dwattr $C$DW$51, DW_AT_decl_file("C:/ti/simplelink_cc13x0_sdk_1_50_00_08/source/ti/ti154stack
     768                            .dwattr $C$DW$51, DW_AT_decl_line(0x128)
     769                            .dwattr $C$DW$51, DW_AT_decl_column(0x03)
     770                    
TI ARM Assembler PC v16.9.4 Sat Nov 18 18:46:22 2017

Tools Copyright (c) 1996-2017 Texas Instruments Incorporated
C:\Users\Kevin\AppData\Local\Temp\{5FC2008A-5F32-4C25-9FE7-4FDE3869A457} PAGE   15

     771                    $C$DW$52        .dwtag  DW_TAG_enumerator
     772                            .dwattr $C$DW$52, DW_AT_name("AddrGroup")
     773                            .dwattr $C$DW$52, DW_AT_const_value(0x01)
     774                            .dwattr $C$DW$52, DW_AT_decl_file("C:/ti/simplelink_cc13x0_sdk_1_50_00_08/source/ti/ti154stack
     775                            .dwattr $C$DW$52, DW_AT_decl_line(0x129)
     776                            .dwattr $C$DW$52, DW_AT_decl_column(0x03)
     777                    
     778                    $C$DW$53        .dwtag  DW_TAG_enumerator
     779                            .dwattr $C$DW$53, DW_AT_name("Addr16Bit")
     780                            .dwattr $C$DW$53, DW_AT_const_value(0x02)
     781                            .dwattr $C$DW$53, DW_AT_decl_file("C:/ti/simplelink_cc13x0_sdk_1_50_00_08/source/ti/ti154stack
     782                            .dwattr $C$DW$53, DW_AT_decl_line(0x12a)
     783                            .dwattr $C$DW$53, DW_AT_decl_column(0x03)
     784                    
     785                    $C$DW$54        .dwtag  DW_TAG_enumerator
     786                            .dwattr $C$DW$54, DW_AT_name("Addr64Bit")
     787                            .dwattr $C$DW$54, DW_AT_const_value(0x03)
     788                            .dwattr $C$DW$54, DW_AT_decl_file("C:/ti/simplelink_cc13x0_sdk_1_50_00_08/source/ti/ti154stack
     789                            .dwattr $C$DW$54, DW_AT_decl_line(0x12b)
     790                            .dwattr $C$DW$54, DW_AT_decl_column(0x03)
     791                    
     792                    $C$DW$55        .dwtag  DW_TAG_enumerator
     793                            .dwattr $C$DW$55, DW_AT_name("AddrBroadcast")
     794                            .dwattr $C$DW$55, DW_AT_const_value(0x0f)
     795                            .dwattr $C$DW$55, DW_AT_decl_file("C:/ti/simplelink_cc13x0_sdk_1_50_00_08/source/ti/ti154stack
     796                            .dwattr $C$DW$55, DW_AT_decl_line(0x12c)
     797                            .dwattr $C$DW$55, DW_AT_decl_column(0x03)
     798                    
     799                            .dwattr $C$DW$T$170, DW_AT_decl_file("C:/ti/simplelink_cc13x0_sdk_1_50_00_08/source/ti/ti154st
     800                            .dwattr $C$DW$T$170, DW_AT_decl_line(0x127)
     801                            .dwattr $C$DW$T$170, DW_AT_decl_column(0x01)
     802                            .dwendtag $C$DW$T$170
     803                    
     804                    
     805                    $C$DW$T$171     .dwtag  DW_TAG_enumeration_type
     806                            .dwattr $C$DW$T$171, DW_AT_byte_size(0x01)
     807                    $C$DW$56        .dwtag  DW_TAG_enumerator
     808                            .dwattr $C$DW$56, DW_AT_name("FAPI_PROGRAM_DATA")
     809                            .dwattr $C$DW$56, DW_AT_const_value(0x02)
     810                            .dwattr $C$DW$56, DW_AT_decl_file("C:/ti/simplelink_cc13x0_sdk_1_50_00_08/source/ti/devices/cc
     811                            .dwattr $C$DW$56, DW_AT_decl_line(0xa6)
     812                            .dwattr $C$DW$56, DW_AT_decl_column(0x05)
     813                    
     814                    $C$DW$57        .dwtag  DW_TAG_enumerator
     815                            .dwattr $C$DW$57, DW_AT_name("FAPI_ERASE_SECTOR")
     816                            .dwattr $C$DW$57, DW_AT_const_value(0x06)
     817                            .dwattr $C$DW$57, DW_AT_decl_file("C:/ti/simplelink_cc13x0_sdk_1_50_00_08/source/ti/devices/cc
     818                            .dwattr $C$DW$57, DW_AT_decl_line(0xa7)
     819                            .dwattr $C$DW$57, DW_AT_decl_column(0x05)
     820                    
     821                    $C$DW$58        .dwtag  DW_TAG_enumerator
     822                            .dwattr $C$DW$58, DW_AT_name("FAPI_ERASE_BANK")
     823                            .dwattr $C$DW$58, DW_AT_const_value(0x08)
     824                            .dwattr $C$DW$58, DW_AT_decl_file("C:/ti/simplelink_cc13x0_sdk_1_50_00_08/source/ti/devices/cc
     825                            .dwattr $C$DW$58, DW_AT_decl_line(0xa8)
TI ARM Assembler PC v16.9.4 Sat Nov 18 18:46:22 2017

Tools Copyright (c) 1996-2017 Texas Instruments Incorporated
C:\Users\Kevin\AppData\Local\Temp\{5FC2008A-5F32-4C25-9FE7-4FDE3869A457} PAGE   16

     826                            .dwattr $C$DW$58, DW_AT_decl_column(0x05)
     827                    
     828                    $C$DW$59        .dwtag  DW_TAG_enumerator
     829                            .dwattr $C$DW$59, DW_AT_name("FAPI_VALIDATE_SECTOR")
     830                            .dwattr $C$DW$59, DW_AT_const_value(0x0e)
     831                            .dwattr $C$DW$59, DW_AT_decl_file("C:/ti/simplelink_cc13x0_sdk_1_50_00_08/source/ti/devices/cc
     832                            .dwattr $C$DW$59, DW_AT_decl_line(0xa9)
     833                            .dwattr $C$DW$59, DW_AT_decl_column(0x05)
     834                    
     835                    $C$DW$60        .dwtag  DW_TAG_enumerator
     836                            .dwattr $C$DW$60, DW_AT_name("FAPI_CLEAR_STATUS")
     837                            .dwattr $C$DW$60, DW_AT_const_value(0x10)
     838                            .dwattr $C$DW$60, DW_AT_decl_file("C:/ti/simplelink_cc13x0_sdk_1_50_00_08/source/ti/devices/cc
     839                            .dwattr $C$DW$60, DW_AT_decl_line(0xaa)
     840                            .dwattr $C$DW$60, DW_AT_decl_column(0x05)
     841                    
     842                    $C$DW$61        .dwtag  DW_TAG_enumerator
     843                            .dwattr $C$DW$61, DW_AT_name("FAPI_PROGRAM_RESUME")
     844                            .dwattr $C$DW$61, DW_AT_const_value(0x14)
     845                            .dwattr $C$DW$61, DW_AT_decl_file("C:/ti/simplelink_cc13x0_sdk_1_50_00_08/source/ti/devices/cc
     846                            .dwattr $C$DW$61, DW_AT_decl_line(0xab)
     847                            .dwattr $C$DW$61, DW_AT_decl_column(0x05)
     848                    
     849                    $C$DW$62        .dwtag  DW_TAG_enumerator
     850                            .dwattr $C$DW$62, DW_AT_name("FAPI_ERASE_RESUME")
     851                            .dwattr $C$DW$62, DW_AT_const_value(0x16)
     852                            .dwattr $C$DW$62, DW_AT_decl_file("C:/ti/simplelink_cc13x0_sdk_1_50_00_08/source/ti/devices/cc
     853                            .dwattr $C$DW$62, DW_AT_decl_line(0xac)
     854                            .dwattr $C$DW$62, DW_AT_decl_column(0x05)
     855                    
     856                    $C$DW$63        .dwtag  DW_TAG_enumerator
     857                            .dwattr $C$DW$63, DW_AT_name("FAPI_CLEAR_MORE")
     858                            .dwattr $C$DW$63, DW_AT_const_value(0x18)
     859                            .dwattr $C$DW$63, DW_AT_decl_file("C:/ti/simplelink_cc13x0_sdk_1_50_00_08/source/ti/devices/cc
     860                            .dwattr $C$DW$63, DW_AT_decl_line(0xad)
     861                            .dwattr $C$DW$63, DW_AT_decl_column(0x05)
     862                    
     863                    $C$DW$64        .dwtag  DW_TAG_enumerator
     864                            .dwattr $C$DW$64, DW_AT_name("FAPI_PROGRAM_SECTOR")
     865                            .dwattr $C$DW$64, DW_AT_const_value(0x20)
     866                            .dwattr $C$DW$64, DW_AT_decl_file("C:/ti/simplelink_cc13x0_sdk_1_50_00_08/source/ti/devices/cc
     867                            .dwattr $C$DW$64, DW_AT_decl_line(0xae)
     868                            .dwattr $C$DW$64, DW_AT_decl_column(0x05)
     869                    
     870                    $C$DW$65        .dwtag  DW_TAG_enumerator
     871                            .dwattr $C$DW$65, DW_AT_name("FAPI_ERASE_OTP")
     872                            .dwattr $C$DW$65, DW_AT_const_value(0x30)
     873                            .dwattr $C$DW$65, DW_AT_decl_file("C:/ti/simplelink_cc13x0_sdk_1_50_00_08/source/ti/devices/cc
     874                            .dwattr $C$DW$65, DW_AT_decl_line(0xaf)
     875                            .dwattr $C$DW$65, DW_AT_decl_column(0x05)
     876                    
     877                            .dwattr $C$DW$T$171, DW_AT_decl_file("C:/ti/simplelink_cc13x0_sdk_1_50_00_08/source/ti/devices
     878                            .dwattr $C$DW$T$171, DW_AT_decl_line(0xa5)
     879                            .dwattr $C$DW$T$171, DW_AT_decl_column(0x01)
     880                            .dwendtag $C$DW$T$171
TI ARM Assembler PC v16.9.4 Sat Nov 18 18:46:22 2017

Tools Copyright (c) 1996-2017 Texas Instruments Incorporated
C:\Users\Kevin\AppData\Local\Temp\{5FC2008A-5F32-4C25-9FE7-4FDE3869A457} PAGE   17

     881                    
     882                    $C$DW$T$172     .dwtag  DW_TAG_typedef
     883                            .dwattr $C$DW$T$172, DW_AT_name("tFlashStateCommandsType")
     884                            .dwattr $C$DW$T$172, DW_AT_type(*$C$DW$T$171)
     885                            .dwattr $C$DW$T$172, DW_AT_language(DW_LANG_C)
     886                            .dwattr $C$DW$T$172, DW_AT_decl_file("C:/ti/simplelink_cc13x0_sdk_1_50_00_08/source/ti/devices
     887                            .dwattr $C$DW$T$172, DW_AT_decl_line(0xb0)
     888                            .dwattr $C$DW$T$172, DW_AT_decl_column(0x03)
     889                    
     890                    
     891                    $C$DW$T$19      .dwtag  DW_TAG_structure_type
     892                            .dwattr $C$DW$T$19, DW_AT_byte_size(0x08)
     893                    $C$DW$66        .dwtag  DW_TAG_member
     894                            .dwattr $C$DW$66, DW_AT_type(*$C$DW$T$10)
     895                            .dwattr $C$DW$66, DW_AT_name("quot")
     896                            .dwattr $C$DW$66, DW_AT_TI_symbol_name("quot")
     897                            .dwattr $C$DW$66, DW_AT_data_member_location[DW_OP_plus_uconst 0x0]
     898                            .dwattr $C$DW$66, DW_AT_accessibility(DW_ACCESS_public)
     899                            .dwattr $C$DW$66, DW_AT_decl_file("C:/ti/ccsv7/tools/compiler/ti-cgt-arm_16.9.4.LTS/include/st
     900                            .dwattr $C$DW$66, DW_AT_decl_line(0x5c)
     901                            .dwattr $C$DW$66, DW_AT_decl_column(0x16)
     902                    
     903                    $C$DW$67        .dwtag  DW_TAG_member
     904                            .dwattr $C$DW$67, DW_AT_type(*$C$DW$T$10)
     905                            .dwattr $C$DW$67, DW_AT_name("rem")
     906                            .dwattr $C$DW$67, DW_AT_TI_symbol_name("rem")
     907                            .dwattr $C$DW$67, DW_AT_data_member_location[DW_OP_plus_uconst 0x4]
     908                            .dwattr $C$DW$67, DW_AT_accessibility(DW_ACCESS_public)
     909                            .dwattr $C$DW$67, DW_AT_decl_file("C:/ti/ccsv7/tools/compiler/ti-cgt-arm_16.9.4.LTS/include/st
     910                            .dwattr $C$DW$67, DW_AT_decl_line(0x5c)
     911                            .dwattr $C$DW$67, DW_AT_decl_column(0x1c)
     912                    
     913                            .dwattr $C$DW$T$19, DW_AT_decl_file("C:/ti/ccsv7/tools/compiler/ti-cgt-arm_16.9.4.LTS/include/
     914                            .dwattr $C$DW$T$19, DW_AT_decl_line(0x5c)
     915                            .dwattr $C$DW$T$19, DW_AT_decl_column(0x10)
     916                            .dwendtag $C$DW$T$19
     917                    
     918                    $C$DW$T$173     .dwtag  DW_TAG_typedef
     919                            .dwattr $C$DW$T$173, DW_AT_name("div_t")
     920                            .dwattr $C$DW$T$173, DW_AT_type(*$C$DW$T$19)
     921                            .dwattr $C$DW$T$173, DW_AT_language(DW_LANG_C)
     922                            .dwattr $C$DW$T$173, DW_AT_decl_file("C:/ti/ccsv7/tools/compiler/ti-cgt-arm_16.9.4.LTS/include
     923                            .dwattr $C$DW$T$173, DW_AT_decl_line(0x5c)
     924                            .dwattr $C$DW$T$173, DW_AT_decl_column(0x23)
     925                    
     926                    
     927                    $C$DW$T$20      .dwtag  DW_TAG_structure_type
     928                            .dwattr $C$DW$T$20, DW_AT_byte_size(0x08)
     929                    $C$DW$68        .dwtag  DW_TAG_member
     930                            .dwattr $C$DW$68, DW_AT_type(*$C$DW$T$10)
     931                            .dwattr $C$DW$68, DW_AT_name("quot")
     932                            .dwattr $C$DW$68, DW_AT_TI_symbol_name("quot")
     933                            .dwattr $C$DW$68, DW_AT_data_member_location[DW_OP_plus_uconst 0x0]
     934                            .dwattr $C$DW$68, DW_AT_accessibility(DW_ACCESS_public)
     935                            .dwattr $C$DW$68, DW_AT_decl_file("C:/ti/ccsv7/tools/compiler/ti-cgt-arm_16.9.4.LTS/include/st
TI ARM Assembler PC v16.9.4 Sat Nov 18 18:46:22 2017

Tools Copyright (c) 1996-2017 Texas Instruments Incorporated
C:\Users\Kevin\AppData\Local\Temp\{5FC2008A-5F32-4C25-9FE7-4FDE3869A457} PAGE   18

     936                            .dwattr $C$DW$68, DW_AT_decl_line(0x5e)
     937                            .dwattr $C$DW$68, DW_AT_decl_column(0x16)
     938                    
     939                    $C$DW$69        .dwtag  DW_TAG_member
     940                            .dwattr $C$DW$69, DW_AT_type(*$C$DW$T$10)
     941                            .dwattr $C$DW$69, DW_AT_name("rem")
     942                            .dwattr $C$DW$69, DW_AT_TI_symbol_name("rem")
     943                            .dwattr $C$DW$69, DW_AT_data_member_location[DW_OP_plus_uconst 0x4]
     944                            .dwattr $C$DW$69, DW_AT_accessibility(DW_ACCESS_public)
     945                            .dwattr $C$DW$69, DW_AT_decl_file("C:/ti/ccsv7/tools/compiler/ti-cgt-arm_16.9.4.LTS/include/st
     946                            .dwattr $C$DW$69, DW_AT_decl_line(0x5e)
     947                            .dwattr $C$DW$69, DW_AT_decl_column(0x1c)
     948                    
     949                            .dwattr $C$DW$T$20, DW_AT_decl_file("C:/ti/ccsv7/tools/compiler/ti-cgt-arm_16.9.4.LTS/include/
     950                            .dwattr $C$DW$T$20, DW_AT_decl_line(0x5e)
     951                            .dwattr $C$DW$T$20, DW_AT_decl_column(0x10)
     952                            .dwendtag $C$DW$T$20
     953                    
     954                    $C$DW$T$174     .dwtag  DW_TAG_typedef
     955                            .dwattr $C$DW$T$174, DW_AT_name("ldiv_t")
     956                            .dwattr $C$DW$T$174, DW_AT_type(*$C$DW$T$20)
     957                            .dwattr $C$DW$T$174, DW_AT_language(DW_LANG_C)
     958                            .dwattr $C$DW$T$174, DW_AT_decl_file("C:/ti/ccsv7/tools/compiler/ti-cgt-arm_16.9.4.LTS/include
     959                            .dwattr $C$DW$T$174, DW_AT_decl_line(0x5e)
     960                            .dwattr $C$DW$T$174, DW_AT_decl_column(0x23)
     961                    
     962                    
     963                    $C$DW$T$21      .dwtag  DW_TAG_structure_type
     964                            .dwattr $C$DW$T$21, DW_AT_byte_size(0x10)
     965                    $C$DW$70        .dwtag  DW_TAG_member
     966                            .dwattr $C$DW$70, DW_AT_type(*$C$DW$T$14)
     967                            .dwattr $C$DW$70, DW_AT_name("quot")
     968                            .dwattr $C$DW$70, DW_AT_TI_symbol_name("quot")
     969                            .dwattr $C$DW$70, DW_AT_data_member_location[DW_OP_plus_uconst 0x0]
     970                            .dwattr $C$DW$70, DW_AT_accessibility(DW_ACCESS_public)
     971                            .dwattr $C$DW$70, DW_AT_decl_file("C:/ti/ccsv7/tools/compiler/ti-cgt-arm_16.9.4.LTS/include/st
     972                            .dwattr $C$DW$70, DW_AT_decl_line(0x61)
     973                            .dwattr $C$DW$70, DW_AT_decl_column(0x1c)
     974                    
     975                    $C$DW$71        .dwtag  DW_TAG_member
     976                            .dwattr $C$DW$71, DW_AT_type(*$C$DW$T$14)
     977                            .dwattr $C$DW$71, DW_AT_name("rem")
     978                            .dwattr $C$DW$71, DW_AT_TI_symbol_name("rem")
     979                            .dwattr $C$DW$71, DW_AT_data_member_location[DW_OP_plus_uconst 0x8]
     980                            .dwattr $C$DW$71, DW_AT_accessibility(DW_ACCESS_public)
     981                            .dwattr $C$DW$71, DW_AT_decl_file("C:/ti/ccsv7/tools/compiler/ti-cgt-arm_16.9.4.LTS/include/st
     982                            .dwattr $C$DW$71, DW_AT_decl_line(0x61)
     983                            .dwattr $C$DW$71, DW_AT_decl_column(0x22)
     984                    
     985                            .dwattr $C$DW$T$21, DW_AT_decl_file("C:/ti/ccsv7/tools/compiler/ti-cgt-arm_16.9.4.LTS/include/
     986                            .dwattr $C$DW$T$21, DW_AT_decl_line(0x61)
     987                            .dwattr $C$DW$T$21, DW_AT_decl_column(0x10)
     988                            .dwendtag $C$DW$T$21
     989                    
     990                    $C$DW$T$175     .dwtag  DW_TAG_typedef
TI ARM Assembler PC v16.9.4 Sat Nov 18 18:46:22 2017

Tools Copyright (c) 1996-2017 Texas Instruments Incorporated
C:\Users\Kevin\AppData\Local\Temp\{5FC2008A-5F32-4C25-9FE7-4FDE3869A457} PAGE   19

     991                            .dwattr $C$DW$T$175, DW_AT_name("lldiv_t")
     992                            .dwattr $C$DW$T$175, DW_AT_type(*$C$DW$T$21)
     993                            .dwattr $C$DW$T$175, DW_AT_language(DW_LANG_C)
     994                            .dwattr $C$DW$T$175, DW_AT_decl_file("C:/ti/ccsv7/tools/compiler/ti-cgt-arm_16.9.4.LTS/include
     995                            .dwattr $C$DW$T$175, DW_AT_decl_line(0x61)
     996                            .dwattr $C$DW$T$175, DW_AT_decl_column(0x29)
     997                    
     998                    
     999                    $C$DW$T$26      .dwtag  DW_TAG_structure_type
    1000                            .dwattr $C$DW$T$26, DW_AT_byte_size(0x08)
    1001                    $C$DW$72        .dwtag  DW_TAG_member
    1002                            .dwattr $C$DW$72, DW_AT_type(*$C$DW$T$24)
    1003                            .dwattr $C$DW$72, DW_AT_name("pointerStack")
    1004                            .dwattr $C$DW$72, DW_AT_TI_symbol_name("pointerStack")
    1005                            .dwattr $C$DW$72, DW_AT_data_member_location[DW_OP_plus_uconst 0x0]
    1006                            .dwattr $C$DW$72, DW_AT_accessibility(DW_ACCESS_public)
    1007                            .dwattr $C$DW$72, DW_AT_decl_file("C:/ti/simplelink_cc13x0_sdk_1_50_00_08/source/ti/ti154stack
    1008                            .dwattr $C$DW$72, DW_AT_decl_line(0x3f5)
    1009                            .dwattr $C$DW$72, DW_AT_decl_column(0x16)
    1010                    
    1011                    $C$DW$73        .dwtag  DW_TAG_member
    1012                            .dwattr $C$DW$73, DW_AT_type(*$C$DW$T$25)
    1013                            .dwattr $C$DW$73, DW_AT_name("directAPI")
    1014                            .dwattr $C$DW$73, DW_AT_TI_symbol_name("directAPI")
    1015                            .dwattr $C$DW$73, DW_AT_data_member_location[DW_OP_plus_uconst 0x4]
    1016                            .dwattr $C$DW$73, DW_AT_accessibility(DW_ACCESS_public)
    1017                            .dwattr $C$DW$73, DW_AT_decl_file("C:/ti/simplelink_cc13x0_sdk_1_50_00_08/source/ti/ti154stack
    1018                            .dwattr $C$DW$73, DW_AT_decl_line(0x3f6)
    1019                            .dwattr $C$DW$73, DW_AT_decl_column(0x15)
    1020                    
    1021                            .dwattr $C$DW$T$26, DW_AT_decl_file("C:/ti/simplelink_cc13x0_sdk_1_50_00_08/source/ti/ti154sta
    1022                            .dwattr $C$DW$T$26, DW_AT_decl_line(0x3f4)
    1023                            .dwattr $C$DW$T$26, DW_AT_decl_column(0x01)
    1024                            .dwendtag $C$DW$T$26
    1025                    
    1026                    $C$DW$T$28      .dwtag  DW_TAG_typedef
    1027                            .dwattr $C$DW$T$28, DW_AT_name("icall_directAPIMsg_t")
    1028                            .dwattr $C$DW$T$28, DW_AT_type(*$C$DW$T$26)
    1029                            .dwattr $C$DW$T$28, DW_AT_language(DW_LANG_C)
    1030                            .dwattr $C$DW$T$28, DW_AT_decl_file("C:/ti/simplelink_cc13x0_sdk_1_50_00_08/source/ti/ti154sta
    1031                            .dwattr $C$DW$T$28, DW_AT_decl_line(0x3f7)
    1032                            .dwattr $C$DW$T$28, DW_AT_decl_column(0x03)
    1033                    
    1034                    
    1035                    $C$DW$T$29      .dwtag  DW_TAG_structure_type
    1036                            .dwattr $C$DW$T$29, DW_AT_byte_size(0x14)
    1037                    $C$DW$74        .dwtag  DW_TAG_member
    1038                            .dwattr $C$DW$74, DW_AT_type(*$C$DW$T$27)
    1039                            .dwattr $C$DW$74, DW_AT_name("hdr")
    1040                            .dwattr $C$DW$74, DW_AT_TI_symbol_name("hdr")
    1041                            .dwattr $C$DW$74, DW_AT_data_member_location[DW_OP_plus_uconst 0x0]
    1042                            .dwattr $C$DW$74, DW_AT_accessibility(DW_ACCESS_public)
    1043                            .dwattr $C$DW$74, DW_AT_decl_file("C:/ti/simplelink_cc13x0_sdk_1_50_00_08/source/ti/ti154stack
    1044                            .dwattr $C$DW$74, DW_AT_decl_line(0x3fb)
    1045                            .dwattr $C$DW$74, DW_AT_decl_column(0x10)
TI ARM Assembler PC v16.9.4 Sat Nov 18 18:46:22 2017

Tools Copyright (c) 1996-2017 Texas Instruments Incorporated
C:\Users\Kevin\AppData\Local\Temp\{5FC2008A-5F32-4C25-9FE7-4FDE3869A457} PAGE   20

    1046                    
    1047                    $C$DW$75        .dwtag  DW_TAG_member
    1048                            .dwattr $C$DW$75, DW_AT_type(*$C$DW$T$28)
    1049                            .dwattr $C$DW$75, DW_AT_name("msg")
    1050                            .dwattr $C$DW$75, DW_AT_TI_symbol_name("msg")
    1051                            .dwattr $C$DW$75, DW_AT_data_member_location[DW_OP_plus_uconst 0xc]
    1052                            .dwattr $C$DW$75, DW_AT_accessibility(DW_ACCESS_public)
    1053                            .dwattr $C$DW$75, DW_AT_decl_file("C:/ti/simplelink_cc13x0_sdk_1_50_00_08/source/ti/ti154stack
    1054                            .dwattr $C$DW$75, DW_AT_decl_line(0x3fc)
    1055                            .dwattr $C$DW$75, DW_AT_decl_column(0x1a)
    1056                    
    1057                            .dwattr $C$DW$T$29, DW_AT_decl_file("C:/ti/simplelink_cc13x0_sdk_1_50_00_08/source/ti/ti154sta
    1058                            .dwattr $C$DW$T$29, DW_AT_decl_line(0x3fa)
    1059                            .dwattr $C$DW$T$29, DW_AT_decl_column(0x01)
    1060                            .dwendtag $C$DW$T$29
    1061                    
    1062                    $C$DW$T$176     .dwtag  DW_TAG_typedef
    1063                            .dwattr $C$DW$T$176, DW_AT_name("icallLiteMsg_t")
    1064                            .dwattr $C$DW$T$176, DW_AT_type(*$C$DW$T$29)
    1065                            .dwattr $C$DW$T$176, DW_AT_language(DW_LANG_C)
    1066                            .dwattr $C$DW$T$176, DW_AT_decl_file("C:/ti/simplelink_cc13x0_sdk_1_50_00_08/source/ti/ti154st
    1067                            .dwattr $C$DW$T$176, DW_AT_decl_line(0x3fd)
    1068                            .dwattr $C$DW$T$176, DW_AT_decl_column(0x03)
    1069                    
    1070                    
    1071                    $C$DW$T$31      .dwtag  DW_TAG_structure_type
    1072                            .dwattr $C$DW$T$31, DW_AT_byte_size(0x02)
    1073                    $C$DW$76        .dwtag  DW_TAG_member
    1074                            .dwattr $C$DW$76, DW_AT_type(*$C$DW$T$30)
    1075                            .dwattr $C$DW$76, DW_AT_name("event")
    1076                            .dwattr $C$DW$76, DW_AT_TI_symbol_name("event")
    1077                            .dwattr $C$DW$76, DW_AT_data_member_location[DW_OP_plus_uconst 0x0]
    1078                            .dwattr $C$DW$76, DW_AT_accessibility(DW_ACCESS_public)
    1079                            .dwattr $C$DW$76, DW_AT_decl_file("C:/Users/Kevin/workspace_v7/sensor_cc1310lp/Application/MAC
    1080                            .dwattr $C$DW$76, DW_AT_decl_line(0x79)
    1081                            .dwattr $C$DW$76, DW_AT_decl_column(0x0a)
    1082                    
    1083                    $C$DW$77        .dwtag  DW_TAG_member
    1084                            .dwattr $C$DW$77, DW_AT_type(*$C$DW$T$30)
    1085                            .dwattr $C$DW$77, DW_AT_name("status")
    1086                            .dwattr $C$DW$77, DW_AT_TI_symbol_name("status")
    1087                            .dwattr $C$DW$77, DW_AT_data_member_location[DW_OP_plus_uconst 0x1]
    1088                            .dwattr $C$DW$77, DW_AT_accessibility(DW_ACCESS_public)
    1089                            .dwattr $C$DW$77, DW_AT_decl_file("C:/Users/Kevin/workspace_v7/sensor_cc1310lp/Application/MAC
    1090                            .dwattr $C$DW$77, DW_AT_decl_line(0x7a)
    1091                            .dwattr $C$DW$77, DW_AT_decl_column(0x0a)
    1092                    
    1093                            .dwattr $C$DW$T$31, DW_AT_decl_file("C:/Users/Kevin/workspace_v7/sensor_cc1310lp/Application/M
    1094                            .dwattr $C$DW$T$31, DW_AT_decl_line(0x78)
    1095                            .dwattr $C$DW$T$31, DW_AT_decl_column(0x01)
    1096                            .dwendtag $C$DW$T$31
    1097                    
    1098                    $C$DW$T$177     .dwtag  DW_TAG_typedef
    1099                            .dwattr $C$DW$T$177, DW_AT_name("osal_event_hdr_t")
    1100                            .dwattr $C$DW$T$177, DW_AT_type(*$C$DW$T$31)
TI ARM Assembler PC v16.9.4 Sat Nov 18 18:46:22 2017

Tools Copyright (c) 1996-2017 Texas Instruments Incorporated
C:\Users\Kevin\AppData\Local\Temp\{5FC2008A-5F32-4C25-9FE7-4FDE3869A457} PAGE   21

    1101                            .dwattr $C$DW$T$177, DW_AT_language(DW_LANG_C)
    1102                            .dwattr $C$DW$T$177, DW_AT_decl_file("C:/Users/Kevin/workspace_v7/sensor_cc1310lp/Application/
    1103                            .dwattr $C$DW$T$177, DW_AT_decl_line(0x7b)
    1104                            .dwattr $C$DW$T$177, DW_AT_decl_column(0x03)
    1105                    
    1106                    
    1107                    $C$DW$T$32      .dwtag  DW_TAG_structure_type
    1108                            .dwattr $C$DW$T$32, DW_AT_byte_size(0x0a)
    1109                    $C$DW$78        .dwtag  DW_TAG_member
    1110                            .dwattr $C$DW$78, DW_AT_type(*$C$DW$T$87)
    1111                            .dwattr $C$DW$78, DW_AT_name("addr")
    1112                            .dwattr $C$DW$78, DW_AT_TI_symbol_name("addr")
    1113                            .dwattr $C$DW$78, DW_AT_data_member_location[DW_OP_plus_uconst 0x0]
    1114                            .dwattr $C$DW$78, DW_AT_accessibility(DW_ACCESS_public)
    1115                            .dwattr $C$DW$78, DW_AT_decl_file("C:/Users/Kevin/workspace_v7/sensor_cc1310lp/Application/Ser
    1116                            .dwattr $C$DW$78, DW_AT_decl_line(0x52)
    1117                            .dwattr $C$DW$78, DW_AT_decl_column(0x05)
    1118                    
    1119                    $C$DW$79        .dwtag  DW_TAG_member
    1120                            .dwattr $C$DW$79, DW_AT_type(*$C$DW$T$30)
    1121                            .dwattr $C$DW$79, DW_AT_name("addrMode")
    1122                            .dwattr $C$DW$79, DW_AT_TI_symbol_name("addrMode")
    1123                            .dwattr $C$DW$79, DW_AT_data_member_location[DW_OP_plus_uconst 0x8]
    1124                            .dwattr $C$DW$79, DW_AT_accessibility(DW_ACCESS_public)
    1125                            .dwattr $C$DW$79, DW_AT_decl_file("C:/Users/Kevin/workspace_v7/sensor_cc1310lp/Application/Ser
    1126                            .dwattr $C$DW$79, DW_AT_decl_line(0x53)
    1127                            .dwattr $C$DW$79, DW_AT_decl_column(0x11)
    1128                    
    1129                            .dwattr $C$DW$T$32, DW_AT_decl_file("C:/Users/Kevin/workspace_v7/sensor_cc1310lp/Application/S
    1130                            .dwattr $C$DW$T$32, DW_AT_decl_line(0x4d)
    1131                            .dwattr $C$DW$T$32, DW_AT_decl_column(0x01)
    1132                            .dwendtag $C$DW$T$32
    1133                    
    1134                    $C$DW$T$178     .dwtag  DW_TAG_typedef
    1135                            .dwattr $C$DW$T$178, DW_AT_name("sAddr_t")
    1136                            .dwattr $C$DW$T$178, DW_AT_type(*$C$DW$T$32)
    1137                            .dwattr $C$DW$T$178, DW_AT_language(DW_LANG_C)
    1138                            .dwattr $C$DW$T$178, DW_AT_decl_file("C:/Users/Kevin/workspace_v7/sensor_cc1310lp/Application/
    1139                            .dwattr $C$DW$T$178, DW_AT_decl_line(0x54)
    1140                            .dwattr $C$DW$T$178, DW_AT_decl_column(0x03)
    1141                    
    1142                    
    1143                    $C$DW$T$34      .dwtag  DW_TAG_structure_type
    1144                            .dwattr $C$DW$T$34, DW_AT_byte_size(0x0a)
    1145                    $C$DW$80        .dwtag  DW_TAG_member
    1146                            .dwattr $C$DW$80, DW_AT_type(*$C$DW$T$90)
    1147                            .dwattr $C$DW$80, DW_AT_name("addr")
    1148                            .dwattr $C$DW$80, DW_AT_TI_symbol_name("addr")
    1149                            .dwattr $C$DW$80, DW_AT_data_member_location[DW_OP_plus_uconst 0x0]
    1150                            .dwattr $C$DW$80, DW_AT_accessibility(DW_ACCESS_public)
    1151                            .dwattr $C$DW$80, DW_AT_decl_file("C:/ti/simplelink_cc13x0_sdk_1_50_00_08/source/ti/ti154stack
    1152                            .dwattr $C$DW$80, DW_AT_decl_line(0x139)
    1153                            .dwattr $C$DW$80, DW_AT_decl_column(0x05)
    1154                    
    1155                    $C$DW$81        .dwtag  DW_TAG_member
TI ARM Assembler PC v16.9.4 Sat Nov 18 18:46:22 2017

Tools Copyright (c) 1996-2017 Texas Instruments Incorporated
C:\Users\Kevin\AppData\Local\Temp\{5FC2008A-5F32-4C25-9FE7-4FDE3869A457} PAGE   22

    1156                            .dwattr $C$DW$81, DW_AT_type(*$C$DW$T$33)
    1157                            .dwattr $C$DW$81, DW_AT_name("addrMode")
    1158                            .dwattr $C$DW$81, DW_AT_TI_symbol_name("addrMode")
    1159                            .dwattr $C$DW$81, DW_AT_data_member_location[DW_OP_plus_uconst 0x8]
    1160                            .dwattr $C$DW$81, DW_AT_accessibility(DW_ACCESS_public)
    1161                            .dwattr $C$DW$81, DW_AT_decl_file("C:/ti/simplelink_cc13x0_sdk_1_50_00_08/source/ti/ti154stack
    1162                            .dwattr $C$DW$81, DW_AT_decl_line(0x13a)
    1163                            .dwattr $C$DW$81, DW_AT_decl_column(0x08)
    1164                    
    1165                            .dwattr $C$DW$T$34, DW_AT_decl_file("C:/ti/simplelink_cc13x0_sdk_1_50_00_08/source/ti/ti154sta
    1166                            .dwattr $C$DW$T$34, DW_AT_decl_line(0x134)
    1167                            .dwattr $C$DW$T$34, DW_AT_decl_column(0x01)
    1168                            .dwendtag $C$DW$T$34
    1169                    
    1170                    $C$DW$T$179     .dwtag  DW_TAG_typedef
    1171                            .dwattr $C$DW$T$179, DW_AT_name("zAddrType_t")
    1172                            .dwattr $C$DW$T$179, DW_AT_type(*$C$DW$T$34)
    1173                            .dwattr $C$DW$T$179, DW_AT_language(DW_LANG_C)
    1174                            .dwattr $C$DW$T$179, DW_AT_decl_file("C:/ti/simplelink_cc13x0_sdk_1_50_00_08/source/ti/ti154st
    1175                            .dwattr $C$DW$T$179, DW_AT_decl_line(0x13b)
    1176                            .dwattr $C$DW$T$179, DW_AT_decl_column(0x03)
    1177                    
    1178                    
    1179                    $C$DW$T$37      .dwtag  DW_TAG_structure_type
    1180                            .dwattr $C$DW$T$37, DW_AT_byte_size(0x0c)
    1181                    $C$DW$82        .dwtag  DW_TAG_member
    1182                            .dwattr $C$DW$82, DW_AT_type(*$C$DW$T$30)
    1183                            .dwattr $C$DW$82, DW_AT_name("txCounter")
    1184                            .dwattr $C$DW$82, DW_AT_TI_symbol_name("txCounter")
    1185                            .dwattr $C$DW$82, DW_AT_data_member_location[DW_OP_plus_uconst 0x0]
    1186                            .dwattr $C$DW$82, DW_AT_accessibility(DW_ACCESS_public)
    1187                            .dwattr $C$DW$82, DW_AT_decl_file("C:/ti/simplelink_cc13x0_sdk_1_50_00_08/source/ti/ti154stack
    1188                            .dwattr $C$DW$82, DW_AT_decl_line(0x198)
    1189                            .dwattr $C$DW$82, DW_AT_decl_column(0x0a)
    1190                    
    1191                    $C$DW$83        .dwtag  DW_TAG_member
    1192                            .dwattr $C$DW$83, DW_AT_type(*$C$DW$T$30)
    1193                            .dwattr $C$DW$83, DW_AT_name("txCost")
    1194                            .dwattr $C$DW$83, DW_AT_TI_symbol_name("txCost")
    1195                            .dwattr $C$DW$83, DW_AT_data_member_location[DW_OP_plus_uconst 0x1]
    1196                            .dwattr $C$DW$83, DW_AT_accessibility(DW_ACCESS_public)
    1197                            .dwattr $C$DW$83, DW_AT_decl_file("C:/ti/simplelink_cc13x0_sdk_1_50_00_08/source/ti/ti154stack
    1198                            .dwattr $C$DW$83, DW_AT_decl_line(0x199)
    1199                            .dwattr $C$DW$83, DW_AT_decl_column(0x0a)
    1200                    
    1201                    $C$DW$84        .dwtag  DW_TAG_member
    1202                            .dwattr $C$DW$84, DW_AT_type(*$C$DW$T$30)
    1203                            .dwattr $C$DW$84, DW_AT_name("rxLqi")
    1204                            .dwattr $C$DW$84, DW_AT_TI_symbol_name("rxLqi")
    1205                            .dwattr $C$DW$84, DW_AT_data_member_location[DW_OP_plus_uconst 0x2]
    1206                            .dwattr $C$DW$84, DW_AT_accessibility(DW_ACCESS_public)
    1207                            .dwattr $C$DW$84, DW_AT_decl_file("C:/ti/simplelink_cc13x0_sdk_1_50_00_08/source/ti/ti154stack
    1208                            .dwattr $C$DW$84, DW_AT_decl_line(0x19b)
    1209                            .dwattr $C$DW$84, DW_AT_decl_column(0x0a)
    1210                    
TI ARM Assembler PC v16.9.4 Sat Nov 18 18:46:22 2017

Tools Copyright (c) 1996-2017 Texas Instruments Incorporated
C:\Users\Kevin\AppData\Local\Temp\{5FC2008A-5F32-4C25-9FE7-4FDE3869A457} PAGE   23

    1211                    $C$DW$85        .dwtag  DW_TAG_member
    1212                            .dwattr $C$DW$85, DW_AT_type(*$C$DW$T$30)
    1213                            .dwattr $C$DW$85, DW_AT_name("inKeySeqNum")
    1214                            .dwattr $C$DW$85, DW_AT_TI_symbol_name("inKeySeqNum")
    1215                            .dwattr $C$DW$85, DW_AT_data_member_location[DW_OP_plus_uconst 0x3]
    1216                            .dwattr $C$DW$85, DW_AT_accessibility(DW_ACCESS_public)
    1217                            .dwattr $C$DW$85, DW_AT_decl_file("C:/ti/simplelink_cc13x0_sdk_1_50_00_08/source/ti/ti154stack
    1218                            .dwattr $C$DW$85, DW_AT_decl_line(0x19d)
    1219                            .dwattr $C$DW$85, DW_AT_decl_column(0x0a)
    1220                    
    1221                    $C$DW$86        .dwtag  DW_TAG_member
    1222                            .dwattr $C$DW$86, DW_AT_type(*$C$DW$T$35)
    1223                            .dwattr $C$DW$86, DW_AT_name("inFrmCntr")
    1224                            .dwattr $C$DW$86, DW_AT_TI_symbol_name("inFrmCntr")
    1225                            .dwattr $C$DW$86, DW_AT_data_member_location[DW_OP_plus_uconst 0x4]
    1226                            .dwattr $C$DW$86, DW_AT_accessibility(DW_ACCESS_public)
    1227                            .dwattr $C$DW$86, DW_AT_decl_file("C:/ti/simplelink_cc13x0_sdk_1_50_00_08/source/ti/ti154stack
    1228                            .dwattr $C$DW$86, DW_AT_decl_line(0x19e)
    1229                            .dwattr $C$DW$86, DW_AT_decl_column(0x0a)
    1230                    
    1231                    $C$DW$87        .dwtag  DW_TAG_member
    1232                            .dwattr $C$DW$87, DW_AT_type(*$C$DW$T$36)
    1233                            .dwattr $C$DW$87, DW_AT_name("txFailure")
    1234                            .dwattr $C$DW$87, DW_AT_TI_symbol_name("txFailure")
    1235                            .dwattr $C$DW$87, DW_AT_data_member_location[DW_OP_plus_uconst 0x8]
    1236                            .dwattr $C$DW$87, DW_AT_accessibility(DW_ACCESS_public)
    1237                            .dwattr $C$DW$87, DW_AT_decl_file("C:/ti/simplelink_cc13x0_sdk_1_50_00_08/source/ti/ti154stack
    1238                            .dwattr $C$DW$87, DW_AT_decl_line(0x19f)
    1239                            .dwattr $C$DW$87, DW_AT_decl_column(0x0a)
    1240                    
    1241                            .dwattr $C$DW$T$37, DW_AT_decl_file("C:/ti/simplelink_cc13x0_sdk_1_50_00_08/source/ti/ti154sta
    1242                            .dwattr $C$DW$T$37, DW_AT_decl_line(0x197)
    1243                            .dwattr $C$DW$T$37, DW_AT_decl_column(0x01)
    1244                            .dwendtag $C$DW$T$37
    1245                    
    1246                    $C$DW$T$180     .dwtag  DW_TAG_typedef
    1247                            .dwattr $C$DW$T$180, DW_AT_name("linkInfo_t")
    1248                            .dwattr $C$DW$T$180, DW_AT_type(*$C$DW$T$37)
    1249                            .dwattr $C$DW$T$180, DW_AT_language(DW_LANG_C)
    1250                            .dwattr $C$DW$T$180, DW_AT_decl_file("C:/ti/simplelink_cc13x0_sdk_1_50_00_08/source/ti/ti154st
    1251                            .dwattr $C$DW$T$180, DW_AT_decl_line(0x1a0)
    1252                            .dwattr $C$DW$T$180, DW_AT_decl_column(0x03)
    1253                    
    1254                    
    1255                    $C$DW$T$78      .dwtag  DW_TAG_structure_type
    1256                            .dwattr $C$DW$T$78, DW_AT_byte_size(0x4c)
    1257                    $C$DW$88        .dwtag  DW_TAG_member
    1258                            .dwattr $C$DW$88, DW_AT_type(*$C$DW$T$42)
    1259                            .dwattr $C$DW$88, DW_AT_name("Crc32")
    1260                            .dwattr $C$DW$88, DW_AT_TI_symbol_name("Crc32")
    1261                            .dwattr $C$DW$88, DW_AT_data_member_location[DW_OP_plus_uconst 0x0]
    1262                            .dwattr $C$DW$88, DW_AT_accessibility(DW_ACCESS_public)
    1263                            .dwattr $C$DW$88, DW_AT_decl_file("C:\ti\simplelink_cc13x0_sdk_1_50_00_08\source\ti\devices\cc
    1264                            .dwattr $C$DW$88, DW_AT_decl_line(0x76)
    1265                            .dwattr $C$DW$88, DW_AT_decl_column(0x25)
TI ARM Assembler PC v16.9.4 Sat Nov 18 18:46:22 2017

Tools Copyright (c) 1996-2017 Texas Instruments Incorporated
C:\Users\Kevin\AppData\Local\Temp\{5FC2008A-5F32-4C25-9FE7-4FDE3869A457} PAGE   24

    1266                    
    1267                    $C$DW$89        .dwtag  DW_TAG_member
    1268                            .dwattr $C$DW$89, DW_AT_type(*$C$DW$T$45)
    1269                            .dwattr $C$DW$89, DW_AT_name("FlashGetSize")
    1270                            .dwattr $C$DW$89, DW_AT_TI_symbol_name("FlashGetSize")
    1271                            .dwattr $C$DW$89, DW_AT_data_member_location[DW_OP_plus_uconst 0x4]
    1272                            .dwattr $C$DW$89, DW_AT_accessibility(DW_ACCESS_public)
    1273                            .dwattr $C$DW$89, DW_AT_decl_file("C:\ti\simplelink_cc13x0_sdk_1_50_00_08\source\ti\devices\cc
    1274                            .dwattr $C$DW$89, DW_AT_decl_line(0x77)
    1275                            .dwattr $C$DW$89, DW_AT_decl_column(0x25)
    1276                    
    1277                    $C$DW$90        .dwtag  DW_TAG_member
    1278                            .dwattr $C$DW$90, DW_AT_type(*$C$DW$T$46)
    1279                            .dwattr $C$DW$90, DW_AT_name("GetChipId")
    1280                            .dwattr $C$DW$90, DW_AT_TI_symbol_name("GetChipId")
    1281                            .dwattr $C$DW$90, DW_AT_data_member_location[DW_OP_plus_uconst 0x8]
    1282                            .dwattr $C$DW$90, DW_AT_accessibility(DW_ACCESS_public)
    1283                            .dwattr $C$DW$90, DW_AT_decl_file("C:\ti\simplelink_cc13x0_sdk_1_50_00_08\source\ti\devices\cc
    1284                            .dwattr $C$DW$90, DW_AT_decl_line(0x78)
    1285                            .dwattr $C$DW$90, DW_AT_decl_column(0x25)
    1286                    
    1287                    $C$DW$91        .dwtag  DW_TAG_member
    1288                            .dwattr $C$DW$91, DW_AT_type(*$C$DW$T$49)
    1289                            .dwattr $C$DW$91, DW_AT_name("ReservedLocation1")
    1290                            .dwattr $C$DW$91, DW_AT_TI_symbol_name("ReservedLocation1")
    1291                            .dwattr $C$DW$91, DW_AT_data_member_location[DW_OP_plus_uconst 0xc]
    1292                            .dwattr $C$DW$91, DW_AT_accessibility(DW_ACCESS_public)
    1293                            .dwattr $C$DW$91, DW_AT_decl_file("C:\ti\simplelink_cc13x0_sdk_1_50_00_08\source\ti\devices\cc
    1294                            .dwattr $C$DW$91, DW_AT_decl_line(0x79)
    1295                            .dwattr $C$DW$91, DW_AT_decl_column(0x25)
    1296                    
    1297                    $C$DW$92        .dwtag  DW_TAG_member
    1298                            .dwattr $C$DW$92, DW_AT_type(*$C$DW$T$50)
    1299                            .dwattr $C$DW$92, DW_AT_name("ReservedLocation2")
    1300                            .dwattr $C$DW$92, DW_AT_TI_symbol_name("ReservedLocation2")
    1301                            .dwattr $C$DW$92, DW_AT_data_member_location[DW_OP_plus_uconst 0x10]
    1302                            .dwattr $C$DW$92, DW_AT_accessibility(DW_ACCESS_public)
    1303                            .dwattr $C$DW$92, DW_AT_decl_file("C:\ti\simplelink_cc13x0_sdk_1_50_00_08\source\ti\devices\cc
    1304                            .dwattr $C$DW$92, DW_AT_decl_line(0x7a)
    1305                            .dwattr $C$DW$92, DW_AT_decl_column(0x25)
    1306                    
    1307                    $C$DW$93        .dwtag  DW_TAG_member
    1308                            .dwattr $C$DW$93, DW_AT_type(*$C$DW$T$51)
    1309                            .dwattr $C$DW$93, DW_AT_name("ReservedLocation3")
    1310                            .dwattr $C$DW$93, DW_AT_TI_symbol_name("ReservedLocation3")
    1311                            .dwattr $C$DW$93, DW_AT_data_member_location[DW_OP_plus_uconst 0x14]
    1312                            .dwattr $C$DW$93, DW_AT_accessibility(DW_ACCESS_public)
    1313                            .dwattr $C$DW$93, DW_AT_decl_file("C:\ti\simplelink_cc13x0_sdk_1_50_00_08\source\ti\devices\cc
    1314                            .dwattr $C$DW$93, DW_AT_decl_line(0x7b)
    1315                            .dwattr $C$DW$93, DW_AT_decl_column(0x25)
    1316                    
    1317                    $C$DW$94        .dwtag  DW_TAG_member
    1318                            .dwattr $C$DW$94, DW_AT_type(*$C$DW$T$54)
    1319                            .dwattr $C$DW$94, DW_AT_name("ResetDevice")
    1320                            .dwattr $C$DW$94, DW_AT_TI_symbol_name("ResetDevice")
TI ARM Assembler PC v16.9.4 Sat Nov 18 18:46:22 2017

Tools Copyright (c) 1996-2017 Texas Instruments Incorporated
C:\Users\Kevin\AppData\Local\Temp\{5FC2008A-5F32-4C25-9FE7-4FDE3869A457} PAGE   25

    1321                            .dwattr $C$DW$94, DW_AT_data_member_location[DW_OP_plus_uconst 0x18]
    1322                            .dwattr $C$DW$94, DW_AT_accessibility(DW_ACCESS_public)
    1323                            .dwattr $C$DW$94, DW_AT_decl_file("C:\ti\simplelink_cc13x0_sdk_1_50_00_08\source\ti\devices\cc
    1324                            .dwattr $C$DW$94, DW_AT_decl_line(0x7c)
    1325                            .dwattr $C$DW$94, DW_AT_decl_column(0x25)
    1326                    
    1327                    $C$DW$95        .dwtag  DW_TAG_member
    1328                            .dwattr $C$DW$95, DW_AT_type(*$C$DW$T$59)
    1329                            .dwattr $C$DW$95, DW_AT_name("Fletcher32")
    1330                            .dwattr $C$DW$95, DW_AT_TI_symbol_name("Fletcher32")
    1331                            .dwattr $C$DW$95, DW_AT_data_member_location[DW_OP_plus_uconst 0x1c]
    1332                            .dwattr $C$DW$95, DW_AT_accessibility(DW_ACCESS_public)
    1333                            .dwattr $C$DW$95, DW_AT_decl_file("C:\ti\simplelink_cc13x0_sdk_1_50_00_08\source\ti\devices\cc
    1334                            .dwattr $C$DW$95, DW_AT_decl_line(0x7d)
    1335                            .dwattr $C$DW$95, DW_AT_decl_column(0x25)
    1336                    
    1337                    $C$DW$96        .dwtag  DW_TAG_member
    1338                            .dwattr $C$DW$96, DW_AT_type(*$C$DW$T$63)
    1339                            .dwattr $C$DW$96, DW_AT_name("MinValue")
    1340                            .dwattr $C$DW$96, DW_AT_TI_symbol_name("MinValue")
    1341                            .dwattr $C$DW$96, DW_AT_data_member_location[DW_OP_plus_uconst 0x20]
    1342                            .dwattr $C$DW$96, DW_AT_accessibility(DW_ACCESS_public)
    1343                            .dwattr $C$DW$96, DW_AT_decl_file("C:\ti\simplelink_cc13x0_sdk_1_50_00_08\source\ti\devices\cc
    1344                            .dwattr $C$DW$96, DW_AT_decl_line(0x7e)
    1345                            .dwattr $C$DW$96, DW_AT_decl_column(0x25)
    1346                    
    1347                    $C$DW$97        .dwtag  DW_TAG_member
    1348                            .dwattr $C$DW$97, DW_AT_type(*$C$DW$T$64)
    1349                            .dwattr $C$DW$97, DW_AT_name("MaxValue")
    1350                            .dwattr $C$DW$97, DW_AT_TI_symbol_name("MaxValue")
    1351                            .dwattr $C$DW$97, DW_AT_data_member_location[DW_OP_plus_uconst 0x24]
    1352                            .dwattr $C$DW$97, DW_AT_accessibility(DW_ACCESS_public)
    1353                            .dwattr $C$DW$97, DW_AT_decl_file("C:\ti\simplelink_cc13x0_sdk_1_50_00_08\source\ti\devices\cc
    1354                            .dwattr $C$DW$97, DW_AT_decl_line(0x7f)
    1355                            .dwattr $C$DW$97, DW_AT_decl_column(0x25)
    1356                    
    1357                    $C$DW$98        .dwtag  DW_TAG_member
    1358                            .dwattr $C$DW$98, DW_AT_type(*$C$DW$T$65)
    1359                            .dwattr $C$DW$98, DW_AT_name("MeanValue")
    1360                            .dwattr $C$DW$98, DW_AT_TI_symbol_name("MeanValue")
    1361                            .dwattr $C$DW$98, DW_AT_data_member_location[DW_OP_plus_uconst 0x28]
    1362                            .dwattr $C$DW$98, DW_AT_accessibility(DW_ACCESS_public)
    1363                            .dwattr $C$DW$98, DW_AT_decl_file("C:\ti\simplelink_cc13x0_sdk_1_50_00_08\source\ti\devices\cc
    1364                            .dwattr $C$DW$98, DW_AT_decl_line(0x80)
    1365                            .dwattr $C$DW$98, DW_AT_decl_column(0x25)
    1366                    
    1367                    $C$DW$99        .dwtag  DW_TAG_member
    1368                            .dwattr $C$DW$99, DW_AT_type(*$C$DW$T$66)
    1369                            .dwattr $C$DW$99, DW_AT_name("StandDeviationValue")
    1370                            .dwattr $C$DW$99, DW_AT_TI_symbol_name("StandDeviationValue")
    1371                            .dwattr $C$DW$99, DW_AT_data_member_location[DW_OP_plus_uconst 0x2c]
    1372                            .dwattr $C$DW$99, DW_AT_accessibility(DW_ACCESS_public)
    1373                            .dwattr $C$DW$99, DW_AT_decl_file("C:\ti\simplelink_cc13x0_sdk_1_50_00_08\source\ti\devices\cc
    1374                            .dwattr $C$DW$99, DW_AT_decl_line(0x81)
    1375                            .dwattr $C$DW$99, DW_AT_decl_column(0x25)
TI ARM Assembler PC v16.9.4 Sat Nov 18 18:46:22 2017

Tools Copyright (c) 1996-2017 Texas Instruments Incorporated
C:\Users\Kevin\AppData\Local\Temp\{5FC2008A-5F32-4C25-9FE7-4FDE3869A457} PAGE   26

    1376                    
    1377                    $C$DW$100       .dwtag  DW_TAG_member
    1378                            .dwattr $C$DW$100, DW_AT_type(*$C$DW$T$69)
    1379                            .dwattr $C$DW$100, DW_AT_name("ReservedLocation4")
    1380                            .dwattr $C$DW$100, DW_AT_TI_symbol_name("ReservedLocation4")
    1381                            .dwattr $C$DW$100, DW_AT_data_member_location[DW_OP_plus_uconst 0x30]
    1382                            .dwattr $C$DW$100, DW_AT_accessibility(DW_ACCESS_public)
    1383                            .dwattr $C$DW$100, DW_AT_decl_file("C:\ti\simplelink_cc13x0_sdk_1_50_00_08\source\ti\devices\c
    1384                            .dwattr $C$DW$100, DW_AT_decl_line(0x82)
    1385                            .dwattr $C$DW$100, DW_AT_decl_column(0x25)
    1386                    
    1387                    $C$DW$101       .dwtag  DW_TAG_member
    1388                            .dwattr $C$DW$101, DW_AT_type(*$C$DW$T$70)
    1389                            .dwattr $C$DW$101, DW_AT_name("ReservedLocation5")
    1390                            .dwattr $C$DW$101, DW_AT_TI_symbol_name("ReservedLocation5")
    1391                            .dwattr $C$DW$101, DW_AT_data_member_location[DW_OP_plus_uconst 0x34]
    1392                            .dwattr $C$DW$101, DW_AT_accessibility(DW_ACCESS_public)
    1393                            .dwattr $C$DW$101, DW_AT_decl_file("C:\ti\simplelink_cc13x0_sdk_1_50_00_08\source\ti\devices\c
    1394                            .dwattr $C$DW$101, DW_AT_decl_line(0x83)
    1395                            .dwattr $C$DW$101, DW_AT_decl_column(0x25)
    1396                    
    1397                    $C$DW$102       .dwtag  DW_TAG_member
    1398                            .dwattr $C$DW$102, DW_AT_type(*$C$DW$T$71)
    1399                            .dwattr $C$DW$102, DW_AT_name("HFSourceSafeSwitch")
    1400                            .dwattr $C$DW$102, DW_AT_TI_symbol_name("HFSourceSafeSwitch")
    1401                            .dwattr $C$DW$102, DW_AT_data_member_location[DW_OP_plus_uconst 0x38]
    1402                            .dwattr $C$DW$102, DW_AT_accessibility(DW_ACCESS_public)
    1403                            .dwattr $C$DW$102, DW_AT_decl_file("C:\ti\simplelink_cc13x0_sdk_1_50_00_08\source\ti\devices\c
    1404                            .dwattr $C$DW$102, DW_AT_decl_line(0x84)
    1405                            .dwattr $C$DW$102, DW_AT_decl_column(0x25)
    1406                    
    1407                    $C$DW$103       .dwtag  DW_TAG_member
    1408                            .dwattr $C$DW$103, DW_AT_type(*$C$DW$T$74)
    1409                            .dwattr $C$DW$103, DW_AT_name("SelectCompAInput")
    1410                            .dwattr $C$DW$103, DW_AT_TI_symbol_name("SelectCompAInput")
    1411                            .dwattr $C$DW$103, DW_AT_data_member_location[DW_OP_plus_uconst 0x3c]
    1412                            .dwattr $C$DW$103, DW_AT_accessibility(DW_ACCESS_public)
    1413                            .dwattr $C$DW$103, DW_AT_decl_file("C:\ti\simplelink_cc13x0_sdk_1_50_00_08\source\ti\devices\c
    1414                            .dwattr $C$DW$103, DW_AT_decl_line(0x85)
    1415                            .dwattr $C$DW$103, DW_AT_decl_column(0x25)
    1416                    
    1417                    $C$DW$104       .dwtag  DW_TAG_member
    1418                            .dwattr $C$DW$104, DW_AT_type(*$C$DW$T$75)
    1419                            .dwattr $C$DW$104, DW_AT_name("SelectCompARef")
    1420                            .dwattr $C$DW$104, DW_AT_TI_symbol_name("SelectCompARef")
    1421                            .dwattr $C$DW$104, DW_AT_data_member_location[DW_OP_plus_uconst 0x40]
    1422                            .dwattr $C$DW$104, DW_AT_accessibility(DW_ACCESS_public)
    1423                            .dwattr $C$DW$104, DW_AT_decl_file("C:\ti\simplelink_cc13x0_sdk_1_50_00_08\source\ti\devices\c
    1424                            .dwattr $C$DW$104, DW_AT_decl_line(0x86)
    1425                            .dwattr $C$DW$104, DW_AT_decl_column(0x25)
    1426                    
    1427                    $C$DW$105       .dwtag  DW_TAG_member
    1428                            .dwattr $C$DW$105, DW_AT_type(*$C$DW$T$76)
    1429                            .dwattr $C$DW$105, DW_AT_name("SelectADCCompBInput")
    1430                            .dwattr $C$DW$105, DW_AT_TI_symbol_name("SelectADCCompBInput")
TI ARM Assembler PC v16.9.4 Sat Nov 18 18:46:22 2017

Tools Copyright (c) 1996-2017 Texas Instruments Incorporated
C:\Users\Kevin\AppData\Local\Temp\{5FC2008A-5F32-4C25-9FE7-4FDE3869A457} PAGE   27

    1431                            .dwattr $C$DW$105, DW_AT_data_member_location[DW_OP_plus_uconst 0x44]
    1432                            .dwattr $C$DW$105, DW_AT_accessibility(DW_ACCESS_public)
    1433                            .dwattr $C$DW$105, DW_AT_decl_file("C:\ti\simplelink_cc13x0_sdk_1_50_00_08\source\ti\devices\c
    1434                            .dwattr $C$DW$105, DW_AT_decl_line(0x87)
    1435                            .dwattr $C$DW$105, DW_AT_decl_column(0x25)
    1436                    
    1437                    $C$DW$106       .dwtag  DW_TAG_member
    1438                            .dwattr $C$DW$106, DW_AT_type(*$C$DW$T$77)
    1439                            .dwattr $C$DW$106, DW_AT_name("SelectCompBRef")
    1440                            .dwattr $C$DW$106, DW_AT_TI_symbol_name("SelectCompBRef")
    1441                            .dwattr $C$DW$106, DW_AT_data_member_location[DW_OP_plus_uconst 0x48]
    1442                            .dwattr $C$DW$106, DW_AT_accessibility(DW_ACCESS_public)
    1443                            .dwattr $C$DW$106, DW_AT_decl_file("C:\ti\simplelink_cc13x0_sdk_1_50_00_08\source\ti\devices\c
    1444                            .dwattr $C$DW$106, DW_AT_decl_line(0x88)
    1445                            .dwattr $C$DW$106, DW_AT_decl_column(0x25)
    1446                    
    1447                            .dwattr $C$DW$T$78, DW_AT_decl_file("C:\ti\simplelink_cc13x0_sdk_1_50_00_08\source\ti\devices\
    1448                            .dwattr $C$DW$T$78, DW_AT_decl_line(0x75)
    1449                            .dwattr $C$DW$T$78, DW_AT_decl_column(0x01)
    1450                            .dwendtag $C$DW$T$78
    1451                    
    1452                    $C$DW$T$181     .dwtag  DW_TAG_typedef
    1453                            .dwattr $C$DW$T$181, DW_AT_name("HARD_API_T")
    1454                            .dwattr $C$DW$T$181, DW_AT_type(*$C$DW$T$78)
    1455                            .dwattr $C$DW$T$181, DW_AT_language(DW_LANG_C)
    1456                            .dwattr $C$DW$T$181, DW_AT_decl_file("C:\ti\simplelink_cc13x0_sdk_1_50_00_08\source\ti\devices
    1457                            .dwattr $C$DW$T$181, DW_AT_decl_line(0x89)
    1458                            .dwattr $C$DW$T$181, DW_AT_decl_column(0x03)
    1459                    
    1460                    
    1461                    $C$DW$T$83      .dwtag  DW_TAG_union_type
    1462                            .dwattr $C$DW$T$83, DW_AT_byte_size(0x02)
    1463                    $C$DW$107       .dwtag  DW_TAG_member
    1464                            .dwattr $C$DW$107, DW_AT_type(*$C$DW$T$80)
    1465                            .dwattr $C$DW$107, DW_AT_name("entityId")
    1466                            .dwattr $C$DW$107, DW_AT_TI_symbol_name("entityId")
    1467                            .dwattr $C$DW$107, DW_AT_data_member_location[DW_OP_plus_uconst 0x0]
    1468                            .dwattr $C$DW$107, DW_AT_accessibility(DW_ACCESS_public)
    1469                            .dwattr $C$DW$107, DW_AT_decl_file("C:/ti/simplelink_cc13x0_sdk_1_50_00_08/source/ti/ti154stac
    1470                            .dwattr $C$DW$107, DW_AT_decl_line(0x1fe)
    1471                            .dwattr $C$DW$107, DW_AT_decl_column(0x14)
    1472                    
    1473                    $C$DW$108       .dwtag  DW_TAG_member
    1474                            .dwattr $C$DW$108, DW_AT_type(*$C$DW$T$82)
    1475                            .dwattr $C$DW$108, DW_AT_name("servId")
    1476                            .dwattr $C$DW$108, DW_AT_TI_symbol_name("servId")
    1477                            .dwattr $C$DW$108, DW_AT_data_member_location[DW_OP_plus_uconst 0x0]
    1478                            .dwattr $C$DW$108, DW_AT_accessibility(DW_ACCESS_public)
    1479                            .dwattr $C$DW$108, DW_AT_decl_file("C:/ti/simplelink_cc13x0_sdk_1_50_00_08/source/ti/ti154stac
    1480                            .dwattr $C$DW$108, DW_AT_decl_line(0x200)
    1481                            .dwattr $C$DW$108, DW_AT_decl_column(0x17)
    1482                    
    1483                            .dwattr $C$DW$T$83, DW_AT_decl_file("C:/ti/simplelink_cc13x0_sdk_1_50_00_08/source/ti/ti154sta
    1484                            .dwattr $C$DW$T$83, DW_AT_decl_line(0x1fc)
    1485                            .dwattr $C$DW$T$83, DW_AT_decl_column(0x03)
TI ARM Assembler PC v16.9.4 Sat Nov 18 18:46:22 2017

Tools Copyright (c) 1996-2017 Texas Instruments Incorporated
C:\Users\Kevin\AppData\Local\Temp\{5FC2008A-5F32-4C25-9FE7-4FDE3869A457} PAGE   28

    1486                            .dwendtag $C$DW$T$83
    1487                    
    1488                    
    1489                    $C$DW$T$84      .dwtag  DW_TAG_union_type
    1490                            .dwattr $C$DW$T$84, DW_AT_byte_size(0x02)
    1491                    $C$DW$109       .dwtag  DW_TAG_member
    1492                            .dwattr $C$DW$109, DW_AT_type(*$C$DW$T$82)
    1493                            .dwattr $C$DW$109, DW_AT_name("servId")
    1494                            .dwattr $C$DW$109, DW_AT_TI_symbol_name("servId")
    1495                            .dwattr $C$DW$109, DW_AT_data_member_location[DW_OP_plus_uconst 0x0]
    1496                            .dwattr $C$DW$109, DW_AT_accessibility(DW_ACCESS_public)
    1497                            .dwattr $C$DW$109, DW_AT_decl_file("C:/ti/simplelink_cc13x0_sdk_1_50_00_08/source/ti/ti154stac
    1498                            .dwattr $C$DW$109, DW_AT_decl_line(0x211)
    1499                            .dwattr $C$DW$109, DW_AT_decl_column(0x17)
    1500                    
    1501                    $C$DW$110       .dwtag  DW_TAG_member
    1502                            .dwattr $C$DW$110, DW_AT_type(*$C$DW$T$80)
    1503                            .dwattr $C$DW$110, DW_AT_name("entityId")
    1504                            .dwattr $C$DW$110, DW_AT_TI_symbol_name("entityId")
    1505                            .dwattr $C$DW$110, DW_AT_data_member_location[DW_OP_plus_uconst 0x0]
    1506                            .dwattr $C$DW$110, DW_AT_accessibility(DW_ACCESS_public)
    1507                            .dwattr $C$DW$110, DW_AT_decl_file("C:/ti/simplelink_cc13x0_sdk_1_50_00_08/source/ti/ti154stac
    1508                            .dwattr $C$DW$110, DW_AT_decl_line(0x213)
    1509                            .dwattr $C$DW$110, DW_AT_decl_column(0x14)
    1510                    
    1511                            .dwattr $C$DW$T$84, DW_AT_decl_file("C:/ti/simplelink_cc13x0_sdk_1_50_00_08/source/ti/ti154sta
    1512                            .dwattr $C$DW$T$84, DW_AT_decl_line(0x20f)
    1513                            .dwattr $C$DW$T$84, DW_AT_decl_column(0x03)
    1514                            .dwendtag $C$DW$T$84
    1515                    
    1516                    
    1517                    $C$DW$T$87      .dwtag  DW_TAG_union_type
    1518                            .dwattr $C$DW$T$87, DW_AT_byte_size(0x08)
    1519                    $C$DW$111       .dwtag  DW_TAG_member
    1520                            .dwattr $C$DW$111, DW_AT_type(*$C$DW$T$36)
    1521                            .dwattr $C$DW$111, DW_AT_name("shortAddr")
    1522                            .dwattr $C$DW$111, DW_AT_TI_symbol_name("shortAddr")
    1523                            .dwattr $C$DW$111, DW_AT_data_member_location[DW_OP_plus_uconst 0x0]
    1524                            .dwattr $C$DW$111, DW_AT_accessibility(DW_ACCESS_public)
    1525                            .dwattr $C$DW$111, DW_AT_decl_file("C:/Users/Kevin/workspace_v7/sensor_cc1310lp/Application/Se
    1526                            .dwattr $C$DW$111, DW_AT_decl_line(0x50)
    1527                            .dwattr $C$DW$111, DW_AT_decl_column(0x11)
    1528                    
    1529                    $C$DW$112       .dwtag  DW_TAG_member
    1530                            .dwattr $C$DW$112, DW_AT_type(*$C$DW$T$86)
    1531                            .dwattr $C$DW$112, DW_AT_name("extAddr")
    1532                            .dwattr $C$DW$112, DW_AT_TI_symbol_name("extAddr")
    1533                            .dwattr $C$DW$112, DW_AT_data_member_location[DW_OP_plus_uconst 0x0]
    1534                            .dwattr $C$DW$112, DW_AT_accessibility(DW_ACCESS_public)
    1535                            .dwattr $C$DW$112, DW_AT_decl_file("C:/Users/Kevin/workspace_v7/sensor_cc1310lp/Application/Se
    1536                            .dwattr $C$DW$112, DW_AT_decl_line(0x51)
    1537                            .dwattr $C$DW$112, DW_AT_decl_column(0x11)
    1538                    
    1539                            .dwattr $C$DW$T$87, DW_AT_decl_file("C:/Users/Kevin/workspace_v7/sensor_cc1310lp/Application/S
    1540                            .dwattr $C$DW$T$87, DW_AT_decl_line(0x4f)
TI ARM Assembler PC v16.9.4 Sat Nov 18 18:46:22 2017

Tools Copyright (c) 1996-2017 Texas Instruments Incorporated
C:\Users\Kevin\AppData\Local\Temp\{5FC2008A-5F32-4C25-9FE7-4FDE3869A457} PAGE   29

    1541                            .dwattr $C$DW$T$87, DW_AT_decl_column(0x03)
    1542                            .dwendtag $C$DW$T$87
    1543                    
    1544                    
    1545                    $C$DW$T$90      .dwtag  DW_TAG_union_type
    1546                            .dwattr $C$DW$T$90, DW_AT_byte_size(0x08)
    1547                    $C$DW$113       .dwtag  DW_TAG_member
    1548                            .dwattr $C$DW$113, DW_AT_type(*$C$DW$T$36)
    1549                            .dwattr $C$DW$113, DW_AT_name("shortAddr")
    1550                            .dwattr $C$DW$113, DW_AT_TI_symbol_name("shortAddr")
    1551                            .dwattr $C$DW$113, DW_AT_data_member_location[DW_OP_plus_uconst 0x0]
    1552                            .dwattr $C$DW$113, DW_AT_accessibility(DW_ACCESS_public)
    1553                            .dwattr $C$DW$113, DW_AT_decl_file("C:/ti/simplelink_cc13x0_sdk_1_50_00_08/source/ti/ti154stac
    1554                            .dwattr $C$DW$113, DW_AT_decl_line(0x137)
    1555                            .dwattr $C$DW$113, DW_AT_decl_column(0x11)
    1556                    
    1557                    $C$DW$114       .dwtag  DW_TAG_member
    1558                            .dwattr $C$DW$114, DW_AT_type(*$C$DW$T$89)
    1559                            .dwattr $C$DW$114, DW_AT_name("extAddr")
    1560                            .dwattr $C$DW$114, DW_AT_TI_symbol_name("extAddr")
    1561                            .dwattr $C$DW$114, DW_AT_data_member_location[DW_OP_plus_uconst 0x0]
    1562                            .dwattr $C$DW$114, DW_AT_accessibility(DW_ACCESS_public)
    1563                            .dwattr $C$DW$114, DW_AT_decl_file("C:/ti/simplelink_cc13x0_sdk_1_50_00_08/source/ti/ti154stac
    1564                            .dwattr $C$DW$114, DW_AT_decl_line(0x138)
    1565                            .dwattr $C$DW$114, DW_AT_decl_column(0x11)
    1566                    
    1567                            .dwattr $C$DW$T$90, DW_AT_decl_file("C:/ti/simplelink_cc13x0_sdk_1_50_00_08/source/ti/ti154sta
    1568                            .dwattr $C$DW$T$90, DW_AT_decl_line(0x136)
    1569                            .dwattr $C$DW$T$90, DW_AT_decl_column(0x03)
    1570                            .dwendtag $C$DW$T$90
    1571                    
    1572                    
    1573                    $C$DW$T$91      .dwtag  DW_TAG_structure_type
    1574                            .dwattr $C$DW$T$91, DW_AT_name("_ICall_LiteCmdStatus_")
    1575                            .dwattr $C$DW$T$91, DW_AT_byte_size(0x01)
    1576                    $C$DW$115       .dwtag  DW_TAG_member
    1577                            .dwattr $C$DW$115, DW_AT_type(*$C$DW$T$79)
    1578                            .dwattr $C$DW$115, DW_AT_name("cmdId")
    1579                            .dwattr $C$DW$115, DW_AT_TI_symbol_name("cmdId")
    1580                            .dwattr $C$DW$115, DW_AT_data_member_location[DW_OP_plus_uconst 0x0]
    1581                            .dwattr $C$DW$115, DW_AT_accessibility(DW_ACCESS_public)
    1582                            .dwattr $C$DW$115, DW_AT_decl_file("C:/ti/simplelink_cc13x0_sdk_1_50_00_08/source/ti/ti154stac
    1583                            .dwattr $C$DW$115, DW_AT_decl_line(0x3f0)
    1584                            .dwattr $C$DW$115, DW_AT_decl_column(0x11)
    1585                    
    1586                            .dwattr $C$DW$T$91, DW_AT_decl_file("C:/ti/simplelink_cc13x0_sdk_1_50_00_08/source/ti/ti154sta
    1587                            .dwattr $C$DW$T$91, DW_AT_decl_line(0x3ee)
    1588                            .dwattr $C$DW$T$91, DW_AT_decl_column(0x10)
    1589                            .dwendtag $C$DW$T$91
    1590                    
    1591                    $C$DW$T$182     .dwtag  DW_TAG_typedef
    1592                            .dwattr $C$DW$T$182, DW_AT_name("ICall_LiteCmdStatus")
    1593                            .dwattr $C$DW$T$182, DW_AT_type(*$C$DW$T$91)
    1594                            .dwattr $C$DW$T$182, DW_AT_language(DW_LANG_C)
    1595                            .dwattr $C$DW$T$182, DW_AT_decl_file("C:/ti/simplelink_cc13x0_sdk_1_50_00_08/source/ti/ti154st
TI ARM Assembler PC v16.9.4 Sat Nov 18 18:46:22 2017

Tools Copyright (c) 1996-2017 Texas Instruments Incorporated
C:\Users\Kevin\AppData\Local\Temp\{5FC2008A-5F32-4C25-9FE7-4FDE3869A457} PAGE   30

    1596                            .dwattr $C$DW$T$182, DW_AT_decl_line(0x3f1)
    1597                            .dwattr $C$DW$T$182, DW_AT_decl_column(0x03)
    1598                    
    1599                    $C$DW$T$2       .dwtag  DW_TAG_unspecified_type
    1600                            .dwattr $C$DW$T$2, DW_AT_name("void")
    1601                    
    1602                    $C$DW$T$3       .dwtag  DW_TAG_pointer_type
    1603                            .dwattr $C$DW$T$3, DW_AT_type(*$C$DW$T$2)
    1604                            .dwattr $C$DW$T$3, DW_AT_address_class(0x20)
    1605                    
    1606                    $C$DW$T$183     .dwtag  DW_TAG_typedef
    1607                            .dwattr $C$DW$T$183, DW_AT_name("ICall_Semaphore")
    1608                            .dwattr $C$DW$T$183, DW_AT_type(*$C$DW$T$3)
    1609                            .dwattr $C$DW$T$183, DW_AT_language(DW_LANG_C)
    1610                            .dwattr $C$DW$T$183, DW_AT_decl_file("C:/ti/simplelink_cc13x0_sdk_1_50_00_08/source/ti/ti154st
    1611                            .dwattr $C$DW$T$183, DW_AT_decl_line(0x1ac)
    1612                            .dwattr $C$DW$T$183, DW_AT_decl_column(0x0f)
    1613                    
    1614                    $C$DW$T$105     .dwtag  DW_TAG_typedef
    1615                            .dwattr $C$DW$T$105, DW_AT_name("ICall_SyncHandle")
    1616                            .dwattr $C$DW$T$105, DW_AT_type(*$C$DW$T$3)
    1617                            .dwattr $C$DW$T$105, DW_AT_language(DW_LANG_C)
    1618                            .dwattr $C$DW$T$105, DW_AT_decl_file("C:/ti/simplelink_cc13x0_sdk_1_50_00_08/source/ti/ti154st
    1619                            .dwattr $C$DW$T$105, DW_AT_decl_line(0x1aa)
    1620                            .dwattr $C$DW$T$105, DW_AT_decl_column(0x0f)
    1621                    
    1622                    $C$DW$T$150     .dwtag  DW_TAG_typedef
    1623                            .dwattr $C$DW$T$150, DW_AT_name("ICall_TimerID")
    1624                            .dwattr $C$DW$T$150, DW_AT_type(*$C$DW$T$3)
    1625                            .dwattr $C$DW$T$150, DW_AT_language(DW_LANG_C)
    1626                            .dwattr $C$DW$T$150, DW_AT_decl_file("C:/ti/simplelink_cc13x0_sdk_1_50_00_08/source/ti/ti154st
    1627                            .dwattr $C$DW$T$150, DW_AT_decl_line(0x1b7)
    1628                            .dwattr $C$DW$T$150, DW_AT_decl_column(0x0f)
    1629                    
    1630                    $C$DW$T$184     .dwtag  DW_TAG_typedef
    1631                            .dwattr $C$DW$T$184, DW_AT_name("osal_msg_q_t")
    1632                            .dwattr $C$DW$T$184, DW_AT_type(*$C$DW$T$3)
    1633                            .dwattr $C$DW$T$184, DW_AT_language(DW_LANG_C)
    1634                            .dwattr $C$DW$T$184, DW_AT_decl_file("C:/Users/Kevin/workspace_v7/sensor_cc1310lp/Application/
    1635                            .dwattr $C$DW$T$184, DW_AT_decl_line(0x7d)
    1636                            .dwattr $C$DW$T$184, DW_AT_decl_column(0x10)
    1637                    
    1638                    
    1639                    $C$DW$T$52      .dwtag  DW_TAG_subroutine_type
    1640                            .dwattr $C$DW$T$52, DW_AT_language(DW_LANG_C)
    1641                            .dwendtag $C$DW$T$52
    1642                    
    1643                    $C$DW$T$53      .dwtag  DW_TAG_pointer_type
    1644                            .dwattr $C$DW$T$53, DW_AT_type(*$C$DW$T$52)
    1645                            .dwattr $C$DW$T$53, DW_AT_address_class(0x20)
    1646                    
    1647                    $C$DW$T$166     .dwtag  DW_TAG_typedef
    1648                            .dwattr $C$DW$T$166, DW_AT_name("APPASRTINTF_callAssrtHndler")
    1649                            .dwattr $C$DW$T$166, DW_AT_type(*$C$DW$T$53)
    1650                            .dwattr $C$DW$T$166, DW_AT_language(DW_LANG_C)
TI ARM Assembler PC v16.9.4 Sat Nov 18 18:46:22 2017

Tools Copyright (c) 1996-2017 Texas Instruments Incorporated
C:\Users\Kevin\AppData\Local\Temp\{5FC2008A-5F32-4C25-9FE7-4FDE3869A457} PAGE   31

    1651                            .dwattr $C$DW$T$166, DW_AT_decl_file("C:/ti/simplelink_cc13x0_sdk_1_50_00_08/source/ti/ti154st
    1652                            .dwattr $C$DW$T$166, DW_AT_decl_line(0x43)
    1653                            .dwattr $C$DW$T$166, DW_AT_decl_column(0x10)
    1654                    
    1655                    $C$DW$T$71      .dwtag  DW_TAG_typedef
    1656                            .dwattr $C$DW$T$71, DW_AT_name("FPTR_HFSOURCESAFESWITCH_T")
    1657                            .dwattr $C$DW$T$71, DW_AT_type(*$C$DW$T$53)
    1658                            .dwattr $C$DW$T$71, DW_AT_language(DW_LANG_C)
    1659                            .dwattr $C$DW$T$71, DW_AT_decl_file("C:\ti\simplelink_cc13x0_sdk_1_50_00_08\source\ti\devices\
    1660                            .dwattr $C$DW$T$71, DW_AT_decl_line(0x5f)
    1661                            .dwattr $C$DW$T$71, DW_AT_decl_column(0x19)
    1662                    
    1663                    $C$DW$T$54      .dwtag  DW_TAG_typedef
    1664                            .dwattr $C$DW$T$54, DW_AT_name("FPTR_RESETDEV_T")
    1665                            .dwattr $C$DW$T$54, DW_AT_type(*$C$DW$T$53)
    1666                            .dwattr $C$DW$T$54, DW_AT_language(DW_LANG_C)
    1667                            .dwattr $C$DW$T$54, DW_AT_decl_file("C:\ti\simplelink_cc13x0_sdk_1_50_00_08\source\ti\devices\
    1668                            .dwattr $C$DW$T$54, DW_AT_decl_line(0x4d)
    1669                            .dwattr $C$DW$T$54, DW_AT_decl_column(0x19)
    1670                    
    1671                    $C$DW$T$185     .dwtag  DW_TAG_typedef
    1672                            .dwattr $C$DW$T$185, DW_AT_name("FPTR_VOID_VOID_T")
    1673                            .dwattr $C$DW$T$185, DW_AT_type(*$C$DW$T$53)
    1674                            .dwattr $C$DW$T$185, DW_AT_language(DW_LANG_C)
    1675                            .dwattr $C$DW$T$185, DW_AT_decl_file("C:/ti/simplelink_cc13x0_sdk_1_50_00_08/source/ti/devices
    1676                            .dwattr $C$DW$T$185, DW_AT_decl_line(0x33)
    1677                            .dwattr $C$DW$T$185, DW_AT_decl_column(0x11)
    1678                    
    1679                    $C$DW$T$186     .dwtag  DW_TAG_typedef
    1680                            .dwattr $C$DW$T$186, DW_AT_name("__TI_atexit_fn")
    1681                            .dwattr $C$DW$T$186, DW_AT_type(*$C$DW$T$53)
    1682                            .dwattr $C$DW$T$186, DW_AT_language(DW_LANG_C)
    1683                            .dwattr $C$DW$T$186, DW_AT_decl_file("C:/ti/ccsv7/tools/compiler/ti-cgt-arm_16.9.4.LTS/include
    1684                            .dwattr $C$DW$T$186, DW_AT_decl_line(0xb9)
    1685                            .dwattr $C$DW$T$186, DW_AT_decl_column(0x14)
    1686                    
    1687                    
    1688                    $C$DW$T$67      .dwtag  DW_TAG_subroutine_type
    1689                            .dwattr $C$DW$T$67, DW_AT_language(DW_LANG_C)
    1690                    $C$DW$116       .dwtag  DW_TAG_formal_parameter
    1691                            .dwattr $C$DW$116, DW_AT_type(*$C$DW$T$22)
    1692                    
    1693                            .dwendtag $C$DW$T$67
    1694                    
    1695                    $C$DW$T$68      .dwtag  DW_TAG_pointer_type
    1696                            .dwattr $C$DW$T$68, DW_AT_type(*$C$DW$T$67)
    1697                            .dwattr $C$DW$T$68, DW_AT_address_class(0x20)
    1698                    
    1699                    $C$DW$T$69      .dwtag  DW_TAG_typedef
    1700                            .dwattr $C$DW$T$69, DW_AT_name("FPTR_RESERVED4_T")
    1701                            .dwattr $C$DW$T$69, DW_AT_type(*$C$DW$T$68)
    1702                            .dwattr $C$DW$T$69, DW_AT_language(DW_LANG_C)
    1703                            .dwattr $C$DW$T$69, DW_AT_decl_file("C:\ti\simplelink_cc13x0_sdk_1_50_00_08\source\ti\devices\
    1704                            .dwattr $C$DW$T$69, DW_AT_decl_line(0x61)
    1705                            .dwattr $C$DW$T$69, DW_AT_decl_column(0x19)
TI ARM Assembler PC v16.9.4 Sat Nov 18 18:46:22 2017

Tools Copyright (c) 1996-2017 Texas Instruments Incorporated
C:\Users\Kevin\AppData\Local\Temp\{5FC2008A-5F32-4C25-9FE7-4FDE3869A457} PAGE   32

    1706                    
    1707                    $C$DW$T$70      .dwtag  DW_TAG_typedef
    1708                            .dwattr $C$DW$T$70, DW_AT_name("FPTR_RESERVED5_T")
    1709                            .dwattr $C$DW$T$70, DW_AT_type(*$C$DW$T$68)
    1710                            .dwattr $C$DW$T$70, DW_AT_language(DW_LANG_C)
    1711                            .dwattr $C$DW$T$70, DW_AT_decl_file("C:\ti\simplelink_cc13x0_sdk_1_50_00_08\source\ti\devices\
    1712                            .dwattr $C$DW$T$70, DW_AT_decl_line(0x63)
    1713                            .dwattr $C$DW$T$70, DW_AT_decl_column(0x19)
    1714                    
    1715                    
    1716                    $C$DW$T$72      .dwtag  DW_TAG_subroutine_type
    1717                            .dwattr $C$DW$T$72, DW_AT_language(DW_LANG_C)
    1718                    $C$DW$117       .dwtag  DW_TAG_formal_parameter
    1719                            .dwattr $C$DW$117, DW_AT_type(*$C$DW$T$38)
    1720                    
    1721                            .dwendtag $C$DW$T$72
    1722                    
    1723                    $C$DW$T$73      .dwtag  DW_TAG_pointer_type
    1724                            .dwattr $C$DW$T$73, DW_AT_type(*$C$DW$T$72)
    1725                            .dwattr $C$DW$T$73, DW_AT_address_class(0x20)
    1726                    
    1727                    $C$DW$T$76      .dwtag  DW_TAG_typedef
    1728                            .dwattr $C$DW$T$76, DW_AT_name("FPTR_ADCCOMPBIN_T")
    1729                            .dwattr $C$DW$T$76, DW_AT_type(*$C$DW$T$73)
    1730                            .dwattr $C$DW$T$76, DW_AT_language(DW_LANG_C)
    1731                            .dwattr $C$DW$T$76, DW_AT_decl_file("C:\ti\simplelink_cc13x0_sdk_1_50_00_08\source\ti\devices\
    1732                            .dwattr $C$DW$T$76, DW_AT_decl_line(0x69)
    1733                            .dwattr $C$DW$T$76, DW_AT_decl_column(0x19)
    1734                    
    1735                    $C$DW$T$74      .dwtag  DW_TAG_typedef
    1736                            .dwattr $C$DW$T$74, DW_AT_name("FPTR_COMPAIN_T")
    1737                            .dwattr $C$DW$T$74, DW_AT_type(*$C$DW$T$73)
    1738                            .dwattr $C$DW$T$74, DW_AT_language(DW_LANG_C)
    1739                            .dwattr $C$DW$T$74, DW_AT_decl_file("C:\ti\simplelink_cc13x0_sdk_1_50_00_08\source\ti\devices\
    1740                            .dwattr $C$DW$T$74, DW_AT_decl_line(0x65)
    1741                            .dwattr $C$DW$T$74, DW_AT_decl_column(0x19)
    1742                    
    1743                    $C$DW$T$75      .dwtag  DW_TAG_typedef
    1744                            .dwattr $C$DW$T$75, DW_AT_name("FPTR_COMPAREF_T")
    1745                            .dwattr $C$DW$T$75, DW_AT_type(*$C$DW$T$73)
    1746                            .dwattr $C$DW$T$75, DW_AT_language(DW_LANG_C)
    1747                            .dwattr $C$DW$T$75, DW_AT_decl_file("C:\ti\simplelink_cc13x0_sdk_1_50_00_08\source\ti\devices\
    1748                            .dwattr $C$DW$T$75, DW_AT_decl_line(0x67)
    1749                            .dwattr $C$DW$T$75, DW_AT_decl_column(0x19)
    1750                    
    1751                    $C$DW$T$77      .dwtag  DW_TAG_typedef
    1752                            .dwattr $C$DW$T$77, DW_AT_name("FPTR_COMPBREF_T")
    1753                            .dwattr $C$DW$T$77, DW_AT_type(*$C$DW$T$73)
    1754                            .dwattr $C$DW$T$77, DW_AT_language(DW_LANG_C)
    1755                            .dwattr $C$DW$T$77, DW_AT_decl_file("C:\ti\simplelink_cc13x0_sdk_1_50_00_08\source\ti\devices\
    1756                            .dwattr $C$DW$T$77, DW_AT_decl_line(0x6b)
    1757                            .dwattr $C$DW$T$77, DW_AT_decl_column(0x19)
    1758                    
    1759                    $C$DW$T$187     .dwtag  DW_TAG_typedef
    1760                            .dwattr $C$DW$T$187, DW_AT_name("FPTR_VOID_UINT8_T")
TI ARM Assembler PC v16.9.4 Sat Nov 18 18:46:22 2017

Tools Copyright (c) 1996-2017 Texas Instruments Incorporated
C:\Users\Kevin\AppData\Local\Temp\{5FC2008A-5F32-4C25-9FE7-4FDE3869A457} PAGE   33

    1761                            .dwattr $C$DW$T$187, DW_AT_type(*$C$DW$T$73)
    1762                            .dwattr $C$DW$T$187, DW_AT_language(DW_LANG_C)
    1763                            .dwattr $C$DW$T$187, DW_AT_decl_file("C:/ti/simplelink_cc13x0_sdk_1_50_00_08/source/ti/devices
    1764                            .dwattr $C$DW$T$187, DW_AT_decl_line(0x34)
    1765                            .dwattr $C$DW$T$187, DW_AT_decl_column(0x11)
    1766                    
    1767                    
    1768                    $C$DW$T$95      .dwtag  DW_TAG_subroutine_type
    1769                            .dwattr $C$DW$T$95, DW_AT_language(DW_LANG_C)
    1770                    $C$DW$118       .dwtag  DW_TAG_formal_parameter
    1771                            .dwattr $C$DW$118, DW_AT_type(*$C$DW$T$93)
    1772                    
    1773                            .dwendtag $C$DW$T$95
    1774                    
    1775                    $C$DW$T$96      .dwtag  DW_TAG_pointer_type
    1776                            .dwattr $C$DW$T$96, DW_AT_type(*$C$DW$T$95)
    1777                            .dwattr $C$DW$T$96, DW_AT_address_class(0x20)
    1778                    
    1779                    
    1780                    $C$DW$T$128     .dwtag  DW_TAG_subroutine_type
    1781                            .dwattr $C$DW$T$128, DW_AT_language(DW_LANG_C)
    1782                    $C$DW$119       .dwtag  DW_TAG_formal_parameter
    1783                            .dwattr $C$DW$119, DW_AT_type(*$C$DW$T$126)
    1784                    
    1785                    $C$DW$120       .dwtag  DW_TAG_formal_parameter
    1786                            .dwattr $C$DW$120, DW_AT_type(*$C$DW$T$127)
    1787                    
    1788                            .dwendtag $C$DW$T$128
    1789                    
    1790                    $C$DW$T$129     .dwtag  DW_TAG_pointer_type
    1791                            .dwattr $C$DW$T$129, DW_AT_type(*$C$DW$T$128)
    1792                            .dwattr $C$DW$T$129, DW_AT_address_class(0x20)
    1793                    
    1794                    $C$DW$T$130     .dwtag  DW_TAG_typedef
    1795                            .dwattr $C$DW$T$130, DW_AT_name("ICall_PwrNotifyFn")
    1796                            .dwattr $C$DW$T$130, DW_AT_type(*$C$DW$T$129)
    1797                            .dwattr $C$DW$T$130, DW_AT_language(DW_LANG_C)
    1798                            .dwattr $C$DW$T$130, DW_AT_decl_file("C:/ti/simplelink_cc13x0_sdk_1_50_00_08/source/ti/ti154st
    1799                            .dwattr $C$DW$T$130, DW_AT_decl_line(0x333)
    1800                            .dwattr $C$DW$T$130, DW_AT_decl_column(0x10)
    1801                    
    1802                    
    1803                    $C$DW$T$144     .dwtag  DW_TAG_subroutine_type
    1804                            .dwattr $C$DW$T$144, DW_AT_language(DW_LANG_C)
    1805                    $C$DW$121       .dwtag  DW_TAG_formal_parameter
    1806                            .dwattr $C$DW$121, DW_AT_type(*$C$DW$T$140)
    1807                    
    1808                            .dwendtag $C$DW$T$144
    1809                    
    1810                    $C$DW$T$145     .dwtag  DW_TAG_pointer_type
    1811                            .dwattr $C$DW$T$145, DW_AT_type(*$C$DW$T$144)
    1812                            .dwattr $C$DW$T$145, DW_AT_address_class(0x20)
    1813                    
    1814                    $C$DW$T$146     .dwtag  DW_TAG_typedef
    1815                            .dwattr $C$DW$T$146, DW_AT_name("ICall_LeaveCS")
TI ARM Assembler PC v16.9.4 Sat Nov 18 18:46:22 2017

Tools Copyright (c) 1996-2017 Texas Instruments Incorporated
C:\Users\Kevin\AppData\Local\Temp\{5FC2008A-5F32-4C25-9FE7-4FDE3869A457} PAGE   34

    1816                            .dwattr $C$DW$T$146, DW_AT_type(*$C$DW$T$145)
    1817                            .dwattr $C$DW$T$146, DW_AT_language(DW_LANG_C)
    1818                            .dwattr $C$DW$T$146, DW_AT_decl_file("C:/ti/simplelink_cc13x0_sdk_1_50_00_08/source/ti/ti154st
    1819                            .dwattr $C$DW$T$146, DW_AT_decl_line(0x37e)
    1820                            .dwattr $C$DW$T$146, DW_AT_decl_column(0x10)
    1821                    
    1822                    
    1823                    $C$DW$T$151     .dwtag  DW_TAG_subroutine_type
    1824                            .dwattr $C$DW$T$151, DW_AT_language(DW_LANG_C)
    1825                    $C$DW$122       .dwtag  DW_TAG_formal_parameter
    1826                            .dwattr $C$DW$122, DW_AT_type(*$C$DW$T$3)
    1827                    
    1828                            .dwendtag $C$DW$T$151
    1829                    
    1830                    $C$DW$T$152     .dwtag  DW_TAG_pointer_type
    1831                            .dwattr $C$DW$T$152, DW_AT_type(*$C$DW$T$151)
    1832                            .dwattr $C$DW$T$152, DW_AT_address_class(0x20)
    1833                    
    1834                    $C$DW$T$153     .dwtag  DW_TAG_typedef
    1835                            .dwattr $C$DW$T$153, DW_AT_name("ICall_TimerCback")
    1836                            .dwattr $C$DW$T$153, DW_AT_type(*$C$DW$T$152)
    1837                            .dwattr $C$DW$T$153, DW_AT_language(DW_LANG_C)
    1838                            .dwattr $C$DW$T$153, DW_AT_decl_file("C:/ti/simplelink_cc13x0_sdk_1_50_00_08/source/ti/ti154st
    1839                            .dwattr $C$DW$T$153, DW_AT_decl_line(0x1c8)
    1840                            .dwattr $C$DW$T$153, DW_AT_decl_column(0x10)
    1841                    
    1842                    $C$DW$T$188     .dwtag  DW_TAG_typedef
    1843                            .dwattr $C$DW$T$188, DW_AT_name("osal_highres_timer_cback_t")
    1844                            .dwattr $C$DW$T$188, DW_AT_type(*$C$DW$T$152)
    1845                            .dwattr $C$DW$T$188, DW_AT_language(DW_LANG_C)
    1846                            .dwattr $C$DW$T$188, DW_AT_decl_file("C:/Users/Kevin/workspace_v7/sensor_cc1310lp/Application/
    1847                            .dwattr $C$DW$T$188, DW_AT_decl_line(0x81)
    1848                            .dwattr $C$DW$T$188, DW_AT_decl_column(0x10)
    1849                    
    1850                    $C$DW$T$189     .dwtag  DW_TAG_typedef
    1851                            .dwattr $C$DW$T$189, DW_AT_name("osal_icallMsg_hook_t")
    1852                            .dwattr $C$DW$T$189, DW_AT_type(*$C$DW$T$152)
    1853                            .dwattr $C$DW$T$189, DW_AT_language(DW_LANG_C)
    1854                            .dwattr $C$DW$T$189, DW_AT_decl_file("C:/Users/Kevin/workspace_v7/sensor_cc1310lp/Application/
    1855                            .dwattr $C$DW$T$189, DW_AT_decl_line(0x85)
    1856                            .dwattr $C$DW$T$189, DW_AT_decl_column(0x10)
    1857                    
    1858                    $C$DW$T$160     .dwtag  DW_TAG_const_type
    1859                            .dwattr $C$DW$T$160, DW_AT_type(*$C$DW$T$2)
    1860                    
    1861                    $C$DW$T$161     .dwtag  DW_TAG_pointer_type
    1862                            .dwattr $C$DW$T$161, DW_AT_type(*$C$DW$T$160)
    1863                            .dwattr $C$DW$T$161, DW_AT_address_class(0x20)
    1864                    
    1865                    
    1866                    $C$DW$T$192     .dwtag  DW_TAG_subroutine_type
    1867                            .dwattr $C$DW$T$192, DW_AT_language(DW_LANG_C)
    1868                    $C$DW$123       .dwtag  DW_TAG_formal_parameter
    1869                            .dwattr $C$DW$123, DW_AT_type(*$C$DW$T$190)
    1870                    
TI ARM Assembler PC v16.9.4 Sat Nov 18 18:46:22 2017

Tools Copyright (c) 1996-2017 Texas Instruments Incorporated
C:\Users\Kevin\AppData\Local\Temp\{5FC2008A-5F32-4C25-9FE7-4FDE3869A457} PAGE   35

    1871                    $C$DW$124       .dwtag  DW_TAG_formal_parameter
    1872                            .dwattr $C$DW$124, DW_AT_type(*$C$DW$T$190)
    1873                    
    1874                            .dwendtag $C$DW$T$192
    1875                    
    1876                    $C$DW$T$193     .dwtag  DW_TAG_pointer_type
    1877                            .dwattr $C$DW$T$193, DW_AT_type(*$C$DW$T$192)
    1878                            .dwattr $C$DW$T$193, DW_AT_address_class(0x20)
    1879                    
    1880                    
    1881                    $C$DW$T$195     .dwtag  DW_TAG_subroutine_type
    1882                            .dwattr $C$DW$T$195, DW_AT_language(DW_LANG_C)
    1883                    $C$DW$125       .dwtag  DW_TAG_formal_parameter
    1884                            .dwattr $C$DW$125, DW_AT_type(*$C$DW$T$30)
    1885                    
    1886                    $C$DW$126       .dwtag  DW_TAG_formal_parameter
    1887                            .dwattr $C$DW$126, DW_AT_type(*$C$DW$T$30)
    1888                    
    1889                            .dwendtag $C$DW$T$195
    1890                    
    1891                    $C$DW$T$196     .dwtag  DW_TAG_pointer_type
    1892                            .dwattr $C$DW$T$196, DW_AT_type(*$C$DW$T$195)
    1893                            .dwattr $C$DW$T$196, DW_AT_address_class(0x20)
    1894                    
    1895                    $C$DW$T$197     .dwtag  DW_TAG_typedef
    1896                            .dwattr $C$DW$T$197, DW_AT_name("assertCback_t")
    1897                            .dwattr $C$DW$T$197, DW_AT_type(*$C$DW$T$196)
    1898                            .dwattr $C$DW$T$197, DW_AT_language(DW_LANG_C)
    1899                            .dwattr $C$DW$T$197, DW_AT_decl_file("C:/ti/simplelink_cc13x0_sdk_1_50_00_08/source/ti/ti154st
    1900                            .dwattr $C$DW$T$197, DW_AT_decl_line(0xd3)
    1901                            .dwattr $C$DW$T$197, DW_AT_decl_column(0x10)
    1902                    
    1903                    
    1904                    $C$DW$T$201     .dwtag  DW_TAG_subroutine_type
    1905                            .dwattr $C$DW$T$201, DW_AT_language(DW_LANG_C)
    1906                    $C$DW$127       .dwtag  DW_TAG_formal_parameter
    1907                            .dwattr $C$DW$127, DW_AT_type(*$C$DW$T$200)
    1908                    
    1909                    $C$DW$128       .dwtag  DW_TAG_formal_parameter
    1910                            .dwattr $C$DW$128, DW_AT_type(*$C$DW$T$3)
    1911                    
    1912                            .dwendtag $C$DW$T$201
    1913                    
    1914                    $C$DW$T$202     .dwtag  DW_TAG_pointer_type
    1915                            .dwattr $C$DW$T$202, DW_AT_type(*$C$DW$T$201)
    1916                            .dwattr $C$DW$T$202, DW_AT_address_class(0x20)
    1917                    
    1918                    $C$DW$T$203     .dwtag  DW_TAG_typedef
    1919                            .dwattr $C$DW$T$203, DW_AT_name("ICall_RemoteTaskEntry")
    1920                            .dwattr $C$DW$T$203, DW_AT_type(*$C$DW$T$202)
    1921                            .dwattr $C$DW$T$203, DW_AT_language(DW_LANG_C)
    1922                            .dwattr $C$DW$T$203, DW_AT_decl_file("C:/ti/simplelink_cc13x0_sdk_1_50_00_08/source/ti/ti154st
    1923                            .dwattr $C$DW$T$203, DW_AT_decl_line(0x39b)
    1924                            .dwattr $C$DW$T$203, DW_AT_decl_column(0x10)
    1925                    
TI ARM Assembler PC v16.9.4 Sat Nov 18 18:46:22 2017

Tools Copyright (c) 1996-2017 Texas Instruments Incorporated
C:\Users\Kevin\AppData\Local\Temp\{5FC2008A-5F32-4C25-9FE7-4FDE3869A457} PAGE   36

    1926                    $C$DW$T$4       .dwtag  DW_TAG_base_type
    1927                            .dwattr $C$DW$T$4, DW_AT_encoding(DW_ATE_boolean)
    1928                            .dwattr $C$DW$T$4, DW_AT_name("bool")
    1929                            .dwattr $C$DW$T$4, DW_AT_byte_size(0x01)
    1930                    
    1931                    $C$DW$T$5       .dwtag  DW_TAG_base_type
    1932                            .dwattr $C$DW$T$5, DW_AT_encoding(DW_ATE_signed_char)
    1933                            .dwattr $C$DW$T$5, DW_AT_name("signed char")
    1934                            .dwattr $C$DW$T$5, DW_AT_byte_size(0x01)
    1935                    
    1936                    $C$DW$T$204     .dwtag  DW_TAG_typedef
    1937                            .dwattr $C$DW$T$204, DW_AT_name("int8")
    1938                            .dwattr $C$DW$T$204, DW_AT_type(*$C$DW$T$5)
    1939                            .dwattr $C$DW$T$204, DW_AT_language(DW_LANG_C)
    1940                            .dwattr $C$DW$T$204, DW_AT_decl_file("C:\ti\simplelink_cc13x0_sdk_1_50_00_08\source\ti\ti154st
    1941                            .dwattr $C$DW$T$204, DW_AT_decl_line(0x38)
    1942                            .dwattr $C$DW$T$204, DW_AT_decl_column(0x19)
    1943                    
    1944                    $C$DW$T$205     .dwtag  DW_TAG_typedef
    1945                            .dwattr $C$DW$T$205, DW_AT_name("int8_t")
    1946                            .dwattr $C$DW$T$205, DW_AT_type(*$C$DW$T$5)
    1947                            .dwattr $C$DW$T$205, DW_AT_language(DW_LANG_C)
    1948                            .dwattr $C$DW$T$205, DW_AT_decl_file("C:/ti/ccsv7/tools/compiler/ti-cgt-arm_16.9.4.LTS/include
    1949                            .dwattr $C$DW$T$205, DW_AT_decl_line(0x2a)
    1950                            .dwattr $C$DW$T$205, DW_AT_decl_column(0x1d)
    1951                    
    1952                    $C$DW$T$206     .dwtag  DW_TAG_typedef
    1953                            .dwattr $C$DW$T$206, DW_AT_name("int_least8_t")
    1954                            .dwattr $C$DW$T$206, DW_AT_type(*$C$DW$T$205)
    1955                            .dwattr $C$DW$T$206, DW_AT_language(DW_LANG_C)
    1956                            .dwattr $C$DW$T$206, DW_AT_decl_file("C:/ti/ccsv7/tools/compiler/ti-cgt-arm_16.9.4.LTS/include
    1957                            .dwattr $C$DW$T$206, DW_AT_decl_line(0x37)
    1958                            .dwattr $C$DW$T$206, DW_AT_decl_column(0x17)
    1959                    
    1960                    $C$DW$T$6       .dwtag  DW_TAG_base_type
    1961                            .dwattr $C$DW$T$6, DW_AT_encoding(DW_ATE_unsigned_char)
    1962                            .dwattr $C$DW$T$6, DW_AT_name("unsigned char")
    1963                            .dwattr $C$DW$T$6, DW_AT_byte_size(0x01)
    1964                    
    1965                    $C$DW$T$30      .dwtag  DW_TAG_typedef
    1966                            .dwattr $C$DW$T$30, DW_AT_name("uint8")
    1967                            .dwattr $C$DW$T$30, DW_AT_type(*$C$DW$T$6)
    1968                            .dwattr $C$DW$T$30, DW_AT_language(DW_LANG_C)
    1969                            .dwattr $C$DW$T$30, DW_AT_decl_file("C:\ti\simplelink_cc13x0_sdk_1_50_00_08\source\ti\ti154sta
    1970                            .dwattr $C$DW$T$30, DW_AT_decl_line(0x39)
    1971                            .dwattr $C$DW$T$30, DW_AT_decl_column(0x19)
    1972                    
    1973                    $C$DW$T$210     .dwtag  DW_TAG_typedef
    1974                            .dwattr $C$DW$T$210, DW_AT_name("Status_t")
    1975                            .dwattr $C$DW$T$210, DW_AT_type(*$C$DW$T$30)
    1976                            .dwattr $C$DW$T$210, DW_AT_language(DW_LANG_C)
    1977                            .dwattr $C$DW$T$210, DW_AT_decl_file("C:\Users\Kevin\workspace_v7\sensor_cc1310lp\Application\
    1978                            .dwattr $C$DW$T$210, DW_AT_decl_line(0x77)
    1979                            .dwattr $C$DW$T$210, DW_AT_decl_column(0x0f)
    1980                    
TI ARM Assembler PC v16.9.4 Sat Nov 18 18:46:22 2017

Tools Copyright (c) 1996-2017 Texas Instruments Incorporated
C:\Users\Kevin\AppData\Local\Temp\{5FC2008A-5F32-4C25-9FE7-4FDE3869A457} PAGE   37

    1981                    $C$DW$T$211     .dwtag  DW_TAG_typedef
    1982                            .dwattr $C$DW$T$211, DW_AT_name("ZStatus_t")
    1983                            .dwattr $C$DW$T$211, DW_AT_type(*$C$DW$T$210)
    1984                            .dwattr $C$DW$T$211, DW_AT_language(DW_LANG_C)
    1985                            .dwattr $C$DW$T$211, DW_AT_decl_file("C:/ti/simplelink_cc13x0_sdk_1_50_00_08/source/ti/ti154st
    1986                            .dwattr $C$DW$T$211, DW_AT_decl_line(0x194)
    1987                            .dwattr $C$DW$T$211, DW_AT_decl_column(0x12)
    1988                    
    1989                    
    1990                    $C$DW$T$85      .dwtag  DW_TAG_array_type
    1991                            .dwattr $C$DW$T$85, DW_AT_type(*$C$DW$T$30)
    1992                            .dwattr $C$DW$T$85, DW_AT_language(DW_LANG_C)
    1993                            .dwattr $C$DW$T$85, DW_AT_byte_size(0x08)
    1994                    $C$DW$129       .dwtag  DW_TAG_subrange_type
    1995                            .dwattr $C$DW$129, DW_AT_upper_bound(0x07)
    1996                    
    1997                            .dwendtag $C$DW$T$85
    1998                    
    1999                    $C$DW$T$86      .dwtag  DW_TAG_typedef
    2000                            .dwattr $C$DW$T$86, DW_AT_name("sAddrExt_t")
    2001                            .dwattr $C$DW$T$86, DW_AT_type(*$C$DW$T$85)
    2002                            .dwattr $C$DW$T$86, DW_AT_language(DW_LANG_C)
    2003                            .dwattr $C$DW$T$86, DW_AT_decl_file("C:/Users/Kevin/workspace_v7/sensor_cc1310lp/Application/S
    2004                            .dwattr $C$DW$T$86, DW_AT_decl_line(0x49)
    2005                            .dwattr $C$DW$T$86, DW_AT_decl_column(0x0f)
    2006                    
    2007                    $C$DW$T$190     .dwtag  DW_TAG_pointer_type
    2008                            .dwattr $C$DW$T$190, DW_AT_type(*$C$DW$T$30)
    2009                            .dwattr $C$DW$T$190, DW_AT_address_class(0x20)
    2010                    
    2011                    $C$DW$T$212     .dwtag  DW_TAG_const_type
    2012                            .dwattr $C$DW$T$212, DW_AT_type(*$C$DW$T$190)
    2013                    
    2014                    $C$DW$T$33      .dwtag  DW_TAG_typedef
    2015                            .dwattr $C$DW$T$33, DW_AT_name("byte")
    2016                            .dwattr $C$DW$T$33, DW_AT_type(*$C$DW$T$30)
    2017                            .dwattr $C$DW$T$33, DW_AT_language(DW_LANG_C)
    2018                            .dwattr $C$DW$T$33, DW_AT_decl_file("C:/ti/simplelink_cc13x0_sdk_1_50_00_08/source/ti/ti154sta
    2019                            .dwattr $C$DW$T$33, DW_AT_decl_line(0x122)
    2020                            .dwattr $C$DW$T$33, DW_AT_decl_column(0x11)
    2021                    
    2022                    
    2023                    $C$DW$T$88      .dwtag  DW_TAG_array_type
    2024                            .dwattr $C$DW$T$88, DW_AT_type(*$C$DW$T$33)
    2025                            .dwattr $C$DW$T$88, DW_AT_language(DW_LANG_C)
    2026                            .dwattr $C$DW$T$88, DW_AT_byte_size(0x08)
    2027                    $C$DW$130       .dwtag  DW_TAG_subrange_type
    2028                            .dwattr $C$DW$130, DW_AT_upper_bound(0x07)
    2029                    
    2030                            .dwendtag $C$DW$T$88
    2031                    
    2032                    $C$DW$T$89      .dwtag  DW_TAG_typedef
    2033                            .dwattr $C$DW$T$89, DW_AT_name("ZLongAddr_t")
    2034                            .dwattr $C$DW$T$89, DW_AT_type(*$C$DW$T$88)
    2035                            .dwattr $C$DW$T$89, DW_AT_language(DW_LANG_C)
TI ARM Assembler PC v16.9.4 Sat Nov 18 18:46:22 2017

Tools Copyright (c) 1996-2017 Texas Instruments Incorporated
C:\Users\Kevin\AppData\Local\Temp\{5FC2008A-5F32-4C25-9FE7-4FDE3869A457} PAGE   38

    2036                            .dwattr $C$DW$T$89, DW_AT_decl_file("C:/ti/simplelink_cc13x0_sdk_1_50_00_08/source/ti/ti154sta
    2037                            .dwattr $C$DW$T$89, DW_AT_decl_line(0x131)
    2038                            .dwattr $C$DW$T$89, DW_AT_decl_column(0x0e)
    2039                    
    2040                    $C$DW$T$38      .dwtag  DW_TAG_typedef
    2041                            .dwattr $C$DW$T$38, DW_AT_name("uint8_t")
    2042                            .dwattr $C$DW$T$38, DW_AT_type(*$C$DW$T$6)
    2043                            .dwattr $C$DW$T$38, DW_AT_language(DW_LANG_C)
    2044                            .dwattr $C$DW$T$38, DW_AT_decl_file("C:/ti/ccsv7/tools/compiler/ti-cgt-arm_16.9.4.LTS/include/
    2045                            .dwattr $C$DW$T$38, DW_AT_decl_line(0x2b)
    2046                            .dwattr $C$DW$T$38, DW_AT_decl_column(0x1c)
    2047                    
    2048                    $C$DW$T$39      .dwtag  DW_TAG_pointer_type
    2049                            .dwattr $C$DW$T$39, DW_AT_type(*$C$DW$T$38)
    2050                            .dwattr $C$DW$T$39, DW_AT_address_class(0x20)
    2051                    
    2052                    $C$DW$T$214     .dwtag  DW_TAG_volatile_type
    2053                            .dwattr $C$DW$T$214, DW_AT_type(*$C$DW$T$38)
    2054                    
    2055                    $C$DW$T$215     .dwtag  DW_TAG_typedef
    2056                            .dwattr $C$DW$T$215, DW_AT_name("tFwpWriteByte")
    2057                            .dwattr $C$DW$T$215, DW_AT_type(*$C$DW$T$214)
    2058                            .dwattr $C$DW$T$215, DW_AT_language(DW_LANG_C)
    2059                            .dwattr $C$DW$T$215, DW_AT_decl_file("C:/ti/simplelink_cc13x0_sdk_1_50_00_08/source/ti/devices
    2060                            .dwattr $C$DW$T$215, DW_AT_decl_line(0xde)
    2061                            .dwattr $C$DW$T$215, DW_AT_decl_column(0x1a)
    2062                    
    2063                    $C$DW$T$79      .dwtag  DW_TAG_typedef
    2064                            .dwattr $C$DW$T$79, DW_AT_name("uint_least8_t")
    2065                            .dwattr $C$DW$T$79, DW_AT_type(*$C$DW$T$38)
    2066                            .dwattr $C$DW$T$79, DW_AT_language(DW_LANG_C)
    2067                            .dwattr $C$DW$T$79, DW_AT_decl_file("C:/ti/ccsv7/tools/compiler/ti-cgt-arm_16.9.4.LTS/include/
    2068                            .dwattr $C$DW$T$79, DW_AT_decl_line(0x38)
    2069                            .dwattr $C$DW$T$79, DW_AT_decl_column(0x16)
    2070                    
    2071                    $C$DW$T$80      .dwtag  DW_TAG_typedef
    2072                            .dwattr $C$DW$T$80, DW_AT_name("ICall_EntityID")
    2073                            .dwattr $C$DW$T$80, DW_AT_type(*$C$DW$T$79)
    2074                            .dwattr $C$DW$T$80, DW_AT_language(DW_LANG_C)
    2075                            .dwattr $C$DW$T$80, DW_AT_decl_file("C:/ti/simplelink_cc13x0_sdk_1_50_00_08/source/ti/ti154sta
    2076                            .dwattr $C$DW$T$80, DW_AT_decl_line(0x1b4)
    2077                            .dwattr $C$DW$T$80, DW_AT_decl_column(0x17)
    2078                    
    2079                    $C$DW$T$148     .dwtag  DW_TAG_typedef
    2080                            .dwattr $C$DW$T$148, DW_AT_name("ICall_MSGFormat")
    2081                            .dwattr $C$DW$T$148, DW_AT_type(*$C$DW$T$79)
    2082                            .dwattr $C$DW$T$148, DW_AT_language(DW_LANG_C)
    2083                            .dwattr $C$DW$T$148, DW_AT_decl_file("C:/ti/simplelink_cc13x0_sdk_1_50_00_08/source/ti/ti154st
    2084                            .dwattr $C$DW$T$148, DW_AT_decl_line(0x1a4)
    2085                            .dwattr $C$DW$T$148, DW_AT_decl_column(0x17)
    2086                    
    2087                    $C$DW$T$7       .dwtag  DW_TAG_base_type
    2088                            .dwattr $C$DW$T$7, DW_AT_encoding(DW_ATE_signed_char)
    2089                            .dwattr $C$DW$T$7, DW_AT_name("wchar_t")
    2090                            .dwattr $C$DW$T$7, DW_AT_byte_size(0x02)
TI ARM Assembler PC v16.9.4 Sat Nov 18 18:46:22 2017

Tools Copyright (c) 1996-2017 Texas Instruments Incorporated
C:\Users\Kevin\AppData\Local\Temp\{5FC2008A-5F32-4C25-9FE7-4FDE3869A457} PAGE   39

    2091                    
    2092                    $C$DW$T$8       .dwtag  DW_TAG_base_type
    2093                            .dwattr $C$DW$T$8, DW_AT_encoding(DW_ATE_signed)
    2094                            .dwattr $C$DW$T$8, DW_AT_name("short")
    2095                            .dwattr $C$DW$T$8, DW_AT_byte_size(0x02)
    2096                    
    2097                    $C$DW$T$216     .dwtag  DW_TAG_typedef
    2098                            .dwattr $C$DW$T$216, DW_AT_name("int16")
    2099                            .dwattr $C$DW$T$216, DW_AT_type(*$C$DW$T$8)
    2100                            .dwattr $C$DW$T$216, DW_AT_language(DW_LANG_C)
    2101                            .dwattr $C$DW$T$216, DW_AT_decl_file("C:\ti\simplelink_cc13x0_sdk_1_50_00_08\source\ti\ti154st
    2102                            .dwattr $C$DW$T$216, DW_AT_decl_line(0x3b)
    2103                            .dwattr $C$DW$T$216, DW_AT_decl_column(0x19)
    2104                    
    2105                    $C$DW$T$217     .dwtag  DW_TAG_typedef
    2106                            .dwattr $C$DW$T$217, DW_AT_name("INT16")
    2107                            .dwattr $C$DW$T$217, DW_AT_type(*$C$DW$T$216)
    2108                            .dwattr $C$DW$T$217, DW_AT_language(DW_LANG_C)
    2109                            .dwattr $C$DW$T$217, DW_AT_decl_file("C:/ti/simplelink_cc13x0_sdk_1_50_00_08/source/ti/ti154st
    2110                            .dwattr $C$DW$T$217, DW_AT_decl_line(0x124)
    2111                            .dwattr $C$DW$T$217, DW_AT_decl_column(0x11)
    2112                    
    2113                    $C$DW$T$218     .dwtag  DW_TAG_typedef
    2114                            .dwattr $C$DW$T$218, DW_AT_name("int16_t")
    2115                            .dwattr $C$DW$T$218, DW_AT_type(*$C$DW$T$8)
    2116                            .dwattr $C$DW$T$218, DW_AT_language(DW_LANG_C)
    2117                            .dwattr $C$DW$T$218, DW_AT_decl_file("C:/ti/ccsv7/tools/compiler/ti-cgt-arm_16.9.4.LTS/include
    2118                            .dwattr $C$DW$T$218, DW_AT_decl_line(0x2c)
    2119                            .dwattr $C$DW$T$218, DW_AT_decl_column(0x1d)
    2120                    
    2121                    $C$DW$T$219     .dwtag  DW_TAG_typedef
    2122                            .dwattr $C$DW$T$219, DW_AT_name("int_least16_t")
    2123                            .dwattr $C$DW$T$219, DW_AT_type(*$C$DW$T$218)
    2124                            .dwattr $C$DW$T$219, DW_AT_language(DW_LANG_C)
    2125                            .dwattr $C$DW$T$219, DW_AT_decl_file("C:/ti/ccsv7/tools/compiler/ti-cgt-arm_16.9.4.LTS/include
    2126                            .dwattr $C$DW$T$219, DW_AT_decl_line(0x3a)
    2127                            .dwattr $C$DW$T$219, DW_AT_decl_column(0x17)
    2128                    
    2129                    $C$DW$T$9       .dwtag  DW_TAG_base_type
    2130                            .dwattr $C$DW$T$9, DW_AT_encoding(DW_ATE_unsigned)
    2131                            .dwattr $C$DW$T$9, DW_AT_name("unsigned short")
    2132                            .dwattr $C$DW$T$9, DW_AT_byte_size(0x02)
    2133                    
    2134                    $C$DW$T$36      .dwtag  DW_TAG_typedef
    2135                            .dwattr $C$DW$T$36, DW_AT_name("uint16")
    2136                            .dwattr $C$DW$T$36, DW_AT_type(*$C$DW$T$9)
    2137                            .dwattr $C$DW$T$36, DW_AT_language(DW_LANG_C)
    2138                            .dwattr $C$DW$T$36, DW_AT_decl_file("C:\ti\simplelink_cc13x0_sdk_1_50_00_08\source\ti\ti154sta
    2139                            .dwattr $C$DW$T$36, DW_AT_decl_line(0x3c)
    2140                            .dwattr $C$DW$T$36, DW_AT_decl_column(0x19)
    2141                    
    2142                    $C$DW$T$220     .dwtag  DW_TAG_typedef
    2143                            .dwattr $C$DW$T$220, DW_AT_name("UINT16")
    2144                            .dwattr $C$DW$T$220, DW_AT_type(*$C$DW$T$36)
    2145                            .dwattr $C$DW$T$220, DW_AT_language(DW_LANG_C)
TI ARM Assembler PC v16.9.4 Sat Nov 18 18:46:22 2017

Tools Copyright (c) 1996-2017 Texas Instruments Incorporated
C:\Users\Kevin\AppData\Local\Temp\{5FC2008A-5F32-4C25-9FE7-4FDE3869A457} PAGE   40

    2146                            .dwattr $C$DW$T$220, DW_AT_decl_file("C:/ti/simplelink_cc13x0_sdk_1_50_00_08/source/ti/ti154st
    2147                            .dwattr $C$DW$T$220, DW_AT_decl_line(0x123)
    2148                            .dwattr $C$DW$T$220, DW_AT_decl_column(0x11)
    2149                    
    2150                    $C$DW$T$55      .dwtag  DW_TAG_typedef
    2151                            .dwattr $C$DW$T$55, DW_AT_name("uint16_t")
    2152                            .dwattr $C$DW$T$55, DW_AT_type(*$C$DW$T$9)
    2153                            .dwattr $C$DW$T$55, DW_AT_language(DW_LANG_C)
    2154                            .dwattr $C$DW$T$55, DW_AT_decl_file("C:/ti/ccsv7/tools/compiler/ti-cgt-arm_16.9.4.LTS/include/
    2155                            .dwattr $C$DW$T$55, DW_AT_decl_line(0x2d)
    2156                            .dwattr $C$DW$T$55, DW_AT_decl_column(0x1c)
    2157                    
    2158                    $C$DW$T$56      .dwtag  DW_TAG_pointer_type
    2159                            .dwattr $C$DW$T$56, DW_AT_type(*$C$DW$T$55)
    2160                            .dwattr $C$DW$T$56, DW_AT_address_class(0x20)
    2161                    
    2162                    $C$DW$T$81      .dwtag  DW_TAG_typedef
    2163                            .dwattr $C$DW$T$81, DW_AT_name("uint_least16_t")
    2164                            .dwattr $C$DW$T$81, DW_AT_type(*$C$DW$T$55)
    2165                            .dwattr $C$DW$T$81, DW_AT_language(DW_LANG_C)
    2166                            .dwattr $C$DW$T$81, DW_AT_decl_file("C:/ti/ccsv7/tools/compiler/ti-cgt-arm_16.9.4.LTS/include/
    2167                            .dwattr $C$DW$T$81, DW_AT_decl_line(0x3b)
    2168                            .dwattr $C$DW$T$81, DW_AT_decl_column(0x16)
    2169                    
    2170                    $C$DW$T$110     .dwtag  DW_TAG_typedef
    2171                            .dwattr $C$DW$T$110, DW_AT_name("ICall_FuncID")
    2172                            .dwattr $C$DW$T$110, DW_AT_type(*$C$DW$T$81)
    2173                            .dwattr $C$DW$T$110, DW_AT_language(DW_LANG_C)
    2174                            .dwattr $C$DW$T$110, DW_AT_decl_file("C:/ti/simplelink_cc13x0_sdk_1_50_00_08/source/ti/ti154st
    2175                            .dwattr $C$DW$T$110, DW_AT_decl_line(0x1a7)
    2176                            .dwattr $C$DW$T$110, DW_AT_decl_column(0x18)
    2177                    
    2178                    $C$DW$T$82      .dwtag  DW_TAG_typedef
    2179                            .dwattr $C$DW$T$82, DW_AT_name("ICall_ServiceEnum")
    2180                            .dwattr $C$DW$T$82, DW_AT_type(*$C$DW$T$81)
    2181                            .dwattr $C$DW$T$82, DW_AT_language(DW_LANG_C)
    2182                            .dwattr $C$DW$T$82, DW_AT_decl_file("C:/ti/simplelink_cc13x0_sdk_1_50_00_08/source/ti/ti154sta
    2183                            .dwattr $C$DW$T$82, DW_AT_decl_line(0x1a1)
    2184                            .dwattr $C$DW$T$82, DW_AT_decl_column(0x18)
    2185                    
    2186                    $C$DW$T$221     .dwtag  DW_TAG_typedef
    2187                            .dwattr $C$DW$T$221, DW_AT_name("wchar_t")
    2188                            .dwattr $C$DW$T$221, DW_AT_type(*$C$DW$T$9)
    2189                            .dwattr $C$DW$T$221, DW_AT_language(DW_LANG_C)
    2190                            .dwattr $C$DW$T$221, DW_AT_decl_file("C:/ti/ccsv7/tools/compiler/ti-cgt-arm_16.9.4.LTS/include
    2191                            .dwattr $C$DW$T$221, DW_AT_decl_line(0x78)
    2192                            .dwattr $C$DW$T$221, DW_AT_decl_column(0x1a)
    2193                    
    2194                    $C$DW$T$10      .dwtag  DW_TAG_base_type
    2195                            .dwattr $C$DW$T$10, DW_AT_encoding(DW_ATE_signed)
    2196                            .dwattr $C$DW$T$10, DW_AT_name("int")
    2197                            .dwattr $C$DW$T$10, DW_AT_byte_size(0x04)
    2198                    
    2199                    
    2200                    $C$DW$T$222     .dwtag  DW_TAG_subroutine_type
TI ARM Assembler PC v16.9.4 Sat Nov 18 18:46:22 2017

Tools Copyright (c) 1996-2017 Texas Instruments Incorporated
C:\Users\Kevin\AppData\Local\Temp\{5FC2008A-5F32-4C25-9FE7-4FDE3869A457} PAGE   41

    2201                            .dwattr $C$DW$T$222, DW_AT_type(*$C$DW$T$10)
    2202                            .dwattr $C$DW$T$222, DW_AT_language(DW_LANG_C)
    2203                    $C$DW$131       .dwtag  DW_TAG_formal_parameter
    2204                            .dwattr $C$DW$131, DW_AT_type(*$C$DW$T$161)
    2205                    
    2206                    $C$DW$132       .dwtag  DW_TAG_formal_parameter
    2207                            .dwattr $C$DW$132, DW_AT_type(*$C$DW$T$161)
    2208                    
    2209                            .dwendtag $C$DW$T$222
    2210                    
    2211                    $C$DW$T$223     .dwtag  DW_TAG_pointer_type
    2212                            .dwattr $C$DW$T$223, DW_AT_type(*$C$DW$T$222)
    2213                            .dwattr $C$DW$T$223, DW_AT_address_class(0x20)
    2214                    
    2215                    $C$DW$T$224     .dwtag  DW_TAG_typedef
    2216                            .dwattr $C$DW$T$224, DW_AT_name("__TI_compar_fn")
    2217                            .dwattr $C$DW$T$224, DW_AT_type(*$C$DW$T$223)
    2218                            .dwattr $C$DW$T$224, DW_AT_language(DW_LANG_C)
    2219                            .dwattr $C$DW$T$224, DW_AT_decl_file("C:/ti/ccsv7/tools/compiler/ti-cgt-arm_16.9.4.LTS/include
    2220                            .dwattr $C$DW$T$224, DW_AT_decl_line(0xbc)
    2221                            .dwattr $C$DW$T$224, DW_AT_decl_column(0x13)
    2222                    
    2223                    $C$DW$T$98      .dwtag  DW_TAG_typedef
    2224                            .dwattr $C$DW$T$98, DW_AT_name("int32_t")
    2225                            .dwattr $C$DW$T$98, DW_AT_type(*$C$DW$T$10)
    2226                            .dwattr $C$DW$T$98, DW_AT_language(DW_LANG_C)
    2227                            .dwattr $C$DW$T$98, DW_AT_decl_file("C:/ti/ccsv7/tools/compiler/ti-cgt-arm_16.9.4.LTS/include/
    2228                            .dwattr $C$DW$T$98, DW_AT_decl_line(0x2e)
    2229                            .dwattr $C$DW$T$98, DW_AT_decl_column(0x1d)
    2230                    
    2231                    $C$DW$T$99      .dwtag  DW_TAG_typedef
    2232                            .dwattr $C$DW$T$99, DW_AT_name("int_fast16_t")
    2233                            .dwattr $C$DW$T$99, DW_AT_type(*$C$DW$T$98)
    2234                            .dwattr $C$DW$T$99, DW_AT_language(DW_LANG_C)
    2235                            .dwattr $C$DW$T$99, DW_AT_decl_file("C:/ti/ccsv7/tools/compiler/ti-cgt-arm_16.9.4.LTS/include/
    2236                            .dwattr $C$DW$T$99, DW_AT_decl_line(0x47)
    2237                            .dwattr $C$DW$T$99, DW_AT_decl_column(0x17)
    2238                    
    2239                    $C$DW$T$100     .dwtag  DW_TAG_typedef
    2240                            .dwattr $C$DW$T$100, DW_AT_name("ICall_Errno")
    2241                            .dwattr $C$DW$T$100, DW_AT_type(*$C$DW$T$99)
    2242                            .dwattr $C$DW$T$100, DW_AT_language(DW_LANG_C)
    2243                            .dwattr $C$DW$T$100, DW_AT_decl_file("C:/ti/simplelink_cc13x0_sdk_1_50_00_08/source/ti/ti154st
    2244                            .dwattr $C$DW$T$100, DW_AT_decl_line(0x19e)
    2245                            .dwattr $C$DW$T$100, DW_AT_decl_column(0x16)
    2246                    
    2247                    
    2248                    $C$DW$T$102     .dwtag  DW_TAG_subroutine_type
    2249                            .dwattr $C$DW$T$102, DW_AT_type(*$C$DW$T$100)
    2250                            .dwattr $C$DW$T$102, DW_AT_language(DW_LANG_C)
    2251                    $C$DW$133       .dwtag  DW_TAG_formal_parameter
    2252                            .dwattr $C$DW$133, DW_AT_type(*$C$DW$T$101)
    2253                    
    2254                            .dwendtag $C$DW$T$102
    2255                    
TI ARM Assembler PC v16.9.4 Sat Nov 18 18:46:22 2017

Tools Copyright (c) 1996-2017 Texas Instruments Incorporated
C:\Users\Kevin\AppData\Local\Temp\{5FC2008A-5F32-4C25-9FE7-4FDE3869A457} PAGE   42

    2256                    $C$DW$T$103     .dwtag  DW_TAG_pointer_type
    2257                            .dwattr $C$DW$T$103, DW_AT_type(*$C$DW$T$102)
    2258                            .dwattr $C$DW$T$103, DW_AT_address_class(0x20)
    2259                    
    2260                    $C$DW$T$139     .dwtag  DW_TAG_typedef
    2261                            .dwattr $C$DW$T$139, DW_AT_name("ICall_Dispatcher")
    2262                            .dwattr $C$DW$T$139, DW_AT_type(*$C$DW$T$103)
    2263                            .dwattr $C$DW$T$139, DW_AT_language(DW_LANG_C)
    2264                            .dwattr $C$DW$T$139, DW_AT_decl_file("C:/ti/simplelink_cc13x0_sdk_1_50_00_08/source/ti/ti154st
    2265                            .dwattr $C$DW$T$139, DW_AT_decl_line(0x36c)
    2266                            .dwattr $C$DW$T$139, DW_AT_decl_column(0x17)
    2267                    
    2268                    $C$DW$T$104     .dwtag  DW_TAG_typedef
    2269                            .dwattr $C$DW$T$104, DW_AT_name("ICall_ServiceFunc")
    2270                            .dwattr $C$DW$T$104, DW_AT_type(*$C$DW$T$103)
    2271                            .dwattr $C$DW$T$104, DW_AT_language(DW_LANG_C)
    2272                            .dwattr $C$DW$T$104, DW_AT_decl_file("C:/ti/simplelink_cc13x0_sdk_1_50_00_08/source/ti/ti154st
    2273                            .dwattr $C$DW$T$104, DW_AT_decl_line(0x3a3)
    2274                            .dwattr $C$DW$T$104, DW_AT_decl_column(0x17)
    2275                    
    2276                    $C$DW$T$225     .dwtag  DW_TAG_typedef
    2277                            .dwattr $C$DW$T$225, DW_AT_name("int_fast32_t")
    2278                            .dwattr $C$DW$T$225, DW_AT_type(*$C$DW$T$98)
    2279                            .dwattr $C$DW$T$225, DW_AT_language(DW_LANG_C)
    2280                            .dwattr $C$DW$T$225, DW_AT_decl_file("C:/ti/ccsv7/tools/compiler/ti-cgt-arm_16.9.4.LTS/include
    2281                            .dwattr $C$DW$T$225, DW_AT_decl_line(0x4a)
    2282                            .dwattr $C$DW$T$225, DW_AT_decl_column(0x17)
    2283                    
    2284                    $C$DW$T$226     .dwtag  DW_TAG_typedef
    2285                            .dwattr $C$DW$T$226, DW_AT_name("int_fast8_t")
    2286                            .dwattr $C$DW$T$226, DW_AT_type(*$C$DW$T$98)
    2287                            .dwattr $C$DW$T$226, DW_AT_language(DW_LANG_C)
    2288                            .dwattr $C$DW$T$226, DW_AT_decl_file("C:/ti/ccsv7/tools/compiler/ti-cgt-arm_16.9.4.LTS/include
    2289                            .dwattr $C$DW$T$226, DW_AT_decl_line(0x45)
    2290                            .dwattr $C$DW$T$226, DW_AT_decl_column(0x17)
    2291                    
    2292                    $C$DW$T$117     .dwtag  DW_TAG_typedef
    2293                            .dwattr $C$DW$T$117, DW_AT_name("int_least32_t")
    2294                            .dwattr $C$DW$T$117, DW_AT_type(*$C$DW$T$98)
    2295                            .dwattr $C$DW$T$117, DW_AT_language(DW_LANG_C)
    2296                            .dwattr $C$DW$T$117, DW_AT_decl_file("C:/ti/ccsv7/tools/compiler/ti-cgt-arm_16.9.4.LTS/include
    2297                            .dwattr $C$DW$T$117, DW_AT_decl_line(0x3c)
    2298                            .dwattr $C$DW$T$117, DW_AT_decl_column(0x17)
    2299                    
    2300                    $C$DW$T$227     .dwtag  DW_TAG_typedef
    2301                            .dwattr $C$DW$T$227, DW_AT_name("intptr_t")
    2302                            .dwattr $C$DW$T$227, DW_AT_type(*$C$DW$T$10)
    2303                            .dwattr $C$DW$T$227, DW_AT_language(DW_LANG_C)
    2304                            .dwattr $C$DW$T$227, DW_AT_decl_file("C:/ti/ccsv7/tools/compiler/ti-cgt-arm_16.9.4.LTS/include
    2305                            .dwattr $C$DW$T$227, DW_AT_decl_line(0x52)
    2306                            .dwattr $C$DW$T$227, DW_AT_decl_column(0x1a)
    2307                    
    2308                    $C$DW$T$11      .dwtag  DW_TAG_base_type
    2309                            .dwattr $C$DW$T$11, DW_AT_encoding(DW_ATE_unsigned)
    2310                            .dwattr $C$DW$T$11, DW_AT_name("unsigned int")
TI ARM Assembler PC v16.9.4 Sat Nov 18 18:46:22 2017

Tools Copyright (c) 1996-2017 Texas Instruments Incorporated
C:\Users\Kevin\AppData\Local\Temp\{5FC2008A-5F32-4C25-9FE7-4FDE3869A457} PAGE   43

    2311                            .dwattr $C$DW$T$11, DW_AT_byte_size(0x04)
    2312                    
    2313                    $C$DW$T$228     .dwtag  DW_TAG_typedef
    2314                            .dwattr $C$DW$T$228, DW_AT_name("__UINT32")
    2315                            .dwattr $C$DW$T$228, DW_AT_type(*$C$DW$T$11)
    2316                            .dwattr $C$DW$T$228, DW_AT_language(DW_LANG_C)
    2317                            .dwattr $C$DW$T$228, DW_AT_decl_file("C:/ti/simplelink_cc13x0_sdk_1_50_00_08/source/ti/devices
    2318                            .dwattr $C$DW$T$228, DW_AT_decl_line(0x45)
    2319                            .dwattr $C$DW$T$228, DW_AT_decl_column(0x17)
    2320                    
    2321                    $C$DW$T$93      .dwtag  DW_TAG_typedef
    2322                            .dwattr $C$DW$T$93, DW_AT_name("size_t")
    2323                            .dwattr $C$DW$T$93, DW_AT_type(*$C$DW$T$11)
    2324                            .dwattr $C$DW$T$93, DW_AT_language(DW_LANG_C)
    2325                            .dwattr $C$DW$T$93, DW_AT_decl_file("C:/ti/ccsv7/tools/compiler/ti-cgt-arm_16.9.4.LTS/include/
    2326                            .dwattr $C$DW$T$93, DW_AT_decl_line(0x72)
    2327                            .dwattr $C$DW$T$93, DW_AT_decl_column(0x19)
    2328                    
    2329                    $C$DW$T$22      .dwtag  DW_TAG_typedef
    2330                            .dwattr $C$DW$T$22, DW_AT_name("uint32_t")
    2331                            .dwattr $C$DW$T$22, DW_AT_type(*$C$DW$T$11)
    2332                            .dwattr $C$DW$T$22, DW_AT_language(DW_LANG_C)
    2333                            .dwattr $C$DW$T$22, DW_AT_decl_file("C:/ti/ccsv7/tools/compiler/ti-cgt-arm_16.9.4.LTS/include/
    2334                            .dwattr $C$DW$T$22, DW_AT_decl_line(0x2f)
    2335                            .dwattr $C$DW$T$22, DW_AT_decl_column(0x1c)
    2336                    
    2337                    
    2338                    $C$DW$T$40      .dwtag  DW_TAG_subroutine_type
    2339                            .dwattr $C$DW$T$40, DW_AT_type(*$C$DW$T$22)
    2340                            .dwattr $C$DW$T$40, DW_AT_language(DW_LANG_C)
    2341                    $C$DW$134       .dwtag  DW_TAG_formal_parameter
    2342                            .dwattr $C$DW$134, DW_AT_type(*$C$DW$T$39)
    2343                    
    2344                    $C$DW$135       .dwtag  DW_TAG_formal_parameter
    2345                            .dwattr $C$DW$135, DW_AT_type(*$C$DW$T$22)
    2346                    
    2347                    $C$DW$136       .dwtag  DW_TAG_formal_parameter
    2348                            .dwattr $C$DW$136, DW_AT_type(*$C$DW$T$22)
    2349                    
    2350                            .dwendtag $C$DW$T$40
    2351                    
    2352                    $C$DW$T$41      .dwtag  DW_TAG_pointer_type
    2353                            .dwattr $C$DW$T$41, DW_AT_type(*$C$DW$T$40)
    2354                            .dwattr $C$DW$T$41, DW_AT_address_class(0x20)
    2355                    
    2356                    $C$DW$T$42      .dwtag  DW_TAG_typedef
    2357                            .dwattr $C$DW$T$42, DW_AT_name("FPTR_CRC32_T")
    2358                            .dwattr $C$DW$T$42, DW_AT_type(*$C$DW$T$41)
    2359                            .dwattr $C$DW$T$42, DW_AT_language(DW_LANG_C)
    2360                            .dwattr $C$DW$T$42, DW_AT_decl_file("C:\ti\simplelink_cc13x0_sdk_1_50_00_08\source\ti\devices\
    2361                            .dwattr $C$DW$T$42, DW_AT_decl_line(0x3e)
    2362                            .dwattr $C$DW$T$42, DW_AT_decl_column(0x19)
    2363                    
    2364                    $C$DW$T$51      .dwtag  DW_TAG_typedef
    2365                            .dwattr $C$DW$T$51, DW_AT_name("FPTR_RESERVED3_T")
TI ARM Assembler PC v16.9.4 Sat Nov 18 18:46:22 2017

Tools Copyright (c) 1996-2017 Texas Instruments Incorporated
C:\Users\Kevin\AppData\Local\Temp\{5FC2008A-5F32-4C25-9FE7-4FDE3869A457} PAGE   44

    2366                            .dwattr $C$DW$T$51, DW_AT_type(*$C$DW$T$41)
    2367                            .dwattr $C$DW$T$51, DW_AT_language(DW_LANG_C)
    2368                            .dwattr $C$DW$T$51, DW_AT_decl_file("C:\ti\simplelink_cc13x0_sdk_1_50_00_08\source\ti\devices\
    2369                            .dwattr $C$DW$T$51, DW_AT_decl_line(0x4a)
    2370                            .dwattr $C$DW$T$51, DW_AT_decl_column(0x19)
    2371                    
    2372                    
    2373                    $C$DW$T$43      .dwtag  DW_TAG_subroutine_type
    2374                            .dwattr $C$DW$T$43, DW_AT_type(*$C$DW$T$22)
    2375                            .dwattr $C$DW$T$43, DW_AT_language(DW_LANG_C)
    2376                            .dwendtag $C$DW$T$43
    2377                    
    2378                    $C$DW$T$44      .dwtag  DW_TAG_pointer_type
    2379                            .dwattr $C$DW$T$44, DW_AT_type(*$C$DW$T$43)
    2380                            .dwattr $C$DW$T$44, DW_AT_address_class(0x20)
    2381                    
    2382                    $C$DW$T$46      .dwtag  DW_TAG_typedef
    2383                            .dwattr $C$DW$T$46, DW_AT_name("FPTR_GETCHIPID_T")
    2384                            .dwattr $C$DW$T$46, DW_AT_type(*$C$DW$T$44)
    2385                            .dwattr $C$DW$T$46, DW_AT_language(DW_LANG_C)
    2386                            .dwattr $C$DW$T$46, DW_AT_decl_file("C:\ti\simplelink_cc13x0_sdk_1_50_00_08\source\ti\devices\
    2387                            .dwattr $C$DW$T$46, DW_AT_decl_line(0x44)
    2388                            .dwattr $C$DW$T$46, DW_AT_decl_column(0x19)
    2389                    
    2390                    $C$DW$T$45      .dwtag  DW_TAG_typedef
    2391                            .dwattr $C$DW$T$45, DW_AT_name("FPTR_GETFLSIZE_T")
    2392                            .dwattr $C$DW$T$45, DW_AT_type(*$C$DW$T$44)
    2393                            .dwattr $C$DW$T$45, DW_AT_language(DW_LANG_C)
    2394                            .dwattr $C$DW$T$45, DW_AT_decl_file("C:\ti\simplelink_cc13x0_sdk_1_50_00_08\source\ti\devices\
    2395                            .dwattr $C$DW$T$45, DW_AT_decl_line(0x42)
    2396                            .dwattr $C$DW$T$45, DW_AT_decl_column(0x19)
    2397                    
    2398                    $C$DW$T$50      .dwtag  DW_TAG_typedef
    2399                            .dwattr $C$DW$T$50, DW_AT_name("FPTR_RESERVED2_T")
    2400                            .dwattr $C$DW$T$50, DW_AT_type(*$C$DW$T$44)
    2401                            .dwattr $C$DW$T$50, DW_AT_language(DW_LANG_C)
    2402                            .dwattr $C$DW$T$50, DW_AT_decl_file("C:\ti\simplelink_cc13x0_sdk_1_50_00_08\source\ti\devices\
    2403                            .dwattr $C$DW$T$50, DW_AT_decl_line(0x48)
    2404                            .dwattr $C$DW$T$50, DW_AT_decl_column(0x19)
    2405                    
    2406                    
    2407                    $C$DW$T$47      .dwtag  DW_TAG_subroutine_type
    2408                            .dwattr $C$DW$T$47, DW_AT_type(*$C$DW$T$22)
    2409                            .dwattr $C$DW$T$47, DW_AT_language(DW_LANG_C)
    2410                    $C$DW$137       .dwtag  DW_TAG_formal_parameter
    2411                            .dwattr $C$DW$137, DW_AT_type(*$C$DW$T$22)
    2412                    
    2413                            .dwendtag $C$DW$T$47
    2414                    
    2415                    $C$DW$T$48      .dwtag  DW_TAG_pointer_type
    2416                            .dwattr $C$DW$T$48, DW_AT_type(*$C$DW$T$47)
    2417                            .dwattr $C$DW$T$48, DW_AT_address_class(0x20)
    2418                    
    2419                    $C$DW$T$49      .dwtag  DW_TAG_typedef
    2420                            .dwattr $C$DW$T$49, DW_AT_name("FPTR_RESERVED1_T")
TI ARM Assembler PC v16.9.4 Sat Nov 18 18:46:22 2017

Tools Copyright (c) 1996-2017 Texas Instruments Incorporated
C:\Users\Kevin\AppData\Local\Temp\{5FC2008A-5F32-4C25-9FE7-4FDE3869A457} PAGE   45

    2421                            .dwattr $C$DW$T$49, DW_AT_type(*$C$DW$T$48)
    2422                            .dwattr $C$DW$T$49, DW_AT_language(DW_LANG_C)
    2423                            .dwattr $C$DW$T$49, DW_AT_decl_file("C:\ti\simplelink_cc13x0_sdk_1_50_00_08\source\ti\devices\
    2424                            .dwattr $C$DW$T$49, DW_AT_decl_line(0x46)
    2425                            .dwattr $C$DW$T$49, DW_AT_decl_column(0x19)
    2426                    
    2427                    
    2428                    $C$DW$T$57      .dwtag  DW_TAG_subroutine_type
    2429                            .dwattr $C$DW$T$57, DW_AT_type(*$C$DW$T$22)
    2430                            .dwattr $C$DW$T$57, DW_AT_language(DW_LANG_C)
    2431                    $C$DW$138       .dwtag  DW_TAG_formal_parameter
    2432                            .dwattr $C$DW$138, DW_AT_type(*$C$DW$T$56)
    2433                    
    2434                    $C$DW$139       .dwtag  DW_TAG_formal_parameter
    2435                            .dwattr $C$DW$139, DW_AT_type(*$C$DW$T$55)
    2436                    
    2437                    $C$DW$140       .dwtag  DW_TAG_formal_parameter
    2438                            .dwattr $C$DW$140, DW_AT_type(*$C$DW$T$55)
    2439                    
    2440                            .dwendtag $C$DW$T$57
    2441                    
    2442                    $C$DW$T$58      .dwtag  DW_TAG_pointer_type
    2443                            .dwattr $C$DW$T$58, DW_AT_type(*$C$DW$T$57)
    2444                            .dwattr $C$DW$T$58, DW_AT_address_class(0x20)
    2445                    
    2446                    $C$DW$T$59      .dwtag  DW_TAG_typedef
    2447                            .dwattr $C$DW$T$59, DW_AT_name("FPTR_FLETCHER32_T")
    2448                            .dwattr $C$DW$T$59, DW_AT_type(*$C$DW$T$58)
    2449                            .dwattr $C$DW$T$59, DW_AT_language(DW_LANG_C)
    2450                            .dwattr $C$DW$T$59, DW_AT_decl_file("C:\ti\simplelink_cc13x0_sdk_1_50_00_08\source\ti\devices\
    2451                            .dwattr $C$DW$T$59, DW_AT_decl_line(0x4f)
    2452                            .dwattr $C$DW$T$59, DW_AT_decl_column(0x19)
    2453                    
    2454                    $C$DW$T$60      .dwtag  DW_TAG_pointer_type
    2455                            .dwattr $C$DW$T$60, DW_AT_type(*$C$DW$T$22)
    2456                            .dwattr $C$DW$T$60, DW_AT_address_class(0x20)
    2457                    
    2458                    
    2459                    $C$DW$T$61      .dwtag  DW_TAG_subroutine_type
    2460                            .dwattr $C$DW$T$61, DW_AT_type(*$C$DW$T$22)
    2461                            .dwattr $C$DW$T$61, DW_AT_language(DW_LANG_C)
    2462                    $C$DW$141       .dwtag  DW_TAG_formal_parameter
    2463                            .dwattr $C$DW$141, DW_AT_type(*$C$DW$T$60)
    2464                    
    2465                    $C$DW$142       .dwtag  DW_TAG_formal_parameter
    2466                            .dwattr $C$DW$142, DW_AT_type(*$C$DW$T$22)
    2467                    
    2468                            .dwendtag $C$DW$T$61
    2469                    
    2470                    $C$DW$T$62      .dwtag  DW_TAG_pointer_type
    2471                            .dwattr $C$DW$T$62, DW_AT_type(*$C$DW$T$61)
    2472                            .dwattr $C$DW$T$62, DW_AT_address_class(0x20)
    2473                    
    2474                    $C$DW$T$64      .dwtag  DW_TAG_typedef
    2475                            .dwattr $C$DW$T$64, DW_AT_name("FPTR_MAXVAL_T")
TI ARM Assembler PC v16.9.4 Sat Nov 18 18:46:22 2017

Tools Copyright (c) 1996-2017 Texas Instruments Incorporated
C:\Users\Kevin\AppData\Local\Temp\{5FC2008A-5F32-4C25-9FE7-4FDE3869A457} PAGE   46

    2476                            .dwattr $C$DW$T$64, DW_AT_type(*$C$DW$T$62)
    2477                            .dwattr $C$DW$T$64, DW_AT_language(DW_LANG_C)
    2478                            .dwattr $C$DW$T$64, DW_AT_decl_file("C:\ti\simplelink_cc13x0_sdk_1_50_00_08\source\ti\devices\
    2479                            .dwattr $C$DW$T$64, DW_AT_decl_line(0x56)
    2480                            .dwattr $C$DW$T$64, DW_AT_decl_column(0x19)
    2481                    
    2482                    $C$DW$T$65      .dwtag  DW_TAG_typedef
    2483                            .dwattr $C$DW$T$65, DW_AT_name("FPTR_MEANVAL_T")
    2484                            .dwattr $C$DW$T$65, DW_AT_type(*$C$DW$T$62)
    2485                            .dwattr $C$DW$T$65, DW_AT_language(DW_LANG_C)
    2486                            .dwattr $C$DW$T$65, DW_AT_decl_file("C:\ti\simplelink_cc13x0_sdk_1_50_00_08\source\ti\devices\
    2487                            .dwattr $C$DW$T$65, DW_AT_decl_line(0x59)
    2488                            .dwattr $C$DW$T$65, DW_AT_decl_column(0x19)
    2489                    
    2490                    $C$DW$T$63      .dwtag  DW_TAG_typedef
    2491                            .dwattr $C$DW$T$63, DW_AT_name("FPTR_MINVAL_T")
    2492                            .dwattr $C$DW$T$63, DW_AT_type(*$C$DW$T$62)
    2493                            .dwattr $C$DW$T$63, DW_AT_language(DW_LANG_C)
    2494                            .dwattr $C$DW$T$63, DW_AT_decl_file("C:\ti\simplelink_cc13x0_sdk_1_50_00_08\source\ti\devices\
    2495                            .dwattr $C$DW$T$63, DW_AT_decl_line(0x53)
    2496                            .dwattr $C$DW$T$63, DW_AT_decl_column(0x19)
    2497                    
    2498                    $C$DW$T$66      .dwtag  DW_TAG_typedef
    2499                            .dwattr $C$DW$T$66, DW_AT_name("FPTR_STDDVAL_T")
    2500                            .dwattr $C$DW$T$66, DW_AT_type(*$C$DW$T$62)
    2501                            .dwattr $C$DW$T$66, DW_AT_language(DW_LANG_C)
    2502                            .dwattr $C$DW$T$66, DW_AT_decl_file("C:\ti\simplelink_cc13x0_sdk_1_50_00_08\source\ti\devices\
    2503                            .dwattr $C$DW$T$66, DW_AT_decl_line(0x5c)
    2504                            .dwattr $C$DW$T$66, DW_AT_decl_column(0x19)
    2505                    
    2506                    $C$DW$T$239     .dwtag  DW_TAG_typedef
    2507                            .dwattr $C$DW$T$239, DW_AT_name("uint_fast16_t")
    2508                            .dwattr $C$DW$T$239, DW_AT_type(*$C$DW$T$22)
    2509                            .dwattr $C$DW$T$239, DW_AT_language(DW_LANG_C)
    2510                            .dwattr $C$DW$T$239, DW_AT_decl_file("C:/ti/ccsv7/tools/compiler/ti-cgt-arm_16.9.4.LTS/include
    2511                            .dwattr $C$DW$T$239, DW_AT_decl_line(0x48)
    2512                            .dwattr $C$DW$T$239, DW_AT_decl_column(0x16)
    2513                    
    2514                    $C$DW$T$120     .dwtag  DW_TAG_typedef
    2515                            .dwattr $C$DW$T$120, DW_AT_name("uint_fast32_t")
    2516                            .dwattr $C$DW$T$120, DW_AT_type(*$C$DW$T$22)
    2517                            .dwattr $C$DW$T$120, DW_AT_language(DW_LANG_C)
    2518                            .dwattr $C$DW$T$120, DW_AT_decl_file("C:/ti/ccsv7/tools/compiler/ti-cgt-arm_16.9.4.LTS/include
    2519                            .dwattr $C$DW$T$120, DW_AT_decl_line(0x4b)
    2520                            .dwattr $C$DW$T$120, DW_AT_decl_column(0x16)
    2521                    
    2522                    $C$DW$T$121     .dwtag  DW_TAG_typedef
    2523                            .dwattr $C$DW$T$121, DW_AT_name("ICall_PwrBitmap_t")
    2524                            .dwattr $C$DW$T$121, DW_AT_type(*$C$DW$T$120)
    2525                            .dwattr $C$DW$T$121, DW_AT_language(DW_LANG_C)
    2526                            .dwattr $C$DW$T$121, DW_AT_decl_file("C:/ti/simplelink_cc13x0_sdk_1_50_00_08/source/ti/ti154st
    2527                            .dwattr $C$DW$T$121, DW_AT_decl_line(0x287)
    2528                            .dwattr $C$DW$T$121, DW_AT_decl_column(0x17)
    2529                    
    2530                    $C$DW$T$123     .dwtag  DW_TAG_typedef
TI ARM Assembler PC v16.9.4 Sat Nov 18 18:46:22 2017

Tools Copyright (c) 1996-2017 Texas Instruments Incorporated
C:\Users\Kevin\AppData\Local\Temp\{5FC2008A-5F32-4C25-9FE7-4FDE3869A457} PAGE   47

    2531                            .dwattr $C$DW$T$123, DW_AT_name("uint_fast8_t")
    2532                            .dwattr $C$DW$T$123, DW_AT_type(*$C$DW$T$22)
    2533                            .dwattr $C$DW$T$123, DW_AT_language(DW_LANG_C)
    2534                            .dwattr $C$DW$T$123, DW_AT_decl_file("C:/ti/ccsv7/tools/compiler/ti-cgt-arm_16.9.4.LTS/include
    2535                            .dwattr $C$DW$T$123, DW_AT_decl_line(0x46)
    2536                            .dwattr $C$DW$T$123, DW_AT_decl_column(0x16)
    2537                    
    2538                    $C$DW$T$126     .dwtag  DW_TAG_typedef
    2539                            .dwattr $C$DW$T$126, DW_AT_name("ICall_PwrTransition")
    2540                            .dwattr $C$DW$T$126, DW_AT_type(*$C$DW$T$123)
    2541                            .dwattr $C$DW$T$126, DW_AT_language(DW_LANG_C)
    2542                            .dwattr $C$DW$T$126, DW_AT_decl_file("C:/ti/simplelink_cc13x0_sdk_1_50_00_08/source/ti/ti154st
    2543                            .dwattr $C$DW$T$126, DW_AT_decl_line(0x326)
    2544                            .dwattr $C$DW$T$126, DW_AT_decl_column(0x16)
    2545                    
    2546                    $C$DW$T$23      .dwtag  DW_TAG_typedef
    2547                            .dwattr $C$DW$T$23, DW_AT_name("uint_least32_t")
    2548                            .dwattr $C$DW$T$23, DW_AT_type(*$C$DW$T$22)
    2549                            .dwattr $C$DW$T$23, DW_AT_language(DW_LANG_C)
    2550                            .dwattr $C$DW$T$23, DW_AT_decl_file("C:/ti/ccsv7/tools/compiler/ti-cgt-arm_16.9.4.LTS/include/
    2551                            .dwattr $C$DW$T$23, DW_AT_decl_line(0x3d)
    2552                            .dwattr $C$DW$T$23, DW_AT_decl_column(0x16)
    2553                    
    2554                    $C$DW$T$140     .dwtag  DW_TAG_typedef
    2555                            .dwattr $C$DW$T$140, DW_AT_name("ICall_CSState")
    2556                            .dwattr $C$DW$T$140, DW_AT_type(*$C$DW$T$23)
    2557                            .dwattr $C$DW$T$140, DW_AT_language(DW_LANG_C)
    2558                            .dwattr $C$DW$T$140, DW_AT_decl_file("C:/ti/simplelink_cc13x0_sdk_1_50_00_08/source/ti/ti154st
    2559                            .dwattr $C$DW$T$140, DW_AT_decl_line(0x371)
    2560                            .dwattr $C$DW$T$140, DW_AT_decl_column(0x18)
    2561                    
    2562                    
    2563                    $C$DW$T$141     .dwtag  DW_TAG_subroutine_type
    2564                            .dwattr $C$DW$T$141, DW_AT_type(*$C$DW$T$140)
    2565                            .dwattr $C$DW$T$141, DW_AT_language(DW_LANG_C)
    2566                            .dwendtag $C$DW$T$141
    2567                    
    2568                    $C$DW$T$142     .dwtag  DW_TAG_pointer_type
    2569                            .dwattr $C$DW$T$142, DW_AT_type(*$C$DW$T$141)
    2570                            .dwattr $C$DW$T$142, DW_AT_address_class(0x20)
    2571                    
    2572                    $C$DW$T$143     .dwtag  DW_TAG_typedef
    2573                            .dwattr $C$DW$T$143, DW_AT_name("ICall_EnterCS")
    2574                            .dwattr $C$DW$T$143, DW_AT_type(*$C$DW$T$142)
    2575                            .dwattr $C$DW$T$143, DW_AT_language(DW_LANG_C)
    2576                            .dwattr $C$DW$T$143, DW_AT_decl_file("C:/ti/simplelink_cc13x0_sdk_1_50_00_08/source/ti/ti154st
    2577                            .dwattr $C$DW$T$143, DW_AT_decl_line(0x377)
    2578                            .dwattr $C$DW$T$143, DW_AT_decl_column(0x19)
    2579                    
    2580                    $C$DW$T$240     .dwtag  DW_TAG_typedef
    2581                            .dwattr $C$DW$T$240, DW_AT_name("halIntState_t")
    2582                            .dwattr $C$DW$T$240, DW_AT_type(*$C$DW$T$140)
    2583                            .dwattr $C$DW$T$240, DW_AT_language(DW_LANG_C)
    2584                            .dwattr $C$DW$T$240, DW_AT_decl_file("C:\ti\simplelink_cc13x0_sdk_1_50_00_08\source\ti\ti154st
    2585                            .dwattr $C$DW$T$240, DW_AT_decl_line(0x6f)
TI ARM Assembler PC v16.9.4 Sat Nov 18 18:46:22 2017

Tools Copyright (c) 1996-2017 Texas Instruments Incorporated
C:\Users\Kevin\AppData\Local\Temp\{5FC2008A-5F32-4C25-9FE7-4FDE3869A457} PAGE   48

    2586                            .dwattr $C$DW$T$240, DW_AT_decl_column(0x17)
    2587                    
    2588                    $C$DW$T$24      .dwtag  DW_TAG_pointer_type
    2589                            .dwattr $C$DW$T$24, DW_AT_type(*$C$DW$T$23)
    2590                            .dwattr $C$DW$T$24, DW_AT_address_class(0x20)
    2591                    
    2592                    $C$DW$T$25      .dwtag  DW_TAG_typedef
    2593                            .dwattr $C$DW$T$25, DW_AT_name("icall_lite_id_t")
    2594                            .dwattr $C$DW$T$25, DW_AT_type(*$C$DW$T$23)
    2595                            .dwattr $C$DW$T$25, DW_AT_language(DW_LANG_C)
    2596                            .dwattr $C$DW$T$25, DW_AT_decl_file("C:/ti/simplelink_cc13x0_sdk_1_50_00_08/source/ti/ti154sta
    2597                            .dwattr $C$DW$T$25, DW_AT_decl_line(0x3ec)
    2598                            .dwattr $C$DW$T$25, DW_AT_decl_column(0x18)
    2599                    
    2600                    $C$DW$T$241     .dwtag  DW_TAG_typedef
    2601                            .dwattr $C$DW$T$241, DW_AT_name("uintptr_t")
    2602                            .dwattr $C$DW$T$241, DW_AT_type(*$C$DW$T$11)
    2603                            .dwattr $C$DW$T$241, DW_AT_language(DW_LANG_C)
    2604                            .dwattr $C$DW$T$241, DW_AT_decl_file("C:/ti/ccsv7/tools/compiler/ti-cgt-arm_16.9.4.LTS/include
    2605                            .dwattr $C$DW$T$241, DW_AT_decl_line(0x53)
    2606                            .dwattr $C$DW$T$241, DW_AT_decl_column(0x1a)
    2607                    
    2608                    $C$DW$T$12      .dwtag  DW_TAG_base_type
    2609                            .dwattr $C$DW$T$12, DW_AT_encoding(DW_ATE_signed)
    2610                            .dwattr $C$DW$T$12, DW_AT_name("long")
    2611                            .dwattr $C$DW$T$12, DW_AT_byte_size(0x04)
    2612                    
    2613                    $C$DW$T$242     .dwtag  DW_TAG_typedef
    2614                            .dwattr $C$DW$T$242, DW_AT_name("int32")
    2615                            .dwattr $C$DW$T$242, DW_AT_type(*$C$DW$T$12)
    2616                            .dwattr $C$DW$T$242, DW_AT_language(DW_LANG_C)
    2617                            .dwattr $C$DW$T$242, DW_AT_decl_file("C:\ti\simplelink_cc13x0_sdk_1_50_00_08\source\ti\ti154st
    2618                            .dwattr $C$DW$T$242, DW_AT_decl_line(0x3e)
    2619                            .dwattr $C$DW$T$242, DW_AT_decl_column(0x19)
    2620                    
    2621                    $C$DW$T$243     .dwtag  DW_TAG_typedef
    2622                            .dwattr $C$DW$T$243, DW_AT_name("int24")
    2623                            .dwattr $C$DW$T$243, DW_AT_type(*$C$DW$T$242)
    2624                            .dwattr $C$DW$T$243, DW_AT_language(DW_LANG_C)
    2625                            .dwattr $C$DW$T$243, DW_AT_decl_file("C:\Users\Kevin\workspace_v7\sensor_cc1310lp\Application\
    2626                            .dwattr $C$DW$T$243, DW_AT_decl_line(0x7a)
    2627                            .dwattr $C$DW$T$243, DW_AT_decl_column(0x11)
    2628                    
    2629                    $C$DW$T$13      .dwtag  DW_TAG_base_type
    2630                            .dwattr $C$DW$T$13, DW_AT_encoding(DW_ATE_unsigned)
    2631                            .dwattr $C$DW$T$13, DW_AT_name("unsigned long")
    2632                            .dwattr $C$DW$T$13, DW_AT_byte_size(0x04)
    2633                    
    2634                    $C$DW$T$35      .dwtag  DW_TAG_typedef
    2635                            .dwattr $C$DW$T$35, DW_AT_name("uint32")
    2636                            .dwattr $C$DW$T$35, DW_AT_type(*$C$DW$T$13)
    2637                            .dwattr $C$DW$T$35, DW_AT_language(DW_LANG_C)
    2638                            .dwattr $C$DW$T$35, DW_AT_decl_file("C:\ti\simplelink_cc13x0_sdk_1_50_00_08\source\ti\ti154sta
    2639                            .dwattr $C$DW$T$35, DW_AT_decl_line(0x3f)
    2640                            .dwattr $C$DW$T$35, DW_AT_decl_column(0x19)
TI ARM Assembler PC v16.9.4 Sat Nov 18 18:46:22 2017

Tools Copyright (c) 1996-2017 Texas Instruments Incorporated
C:\Users\Kevin\AppData\Local\Temp\{5FC2008A-5F32-4C25-9FE7-4FDE3869A457} PAGE   49

    2641                    
    2642                    $C$DW$T$244     .dwtag  DW_TAG_typedef
    2643                            .dwattr $C$DW$T$244, DW_AT_name("halDataAlign_t")
    2644                            .dwattr $C$DW$T$244, DW_AT_type(*$C$DW$T$35)
    2645                            .dwattr $C$DW$T$244, DW_AT_language(DW_LANG_C)
    2646                            .dwattr $C$DW$T$244, DW_AT_decl_file("C:\ti\simplelink_cc13x0_sdk_1_50_00_08\source\ti\ti154st
    2647                            .dwattr $C$DW$T$244, DW_AT_decl_line(0x43)
    2648                            .dwattr $C$DW$T$244, DW_AT_decl_column(0x19)
    2649                    
    2650                    $C$DW$T$245     .dwtag  DW_TAG_typedef
    2651                            .dwattr $C$DW$T$245, DW_AT_name("uint24")
    2652                            .dwattr $C$DW$T$245, DW_AT_type(*$C$DW$T$35)
    2653                            .dwattr $C$DW$T$245, DW_AT_language(DW_LANG_C)
    2654                            .dwattr $C$DW$T$245, DW_AT_decl_file("C:\Users\Kevin\workspace_v7\sensor_cc1310lp\Application\
    2655                            .dwattr $C$DW$T$245, DW_AT_decl_line(0x7b)
    2656                            .dwattr $C$DW$T$245, DW_AT_decl_column(0x11)
    2657                    
    2658                    $C$DW$T$14      .dwtag  DW_TAG_base_type
    2659                            .dwattr $C$DW$T$14, DW_AT_encoding(DW_ATE_signed)
    2660                            .dwattr $C$DW$T$14, DW_AT_name("long long")
    2661                            .dwattr $C$DW$T$14, DW_AT_byte_size(0x08)
    2662                    
    2663                    $C$DW$T$246     .dwtag  DW_TAG_typedef
    2664                            .dwattr $C$DW$T$246, DW_AT_name("int64_t")
    2665                            .dwattr $C$DW$T$246, DW_AT_type(*$C$DW$T$14)
    2666                            .dwattr $C$DW$T$246, DW_AT_language(DW_LANG_C)
    2667                            .dwattr $C$DW$T$246, DW_AT_decl_file("C:/ti/ccsv7/tools/compiler/ti-cgt-arm_16.9.4.LTS/include
    2668                            .dwattr $C$DW$T$246, DW_AT_decl_line(0x32)
    2669                            .dwattr $C$DW$T$246, DW_AT_decl_column(0x21)
    2670                    
    2671                    $C$DW$T$247     .dwtag  DW_TAG_typedef
    2672                            .dwattr $C$DW$T$247, DW_AT_name("int_fast64_t")
    2673                            .dwattr $C$DW$T$247, DW_AT_type(*$C$DW$T$246)
    2674                            .dwattr $C$DW$T$247, DW_AT_language(DW_LANG_C)
    2675                            .dwattr $C$DW$T$247, DW_AT_decl_file("C:/ti/ccsv7/tools/compiler/ti-cgt-arm_16.9.4.LTS/include
    2676                            .dwattr $C$DW$T$247, DW_AT_decl_line(0x4e)
    2677                            .dwattr $C$DW$T$247, DW_AT_decl_column(0x17)
    2678                    
    2679                    $C$DW$T$248     .dwtag  DW_TAG_typedef
    2680                            .dwattr $C$DW$T$248, DW_AT_name("int_least64_t")
    2681                            .dwattr $C$DW$T$248, DW_AT_type(*$C$DW$T$246)
    2682                            .dwattr $C$DW$T$248, DW_AT_language(DW_LANG_C)
    2683                            .dwattr $C$DW$T$248, DW_AT_decl_file("C:/ti/ccsv7/tools/compiler/ti-cgt-arm_16.9.4.LTS/include
    2684                            .dwattr $C$DW$T$248, DW_AT_decl_line(0x40)
    2685                            .dwattr $C$DW$T$248, DW_AT_decl_column(0x17)
    2686                    
    2687                    $C$DW$T$249     .dwtag  DW_TAG_typedef
    2688                            .dwattr $C$DW$T$249, DW_AT_name("intmax_t")
    2689                            .dwattr $C$DW$T$249, DW_AT_type(*$C$DW$T$14)
    2690                            .dwattr $C$DW$T$249, DW_AT_language(DW_LANG_C)
    2691                            .dwattr $C$DW$T$249, DW_AT_decl_file("C:/ti/ccsv7/tools/compiler/ti-cgt-arm_16.9.4.LTS/include
    2692                            .dwattr $C$DW$T$249, DW_AT_decl_line(0x56)
    2693                            .dwattr $C$DW$T$249, DW_AT_decl_column(0x20)
    2694                    
    2695                    $C$DW$T$15      .dwtag  DW_TAG_base_type
TI ARM Assembler PC v16.9.4 Sat Nov 18 18:46:22 2017

Tools Copyright (c) 1996-2017 Texas Instruments Incorporated
C:\Users\Kevin\AppData\Local\Temp\{5FC2008A-5F32-4C25-9FE7-4FDE3869A457} PAGE   50

    2696                            .dwattr $C$DW$T$15, DW_AT_encoding(DW_ATE_unsigned)
    2697                            .dwattr $C$DW$T$15, DW_AT_name("unsigned long long")
    2698                            .dwattr $C$DW$T$15, DW_AT_byte_size(0x08)
    2699                    
    2700                    $C$DW$T$250     .dwtag  DW_TAG_typedef
    2701                            .dwattr $C$DW$T$250, DW_AT_name("uint64_t")
    2702                            .dwattr $C$DW$T$250, DW_AT_type(*$C$DW$T$15)
    2703                            .dwattr $C$DW$T$250, DW_AT_language(DW_LANG_C)
    2704                            .dwattr $C$DW$T$250, DW_AT_decl_file("C:/ti/ccsv7/tools/compiler/ti-cgt-arm_16.9.4.LTS/include
    2705                            .dwattr $C$DW$T$250, DW_AT_decl_line(0x33)
    2706                            .dwattr $C$DW$T$250, DW_AT_decl_column(0x20)
    2707                    
    2708                    $C$DW$T$251     .dwtag  DW_TAG_typedef
    2709                            .dwattr $C$DW$T$251, DW_AT_name("uint_fast64_t")
    2710                            .dwattr $C$DW$T$251, DW_AT_type(*$C$DW$T$250)
    2711                            .dwattr $C$DW$T$251, DW_AT_language(DW_LANG_C)
    2712                            .dwattr $C$DW$T$251, DW_AT_decl_file("C:/ti/ccsv7/tools/compiler/ti-cgt-arm_16.9.4.LTS/include
    2713                            .dwattr $C$DW$T$251, DW_AT_decl_line(0x4f)
    2714                            .dwattr $C$DW$T$251, DW_AT_decl_column(0x16)
    2715                    
    2716                    $C$DW$T$252     .dwtag  DW_TAG_typedef
    2717                            .dwattr $C$DW$T$252, DW_AT_name("uint_least64_t")
    2718                            .dwattr $C$DW$T$252, DW_AT_type(*$C$DW$T$250)
    2719                            .dwattr $C$DW$T$252, DW_AT_language(DW_LANG_C)
    2720                            .dwattr $C$DW$T$252, DW_AT_decl_file("C:/ti/ccsv7/tools/compiler/ti-cgt-arm_16.9.4.LTS/include
    2721                            .dwattr $C$DW$T$252, DW_AT_decl_line(0x41)
    2722                            .dwattr $C$DW$T$252, DW_AT_decl_column(0x16)
    2723                    
    2724                    $C$DW$T$253     .dwtag  DW_TAG_typedef
    2725                            .dwattr $C$DW$T$253, DW_AT_name("uintmax_t")
    2726                            .dwattr $C$DW$T$253, DW_AT_type(*$C$DW$T$15)
    2727                            .dwattr $C$DW$T$253, DW_AT_language(DW_LANG_C)
    2728                            .dwattr $C$DW$T$253, DW_AT_decl_file("C:/ti/ccsv7/tools/compiler/ti-cgt-arm_16.9.4.LTS/include
    2729                            .dwattr $C$DW$T$253, DW_AT_decl_line(0x57)
    2730                            .dwattr $C$DW$T$253, DW_AT_decl_column(0x20)
    2731                    
    2732                    $C$DW$T$16      .dwtag  DW_TAG_base_type
    2733                            .dwattr $C$DW$T$16, DW_AT_encoding(DW_ATE_float)
    2734                            .dwattr $C$DW$T$16, DW_AT_name("float")
    2735                            .dwattr $C$DW$T$16, DW_AT_byte_size(0x04)
    2736                    
    2737                    $C$DW$T$17      .dwtag  DW_TAG_base_type
    2738                            .dwattr $C$DW$T$17, DW_AT_encoding(DW_ATE_float)
    2739                            .dwattr $C$DW$T$17, DW_AT_name("double")
    2740                            .dwattr $C$DW$T$17, DW_AT_byte_size(0x08)
    2741                    
    2742                    $C$DW$T$18      .dwtag  DW_TAG_base_type
    2743                            .dwattr $C$DW$T$18, DW_AT_encoding(DW_ATE_float)
    2744                            .dwattr $C$DW$T$18, DW_AT_name("long double")
    2745                            .dwattr $C$DW$T$18, DW_AT_byte_size(0x08)
    2746                    
    2747                    $C$DW$T$114     .dwtag  DW_TAG_base_type
    2748                            .dwattr $C$DW$T$114, DW_AT_encoding(DW_ATE_unsigned_char)
    2749                            .dwattr $C$DW$T$114, DW_AT_name("unsigned char")
    2750                            .dwattr $C$DW$T$114, DW_AT_byte_size(0x01)
TI ARM Assembler PC v16.9.4 Sat Nov 18 18:46:22 2017

Tools Copyright (c) 1996-2017 Texas Instruments Incorporated
C:\Users\Kevin\AppData\Local\Temp\{5FC2008A-5F32-4C25-9FE7-4FDE3869A457} PAGE   51

    2751                    
    2752                    
    2753                    $C$DW$T$162     .dwtag  DW_TAG_subroutine_type
    2754                            .dwattr $C$DW$T$162, DW_AT_type(*$C$DW$T$114)
    2755                            .dwattr $C$DW$T$162, DW_AT_language(DW_LANG_C)
    2756                    $C$DW$143       .dwtag  DW_TAG_formal_parameter
    2757                            .dwattr $C$DW$143, DW_AT_type(*$C$DW$T$82)
    2758                    
    2759                    $C$DW$144       .dwtag  DW_TAG_formal_parameter
    2760                            .dwattr $C$DW$144, DW_AT_type(*$C$DW$T$80)
    2761                    
    2762                    $C$DW$145       .dwtag  DW_TAG_formal_parameter
    2763                            .dwattr $C$DW$145, DW_AT_type(*$C$DW$T$161)
    2764                    
    2765                            .dwendtag $C$DW$T$162
    2766                    
    2767                    $C$DW$T$163     .dwtag  DW_TAG_pointer_type
    2768                            .dwattr $C$DW$T$163, DW_AT_type(*$C$DW$T$162)
    2769                            .dwattr $C$DW$T$163, DW_AT_address_class(0x20)
    2770                    
    2771                    $C$DW$T$164     .dwtag  DW_TAG_typedef
    2772                            .dwattr $C$DW$T$164, DW_AT_name("ICall_MsgMatchFn")
    2773                            .dwattr $C$DW$T$164, DW_AT_type(*$C$DW$T$163)
    2774                            .dwattr $C$DW$T$164, DW_AT_language(DW_LANG_C)
    2775                            .dwattr $C$DW$T$164, DW_AT_decl_file("C:/ti/simplelink_cc13x0_sdk_1_50_00_08/source/ti/ti154st
    2776                            .dwattr $C$DW$T$164, DW_AT_decl_line(0x1c1)
    2777                            .dwattr $C$DW$T$164, DW_AT_decl_column(0x10)
    2778                    
    2779                    
    2780                    $C$DW$T$94      .dwtag  DW_TAG_structure_type
    2781                            .dwattr $C$DW$T$94, DW_AT_name("_icall_alloc_args_t")
    2782                            .dwattr $C$DW$T$94, DW_AT_byte_size(0x0c)
    2783                    $C$DW$146       .dwtag  DW_TAG_member
    2784                            .dwattr $C$DW$146, DW_AT_type(*$C$DW$T$92)
    2785                            .dwattr $C$DW$146, DW_AT_name("hdr")
    2786                            .dwattr $C$DW$146, DW_AT_TI_symbol_name("hdr")
    2787                            .dwattr $C$DW$146, DW_AT_data_member_location[DW_OP_plus_uconst 0x0]
    2788                            .dwattr $C$DW$146, DW_AT_accessibility(DW_ACCESS_public)
    2789                            .dwattr $C$DW$146, DW_AT_decl_file("C:/ti/simplelink_cc13x0_sdk_1_50_00_08/source/ti/ti154stac
    2790                            .dwattr $C$DW$146, DW_AT_decl_line(0x1e3)
    2791                            .dwattr $C$DW$146, DW_AT_decl_column(0x15)
    2792                    
    2793                    $C$DW$147       .dwtag  DW_TAG_member
    2794                            .dwattr $C$DW$147, DW_AT_type(*$C$DW$T$93)
    2795                            .dwattr $C$DW$147, DW_AT_name("size")
    2796                            .dwattr $C$DW$147, DW_AT_TI_symbol_name("size")
    2797                            .dwattr $C$DW$147, DW_AT_data_member_location[DW_OP_plus_uconst 0x4]
    2798                            .dwattr $C$DW$147, DW_AT_accessibility(DW_ACCESS_public)
    2799                            .dwattr $C$DW$147, DW_AT_decl_file("C:/ti/simplelink_cc13x0_sdk_1_50_00_08/source/ti/ti154stac
    2800                            .dwattr $C$DW$147, DW_AT_decl_line(0x1e5)
    2801                            .dwattr $C$DW$147, DW_AT_decl_column(0x0a)
    2802                    
    2803                    $C$DW$148       .dwtag  DW_TAG_member
    2804                            .dwattr $C$DW$148, DW_AT_type(*$C$DW$T$3)
    2805                            .dwattr $C$DW$148, DW_AT_name("ptr")
TI ARM Assembler PC v16.9.4 Sat Nov 18 18:46:22 2017

Tools Copyright (c) 1996-2017 Texas Instruments Incorporated
C:\Users\Kevin\AppData\Local\Temp\{5FC2008A-5F32-4C25-9FE7-4FDE3869A457} PAGE   52

    2806                            .dwattr $C$DW$148, DW_AT_TI_symbol_name("ptr")
    2807                            .dwattr $C$DW$148, DW_AT_data_member_location[DW_OP_plus_uconst 0x8]
    2808                            .dwattr $C$DW$148, DW_AT_accessibility(DW_ACCESS_public)
    2809                            .dwattr $C$DW$148, DW_AT_decl_file("C:/ti/simplelink_cc13x0_sdk_1_50_00_08/source/ti/ti154stac
    2810                            .dwattr $C$DW$148, DW_AT_decl_line(0x1e7)
    2811                            .dwattr $C$DW$148, DW_AT_decl_column(0x0a)
    2812                    
    2813                            .dwattr $C$DW$T$94, DW_AT_decl_file("C:/ti/simplelink_cc13x0_sdk_1_50_00_08/source/ti/ti154sta
    2814                            .dwattr $C$DW$T$94, DW_AT_decl_line(0x1e0)
    2815                            .dwattr $C$DW$T$94, DW_AT_decl_column(0x10)
    2816                            .dwendtag $C$DW$T$94
    2817                    
    2818                    $C$DW$T$254     .dwtag  DW_TAG_typedef
    2819                            .dwattr $C$DW$T$254, DW_AT_name("ICall_AllocArgs")
    2820                            .dwattr $C$DW$T$254, DW_AT_type(*$C$DW$T$94)
    2821                            .dwattr $C$DW$T$254, DW_AT_language(DW_LANG_C)
    2822                            .dwattr $C$DW$T$254, DW_AT_decl_file("C:/ti/simplelink_cc13x0_sdk_1_50_00_08/source/ti/ti154st
    2823                            .dwattr $C$DW$T$254, DW_AT_decl_line(0x1e8)
    2824                            .dwattr $C$DW$T$254, DW_AT_decl_column(0x03)
    2825                    
    2826                    
    2827                    $C$DW$T$97      .dwtag  DW_TAG_structure_type
    2828                            .dwattr $C$DW$T$97, DW_AT_name("_icall_create_task_args_t")
    2829                            .dwattr $C$DW$T$97, DW_AT_byte_size(0x10)
    2830                    $C$DW$149       .dwtag  DW_TAG_member
    2831                            .dwattr $C$DW$149, DW_AT_type(*$C$DW$T$92)
    2832                            .dwattr $C$DW$149, DW_AT_name("hdr")
    2833                            .dwattr $C$DW$149, DW_AT_TI_symbol_name("hdr")
    2834                            .dwattr $C$DW$149, DW_AT_data_member_location[DW_OP_plus_uconst 0x0]
    2835                            .dwattr $C$DW$149, DW_AT_accessibility(DW_ACCESS_public)
    2836                            .dwattr $C$DW$149, DW_AT_decl_file("C:/ti/simplelink_cc13x0_sdk_1_50_00_08/source/ti/ti154stac
    2837                            .dwattr $C$DW$149, DW_AT_decl_line(0x2bc)
    2838                            .dwattr $C$DW$149, DW_AT_decl_column(0x15)
    2839                    
    2840                    $C$DW$150       .dwtag  DW_TAG_member
    2841                            .dwattr $C$DW$150, DW_AT_type(*$C$DW$T$96)
    2842                            .dwattr $C$DW$150, DW_AT_name("entryfn")
    2843                            .dwattr $C$DW$150, DW_AT_TI_symbol_name("entryfn")
    2844                            .dwattr $C$DW$150, DW_AT_data_member_location[DW_OP_plus_uconst 0x4]
    2845                            .dwattr $C$DW$150, DW_AT_accessibility(DW_ACCESS_public)
    2846                            .dwattr $C$DW$150, DW_AT_decl_file("C:/ti/simplelink_cc13x0_sdk_1_50_00_08/source/ti/ti154stac
    2847                            .dwattr $C$DW$150, DW_AT_decl_line(0x2be)
    2848                            .dwattr $C$DW$150, DW_AT_decl_column(0x0a)
    2849                    
    2850                    $C$DW$151       .dwtag  DW_TAG_member
    2851                            .dwattr $C$DW$151, DW_AT_type(*$C$DW$T$79)
    2852                            .dwattr $C$DW$151, DW_AT_name("priority")
    2853                            .dwattr $C$DW$151, DW_AT_TI_symbol_name("priority")
    2854                            .dwattr $C$DW$151, DW_AT_data_member_location[DW_OP_plus_uconst 0x8]
    2855                            .dwattr $C$DW$151, DW_AT_accessibility(DW_ACCESS_public)
    2856                            .dwattr $C$DW$151, DW_AT_decl_file("C:/ti/simplelink_cc13x0_sdk_1_50_00_08/source/ti/ti154stac
    2857                            .dwattr $C$DW$151, DW_AT_decl_line(0x2c0)
    2858                            .dwattr $C$DW$151, DW_AT_decl_column(0x11)
    2859                    
    2860                    $C$DW$152       .dwtag  DW_TAG_member
TI ARM Assembler PC v16.9.4 Sat Nov 18 18:46:22 2017

Tools Copyright (c) 1996-2017 Texas Instruments Incorporated
C:\Users\Kevin\AppData\Local\Temp\{5FC2008A-5F32-4C25-9FE7-4FDE3869A457} PAGE   53

    2861                            .dwattr $C$DW$152, DW_AT_type(*$C$DW$T$81)
    2862                            .dwattr $C$DW$152, DW_AT_name("stacksize")
    2863                            .dwattr $C$DW$152, DW_AT_TI_symbol_name("stacksize")
    2864                            .dwattr $C$DW$152, DW_AT_data_member_location[DW_OP_plus_uconst 0xa]
    2865                            .dwattr $C$DW$152, DW_AT_accessibility(DW_ACCESS_public)
    2866                            .dwattr $C$DW$152, DW_AT_decl_file("C:/ti/simplelink_cc13x0_sdk_1_50_00_08/source/ti/ti154stac
    2867                            .dwattr $C$DW$152, DW_AT_decl_line(0x2c2)
    2868                            .dwattr $C$DW$152, DW_AT_decl_column(0x12)
    2869                    
    2870                    $C$DW$153       .dwtag  DW_TAG_member
    2871                            .dwattr $C$DW$153, DW_AT_type(*$C$DW$T$93)
    2872                            .dwattr $C$DW$153, DW_AT_name("arg")
    2873                            .dwattr $C$DW$153, DW_AT_TI_symbol_name("arg")
    2874                            .dwattr $C$DW$153, DW_AT_data_member_location[DW_OP_plus_uconst 0xc]
    2875                            .dwattr $C$DW$153, DW_AT_accessibility(DW_ACCESS_public)
    2876                            .dwattr $C$DW$153, DW_AT_decl_file("C:/ti/simplelink_cc13x0_sdk_1_50_00_08/source/ti/ti154stac
    2877                            .dwattr $C$DW$153, DW_AT_decl_line(0x2c4)
    2878                            .dwattr $C$DW$153, DW_AT_decl_column(0x0a)
    2879                    
    2880                            .dwattr $C$DW$T$97, DW_AT_decl_file("C:/ti/simplelink_cc13x0_sdk_1_50_00_08/source/ti/ti154sta
    2881                            .dwattr $C$DW$T$97, DW_AT_decl_line(0x2b9)
    2882                            .dwattr $C$DW$T$97, DW_AT_decl_column(0x10)
    2883                            .dwendtag $C$DW$T$97
    2884                    
    2885                    $C$DW$T$255     .dwtag  DW_TAG_typedef
    2886                            .dwattr $C$DW$T$255, DW_AT_name("ICall_CreateTaskArgs")
    2887                            .dwattr $C$DW$T$255, DW_AT_type(*$C$DW$T$97)
    2888                            .dwattr $C$DW$T$255, DW_AT_language(DW_LANG_C)
    2889                            .dwattr $C$DW$T$255, DW_AT_decl_file("C:/ti/simplelink_cc13x0_sdk_1_50_00_08/source/ti/ti154st
    2890                            .dwattr $C$DW$T$255, DW_AT_decl_line(0x2c5)
    2891                            .dwattr $C$DW$T$255, DW_AT_decl_column(0x03)
    2892                    
    2893                    
    2894                    $C$DW$T$106     .dwtag  DW_TAG_structure_type
    2895                            .dwattr $C$DW$T$106, DW_AT_name("_icall_enroll_service_args_t")
    2896                            .dwattr $C$DW$T$106, DW_AT_byte_size(0x14)
    2897                    $C$DW$154       .dwtag  DW_TAG_member
    2898                            .dwattr $C$DW$154, DW_AT_type(*$C$DW$T$92)
    2899                            .dwattr $C$DW$154, DW_AT_name("hdr")
    2900                            .dwattr $C$DW$154, DW_AT_TI_symbol_name("hdr")
    2901                            .dwattr $C$DW$154, DW_AT_data_member_location[DW_OP_plus_uconst 0x0]
    2902                            .dwattr $C$DW$154, DW_AT_accessibility(DW_ACCESS_public)
    2903                            .dwattr $C$DW$154, DW_AT_decl_file("C:/ti/simplelink_cc13x0_sdk_1_50_00_08/source/ti/ti154stac
    2904                            .dwattr $C$DW$154, DW_AT_decl_line(0x3a9)
    2905                            .dwattr $C$DW$154, DW_AT_decl_column(0x15)
    2906                    
    2907                    $C$DW$155       .dwtag  DW_TAG_member
    2908                            .dwattr $C$DW$155, DW_AT_type(*$C$DW$T$82)
    2909                            .dwattr $C$DW$155, DW_AT_name("service")
    2910                            .dwattr $C$DW$155, DW_AT_TI_symbol_name("service")
    2911                            .dwattr $C$DW$155, DW_AT_data_member_location[DW_OP_plus_uconst 0x4]
    2912                            .dwattr $C$DW$155, DW_AT_accessibility(DW_ACCESS_public)
    2913                            .dwattr $C$DW$155, DW_AT_decl_file("C:/ti/simplelink_cc13x0_sdk_1_50_00_08/source/ti/ti154stac
    2914                            .dwattr $C$DW$155, DW_AT_decl_line(0x3ab)
    2915                            .dwattr $C$DW$155, DW_AT_decl_column(0x15)
TI ARM Assembler PC v16.9.4 Sat Nov 18 18:46:22 2017

Tools Copyright (c) 1996-2017 Texas Instruments Incorporated
C:\Users\Kevin\AppData\Local\Temp\{5FC2008A-5F32-4C25-9FE7-4FDE3869A457} PAGE   54

    2916                    
    2917                    $C$DW$156       .dwtag  DW_TAG_member
    2918                            .dwattr $C$DW$156, DW_AT_type(*$C$DW$T$104)
    2919                            .dwattr $C$DW$156, DW_AT_name("fn")
    2920                            .dwattr $C$DW$156, DW_AT_TI_symbol_name("fn")
    2921                            .dwattr $C$DW$156, DW_AT_data_member_location[DW_OP_plus_uconst 0x8]
    2922                            .dwattr $C$DW$156, DW_AT_accessibility(DW_ACCESS_public)
    2923                            .dwattr $C$DW$156, DW_AT_decl_file("C:/ti/simplelink_cc13x0_sdk_1_50_00_08/source/ti/ti154stac
    2924                            .dwattr $C$DW$156, DW_AT_decl_line(0x3ad)
    2925                            .dwattr $C$DW$156, DW_AT_decl_column(0x15)
    2926                    
    2927                    $C$DW$157       .dwtag  DW_TAG_member
    2928                            .dwattr $C$DW$157, DW_AT_type(*$C$DW$T$80)
    2929                            .dwattr $C$DW$157, DW_AT_name("entity")
    2930                            .dwattr $C$DW$157, DW_AT_TI_symbol_name("entity")
    2931                            .dwattr $C$DW$157, DW_AT_data_member_location[DW_OP_plus_uconst 0xc]
    2932                            .dwattr $C$DW$157, DW_AT_accessibility(DW_ACCESS_public)
    2933                            .dwattr $C$DW$157, DW_AT_decl_file("C:/ti/simplelink_cc13x0_sdk_1_50_00_08/source/ti/ti154stac
    2934                            .dwattr $C$DW$157, DW_AT_decl_line(0x3af)
    2935                            .dwattr $C$DW$157, DW_AT_decl_column(0x12)
    2936                    
    2937                    $C$DW$158       .dwtag  DW_TAG_member
    2938                            .dwattr $C$DW$158, DW_AT_type(*$C$DW$T$105)
    2939                            .dwattr $C$DW$158, DW_AT_name("msgSyncHdl")
    2940                            .dwattr $C$DW$158, DW_AT_TI_symbol_name("msgSyncHdl")
    2941                            .dwattr $C$DW$158, DW_AT_data_member_location[DW_OP_plus_uconst 0x10]
    2942                            .dwattr $C$DW$158, DW_AT_accessibility(DW_ACCESS_public)
    2943                            .dwattr $C$DW$158, DW_AT_decl_file("C:/ti/simplelink_cc13x0_sdk_1_50_00_08/source/ti/ti154stac
    2944                            .dwattr $C$DW$158, DW_AT_decl_line(0x3b2)
    2945                            .dwattr $C$DW$158, DW_AT_decl_column(0x14)
    2946                    
    2947                            .dwattr $C$DW$T$106, DW_AT_decl_file("C:/ti/simplelink_cc13x0_sdk_1_50_00_08/source/ti/ti154st
    2948                            .dwattr $C$DW$T$106, DW_AT_decl_line(0x3a6)
    2949                            .dwattr $C$DW$T$106, DW_AT_decl_column(0x10)
    2950                            .dwendtag $C$DW$T$106
    2951                    
    2952                    $C$DW$T$256     .dwtag  DW_TAG_typedef
    2953                            .dwattr $C$DW$T$256, DW_AT_name("ICall_EnrollServiceArgs")
    2954                            .dwattr $C$DW$T$256, DW_AT_type(*$C$DW$T$106)
    2955                            .dwattr $C$DW$T$256, DW_AT_language(DW_LANG_C)
    2956                            .dwattr $C$DW$T$256, DW_AT_decl_file("C:/ti/simplelink_cc13x0_sdk_1_50_00_08/source/ti/ti154st
    2957                            .dwattr $C$DW$T$256, DW_AT_decl_line(0x3b3)
    2958                            .dwattr $C$DW$T$256, DW_AT_decl_column(0x03)
    2959                    
    2960                    
    2961                    $C$DW$T$107     .dwtag  DW_TAG_structure_type
    2962                            .dwattr $C$DW$T$107, DW_AT_name("_icall_entity2service_args_t")
    2963                            .dwattr $C$DW$T$107, DW_AT_byte_size(0x08)
    2964                    $C$DW$159       .dwtag  DW_TAG_member
    2965                            .dwattr $C$DW$159, DW_AT_type(*$C$DW$T$92)
    2966                            .dwattr $C$DW$159, DW_AT_name("hdr")
    2967                            .dwattr $C$DW$159, DW_AT_TI_symbol_name("hdr")
    2968                            .dwattr $C$DW$159, DW_AT_data_member_location[DW_OP_plus_uconst 0x0]
    2969                            .dwattr $C$DW$159, DW_AT_accessibility(DW_ACCESS_public)
    2970                            .dwattr $C$DW$159, DW_AT_decl_file("C:/ti/simplelink_cc13x0_sdk_1_50_00_08/source/ti/ti154stac
TI ARM Assembler PC v16.9.4 Sat Nov 18 18:46:22 2017

Tools Copyright (c) 1996-2017 Texas Instruments Incorporated
C:\Users\Kevin\AppData\Local\Temp\{5FC2008A-5F32-4C25-9FE7-4FDE3869A457} PAGE   55

    2971                            .dwattr $C$DW$159, DW_AT_decl_line(0x23e)
    2972                            .dwattr $C$DW$159, DW_AT_decl_column(0x15)
    2973                    
    2974                    $C$DW$160       .dwtag  DW_TAG_member
    2975                            .dwattr $C$DW$160, DW_AT_type(*$C$DW$T$80)
    2976                            .dwattr $C$DW$160, DW_AT_name("entityId")
    2977                            .dwattr $C$DW$160, DW_AT_TI_symbol_name("entityId")
    2978                            .dwattr $C$DW$160, DW_AT_data_member_location[DW_OP_plus_uconst 0x4]
    2979                            .dwattr $C$DW$160, DW_AT_accessibility(DW_ACCESS_public)
    2980                            .dwattr $C$DW$160, DW_AT_decl_file("C:/ti/simplelink_cc13x0_sdk_1_50_00_08/source/ti/ti154stac
    2981                            .dwattr $C$DW$160, DW_AT_decl_line(0x240)
    2982                            .dwattr $C$DW$160, DW_AT_decl_column(0x12)
    2983                    
    2984                    $C$DW$161       .dwtag  DW_TAG_member
    2985                            .dwattr $C$DW$161, DW_AT_type(*$C$DW$T$82)
    2986                            .dwattr $C$DW$161, DW_AT_name("servId")
    2987                            .dwattr $C$DW$161, DW_AT_TI_symbol_name("servId")
    2988                            .dwattr $C$DW$161, DW_AT_data_member_location[DW_OP_plus_uconst 0x6]
    2989                            .dwattr $C$DW$161, DW_AT_accessibility(DW_ACCESS_public)
    2990                            .dwattr $C$DW$161, DW_AT_decl_file("C:/ti/simplelink_cc13x0_sdk_1_50_00_08/source/ti/ti154stac
    2991                            .dwattr $C$DW$161, DW_AT_decl_line(0x242)
    2992                            .dwattr $C$DW$161, DW_AT_decl_column(0x15)
    2993                    
    2994                            .dwattr $C$DW$T$107, DW_AT_decl_file("C:/ti/simplelink_cc13x0_sdk_1_50_00_08/source/ti/ti154st
    2995                            .dwattr $C$DW$T$107, DW_AT_decl_line(0x23b)
    2996                            .dwattr $C$DW$T$107, DW_AT_decl_column(0x10)
    2997                            .dwendtag $C$DW$T$107
    2998                    
    2999                    $C$DW$T$257     .dwtag  DW_TAG_typedef
    3000                            .dwattr $C$DW$T$257, DW_AT_name("ICall_EntityId2ServiceIdArgs")
    3001                            .dwattr $C$DW$T$257, DW_AT_type(*$C$DW$T$107)
    3002                            .dwattr $C$DW$T$257, DW_AT_language(DW_LANG_C)
    3003                            .dwattr $C$DW$T$257, DW_AT_decl_file("C:/ti/simplelink_cc13x0_sdk_1_50_00_08/source/ti/ti154st
    3004                            .dwattr $C$DW$T$257, DW_AT_decl_line(0x243)
    3005                            .dwattr $C$DW$T$257, DW_AT_decl_column(0x03)
    3006                    
    3007                    
    3008                    $C$DW$T$108     .dwtag  DW_TAG_structure_type
    3009                            .dwattr $C$DW$T$108, DW_AT_name("_icall_fetch_msg_args_t")
    3010                            .dwattr $C$DW$T$108, DW_AT_byte_size(0x0c)
    3011                    $C$DW$162       .dwtag  DW_TAG_member
    3012                            .dwattr $C$DW$162, DW_AT_type(*$C$DW$T$92)
    3013                            .dwattr $C$DW$162, DW_AT_name("hdr")
    3014                            .dwattr $C$DW$162, DW_AT_TI_symbol_name("hdr")
    3015                            .dwattr $C$DW$162, DW_AT_data_member_location[DW_OP_plus_uconst 0x0]
    3016                            .dwattr $C$DW$162, DW_AT_accessibility(DW_ACCESS_public)
    3017                            .dwattr $C$DW$162, DW_AT_decl_file("C:/ti/simplelink_cc13x0_sdk_1_50_00_08/source/ti/ti154stac
    3018                            .dwattr $C$DW$162, DW_AT_decl_line(0x20c)
    3019                            .dwattr $C$DW$162, DW_AT_decl_column(0x15)
    3020                    
    3021                    $C$DW$163       .dwtag  DW_TAG_member
    3022                            .dwattr $C$DW$163, DW_AT_type(*$C$DW$T$84)
    3023                            .dwattr $C$DW$163, DW_AT_name("src")
    3024                            .dwattr $C$DW$163, DW_AT_TI_symbol_name("src")
    3025                            .dwattr $C$DW$163, DW_AT_data_member_location[DW_OP_plus_uconst 0x4]
TI ARM Assembler PC v16.9.4 Sat Nov 18 18:46:22 2017

Tools Copyright (c) 1996-2017 Texas Instruments Incorporated
C:\Users\Kevin\AppData\Local\Temp\{5FC2008A-5F32-4C25-9FE7-4FDE3869A457} PAGE   56

    3026                            .dwattr $C$DW$163, DW_AT_accessibility(DW_ACCESS_public)
    3027                            .dwattr $C$DW$163, DW_AT_decl_file("C:/ti/simplelink_cc13x0_sdk_1_50_00_08/source/ti/ti154stac
    3028                            .dwattr $C$DW$163, DW_AT_decl_line(0x214)
    3029                            .dwattr $C$DW$163, DW_AT_decl_column(0x05)
    3030                    
    3031                    $C$DW$164       .dwtag  DW_TAG_member
    3032                            .dwattr $C$DW$164, DW_AT_type(*$C$DW$T$80)
    3033                            .dwattr $C$DW$164, DW_AT_name("dest")
    3034                            .dwattr $C$DW$164, DW_AT_TI_symbol_name("dest")
    3035                            .dwattr $C$DW$164, DW_AT_data_member_location[DW_OP_plus_uconst 0x6]
    3036                            .dwattr $C$DW$164, DW_AT_accessibility(DW_ACCESS_public)
    3037                            .dwattr $C$DW$164, DW_AT_decl_file("C:/ti/simplelink_cc13x0_sdk_1_50_00_08/source/ti/ti154stac
    3038                            .dwattr $C$DW$164, DW_AT_decl_line(0x216)
    3039                            .dwattr $C$DW$164, DW_AT_decl_column(0x12)
    3040                    
    3041                    $C$DW$165       .dwtag  DW_TAG_member
    3042                            .dwattr $C$DW$165, DW_AT_type(*$C$DW$T$3)
    3043                            .dwattr $C$DW$165, DW_AT_name("msg")
    3044                            .dwattr $C$DW$165, DW_AT_TI_symbol_name("msg")
    3045                            .dwattr $C$DW$165, DW_AT_data_member_location[DW_OP_plus_uconst 0x8]
    3046                            .dwattr $C$DW$165, DW_AT_accessibility(DW_ACCESS_public)
    3047                            .dwattr $C$DW$165, DW_AT_decl_file("C:/ti/simplelink_cc13x0_sdk_1_50_00_08/source/ti/ti154stac
    3048                            .dwattr $C$DW$165, DW_AT_decl_line(0x218)
    3049                            .dwattr $C$DW$165, DW_AT_decl_column(0x09)
    3050                    
    3051                            .dwattr $C$DW$T$108, DW_AT_decl_file("C:/ti/simplelink_cc13x0_sdk_1_50_00_08/source/ti/ti154st
    3052                            .dwattr $C$DW$T$108, DW_AT_decl_line(0x209)
    3053                            .dwattr $C$DW$T$108, DW_AT_decl_column(0x10)
    3054                            .dwendtag $C$DW$T$108
    3055                    
    3056                    $C$DW$T$258     .dwtag  DW_TAG_typedef
    3057                            .dwattr $C$DW$T$258, DW_AT_name("ICall_FetchMsgArgs")
    3058                            .dwattr $C$DW$T$258, DW_AT_type(*$C$DW$T$108)
    3059                            .dwattr $C$DW$T$258, DW_AT_language(DW_LANG_C)
    3060                            .dwattr $C$DW$T$258, DW_AT_decl_file("C:/ti/simplelink_cc13x0_sdk_1_50_00_08/source/ti/ti154st
    3061                            .dwattr $C$DW$T$258, DW_AT_decl_line(0x219)
    3062                            .dwattr $C$DW$T$258, DW_AT_decl_column(0x03)
    3063                    
    3064                    
    3065                    $C$DW$T$109     .dwtag  DW_TAG_structure_type
    3066                            .dwattr $C$DW$T$109, DW_AT_name("_icall_free_args_t")
    3067                            .dwattr $C$DW$T$109, DW_AT_byte_size(0x08)
    3068                    $C$DW$166       .dwtag  DW_TAG_member
    3069                            .dwattr $C$DW$166, DW_AT_type(*$C$DW$T$92)
    3070                            .dwattr $C$DW$166, DW_AT_name("hdr")
    3071                            .dwattr $C$DW$166, DW_AT_TI_symbol_name("hdr")
    3072                            .dwattr $C$DW$166, DW_AT_data_member_location[DW_OP_plus_uconst 0x0]
    3073                            .dwattr $C$DW$166, DW_AT_accessibility(DW_ACCESS_public)
    3074                            .dwattr $C$DW$166, DW_AT_decl_file("C:/ti/simplelink_cc13x0_sdk_1_50_00_08/source/ti/ti154stac
    3075                            .dwattr $C$DW$166, DW_AT_decl_line(0x1ee)
    3076                            .dwattr $C$DW$166, DW_AT_decl_column(0x15)
    3077                    
    3078                    $C$DW$167       .dwtag  DW_TAG_member
    3079                            .dwattr $C$DW$167, DW_AT_type(*$C$DW$T$3)
    3080                            .dwattr $C$DW$167, DW_AT_name("ptr")
TI ARM Assembler PC v16.9.4 Sat Nov 18 18:46:22 2017

Tools Copyright (c) 1996-2017 Texas Instruments Incorporated
C:\Users\Kevin\AppData\Local\Temp\{5FC2008A-5F32-4C25-9FE7-4FDE3869A457} PAGE   57

    3081                            .dwattr $C$DW$167, DW_AT_TI_symbol_name("ptr")
    3082                            .dwattr $C$DW$167, DW_AT_data_member_location[DW_OP_plus_uconst 0x4]
    3083                            .dwattr $C$DW$167, DW_AT_accessibility(DW_ACCESS_public)
    3084                            .dwattr $C$DW$167, DW_AT_decl_file("C:/ti/simplelink_cc13x0_sdk_1_50_00_08/source/ti/ti154stac
    3085                            .dwattr $C$DW$167, DW_AT_decl_line(0x1f0)
    3086                            .dwattr $C$DW$167, DW_AT_decl_column(0x0a)
    3087                    
    3088                            .dwattr $C$DW$T$109, DW_AT_decl_file("C:/ti/simplelink_cc13x0_sdk_1_50_00_08/source/ti/ti154st
    3089                            .dwattr $C$DW$T$109, DW_AT_decl_line(0x1eb)
    3090                            .dwattr $C$DW$T$109, DW_AT_decl_column(0x10)
    3091                            .dwendtag $C$DW$T$109
    3092                    
    3093                    $C$DW$T$259     .dwtag  DW_TAG_typedef
