TI ARM Assembler PC v16.9.4 Sat Nov 18 18:46:28 2017

Tools Copyright (c) 1996-2017 Texas Instruments Incorporated
C:\Users\Kevin\AppData\Local\Temp\{25EC31FF-BE6A-4273-8ABE-530A93E63F10} PAGE    1

       1                    ;******************************************************************************
       2                    ;* TI ARM C/C++ Codegen                                        PC v16.9.4.LTS *
       3                    ;* Date/Time created: Sat Nov 18 18:46:28 2017                                *
       4                    ;******************************************************************************
       5                            .compiler_opts --abi=eabi --arm_vmrs_si_workaround=off --code_state=16 --diag_wrap=off --embed
       6 00000000                   .thumb
       7                    
       8                    $C$DW$CU        .dwtag  DW_TAG_compile_unit
       9                            .dwattr $C$DW$CU, DW_AT_name("../Application/MAC/StartUp/icall_startup.c")
      10                            .dwattr $C$DW$CU, DW_AT_producer("TI TI ARM C/C++ Codegen PC v16.9.4.LTS Copyright (c) 1996-20
      11                            .dwattr $C$DW$CU, DW_AT_TI_version(0x01)
      12                            .dwattr $C$DW$CU, DW_AT_comp_dir("C:\Users\Kevin\workspace_v7\sensor_cc1310lp\sensor_cc1310lp"
      13                    
      14                    $C$DW$1 .dwtag  DW_TAG_subprogram
      15                            .dwattr $C$DW$1, DW_AT_name("stack_main")
      16                            .dwattr $C$DW$1, DW_AT_TI_symbol_name("stack_main")
      17                            .dwattr $C$DW$1, DW_AT_type(*$C$DW$T$10)
      18                            .dwattr $C$DW$1, DW_AT_declaration
      19                            .dwattr $C$DW$1, DW_AT_external
      20                            .dwattr $C$DW$1, DW_AT_decl_file("../Application/MAC/StartUp/icall_startup.c")
      21                            .dwattr $C$DW$1, DW_AT_decl_line(0xd6)
      22                            .dwattr $C$DW$1, DW_AT_decl_column(0x0e)
      23                    $C$DW$2 .dwtag  DW_TAG_formal_parameter
      24                            .dwattr $C$DW$2, DW_AT_type(*$C$DW$T$3)
      25                    
      26                            .dwendtag $C$DW$1
      27                    
      28                    $C$DW$3 .dwtag  DW_TAG_variable
      29                            .dwattr $C$DW$3, DW_AT_name("ICall_dispatcher")
      30                            .dwattr $C$DW$3, DW_AT_TI_symbol_name("ICall_dispatcher")
      31                            .dwattr $C$DW$3, DW_AT_type(*$C$DW$T$88)
      32                            .dwattr $C$DW$3, DW_AT_declaration
      33                            .dwattr $C$DW$3, DW_AT_external
      34                            .dwattr $C$DW$3, DW_AT_decl_file("C:/ti/simplelink_cc13x0_sdk_1_50_00_08/source/ti/ti154stack/
      35                            .dwattr $C$DW$3, DW_AT_decl_line(0x381)
      36                            .dwattr $C$DW$3, DW_AT_decl_column(0x19)
      37                    
      38                    $C$DW$4 .dwtag  DW_TAG_variable
      39                            .dwattr $C$DW$4, DW_AT_name("ICall_enterCriticalSection")
      40                            .dwattr $C$DW$4, DW_AT_TI_symbol_name("ICall_enterCriticalSection")
      41                            .dwattr $C$DW$4, DW_AT_type(*$C$DW$T$92)
      42                            .dwattr $C$DW$4, DW_AT_declaration
      43                            .dwattr $C$DW$4, DW_AT_external
      44                            .dwattr $C$DW$4, DW_AT_decl_file("C:/ti/simplelink_cc13x0_sdk_1_50_00_08/source/ti/ti154stack/
      45                            .dwattr $C$DW$4, DW_AT_decl_line(0x384)
      46                            .dwattr $C$DW$4, DW_AT_decl_column(0x16)
      47                    
      48                    $C$DW$5 .dwtag  DW_TAG_variable
      49                            .dwattr $C$DW$5, DW_AT_name("ICall_leaveCriticalSection")
      50                            .dwattr $C$DW$5, DW_AT_TI_symbol_name("ICall_leaveCriticalSection")
      51                            .dwattr $C$DW$5, DW_AT_type(*$C$DW$T$95)
      52                            .dwattr $C$DW$5, DW_AT_declaration
      53                            .dwattr $C$DW$5, DW_AT_external
      54                            .dwattr $C$DW$5, DW_AT_decl_file("C:/ti/simplelink_cc13x0_sdk_1_50_00_08/source/ti/ti154stack/
      55                            .dwattr $C$DW$5, DW_AT_decl_line(0x387)
TI ARM Assembler PC v16.9.4 Sat Nov 18 18:46:28 2017

Tools Copyright (c) 1996-2017 Texas Instruments Incorporated
C:\Users\Kevin\AppData\Local\Temp\{25EC31FF-BE6A-4273-8ABE-530A93E63F10} PAGE    2

      56                            .dwattr $C$DW$5, DW_AT_decl_column(0x16)
      57                    
      58                    
      59                    $C$DW$6 .dwtag  DW_TAG_subprogram
      60                            .dwattr $C$DW$6, DW_AT_name("memset")
      61                            .dwattr $C$DW$6, DW_AT_TI_symbol_name("memset")
      62                            .dwattr $C$DW$6, DW_AT_type(*$C$DW$T$3)
      63                            .dwattr $C$DW$6, DW_AT_declaration
      64                            .dwattr $C$DW$6, DW_AT_external
      65                            .dwendtag $C$DW$6
      66                    
      67                    ;       C:\ti\ccsv7\tools\compiler\ti-cgt-arm_16.9.4.LTS\bin\armopt.exe C:/Users/Kevin/workspace_v7/se
      68 00000000                   .sect   ".text:slow_crc16"
      69                            .clink
      70                            .thumbfunc slow_crc16
      71 00000000                   .thumb
      72                            .global slow_crc16
      73                    
      74                    $C$DW$7 .dwtag  DW_TAG_subprogram
      75                            .dwattr $C$DW$7, DW_AT_name("slow_crc16")
      76                            .dwattr $C$DW$7, DW_AT_low_pc(slow_crc16)
      77                            .dwattr $C$DW$7, DW_AT_high_pc(0x00)
      78                            .dwattr $C$DW$7, DW_AT_TI_symbol_name("slow_crc16")
      79                            .dwattr $C$DW$7, DW_AT_external
      80                            .dwattr $C$DW$7, DW_AT_type(*$C$DW$T$156)
      81                            .dwattr $C$DW$7, DW_AT_TI_begin_file("../Application/MAC/StartUp/icall_startup.c")
      82                            .dwattr $C$DW$7, DW_AT_TI_begin_line(0x7b)
      83                            .dwattr $C$DW$7, DW_AT_TI_begin_column(0x08)
      84                            .dwattr $C$DW$7, DW_AT_decl_file("../Application/MAC/StartUp/icall_startup.c")
      85                            .dwattr $C$DW$7, DW_AT_decl_line(0x7b)
      86                            .dwattr $C$DW$7, DW_AT_decl_column(0x08)
      87                            .dwattr $C$DW$7, DW_AT_TI_max_frame_size(0x18)
      88                            .dwpsn  file "../Application/MAC/StartUp/icall_startup.c",line 124,column 1,is_stmt,address sl
      89                    
      90                            .dwfde $C$DW$CIE, slow_crc16
      91                    $C$DW$8 .dwtag  DW_TAG_formal_parameter
      92                            .dwattr $C$DW$8, DW_AT_name("crc")
      93                            .dwattr $C$DW$8, DW_AT_TI_symbol_name("crc")
      94                            .dwattr $C$DW$8, DW_AT_type(*$C$DW$T$156)
      95                            .dwattr $C$DW$8, DW_AT_location[DW_OP_reg0]
      96                    
      97                    $C$DW$9 .dwtag  DW_TAG_formal_parameter
      98                            .dwattr $C$DW$9, DW_AT_name("pAddr")
      99                            .dwattr $C$DW$9, DW_AT_TI_symbol_name("pAddr")
     100                            .dwattr $C$DW$9, DW_AT_type(*$C$DW$T$149)
     101                            .dwattr $C$DW$9, DW_AT_location[DW_OP_reg1]
     102                    
     103                    $C$DW$10        .dwtag  DW_TAG_formal_parameter
     104                            .dwattr $C$DW$10, DW_AT_name("len")
     105                            .dwattr $C$DW$10, DW_AT_TI_symbol_name("len")
     106                            .dwattr $C$DW$10, DW_AT_type(*$C$DW$T$143)
     107                            .dwattr $C$DW$10, DW_AT_location[DW_OP_reg2]
     108                    
     109                    
     110                    ;*****************************************************************************
TI ARM Assembler PC v16.9.4 Sat Nov 18 18:46:28 2017

Tools Copyright (c) 1996-2017 Texas Instruments Incorporated
C:\Users\Kevin\AppData\Local\Temp\{25EC31FF-BE6A-4273-8ABE-530A93E63F10} PAGE    3

     111                    ;* FUNCTION NAME: slow_crc16                                                 *
     112                    ;*                                                                           *
     113                    ;*   Regs Modified     : A1,A2,A3,A4,V1,V2,V3,V4,SP,SR                       *
     114                    ;*   Regs Used         : A1,A2,A3,A4,V1,V2,V3,V4,SP,LR,SR                    *
     115                    ;*   Local Frame Size  : 0 Args + 0 Auto + 20 Save = 20 byte                 *
     116                    ;*****************************************************************************
     117                    slow_crc16:
     118                    ;* --------------------------------------------------------------------------*
     119                    ;* V1    assigned to $O$L2
     120                    ;* A1    assigned to crc
     121                    $C$DW$11        .dwtag  DW_TAG_variable
     122                            .dwattr $C$DW$11, DW_AT_name("crc")
     123                            .dwattr $C$DW$11, DW_AT_TI_symbol_name("crc")
     124                            .dwattr $C$DW$11, DW_AT_type(*$C$DW$T$10)
     125                            .dwattr $C$DW$11, DW_AT_location[DW_OP_reg0]
     126                    
     127                    ;* A2    assigned to pAddr
     128                    $C$DW$12        .dwtag  DW_TAG_variable
     129                            .dwattr $C$DW$12, DW_AT_name("pAddr")
     130                            .dwattr $C$DW$12, DW_AT_TI_symbol_name("pAddr")
     131                            .dwattr $C$DW$12, DW_AT_type(*$C$DW$T$149)
     132                            .dwattr $C$DW$12, DW_AT_location[DW_OP_reg1]
     133                    
     134                    ;* A3    assigned to len
     135                    $C$DW$13        .dwtag  DW_TAG_variable
     136                            .dwattr $C$DW$13, DW_AT_name("len")
     137                            .dwattr $C$DW$13, DW_AT_TI_symbol_name("len")
     138                            .dwattr $C$DW$13, DW_AT_type(*$C$DW$T$143)
     139                            .dwattr $C$DW$13, DW_AT_location[DW_OP_reg2]
     140                    
     141                    ;* A4    assigned to byte
     142                    $C$DW$14        .dwtag  DW_TAG_variable
     143                            .dwattr $C$DW$14, DW_AT_name("byte")
     144                            .dwattr $C$DW$14, DW_AT_TI_symbol_name("byte")
     145                            .dwattr $C$DW$14, DW_AT_type(*$C$DW$T$10)
     146                            .dwattr $C$DW$14, DW_AT_location[DW_OP_reg3]
     147                    
     148                    ;* V3    assigned to temp
     149                    $C$DW$15        .dwtag  DW_TAG_variable
     150                            .dwattr $C$DW$15, DW_AT_name("temp")
     151                            .dwattr $C$DW$15, DW_AT_TI_symbol_name("temp")
     152                            .dwattr $C$DW$15, DW_AT_type(*$C$DW$T$9)
     153                            .dwattr $C$DW$15, DW_AT_location[DW_OP_reg6]
     154                    
     155                            .dwcfi  cfa_offset, 0
     156 00000000 B5F8              PUSH      {A4, V1, V2, V3, V4, LR} ; [DPU_3_PIPE]  ; [ORIG 16-BIT INS]
     157                            .dwcfi  cfa_offset, 24
     158                            .dwcfi  save_reg_to_mem, 14, -4
     159                            .dwcfi  save_reg_to_mem, 7, -8
     160                            .dwcfi  save_reg_to_mem, 6, -12
     161                            .dwcfi  save_reg_to_mem, 5, -16
     162                            .dwcfi  save_reg_to_mem, 4, -20
     163                            .dwcfi  save_reg_to_mem, 3, -24
     164 00000002 B1BA              CBZ       A3, ||$C$L3||         ; []  ; [ORIG 16-BIT INS]
     165                            .dwpsn  file "../Application/MAC/StartUp/icall_startup.c",line 125,column 3,is_stmt,isa 1
TI ARM Assembler PC v16.9.4 Sat Nov 18 18:46:28 2017

Tools Copyright (c) 1996-2017 Texas Instruments Incorporated
C:\Users\Kevin\AppData\Local\Temp\{25EC31FF-BE6A-4273-8ABE-530A93E63F10} PAGE    4

     166                            ; BRANCHCC OCCURS {||$C$L3||}    ; [] |125| 
     167                    ;* --------------------------------------------------------------------------*
     168 00000004 1E49              SUBS      A2, A2, #1            ; [DPU_3_PIPE]  ; [ORIG 16-BIT INS]
     169                            .dwpsn  file "../Application/MAC/StartUp/icall_startup.c",line 143,column 9,is_stmt,isa 1
     170 00000006 0521F241          MOV       V2, #4129             ; [DPU_3_PIPE] |143|  ; [KEEP 32-BIT INS]
     171                    ;* --------------------------------------------------------------------------*
     172                    ;*   BEGIN LOOP ||$C$L1||
     173                    ;*
     174                    ;*   Loop source line                : 125
     175                    ;*   Loop closing brace source line  : 148
     176                    ;*   Known Minimum Trip Count        : 1
     177                    ;*   Known Maximum Trip Count        : 4294967295
     178                    ;*   Known Max Trip Count Factor     : 1
     179                    ;* --------------------------------------------------------------------------*
     180 0000000a           ||$C$L1||:    
     181                            .dwpsn  file "../Application/MAC/StartUp/icall_startup.c",line 128,column 16,is_stmt,isa 1
     182 0000000a 3F01F811          LDRB      A4, [A2, #1]!         ; [DPU_3_PIPE] |128|  ; [KEEP 32-BIT INS]
     183                            .dwpsn  file "../Application/MAC/StartUp/icall_startup.c",line 130,column 14,is_stmt,isa 1
     184 0000000e 2408              MOVS      V1, #8                ; [DPU_3_PIPE] |130|  ; [ORIG 16-BIT INS]
     185                    ;* --------------------------------------------------------------------------*
     186                    ;*   BEGIN LOOP ||$C$L2||
     187                    ;*
     188                    ;*   Loop source line                : 130
     189                    ;*   Loop closing brace source line  : 147
     190                    ;*   Known Minimum Trip Count        : 8
     191                    ;*   Known Maximum Trip Count        : 8
     192                    ;*   Known Max Trip Count Factor     : 8
     193                    ;* --------------------------------------------------------------------------*
     194 00000010           ||$C$L2||:    
     195                            .dwpsn  file "../Application/MAC/StartUp/icall_startup.c",line 132,column 19,is_stmt,isa 1
     196 00000010 4606              MOV       V3, A1                ; [DPU_3_PIPE] |132|  ; [ORIG 16-BIT INS]
     197                            .dwpsn  file "../Application/MAC/StartUp/icall_startup.c",line 134,column 7,is_stmt,isa 1
     198 00000012 0040              LSLS      A1, A1, #1            ; [DPU_3_PIPE] |134|  ; [ORIG 16-BIT INS]
     199                            .dwpsn  file "../Application/MAC/StartUp/icall_startup.c",line 136,column 7,is_stmt,isa 1
     200 00000014 077FF033          BICS      V4, A4, #127          ; [DPU_3_PIPE] |136|  ; [KEEP 32-BIT INS]
     201                            .dwpsn  file "../Application/MAC/StartUp/icall_startup.c",line 134,column 7,is_stmt,isa 1
     202 00000018 B280              UXTH      A1, A1                ; [DPU_3_PIPE] |134|  ; [ORIG 16-BIT INS]
     203 0000001a BF18              IT        NE                    ; [DPU_3_PIPE]  ; [ORIG 16-BIT INS]
     204                            .dwpsn  file "../Application/MAC/StartUp/icall_startup.c",line 138,column 9,is_stmt,isa 1
     205 0000001c 0001F040          ORRNE     A1, A1, #1            ; [DPU_3_PIPE] |138|  ; [KEEP 32-BIT INS]
     206                            .dwpsn  file "../Application/MAC/StartUp/icall_startup.c",line 141,column 7,is_stmt,isa 1
     207 00000020 0BF6              LSRS      V3, V3, #15           ; [DPU_3_PIPE] |141|  ; [ORIG 16-BIT INS]
     208 00000022 03F7              LSLS      V4, V3, #15           ; [DPU_3_PIPE] |141|  ; [ORIG 16-BIT INS]
     209 00000024 BF18              IT        NE                    ; [DPU_3_PIPE]  ; [ORIG 16-BIT INS]
     210                            .dwpsn  file "../Application/MAC/StartUp/icall_startup.c",line 143,column 9,is_stmt,isa 1
     211 00000026 4068              EORNE     A1, V2, A1            ; [DPU_3_PIPE] |143|  ; [ORIG 16-BIT INS]
     212                            .dwpsn  file "../Application/MAC/StartUp/icall_startup.c",line 146,column 7,is_stmt,isa 1
     213 00000028 005B              LSLS      A4, A4, #1            ; [DPU_3_PIPE] |146|  ; [ORIG 16-BIT INS]
     214                            .dwpsn  file "../Application/MAC/StartUp/icall_startup.c",line 130,column 14,is_stmt,isa 1
     215 0000002a 1E64              SUBS      V1, V1, #1            ; [DPU_3_PIPE] |130|  ; [ORIG 16-BIT INS]
     216                            .dwpsn  file "../Application/MAC/StartUp/icall_startup.c",line 146,column 7,is_stmt,isa 1
     217 0000002c B2DB              UXTB      A4, A4                ; [DPU_3_PIPE] |146|  ; [ORIG 16-BIT INS]
     218                            .dwpsn  file "../Application/MAC/StartUp/icall_startup.c",line 130,column 14,is_stmt,isa 1
     219 0000002e D1EF              BNE       ||$C$L2||             ; [DPU_3_PIPE] |130|  ; [ORIG 16-BIT INS]
     220                            ; BRANCHCC OCCURS {||$C$L2||}    ; [] |130| 
TI ARM Assembler PC v16.9.4 Sat Nov 18 18:46:28 2017

Tools Copyright (c) 1996-2017 Texas Instruments Incorporated
C:\Users\Kevin\AppData\Local\Temp\{25EC31FF-BE6A-4273-8ABE-530A93E63F10} PAGE    5

     221                    ;* --------------------------------------------------------------------------*
     222                            .dwpsn  file "../Application/MAC/StartUp/icall_startup.c",line 125,column 3,is_stmt,isa 1
     223 00000030 1E52              SUBS      A3, A3, #1            ; [DPU_3_PIPE] |125|  ; [ORIG 16-BIT INS]
     224 00000032 D1EA              BNE       ||$C$L1||             ; [DPU_3_PIPE] |125|  ; [ORIG 16-BIT INS]
     225                            ; BRANCHCC OCCURS {||$C$L1||}    ; [] |125| 
     226                    ;* --------------------------------------------------------------------------*
     227                    ||$C$L3||:    
     228                    $C$DW$16        .dwtag  DW_TAG_TI_branch
     229                            .dwattr $C$DW$16, DW_AT_low_pc(0x00)
     230                            .dwattr $C$DW$16, DW_AT_TI_return
     231                    
     232 00000034 BDF8              POP       {A4, V1, V2, V3, V4, PC} ; [DPU_3_PIPE]  ; [ORIG 16-BIT INS]
     233                            .dwcfi  cfa_offset, 0
     234                            ; BRANCH OCCURS                  ; [] 
     235                            .dwattr $C$DW$7, DW_AT_TI_end_file("../Application/MAC/StartUp/icall_startup.c")
     236                            .dwattr $C$DW$7, DW_AT_TI_end_line(0x97)
     237                            .dwattr $C$DW$7, DW_AT_TI_end_column(0x01)
     238                            .dwendentry
     239                            .dwendtag $C$DW$7
     240                    
     241 00000000                   .sect   ".text:validChecksum"
     242                            .clink
     243                            .thumbfunc validChecksum
     244 00000000                   .thumb
     245                            .global validChecksum
     246                    
     247                    $C$DW$17        .dwtag  DW_TAG_subprogram
     248                            .dwattr $C$DW$17, DW_AT_name("validChecksum")
     249                            .dwattr $C$DW$17, DW_AT_low_pc(validChecksum)
     250                            .dwattr $C$DW$17, DW_AT_high_pc(0x00)
     251                            .dwattr $C$DW$17, DW_AT_TI_symbol_name("validChecksum")
     252                            .dwattr $C$DW$17, DW_AT_external
     253                            .dwattr $C$DW$17, DW_AT_type(*$C$DW$T$136)
     254                            .dwattr $C$DW$17, DW_AT_TI_begin_file("../Application/MAC/StartUp/icall_startup.c")
     255                            .dwattr $C$DW$17, DW_AT_TI_begin_line(0xab)
     256                            .dwattr $C$DW$17, DW_AT_TI_begin_column(0x07)
     257                            .dwattr $C$DW$17, DW_AT_decl_file("../Application/MAC/StartUp/icall_startup.c")
     258                            .dwattr $C$DW$17, DW_AT_decl_line(0xab)
     259                            .dwattr $C$DW$17, DW_AT_decl_column(0x07)
     260                            .dwattr $C$DW$17, DW_AT_TI_max_frame_size(0x18)
     261                            .dwpsn  file "../Application/MAC/StartUp/icall_startup.c",line 172,column 1,is_stmt,address va
     262                    
     263                            .dwfde $C$DW$CIE, validChecksum
     264                    $C$DW$18        .dwtag  DW_TAG_formal_parameter
     265                            .dwattr $C$DW$18, DW_AT_name("beginAddr")
     266                            .dwattr $C$DW$18, DW_AT_TI_symbol_name("beginAddr")
     267                            .dwattr $C$DW$18, DW_AT_type(*$C$DW$T$145)
     268                            .dwattr $C$DW$18, DW_AT_location[DW_OP_reg0]
     269                    
     270                    $C$DW$19        .dwtag  DW_TAG_formal_parameter
     271                            .dwattr $C$DW$19, DW_AT_name("endAddr")
     272                            .dwattr $C$DW$19, DW_AT_TI_symbol_name("endAddr")
     273                            .dwattr $C$DW$19, DW_AT_type(*$C$DW$T$145)
     274                            .dwattr $C$DW$19, DW_AT_location[DW_OP_reg1]
     275                    
TI ARM Assembler PC v16.9.4 Sat Nov 18 18:46:28 2017

Tools Copyright (c) 1996-2017 Texas Instruments Incorporated
C:\Users\Kevin\AppData\Local\Temp\{25EC31FF-BE6A-4273-8ABE-530A93E63F10} PAGE    6

     276                    
     277                    ;*****************************************************************************
     278                    ;* FUNCTION NAME: validChecksum                                              *
     279                    ;*                                                                           *
     280                    ;*   Regs Modified     : A1,A2,A3,A4,V1,V2,V3,V9,SP,LR,SR                    *
     281                    ;*   Regs Used         : A1,A2,A3,A4,V1,V2,V3,V9,SP,LR,SR                    *
     282                    ;*   Local Frame Size  : 0 Args + 4 Auto + 16 Save = 20 byte                 *
     283                    ;*****************************************************************************
     284                    validChecksum:
     285                    ;* --------------------------------------------------------------------------*
     286                    $C$DW$20        .dwtag  DW_TAG_variable
     287                            .dwattr $C$DW$20, DW_AT_name("zeros")
     288                            .dwattr $C$DW$20, DW_AT_TI_symbol_name("zeros")
     289                            .dwattr $C$DW$20, DW_AT_type(*$C$DW$T$151)
     290                            .dwattr $C$DW$20, DW_AT_location[DW_OP_breg13 0]
     291                    
     292                    ;* V3    assigned to beginAddr
     293                    $C$DW$21        .dwtag  DW_TAG_variable
     294                            .dwattr $C$DW$21, DW_AT_name("beginAddr")
     295                            .dwattr $C$DW$21, DW_AT_TI_symbol_name("beginAddr")
     296                            .dwattr $C$DW$21, DW_AT_type(*$C$DW$T$183)
     297                            .dwattr $C$DW$21, DW_AT_location[DW_OP_reg6]
     298                    
     299                    ;* V2    assigned to endAddr
     300                    $C$DW$22        .dwtag  DW_TAG_variable
     301                            .dwattr $C$DW$22, DW_AT_name("endAddr")
     302                            .dwattr $C$DW$22, DW_AT_TI_symbol_name("endAddr")
     303                            .dwattr $C$DW$22, DW_AT_type(*$C$DW$T$183)
     304                            .dwattr $C$DW$22, DW_AT_location[DW_OP_reg5]
     305                    
     306                    ;* A2    assigned to crc
     307                    $C$DW$23        .dwtag  DW_TAG_variable
     308                            .dwattr $C$DW$23, DW_AT_name("crc")
     309                            .dwattr $C$DW$23, DW_AT_TI_symbol_name("crc")
     310                            .dwattr $C$DW$23, DW_AT_type(*$C$DW$T$10)
     311                            .dwattr $C$DW$23, DW_AT_location[DW_OP_reg1]
     312                    
     313                    ;* V1    assigned to romCRC
     314                    $C$DW$24        .dwtag  DW_TAG_variable
     315                            .dwattr $C$DW$24, DW_AT_name("romCRC")
     316                            .dwattr $C$DW$24, DW_AT_TI_symbol_name("romCRC")
     317                            .dwattr $C$DW$24, DW_AT_type(*$C$DW$T$10)
     318                            .dwattr $C$DW$24, DW_AT_location[DW_OP_reg4]
     319                    
     320                            .dwcfi  cfa_offset, 0
     321 00000000 B57C              PUSH      {A3, A4, V1, V2, V3, LR} ; [DPU_3_PIPE]  ; [ORIG 16-BIT INS]
     322                            .dwcfi  cfa_offset, 24
     323                            .dwcfi  save_reg_to_mem, 14, -4
     324                            .dwcfi  save_reg_to_mem, 6, -8
     325                            .dwcfi  save_reg_to_mem, 5, -12
     326                            .dwcfi  save_reg_to_mem, 4, -16
     327                            .dwcfi  save_reg_to_mem, 3, -20
     328                            .dwcfi  save_reg_to_mem, 2, -24
     329 00000002 460D              MOV       V2, A2                ; [DPU_3_PIPE] |172|  ; [ORIG 16-BIT INS]
     330                            .dwpsn  file "../Application/MAC/StartUp/icall_startup.c",line 174,column 19,is_stmt,isa 1
TI ARM Assembler PC v16.9.4 Sat Nov 18 18:46:28 2017

Tools Copyright (c) 1996-2017 Texas Instruments Incorporated
C:\Users\Kevin\AppData\Local\Temp\{25EC31FF-BE6A-4273-8ABE-530A93E63F10} PAGE    7

     331 00000004 4001F8B5          LDRH      V1, [V2, #1]          ; [DPU_3_PIPE] |174|  ; [KEEP 32-BIT INS]
     332                            .dwpsn  file "../Application/MAC/StartUp/icall_startup.c",line 172,column 1,is_stmt,isa 1
     333 00000008 4606              MOV       V3, A1                ; [DPU_3_PIPE] |172|  ; [ORIG 16-BIT INS]
     334                            .dwpsn  file "../Application/MAC/StartUp/icall_startup.c",line 175,column 19,is_stmt,isa 1
     335 0000000a 2202              MOVS      A3, #2                ; [DPU_3_PIPE] |175|  ; [ORIG 16-BIT INS]
     336 0000000c 2100              MOVS      A2, #0                ; [DPU_3_PIPE] |175|  ; [ORIG 16-BIT INS]
     337 0000000e 4668              MOV       A1, SP                ; [DPU_3_PIPE] |175|  ; [ORIG 16-BIT INS]
     338                    $C$DW$25        .dwtag  DW_TAG_TI_branch
     339                            .dwattr $C$DW$25, DW_AT_low_pc(0x00)
     340                            .dwattr $C$DW$25, DW_AT_name("memset")
     341                            .dwattr $C$DW$25, DW_AT_TI_call
     342                    
     343 00000010 FFFEF7FF!         BL        memset                ; [DPU_3_PIPE] |175|  ; [KEEP 32-BIT INS]
     344                            ; CALL OCCURS {memset }          ; [] |175| 
     345                            .dwpsn  file "../Application/MAC/StartUp/icall_startup.c",line 178,column 3,is_stmt,isa 1
     346 00000014 2000              MOVS      A1, #0                ; [DPU_3_PIPE] |178|  ; [ORIG 16-BIT INS]
     347 00000016 1BAA              SUBS      A3, V2, V3            ; [DPU_3_PIPE] |178|  ; [ORIG 16-BIT INS]
     348 00000018 4631              MOV       A2, V3                ; [DPU_3_PIPE] |178|  ; [ORIG 16-BIT INS]
     349 0000001a 1C52              ADDS      A3, A3, #1            ; [DPU_3_PIPE] |178|  ; [ORIG 16-BIT INS]
     350                    $C$DW$26        .dwtag  DW_TAG_TI_branch
     351                            .dwattr $C$DW$26, DW_AT_low_pc(0x00)
     352                            .dwattr $C$DW$26, DW_AT_name("slow_crc16")
     353                            .dwattr $C$DW$26, DW_AT_TI_call
     354                    
     355 0000001c FFFEF7FF!         BL        slow_crc16            ; [DPU_3_PIPE] |178|  ; [KEEP 32-BIT INS]
     356                            ; CALL OCCURS {slow_crc16 }      ; [] |178| 
     357                            .dwpsn  file "../Application/MAC/StartUp/icall_startup.c",line 182,column 3,is_stmt,isa 1
     358 00000020 2202              MOVS      A3, #2                ; [DPU_3_PIPE] |182|  ; [ORIG 16-BIT INS]
     359 00000022 4669              MOV       A2, SP                ; [DPU_3_PIPE] |182|  ; [ORIG 16-BIT INS]
     360                    $C$DW$27        .dwtag  DW_TAG_TI_branch
     361                            .dwattr $C$DW$27, DW_AT_low_pc(0x00)
     362                            .dwattr $C$DW$27, DW_AT_name("slow_crc16")
     363                            .dwattr $C$DW$27, DW_AT_TI_call
     364                    
     365 00000024 FFFEF7FF!         BL        slow_crc16            ; [DPU_3_PIPE] |182|  ; [KEEP 32-BIT INS]
     366                            ; CALL OCCURS {slow_crc16 }      ; [] |182| 
     367 00000028 4601              MOV       A2, A1                ; [DPU_3_PIPE] |182|  ; [ORIG 16-BIT INS]
     368                            .dwpsn  file "../Application/MAC/StartUp/icall_startup.c",line 185,column 3,is_stmt,isa 1
     369 0000002a 2000              MOVS      A1, #0                ; [DPU_3_PIPE] |185|  ; [ORIG 16-BIT INS]
     370 0000002c 428C              CMP       V1, A2                ; [DPU_3_PIPE] |185|  ; [ORIG 16-BIT INS]
     371 0000002e BF08              IT        EQ                    ; [DPU_3_PIPE]  ; [ORIG 16-BIT INS]
     372 00000030 2001              MOVEQ     A1, #1                ; [DPU_3_PIPE] |185|  ; [ORIG 16-BIT INS]
     373                    $C$DW$28        .dwtag  DW_TAG_TI_branch
     374                            .dwattr $C$DW$28, DW_AT_low_pc(0x00)
     375                            .dwattr $C$DW$28, DW_AT_TI_return
     376                    
     377 00000032 BD7C              POP       {A3, A4, V1, V2, V3, PC} ; [DPU_3_PIPE]  ; [ORIG 16-BIT INS]
     378                            .dwcfi  cfa_offset, 0
     379                            ; BRANCH OCCURS                  ; [] 
     380                            .dwattr $C$DW$17, DW_AT_TI_end_file("../Application/MAC/StartUp/icall_startup.c")
     381                            .dwattr $C$DW$17, DW_AT_TI_end_line(0xba)
     382                            .dwattr $C$DW$17, DW_AT_TI_end_column(0x01)
     383                            .dwendentry
     384                            .dwendtag $C$DW$17
     385                    
TI ARM Assembler PC v16.9.4 Sat Nov 18 18:46:28 2017

Tools Copyright (c) 1996-2017 Texas Instruments Incorporated
C:\Users\Kevin\AppData\Local\Temp\{25EC31FF-BE6A-4273-8ABE-530A93E63F10} PAGE    8

     386 00000000                   .sect   ".text:startup_entry"
     387                            .clink
     388                            .thumbfunc startup_entry
     389 00000000                   .thumb
     390                            .global startup_entry
     391                    
     392                    $C$DW$29        .dwtag  DW_TAG_subprogram
     393                            .dwattr $C$DW$29, DW_AT_name("startup_entry")
     394                            .dwattr $C$DW$29, DW_AT_low_pc(startup_entry)
     395                            .dwattr $C$DW$29, DW_AT_high_pc(0x00)
     396                            .dwattr $C$DW$29, DW_AT_TI_symbol_name("startup_entry")
     397                            .dwattr $C$DW$29, DW_AT_external
     398                            .dwattr $C$DW$29, DW_AT_TI_begin_file("../Application/MAC/StartUp/icall_startup.c")
     399                            .dwattr $C$DW$29, DW_AT_TI_begin_line(0xd4)
     400                            .dwattr $C$DW$29, DW_AT_TI_begin_column(0x06)
     401                            .dwattr $C$DW$29, DW_AT_decl_file("../Application/MAC/StartUp/icall_startup.c")
     402                            .dwattr $C$DW$29, DW_AT_decl_line(0xd4)
     403                            .dwattr $C$DW$29, DW_AT_decl_column(0x06)
     404                            .dwattr $C$DW$29, DW_AT_TI_max_frame_size(0x00)
     405                            .dwpsn  file "../Application/MAC/StartUp/icall_startup.c",line 213,column 1,is_stmt,address st
     406                    
     407                            .dwfde $C$DW$CIE, startup_entry
     408                    $C$DW$30        .dwtag  DW_TAG_formal_parameter
     409                            .dwattr $C$DW$30, DW_AT_name("arg0")
     410                            .dwattr $C$DW$30, DW_AT_TI_symbol_name("arg0")
     411                            .dwattr $C$DW$30, DW_AT_type(*$C$DW$T$132)
     412                            .dwattr $C$DW$30, DW_AT_location[DW_OP_reg0]
     413                    
     414                    $C$DW$31        .dwtag  DW_TAG_formal_parameter
     415                            .dwattr $C$DW$31, DW_AT_name("arg1")
     416                            .dwattr $C$DW$31, DW_AT_TI_symbol_name("arg1")
     417                            .dwattr $C$DW$31, DW_AT_type(*$C$DW$T$3)
     418                            .dwattr $C$DW$31, DW_AT_location[DW_OP_reg1]
     419                    
     420                    
     421                    ;*****************************************************************************
     422                    ;* FUNCTION NAME: startup_entry                                              *
     423                    ;*                                                                           *
     424                    ;*   Regs Modified     : A1,A2,A3,A4,V9,LR,SR                                *
     425                    ;*   Regs Used         : A1,A2,A3,A4,V9,SP,LR,SR                             *
     426                    ;*   Local Frame Size  : 0 Args + 0 Auto + 0 Save = 0 byte                   *
     427                    ;*****************************************************************************
     428                    startup_entry:
     429                    ;* --------------------------------------------------------------------------*
     430                    ;* A1    assigned to arg0
     431                    $C$DW$32        .dwtag  DW_TAG_variable
     432                            .dwattr $C$DW$32, DW_AT_name("arg0")
     433                            .dwattr $C$DW$32, DW_AT_TI_symbol_name("arg0")
     434                            .dwattr $C$DW$32, DW_AT_type(*$C$DW$T$211)
     435                            .dwattr $C$DW$32, DW_AT_location[DW_OP_reg0]
     436                    
     437                    ;* A2    assigned to arg1
     438                    $C$DW$33        .dwtag  DW_TAG_variable
     439                            .dwattr $C$DW$33, DW_AT_name("arg1")
     440                            .dwattr $C$DW$33, DW_AT_TI_symbol_name("arg1")
TI ARM Assembler PC v16.9.4 Sat Nov 18 18:46:28 2017

Tools Copyright (c) 1996-2017 Texas Instruments Incorporated
C:\Users\Kevin\AppData\Local\Temp\{25EC31FF-BE6A-4273-8ABE-530A93E63F10} PAGE    9

     441                            .dwattr $C$DW$33, DW_AT_type(*$C$DW$T$127)
     442                            .dwattr $C$DW$33, DW_AT_location[DW_OP_reg1]
     443                    
     444                            .dwcfi  cfa_offset, 0
     445                            .dwpsn  file "../Application/MAC/StartUp/icall_startup.c",line 227,column 3,is_stmt,isa 1
     446 00000000 6802              LDR       A3, [A1, #0]          ; [DPU_3_PIPE] |227|  ; [ORIG 16-BIT INS]
     447 00000002 4B05              LDR       A4, $C$CON1           ; [DPU_3_PIPE] |227|  ; [ORIG 16-BIT INS]
     448 00000004 601A              STR       A3, [A4, #0]          ; [DPU_3_PIPE] |227|  ; [ORIG 16-BIT INS]
     449                            .dwpsn  file "../Application/MAC/StartUp/icall_startup.c",line 228,column 3,is_stmt,isa 1
     450 00000006 6842              LDR       A3, [A1, #4]          ; [DPU_3_PIPE] |228|  ; [ORIG 16-BIT INS]
     451 00000008 4B04              LDR       A4, $C$CON2           ; [DPU_3_PIPE] |228|  ; [ORIG 16-BIT INS]
     452                            .dwpsn  file "../Application/MAC/StartUp/icall_startup.c",line 229,column 3,is_stmt,isa 1
     453 0000000a 6880              LDR       A1, [A1, #8]          ; [DPU_3_PIPE] |229|  ; [ORIG 16-BIT INS]
     454                            .dwpsn  file "../Application/MAC/StartUp/icall_startup.c",line 228,column 3,is_stmt,isa 1
     455 0000000c 601A              STR       A3, [A4, #0]          ; [DPU_3_PIPE] |228|  ; [ORIG 16-BIT INS]
     456                            .dwpsn  file "../Application/MAC/StartUp/icall_startup.c",line 229,column 3,is_stmt,isa 1
     457 0000000e 4A04              LDR       A3, $C$CON3           ; [DPU_3_PIPE] |229|  ; [ORIG 16-BIT INS]
     458 00000010 6010              STR       A1, [A3, #0]          ; [DPU_3_PIPE] |229|  ; [ORIG 16-BIT INS]
     459                            .dwpsn  file "../Application/MAC/StartUp/icall_startup.c",line 239,column 3,is_stmt,isa 1
     460 00000012 4608              MOV       A1, A2                ; [DPU_3_PIPE] |239|  ; [ORIG 16-BIT INS]
     461                    $C$DW$34        .dwtag  DW_TAG_TI_branch
     462                            .dwattr $C$DW$34, DW_AT_low_pc(0x00)
     463                            .dwattr $C$DW$34, DW_AT_name("stack_main")
     464                            .dwattr $C$DW$34, DW_AT_TI_call
     465                            .dwattr $C$DW$34, DW_AT_TI_return
     466                    
     467 00000014 BFFEF7FF!         CRET      stack_main            ; [DPU_3_PIPE] |239|  ; [KEEP 32-BIT INS]
     468                            ; CALL OCCURS {stack_main }      ; [] |239| 
     469                            .dwattr $C$DW$29, DW_AT_TI_end_file("../Application/MAC/StartUp/icall_startup.c")
     470                            .dwattr $C$DW$29, DW_AT_TI_end_line(0xf0)
     471                            .dwattr $C$DW$29, DW_AT_TI_end_column(0x01)
     472                            .dwendentry
     473                            .dwendtag $C$DW$29
     474                    
     475                    ;******************************************************************************
     476                    ;* CONSTANT TABLE                                                             *
     477                    ;******************************************************************************
     478 00000018                   .sect   ".text:startup_entry"
     479                            .align  4
     480 00000018 00000000! ||$C$CON1||:    .bits   ICall_dispatcher,32
     481                            .align  4
     482 0000001c 00000000! ||$C$CON2||:    .bits   ICall_enterCriticalSection,32
     483                            .align  4
     484 00000020 00000000! ||$C$CON3||:    .bits   ICall_leaveCriticalSection,32
     485                    ;*****************************************************************************
     486                    ;* UNDEFINED EXTERNAL REFERENCES                                             *
     487                    ;*****************************************************************************
     488                            .global stack_main
     489                            .global ICall_dispatcher
     490                            .global ICall_enterCriticalSection
     491                            .global ICall_leaveCriticalSection
     492                            .global memset
     493                    
     494                    ;******************************************************************************
     495                    ;* BUILD ATTRIBUTES                                                           *
TI ARM Assembler PC v16.9.4 Sat Nov 18 18:46:28 2017

Tools Copyright (c) 1996-2017 Texas Instruments Incorporated
C:\Users\Kevin\AppData\Local\Temp\{25EC31FF-BE6A-4273-8ABE-530A93E63F10} PAGE   10

     496                    ;******************************************************************************
     497                            .battr "aeabi", Tag_File, 1, Tag_ABI_PCS_wchar_t(2)
     498                            .battr "aeabi", Tag_File, 1, Tag_ABI_FP_rounding(0)
     499                            .battr "aeabi", Tag_File, 1, Tag_ABI_FP_denormal(0)
     500                            .battr "aeabi", Tag_File, 1, Tag_ABI_FP_exceptions(0)
     501                            .battr "aeabi", Tag_File, 1, Tag_ABI_FP_number_model(1)
     502                            .battr "aeabi", Tag_File, 1, Tag_ABI_enum_size(1)
     503                            .battr "aeabi", Tag_File, 1, Tag_ABI_optimization_goals(0)
     504                            .battr "aeabi", Tag_File, 1, Tag_ABI_FP_optimization_goals(0)
     505                            .battr "TI", Tag_File, 1, Tag_Bitfield_layout(2)
     506                            .battr "aeabi", Tag_File, 1, Tag_ABI_VFP_args(3)
     507                            .battr "TI", Tag_File, 1, Tag_FP_interface(1)
     508                    
     509                    ;******************************************************************************
     510                    ;* TYPE INFORMATION                                                           *
     511                    ;******************************************************************************
     512                    
     513                    $C$DW$T$117     .dwtag  DW_TAG_enumeration_type
     514                            .dwattr $C$DW$T$117, DW_AT_byte_size(0x01)
     515                    $C$DW$35        .dwtag  DW_TAG_enumerator
     516                            .dwattr $C$DW$35, DW_AT_name("ICALL_RTI_APP_CMD_EVENT")
     517                            .dwattr $C$DW$35, DW_AT_const_value(0xe0)
     518                            .dwattr $C$DW$35, DW_AT_decl_file("C:/ti/simplelink_cc13x0_sdk_1_50_00_08/source/ti/ti154stack
     519                            .dwattr $C$DW$35, DW_AT_decl_line(0x3de)
     520                            .dwattr $C$DW$35, DW_AT_decl_column(0x04)
     521                    
     522                    $C$DW$36        .dwtag  DW_TAG_enumerator
     523                            .dwattr $C$DW$36, DW_AT_name("ICALL_RTI_STACK_CMD_EVENT")
     524                            .dwattr $C$DW$36, DW_AT_const_value(0xe1)
     525                            .dwattr $C$DW$36, DW_AT_decl_file("C:/ti/simplelink_cc13x0_sdk_1_50_00_08/source/ti/ti154stack
     526                            .dwattr $C$DW$36, DW_AT_decl_line(0x3e0)
     527                            .dwattr $C$DW$36, DW_AT_decl_column(0x04)
     528                    
     529                    $C$DW$37        .dwtag  DW_TAG_enumerator
     530                            .dwattr $C$DW$37, DW_AT_name("ICALL_RTI_APP_ASYNC_CMD_EVENT")
     531                            .dwattr $C$DW$37, DW_AT_const_value(0xe2)
     532                            .dwattr $C$DW$37, DW_AT_decl_file("C:/ti/simplelink_cc13x0_sdk_1_50_00_08/source/ti/ti154stack
     533                            .dwattr $C$DW$37, DW_AT_decl_line(0x3e2)
     534                            .dwattr $C$DW$37, DW_AT_decl_column(0x04)
     535                    
     536                    $C$DW$38        .dwtag  DW_TAG_enumerator
     537                            .dwattr $C$DW$38, DW_AT_name("ICALL_RTI_APP_SYNC_CMD_EVENT")
     538                            .dwattr $C$DW$38, DW_AT_const_value(0xe3)
     539                            .dwattr $C$DW$38, DW_AT_decl_file("C:/ti/simplelink_cc13x0_sdk_1_50_00_08/source/ti/ti154stack
     540                            .dwattr $C$DW$38, DW_AT_decl_line(0x3e4)
     541                            .dwattr $C$DW$38, DW_AT_decl_column(0x04)
     542                    
     543                    $C$DW$39        .dwtag  DW_TAG_enumerator
     544                            .dwattr $C$DW$39, DW_AT_name("ICALL_RCN_APP_ASYNC_CMD_EVENT")
     545                            .dwattr $C$DW$39, DW_AT_const_value(0xe4)
     546                            .dwattr $C$DW$39, DW_AT_decl_file("C:/ti/simplelink_cc13x0_sdk_1_50_00_08/source/ti/ti154stack
     547                            .dwattr $C$DW$39, DW_AT_decl_line(0x3e6)
     548                            .dwattr $C$DW$39, DW_AT_decl_column(0x04)
     549                    
     550                    $C$DW$40        .dwtag  DW_TAG_enumerator
TI ARM Assembler PC v16.9.4 Sat Nov 18 18:46:28 2017

Tools Copyright (c) 1996-2017 Texas Instruments Incorporated
C:\Users\Kevin\AppData\Local\Temp\{25EC31FF-BE6A-4273-8ABE-530A93E63F10} PAGE   11

     551                            .dwattr $C$DW$40, DW_AT_name("ICALL_RCN_APP_SYNC_CMD_EVENT")
     552                            .dwattr $C$DW$40, DW_AT_const_value(0xe5)
     553                            .dwattr $C$DW$40, DW_AT_decl_file("C:/ti/simplelink_cc13x0_sdk_1_50_00_08/source/ti/ti154stack
     554                            .dwattr $C$DW$40, DW_AT_decl_line(0x3e8)
     555                            .dwattr $C$DW$40, DW_AT_decl_column(0x04)
     556                    
     557                            .dwattr $C$DW$T$117, DW_AT_decl_file("C:/ti/simplelink_cc13x0_sdk_1_50_00_08/source/ti/ti154st
     558                            .dwattr $C$DW$T$117, DW_AT_decl_line(0x3dc)
     559                            .dwattr $C$DW$T$117, DW_AT_decl_column(0x01)
     560                            .dwendtag $C$DW$T$117
     561                    
     562                    $C$DW$T$118     .dwtag  DW_TAG_typedef
     563                            .dwattr $C$DW$T$118, DW_AT_name("ICall_RemotiCmdEvent_t")
     564                            .dwattr $C$DW$T$118, DW_AT_type(*$C$DW$T$117)
     565                            .dwattr $C$DW$T$118, DW_AT_language(DW_LANG_C)
     566                            .dwattr $C$DW$T$118, DW_AT_decl_file("C:/ti/simplelink_cc13x0_sdk_1_50_00_08/source/ti/ti154st
     567                            .dwattr $C$DW$T$118, DW_AT_decl_line(0x3e9)
     568                            .dwattr $C$DW$T$118, DW_AT_decl_column(0x02)
     569                    
     570                    
     571                    $C$DW$T$19      .dwtag  DW_TAG_structure_type
     572                            .dwattr $C$DW$T$19, DW_AT_byte_size(0x08)
     573                    $C$DW$41        .dwtag  DW_TAG_member
     574                            .dwattr $C$DW$41, DW_AT_type(*$C$DW$T$10)
     575                            .dwattr $C$DW$41, DW_AT_name("quot")
     576                            .dwattr $C$DW$41, DW_AT_TI_symbol_name("quot")
     577                            .dwattr $C$DW$41, DW_AT_data_member_location[DW_OP_plus_uconst 0x0]
     578                            .dwattr $C$DW$41, DW_AT_accessibility(DW_ACCESS_public)
     579                            .dwattr $C$DW$41, DW_AT_decl_file("C:/ti/ccsv7/tools/compiler/ti-cgt-arm_16.9.4.LTS/include/st
     580                            .dwattr $C$DW$41, DW_AT_decl_line(0x5c)
     581                            .dwattr $C$DW$41, DW_AT_decl_column(0x16)
     582                    
     583                    $C$DW$42        .dwtag  DW_TAG_member
     584                            .dwattr $C$DW$42, DW_AT_type(*$C$DW$T$10)
     585                            .dwattr $C$DW$42, DW_AT_name("rem")
     586                            .dwattr $C$DW$42, DW_AT_TI_symbol_name("rem")
     587                            .dwattr $C$DW$42, DW_AT_data_member_location[DW_OP_plus_uconst 0x4]
     588                            .dwattr $C$DW$42, DW_AT_accessibility(DW_ACCESS_public)
     589                            .dwattr $C$DW$42, DW_AT_decl_file("C:/ti/ccsv7/tools/compiler/ti-cgt-arm_16.9.4.LTS/include/st
     590                            .dwattr $C$DW$42, DW_AT_decl_line(0x5c)
     591                            .dwattr $C$DW$42, DW_AT_decl_column(0x1c)
     592                    
     593                            .dwattr $C$DW$T$19, DW_AT_decl_file("C:/ti/ccsv7/tools/compiler/ti-cgt-arm_16.9.4.LTS/include/
     594                            .dwattr $C$DW$T$19, DW_AT_decl_line(0x5c)
     595                            .dwattr $C$DW$T$19, DW_AT_decl_column(0x10)
     596                            .dwendtag $C$DW$T$19
     597                    
     598                    $C$DW$T$119     .dwtag  DW_TAG_typedef
     599                            .dwattr $C$DW$T$119, DW_AT_name("div_t")
     600                            .dwattr $C$DW$T$119, DW_AT_type(*$C$DW$T$19)
     601                            .dwattr $C$DW$T$119, DW_AT_language(DW_LANG_C)
     602                            .dwattr $C$DW$T$119, DW_AT_decl_file("C:/ti/ccsv7/tools/compiler/ti-cgt-arm_16.9.4.LTS/include
     603                            .dwattr $C$DW$T$119, DW_AT_decl_line(0x5c)
     604                            .dwattr $C$DW$T$119, DW_AT_decl_column(0x23)
     605                    
TI ARM Assembler PC v16.9.4 Sat Nov 18 18:46:28 2017

Tools Copyright (c) 1996-2017 Texas Instruments Incorporated
C:\Users\Kevin\AppData\Local\Temp\{25EC31FF-BE6A-4273-8ABE-530A93E63F10} PAGE   12

     606                    
     607                    $C$DW$T$20      .dwtag  DW_TAG_structure_type
     608                            .dwattr $C$DW$T$20, DW_AT_byte_size(0x08)
     609                    $C$DW$43        .dwtag  DW_TAG_member
     610                            .dwattr $C$DW$43, DW_AT_type(*$C$DW$T$10)
     611                            .dwattr $C$DW$43, DW_AT_name("quot")
     612                            .dwattr $C$DW$43, DW_AT_TI_symbol_name("quot")
     613                            .dwattr $C$DW$43, DW_AT_data_member_location[DW_OP_plus_uconst 0x0]
     614                            .dwattr $C$DW$43, DW_AT_accessibility(DW_ACCESS_public)
     615                            .dwattr $C$DW$43, DW_AT_decl_file("C:/ti/ccsv7/tools/compiler/ti-cgt-arm_16.9.4.LTS/include/st
     616                            .dwattr $C$DW$43, DW_AT_decl_line(0x5e)
     617                            .dwattr $C$DW$43, DW_AT_decl_column(0x16)
     618                    
     619                    $C$DW$44        .dwtag  DW_TAG_member
     620                            .dwattr $C$DW$44, DW_AT_type(*$C$DW$T$10)
     621                            .dwattr $C$DW$44, DW_AT_name("rem")
     622                            .dwattr $C$DW$44, DW_AT_TI_symbol_name("rem")
     623                            .dwattr $C$DW$44, DW_AT_data_member_location[DW_OP_plus_uconst 0x4]
     624                            .dwattr $C$DW$44, DW_AT_accessibility(DW_ACCESS_public)
     625                            .dwattr $C$DW$44, DW_AT_decl_file("C:/ti/ccsv7/tools/compiler/ti-cgt-arm_16.9.4.LTS/include/st
     626                            .dwattr $C$DW$44, DW_AT_decl_line(0x5e)
     627                            .dwattr $C$DW$44, DW_AT_decl_column(0x1c)
     628                    
     629                            .dwattr $C$DW$T$20, DW_AT_decl_file("C:/ti/ccsv7/tools/compiler/ti-cgt-arm_16.9.4.LTS/include/
     630                            .dwattr $C$DW$T$20, DW_AT_decl_line(0x5e)
     631                            .dwattr $C$DW$T$20, DW_AT_decl_column(0x10)
     632                            .dwendtag $C$DW$T$20
     633                    
     634                    $C$DW$T$120     .dwtag  DW_TAG_typedef
     635                            .dwattr $C$DW$T$120, DW_AT_name("ldiv_t")
     636                            .dwattr $C$DW$T$120, DW_AT_type(*$C$DW$T$20)
     637                            .dwattr $C$DW$T$120, DW_AT_language(DW_LANG_C)
     638                            .dwattr $C$DW$T$120, DW_AT_decl_file("C:/ti/ccsv7/tools/compiler/ti-cgt-arm_16.9.4.LTS/include
     639                            .dwattr $C$DW$T$120, DW_AT_decl_line(0x5e)
     640                            .dwattr $C$DW$T$120, DW_AT_decl_column(0x23)
     641                    
     642                    
     643                    $C$DW$T$21      .dwtag  DW_TAG_structure_type
     644                            .dwattr $C$DW$T$21, DW_AT_byte_size(0x10)
     645                    $C$DW$45        .dwtag  DW_TAG_member
     646                            .dwattr $C$DW$45, DW_AT_type(*$C$DW$T$14)
     647                            .dwattr $C$DW$45, DW_AT_name("quot")
     648                            .dwattr $C$DW$45, DW_AT_TI_symbol_name("quot")
     649                            .dwattr $C$DW$45, DW_AT_data_member_location[DW_OP_plus_uconst 0x0]
     650                            .dwattr $C$DW$45, DW_AT_accessibility(DW_ACCESS_public)
     651                            .dwattr $C$DW$45, DW_AT_decl_file("C:/ti/ccsv7/tools/compiler/ti-cgt-arm_16.9.4.LTS/include/st
     652                            .dwattr $C$DW$45, DW_AT_decl_line(0x61)
     653                            .dwattr $C$DW$45, DW_AT_decl_column(0x1c)
     654                    
     655                    $C$DW$46        .dwtag  DW_TAG_member
     656                            .dwattr $C$DW$46, DW_AT_type(*$C$DW$T$14)
     657                            .dwattr $C$DW$46, DW_AT_name("rem")
     658                            .dwattr $C$DW$46, DW_AT_TI_symbol_name("rem")
     659                            .dwattr $C$DW$46, DW_AT_data_member_location[DW_OP_plus_uconst 0x8]
     660                            .dwattr $C$DW$46, DW_AT_accessibility(DW_ACCESS_public)
TI ARM Assembler PC v16.9.4 Sat Nov 18 18:46:28 2017

Tools Copyright (c) 1996-2017 Texas Instruments Incorporated
C:\Users\Kevin\AppData\Local\Temp\{25EC31FF-BE6A-4273-8ABE-530A93E63F10} PAGE   13

     661                            .dwattr $C$DW$46, DW_AT_decl_file("C:/ti/ccsv7/tools/compiler/ti-cgt-arm_16.9.4.LTS/include/st
     662                            .dwattr $C$DW$46, DW_AT_decl_line(0x61)
     663                            .dwattr $C$DW$46, DW_AT_decl_column(0x22)
     664                    
     665                            .dwattr $C$DW$T$21, DW_AT_decl_file("C:/ti/ccsv7/tools/compiler/ti-cgt-arm_16.9.4.LTS/include/
     666                            .dwattr $C$DW$T$21, DW_AT_decl_line(0x61)
     667                            .dwattr $C$DW$T$21, DW_AT_decl_column(0x10)
     668                            .dwendtag $C$DW$T$21
     669                    
     670                    $C$DW$T$121     .dwtag  DW_TAG_typedef
     671                            .dwattr $C$DW$T$121, DW_AT_name("lldiv_t")
     672                            .dwattr $C$DW$T$121, DW_AT_type(*$C$DW$T$21)
     673                            .dwattr $C$DW$T$121, DW_AT_language(DW_LANG_C)
     674                            .dwattr $C$DW$T$121, DW_AT_decl_file("C:/ti/ccsv7/tools/compiler/ti-cgt-arm_16.9.4.LTS/include
     675                            .dwattr $C$DW$T$121, DW_AT_decl_line(0x61)
     676                            .dwattr $C$DW$T$121, DW_AT_decl_column(0x29)
     677                    
     678                    
     679                    $C$DW$T$26      .dwtag  DW_TAG_structure_type
     680                            .dwattr $C$DW$T$26, DW_AT_byte_size(0x08)
     681                    $C$DW$47        .dwtag  DW_TAG_member
     682                            .dwattr $C$DW$47, DW_AT_type(*$C$DW$T$24)
     683                            .dwattr $C$DW$47, DW_AT_name("pointerStack")
     684                            .dwattr $C$DW$47, DW_AT_TI_symbol_name("pointerStack")
     685                            .dwattr $C$DW$47, DW_AT_data_member_location[DW_OP_plus_uconst 0x0]
     686                            .dwattr $C$DW$47, DW_AT_accessibility(DW_ACCESS_public)
     687                            .dwattr $C$DW$47, DW_AT_decl_file("C:/ti/simplelink_cc13x0_sdk_1_50_00_08/source/ti/ti154stack
     688                            .dwattr $C$DW$47, DW_AT_decl_line(0x3f5)
     689                            .dwattr $C$DW$47, DW_AT_decl_column(0x16)
     690                    
     691                    $C$DW$48        .dwtag  DW_TAG_member
     692                            .dwattr $C$DW$48, DW_AT_type(*$C$DW$T$25)
     693                            .dwattr $C$DW$48, DW_AT_name("directAPI")
     694                            .dwattr $C$DW$48, DW_AT_TI_symbol_name("directAPI")
     695                            .dwattr $C$DW$48, DW_AT_data_member_location[DW_OP_plus_uconst 0x4]
     696                            .dwattr $C$DW$48, DW_AT_accessibility(DW_ACCESS_public)
     697                            .dwattr $C$DW$48, DW_AT_decl_file("C:/ti/simplelink_cc13x0_sdk_1_50_00_08/source/ti/ti154stack
     698                            .dwattr $C$DW$48, DW_AT_decl_line(0x3f6)
     699                            .dwattr $C$DW$48, DW_AT_decl_column(0x15)
     700                    
     701                            .dwattr $C$DW$T$26, DW_AT_decl_file("C:/ti/simplelink_cc13x0_sdk_1_50_00_08/source/ti/ti154sta
     702                            .dwattr $C$DW$T$26, DW_AT_decl_line(0x3f4)
     703                            .dwattr $C$DW$T$26, DW_AT_decl_column(0x01)
     704                            .dwendtag $C$DW$T$26
     705                    
     706                    $C$DW$T$28      .dwtag  DW_TAG_typedef
     707                            .dwattr $C$DW$T$28, DW_AT_name("icall_directAPIMsg_t")
     708                            .dwattr $C$DW$T$28, DW_AT_type(*$C$DW$T$26)
     709                            .dwattr $C$DW$T$28, DW_AT_language(DW_LANG_C)
     710                            .dwattr $C$DW$T$28, DW_AT_decl_file("C:/ti/simplelink_cc13x0_sdk_1_50_00_08/source/ti/ti154sta
     711                            .dwattr $C$DW$T$28, DW_AT_decl_line(0x3f7)
     712                            .dwattr $C$DW$T$28, DW_AT_decl_column(0x03)
     713                    
     714                    
     715                    $C$DW$T$29      .dwtag  DW_TAG_structure_type
TI ARM Assembler PC v16.9.4 Sat Nov 18 18:46:28 2017

Tools Copyright (c) 1996-2017 Texas Instruments Incorporated
C:\Users\Kevin\AppData\Local\Temp\{25EC31FF-BE6A-4273-8ABE-530A93E63F10} PAGE   14

     716                            .dwattr $C$DW$T$29, DW_AT_byte_size(0x14)
     717                    $C$DW$49        .dwtag  DW_TAG_member
     718                            .dwattr $C$DW$49, DW_AT_type(*$C$DW$T$27)
     719                            .dwattr $C$DW$49, DW_AT_name("hdr")
     720                            .dwattr $C$DW$49, DW_AT_TI_symbol_name("hdr")
     721                            .dwattr $C$DW$49, DW_AT_data_member_location[DW_OP_plus_uconst 0x0]
     722                            .dwattr $C$DW$49, DW_AT_accessibility(DW_ACCESS_public)
     723                            .dwattr $C$DW$49, DW_AT_decl_file("C:/ti/simplelink_cc13x0_sdk_1_50_00_08/source/ti/ti154stack
     724                            .dwattr $C$DW$49, DW_AT_decl_line(0x3fb)
     725                            .dwattr $C$DW$49, DW_AT_decl_column(0x10)
     726                    
     727                    $C$DW$50        .dwtag  DW_TAG_member
     728                            .dwattr $C$DW$50, DW_AT_type(*$C$DW$T$28)
     729                            .dwattr $C$DW$50, DW_AT_name("msg")
     730                            .dwattr $C$DW$50, DW_AT_TI_symbol_name("msg")
     731                            .dwattr $C$DW$50, DW_AT_data_member_location[DW_OP_plus_uconst 0xc]
     732                            .dwattr $C$DW$50, DW_AT_accessibility(DW_ACCESS_public)
     733                            .dwattr $C$DW$50, DW_AT_decl_file("C:/ti/simplelink_cc13x0_sdk_1_50_00_08/source/ti/ti154stack
     734                            .dwattr $C$DW$50, DW_AT_decl_line(0x3fc)
     735                            .dwattr $C$DW$50, DW_AT_decl_column(0x1a)
     736                    
     737                            .dwattr $C$DW$T$29, DW_AT_decl_file("C:/ti/simplelink_cc13x0_sdk_1_50_00_08/source/ti/ti154sta
     738                            .dwattr $C$DW$T$29, DW_AT_decl_line(0x3fa)
     739                            .dwattr $C$DW$T$29, DW_AT_decl_column(0x01)
     740                            .dwendtag $C$DW$T$29
     741                    
     742                    $C$DW$T$122     .dwtag  DW_TAG_typedef
     743                            .dwattr $C$DW$T$122, DW_AT_name("icallLiteMsg_t")
     744                            .dwattr $C$DW$T$122, DW_AT_type(*$C$DW$T$29)
     745                            .dwattr $C$DW$T$122, DW_AT_language(DW_LANG_C)
     746                            .dwattr $C$DW$T$122, DW_AT_decl_file("C:/ti/simplelink_cc13x0_sdk_1_50_00_08/source/ti/ti154st
     747                            .dwattr $C$DW$T$122, DW_AT_decl_line(0x3fd)
     748                            .dwattr $C$DW$T$122, DW_AT_decl_column(0x03)
     749                    
     750                    
     751                    $C$DW$T$36      .dwtag  DW_TAG_union_type
     752                            .dwattr $C$DW$T$36, DW_AT_byte_size(0x02)
     753                    $C$DW$51        .dwtag  DW_TAG_member
     754                            .dwattr $C$DW$51, DW_AT_type(*$C$DW$T$32)
     755                            .dwattr $C$DW$51, DW_AT_name("entityId")
     756                            .dwattr $C$DW$51, DW_AT_TI_symbol_name("entityId")
     757                            .dwattr $C$DW$51, DW_AT_data_member_location[DW_OP_plus_uconst 0x0]
     758                            .dwattr $C$DW$51, DW_AT_accessibility(DW_ACCESS_public)
     759                            .dwattr $C$DW$51, DW_AT_decl_file("C:/ti/simplelink_cc13x0_sdk_1_50_00_08/source/ti/ti154stack
     760                            .dwattr $C$DW$51, DW_AT_decl_line(0x1fe)
     761                            .dwattr $C$DW$51, DW_AT_decl_column(0x14)
     762                    
     763                    $C$DW$52        .dwtag  DW_TAG_member
     764                            .dwattr $C$DW$52, DW_AT_type(*$C$DW$T$35)
     765                            .dwattr $C$DW$52, DW_AT_name("servId")
     766                            .dwattr $C$DW$52, DW_AT_TI_symbol_name("servId")
     767                            .dwattr $C$DW$52, DW_AT_data_member_location[DW_OP_plus_uconst 0x0]
     768                            .dwattr $C$DW$52, DW_AT_accessibility(DW_ACCESS_public)
     769                            .dwattr $C$DW$52, DW_AT_decl_file("C:/ti/simplelink_cc13x0_sdk_1_50_00_08/source/ti/ti154stack
     770                            .dwattr $C$DW$52, DW_AT_decl_line(0x200)
TI ARM Assembler PC v16.9.4 Sat Nov 18 18:46:28 2017

Tools Copyright (c) 1996-2017 Texas Instruments Incorporated
C:\Users\Kevin\AppData\Local\Temp\{25EC31FF-BE6A-4273-8ABE-530A93E63F10} PAGE   15

     771                            .dwattr $C$DW$52, DW_AT_decl_column(0x17)
     772                    
     773                            .dwattr $C$DW$T$36, DW_AT_decl_file("C:/ti/simplelink_cc13x0_sdk_1_50_00_08/source/ti/ti154sta
     774                            .dwattr $C$DW$T$36, DW_AT_decl_line(0x1fc)
     775                            .dwattr $C$DW$T$36, DW_AT_decl_column(0x03)
     776                            .dwendtag $C$DW$T$36
     777                    
     778                    
     779                    $C$DW$T$37      .dwtag  DW_TAG_union_type
     780                            .dwattr $C$DW$T$37, DW_AT_byte_size(0x02)
     781                    $C$DW$53        .dwtag  DW_TAG_member
     782                            .dwattr $C$DW$53, DW_AT_type(*$C$DW$T$35)
     783                            .dwattr $C$DW$53, DW_AT_name("servId")
     784                            .dwattr $C$DW$53, DW_AT_TI_symbol_name("servId")
     785                            .dwattr $C$DW$53, DW_AT_data_member_location[DW_OP_plus_uconst 0x0]
     786                            .dwattr $C$DW$53, DW_AT_accessibility(DW_ACCESS_public)
     787                            .dwattr $C$DW$53, DW_AT_decl_file("C:/ti/simplelink_cc13x0_sdk_1_50_00_08/source/ti/ti154stack
     788                            .dwattr $C$DW$53, DW_AT_decl_line(0x211)
     789                            .dwattr $C$DW$53, DW_AT_decl_column(0x17)
     790                    
     791                    $C$DW$54        .dwtag  DW_TAG_member
     792                            .dwattr $C$DW$54, DW_AT_type(*$C$DW$T$32)
     793                            .dwattr $C$DW$54, DW_AT_name("entityId")
     794                            .dwattr $C$DW$54, DW_AT_TI_symbol_name("entityId")
     795                            .dwattr $C$DW$54, DW_AT_data_member_location[DW_OP_plus_uconst 0x0]
     796                            .dwattr $C$DW$54, DW_AT_accessibility(DW_ACCESS_public)
     797                            .dwattr $C$DW$54, DW_AT_decl_file("C:/ti/simplelink_cc13x0_sdk_1_50_00_08/source/ti/ti154stack
     798                            .dwattr $C$DW$54, DW_AT_decl_line(0x213)
     799                            .dwattr $C$DW$54, DW_AT_decl_column(0x14)
     800                    
     801                            .dwattr $C$DW$T$37, DW_AT_decl_file("C:/ti/simplelink_cc13x0_sdk_1_50_00_08/source/ti/ti154sta
     802                            .dwattr $C$DW$T$37, DW_AT_decl_line(0x20f)
     803                            .dwattr $C$DW$T$37, DW_AT_decl_column(0x03)
     804                            .dwendtag $C$DW$T$37
     805                    
     806                    
     807                    $C$DW$T$38      .dwtag  DW_TAG_structure_type
     808                            .dwattr $C$DW$T$38, DW_AT_name("_ICall_LiteCmdStatus_")
     809                            .dwattr $C$DW$T$38, DW_AT_byte_size(0x01)
     810                    $C$DW$55        .dwtag  DW_TAG_member
     811                            .dwattr $C$DW$55, DW_AT_type(*$C$DW$T$31)
     812                            .dwattr $C$DW$55, DW_AT_name("cmdId")
     813                            .dwattr $C$DW$55, DW_AT_TI_symbol_name("cmdId")
     814                            .dwattr $C$DW$55, DW_AT_data_member_location[DW_OP_plus_uconst 0x0]
     815                            .dwattr $C$DW$55, DW_AT_accessibility(DW_ACCESS_public)
     816                            .dwattr $C$DW$55, DW_AT_decl_file("C:/ti/simplelink_cc13x0_sdk_1_50_00_08/source/ti/ti154stack
     817                            .dwattr $C$DW$55, DW_AT_decl_line(0x3f0)
     818                            .dwattr $C$DW$55, DW_AT_decl_column(0x11)
     819                    
     820                            .dwattr $C$DW$T$38, DW_AT_decl_file("C:/ti/simplelink_cc13x0_sdk_1_50_00_08/source/ti/ti154sta
     821                            .dwattr $C$DW$T$38, DW_AT_decl_line(0x3ee)
     822                            .dwattr $C$DW$T$38, DW_AT_decl_column(0x10)
     823                            .dwendtag $C$DW$T$38
     824                    
     825                    $C$DW$T$123     .dwtag  DW_TAG_typedef
TI ARM Assembler PC v16.9.4 Sat Nov 18 18:46:28 2017

Tools Copyright (c) 1996-2017 Texas Instruments Incorporated
C:\Users\Kevin\AppData\Local\Temp\{25EC31FF-BE6A-4273-8ABE-530A93E63F10} PAGE   16

     826                            .dwattr $C$DW$T$123, DW_AT_name("ICall_LiteCmdStatus")
     827                            .dwattr $C$DW$T$123, DW_AT_type(*$C$DW$T$38)
     828                            .dwattr $C$DW$T$123, DW_AT_language(DW_LANG_C)
     829                            .dwattr $C$DW$T$123, DW_AT_decl_file("C:/ti/simplelink_cc13x0_sdk_1_50_00_08/source/ti/ti154st
     830                            .dwattr $C$DW$T$123, DW_AT_decl_line(0x3f1)
     831                            .dwattr $C$DW$T$123, DW_AT_decl_column(0x03)
     832                    
     833                    $C$DW$T$2       .dwtag  DW_TAG_unspecified_type
     834                            .dwattr $C$DW$T$2, DW_AT_name("void")
     835                    
     836                    $C$DW$T$3       .dwtag  DW_TAG_pointer_type
     837                            .dwattr $C$DW$T$3, DW_AT_type(*$C$DW$T$2)
     838                            .dwattr $C$DW$T$3, DW_AT_address_class(0x20)
     839                    
     840                    $C$DW$T$124     .dwtag  DW_TAG_typedef
     841                            .dwattr $C$DW$T$124, DW_AT_name("ICall_Semaphore")
     842                            .dwattr $C$DW$T$124, DW_AT_type(*$C$DW$T$3)
     843                            .dwattr $C$DW$T$124, DW_AT_language(DW_LANG_C)
     844                            .dwattr $C$DW$T$124, DW_AT_decl_file("C:/ti/simplelink_cc13x0_sdk_1_50_00_08/source/ti/ti154st
     845                            .dwattr $C$DW$T$124, DW_AT_decl_line(0x1ac)
     846                            .dwattr $C$DW$T$124, DW_AT_decl_column(0x0f)
     847                    
     848                    $C$DW$T$52      .dwtag  DW_TAG_typedef
     849                            .dwattr $C$DW$T$52, DW_AT_name("ICall_SyncHandle")
     850                            .dwattr $C$DW$T$52, DW_AT_type(*$C$DW$T$3)
     851                            .dwattr $C$DW$T$52, DW_AT_language(DW_LANG_C)
     852                            .dwattr $C$DW$T$52, DW_AT_decl_file("C:/ti/simplelink_cc13x0_sdk_1_50_00_08/source/ti/ti154sta
     853                            .dwattr $C$DW$T$52, DW_AT_decl_line(0x1aa)
     854                            .dwattr $C$DW$T$52, DW_AT_decl_column(0x0f)
     855                    
     856                    $C$DW$T$99      .dwtag  DW_TAG_typedef
     857                            .dwattr $C$DW$T$99, DW_AT_name("ICall_TimerID")
     858                            .dwattr $C$DW$T$99, DW_AT_type(*$C$DW$T$3)
     859                            .dwattr $C$DW$T$99, DW_AT_language(DW_LANG_C)
     860                            .dwattr $C$DW$T$99, DW_AT_decl_file("C:/ti/simplelink_cc13x0_sdk_1_50_00_08/source/ti/ti154sta
     861                            .dwattr $C$DW$T$99, DW_AT_decl_line(0x1b7)
     862                            .dwattr $C$DW$T$99, DW_AT_decl_column(0x0f)
     863                    
     864                    $C$DW$T$127     .dwtag  DW_TAG_const_type
     865                            .dwattr $C$DW$T$127, DW_AT_type(*$C$DW$T$3)
     866                    
     867                    
     868                    $C$DW$T$42      .dwtag  DW_TAG_subroutine_type
     869                            .dwattr $C$DW$T$42, DW_AT_language(DW_LANG_C)
     870                    $C$DW$56        .dwtag  DW_TAG_formal_parameter
     871                            .dwattr $C$DW$56, DW_AT_type(*$C$DW$T$40)
     872                    
     873                            .dwendtag $C$DW$T$42
     874                    
     875                    $C$DW$T$43      .dwtag  DW_TAG_pointer_type
     876                            .dwattr $C$DW$T$43, DW_AT_type(*$C$DW$T$42)
     877                            .dwattr $C$DW$T$43, DW_AT_address_class(0x20)
     878                    
     879                    
     880                    $C$DW$T$75      .dwtag  DW_TAG_subroutine_type
TI ARM Assembler PC v16.9.4 Sat Nov 18 18:46:28 2017

Tools Copyright (c) 1996-2017 Texas Instruments Incorporated
C:\Users\Kevin\AppData\Local\Temp\{25EC31FF-BE6A-4273-8ABE-530A93E63F10} PAGE   17

     881                            .dwattr $C$DW$T$75, DW_AT_language(DW_LANG_C)
     882                    $C$DW$57        .dwtag  DW_TAG_formal_parameter
     883                            .dwattr $C$DW$57, DW_AT_type(*$C$DW$T$73)
     884                    
     885                    $C$DW$58        .dwtag  DW_TAG_formal_parameter
     886                            .dwattr $C$DW$58, DW_AT_type(*$C$DW$T$74)
     887                    
     888                            .dwendtag $C$DW$T$75
     889                    
     890                    $C$DW$T$76      .dwtag  DW_TAG_pointer_type
     891                            .dwattr $C$DW$T$76, DW_AT_type(*$C$DW$T$75)
     892                            .dwattr $C$DW$T$76, DW_AT_address_class(0x20)
     893                    
     894                    $C$DW$T$77      .dwtag  DW_TAG_typedef
     895                            .dwattr $C$DW$T$77, DW_AT_name("ICall_PwrNotifyFn")
     896                            .dwattr $C$DW$T$77, DW_AT_type(*$C$DW$T$76)
     897                            .dwattr $C$DW$T$77, DW_AT_language(DW_LANG_C)
     898                            .dwattr $C$DW$T$77, DW_AT_decl_file("C:/ti/simplelink_cc13x0_sdk_1_50_00_08/source/ti/ti154sta
     899                            .dwattr $C$DW$T$77, DW_AT_decl_line(0x333)
     900                            .dwattr $C$DW$T$77, DW_AT_decl_column(0x10)
     901                    
     902                    
     903                    $C$DW$T$84      .dwtag  DW_TAG_subroutine_type
     904                            .dwattr $C$DW$T$84, DW_AT_language(DW_LANG_C)
     905                            .dwendtag $C$DW$T$84
     906                    
     907                    $C$DW$T$85      .dwtag  DW_TAG_pointer_type
     908                            .dwattr $C$DW$T$85, DW_AT_type(*$C$DW$T$84)
     909                            .dwattr $C$DW$T$85, DW_AT_address_class(0x20)
     910                    
     911                    $C$DW$T$115     .dwtag  DW_TAG_typedef
     912                            .dwattr $C$DW$T$115, DW_AT_name("APPASRTINTF_callAssrtHndler")
     913                            .dwattr $C$DW$T$115, DW_AT_type(*$C$DW$T$85)
     914                            .dwattr $C$DW$T$115, DW_AT_language(DW_LANG_C)
     915                            .dwattr $C$DW$T$115, DW_AT_decl_file("C:/ti/simplelink_cc13x0_sdk_1_50_00_08/source/ti/ti154st
     916                            .dwattr $C$DW$T$115, DW_AT_decl_line(0x43)
     917                            .dwattr $C$DW$T$115, DW_AT_decl_column(0x10)
     918                    
     919                    $C$DW$T$128     .dwtag  DW_TAG_typedef
     920                            .dwattr $C$DW$T$128, DW_AT_name("__TI_atexit_fn")
     921                            .dwattr $C$DW$T$128, DW_AT_type(*$C$DW$T$85)
     922                            .dwattr $C$DW$T$128, DW_AT_language(DW_LANG_C)
     923                            .dwattr $C$DW$T$128, DW_AT_decl_file("C:/ti/ccsv7/tools/compiler/ti-cgt-arm_16.9.4.LTS/include
     924                            .dwattr $C$DW$T$128, DW_AT_decl_line(0xb9)
     925                            .dwattr $C$DW$T$128, DW_AT_decl_column(0x14)
     926                    
     927                    
     928                    $C$DW$T$93      .dwtag  DW_TAG_subroutine_type
     929                            .dwattr $C$DW$T$93, DW_AT_language(DW_LANG_C)
     930                    $C$DW$59        .dwtag  DW_TAG_formal_parameter
     931                            .dwattr $C$DW$59, DW_AT_type(*$C$DW$T$89)
     932                    
     933                            .dwendtag $C$DW$T$93
     934                    
     935                    $C$DW$T$94      .dwtag  DW_TAG_pointer_type
TI ARM Assembler PC v16.9.4 Sat Nov 18 18:46:28 2017

Tools Copyright (c) 1996-2017 Texas Instruments Incorporated
C:\Users\Kevin\AppData\Local\Temp\{25EC31FF-BE6A-4273-8ABE-530A93E63F10} PAGE   18

     936                            .dwattr $C$DW$T$94, DW_AT_type(*$C$DW$T$93)
     937                            .dwattr $C$DW$T$94, DW_AT_address_class(0x20)
     938                    
     939                    $C$DW$T$95      .dwtag  DW_TAG_typedef
     940                            .dwattr $C$DW$T$95, DW_AT_name("ICall_LeaveCS")
     941                            .dwattr $C$DW$T$95, DW_AT_type(*$C$DW$T$94)
     942                            .dwattr $C$DW$T$95, DW_AT_language(DW_LANG_C)
     943                            .dwattr $C$DW$T$95, DW_AT_decl_file("C:/ti/simplelink_cc13x0_sdk_1_50_00_08/source/ti/ti154sta
     944                            .dwattr $C$DW$T$95, DW_AT_decl_line(0x37e)
     945                            .dwattr $C$DW$T$95, DW_AT_decl_column(0x10)
     946                    
     947                    
     948                    $C$DW$T$100     .dwtag  DW_TAG_subroutine_type
     949                            .dwattr $C$DW$T$100, DW_AT_language(DW_LANG_C)
     950                    $C$DW$60        .dwtag  DW_TAG_formal_parameter
     951                            .dwattr $C$DW$60, DW_AT_type(*$C$DW$T$3)
     952                    
     953                            .dwendtag $C$DW$T$100
     954                    
     955                    $C$DW$T$101     .dwtag  DW_TAG_pointer_type
     956                            .dwattr $C$DW$T$101, DW_AT_type(*$C$DW$T$100)
     957                            .dwattr $C$DW$T$101, DW_AT_address_class(0x20)
     958                    
     959                    $C$DW$T$102     .dwtag  DW_TAG_typedef
     960                            .dwattr $C$DW$T$102, DW_AT_name("ICall_TimerCback")
     961                            .dwattr $C$DW$T$102, DW_AT_type(*$C$DW$T$101)
     962                            .dwattr $C$DW$T$102, DW_AT_language(DW_LANG_C)
     963                            .dwattr $C$DW$T$102, DW_AT_decl_file("C:/ti/simplelink_cc13x0_sdk_1_50_00_08/source/ti/ti154st
     964                            .dwattr $C$DW$T$102, DW_AT_decl_line(0x1c8)
     965                            .dwattr $C$DW$T$102, DW_AT_decl_column(0x10)
     966                    
     967                    $C$DW$T$109     .dwtag  DW_TAG_const_type
     968                            .dwattr $C$DW$T$109, DW_AT_type(*$C$DW$T$2)
     969                    
     970                    $C$DW$T$110     .dwtag  DW_TAG_pointer_type
     971                            .dwattr $C$DW$T$110, DW_AT_type(*$C$DW$T$109)
     972                            .dwattr $C$DW$T$110, DW_AT_address_class(0x20)
     973                    
     974                    
     975                    $C$DW$T$133     .dwtag  DW_TAG_subroutine_type
     976                            .dwattr $C$DW$T$133, DW_AT_language(DW_LANG_C)
     977                    $C$DW$61        .dwtag  DW_TAG_formal_parameter
     978                            .dwattr $C$DW$61, DW_AT_type(*$C$DW$T$132)
     979                    
     980                    $C$DW$62        .dwtag  DW_TAG_formal_parameter
     981                            .dwattr $C$DW$62, DW_AT_type(*$C$DW$T$3)
     982                    
     983                            .dwendtag $C$DW$T$133
     984                    
     985                    $C$DW$T$134     .dwtag  DW_TAG_pointer_type
     986                            .dwattr $C$DW$T$134, DW_AT_type(*$C$DW$T$133)
     987                            .dwattr $C$DW$T$134, DW_AT_address_class(0x20)
     988                    
     989                    $C$DW$T$135     .dwtag  DW_TAG_typedef
     990                            .dwattr $C$DW$T$135, DW_AT_name("ICall_RemoteTaskEntry")
TI ARM Assembler PC v16.9.4 Sat Nov 18 18:46:28 2017

Tools Copyright (c) 1996-2017 Texas Instruments Incorporated
C:\Users\Kevin\AppData\Local\Temp\{25EC31FF-BE6A-4273-8ABE-530A93E63F10} PAGE   19

     991                            .dwattr $C$DW$T$135, DW_AT_type(*$C$DW$T$134)
     992                            .dwattr $C$DW$T$135, DW_AT_language(DW_LANG_C)
     993                            .dwattr $C$DW$T$135, DW_AT_decl_file("C:/ti/simplelink_cc13x0_sdk_1_50_00_08/source/ti/ti154st
     994                            .dwattr $C$DW$T$135, DW_AT_decl_line(0x39b)
     995                            .dwattr $C$DW$T$135, DW_AT_decl_column(0x10)
     996                    
     997                    
     998                    $C$DW$T$137     .dwtag  DW_TAG_subroutine_type
     999                            .dwattr $C$DW$T$137, DW_AT_language(DW_LANG_C)
    1000                    $C$DW$63        .dwtag  DW_TAG_formal_parameter
    1001                            .dwattr $C$DW$63, DW_AT_type(*$C$DW$T$136)
    1002                    
    1003                    $C$DW$64        .dwtag  DW_TAG_formal_parameter
    1004                            .dwattr $C$DW$64, DW_AT_type(*$C$DW$T$136)
    1005                    
    1006                            .dwendtag $C$DW$T$137
    1007                    
    1008                    $C$DW$T$138     .dwtag  DW_TAG_pointer_type
    1009                            .dwattr $C$DW$T$138, DW_AT_type(*$C$DW$T$137)
    1010                            .dwattr $C$DW$T$138, DW_AT_address_class(0x20)
    1011                    
    1012                    $C$DW$T$139     .dwtag  DW_TAG_typedef
    1013                            .dwattr $C$DW$T$139, DW_AT_name("assertCback_t")
    1014                            .dwattr $C$DW$T$139, DW_AT_type(*$C$DW$T$138)
    1015                            .dwattr $C$DW$T$139, DW_AT_language(DW_LANG_C)
    1016                            .dwattr $C$DW$T$139, DW_AT_decl_file("C:/ti/simplelink_cc13x0_sdk_1_50_00_08/source/ti/ti154st
    1017                            .dwattr $C$DW$T$139, DW_AT_decl_line(0xd3)
    1018                            .dwattr $C$DW$T$139, DW_AT_decl_column(0x10)
    1019                    
    1020                    $C$DW$T$4       .dwtag  DW_TAG_base_type
    1021                            .dwattr $C$DW$T$4, DW_AT_encoding(DW_ATE_boolean)
    1022                            .dwattr $C$DW$T$4, DW_AT_name("bool")
    1023                            .dwattr $C$DW$T$4, DW_AT_byte_size(0x01)
    1024                    
    1025                    $C$DW$T$5       .dwtag  DW_TAG_base_type
    1026                            .dwattr $C$DW$T$5, DW_AT_encoding(DW_ATE_signed_char)
    1027                            .dwattr $C$DW$T$5, DW_AT_name("signed char")
    1028                            .dwattr $C$DW$T$5, DW_AT_byte_size(0x01)
    1029                    
    1030                    $C$DW$T$140     .dwtag  DW_TAG_typedef
    1031                            .dwattr $C$DW$T$140, DW_AT_name("int8")
    1032                            .dwattr $C$DW$T$140, DW_AT_type(*$C$DW$T$5)
    1033                            .dwattr $C$DW$T$140, DW_AT_language(DW_LANG_C)
    1034                            .dwattr $C$DW$T$140, DW_AT_decl_file("C:\ti\simplelink_cc13x0_sdk_1_50_00_08\source\ti\ti154st
    1035                            .dwattr $C$DW$T$140, DW_AT_decl_line(0x38)
    1036                            .dwattr $C$DW$T$140, DW_AT_decl_column(0x19)
    1037                    
    1038                    $C$DW$T$141     .dwtag  DW_TAG_typedef
    1039                            .dwattr $C$DW$T$141, DW_AT_name("int8_t")
    1040                            .dwattr $C$DW$T$141, DW_AT_type(*$C$DW$T$5)
    1041                            .dwattr $C$DW$T$141, DW_AT_language(DW_LANG_C)
    1042                            .dwattr $C$DW$T$141, DW_AT_decl_file("C:/ti/ccsv7/tools/compiler/ti-cgt-arm_16.9.4.LTS/include
    1043                            .dwattr $C$DW$T$141, DW_AT_decl_line(0x2a)
    1044                            .dwattr $C$DW$T$141, DW_AT_decl_column(0x1d)
    1045                    
TI ARM Assembler PC v16.9.4 Sat Nov 18 18:46:28 2017

Tools Copyright (c) 1996-2017 Texas Instruments Incorporated
C:\Users\Kevin\AppData\Local\Temp\{25EC31FF-BE6A-4273-8ABE-530A93E63F10} PAGE   20

    1046                    $C$DW$T$142     .dwtag  DW_TAG_typedef
    1047                            .dwattr $C$DW$T$142, DW_AT_name("int_least8_t")
    1048                            .dwattr $C$DW$T$142, DW_AT_type(*$C$DW$T$141)
    1049                            .dwattr $C$DW$T$142, DW_AT_language(DW_LANG_C)
    1050                            .dwattr $C$DW$T$142, DW_AT_decl_file("C:/ti/ccsv7/tools/compiler/ti-cgt-arm_16.9.4.LTS/include
    1051                            .dwattr $C$DW$T$142, DW_AT_decl_line(0x37)
    1052                            .dwattr $C$DW$T$142, DW_AT_decl_column(0x17)
    1053                    
    1054                    $C$DW$T$6       .dwtag  DW_TAG_base_type
    1055                            .dwattr $C$DW$T$6, DW_AT_encoding(DW_ATE_unsigned_char)
    1056                            .dwattr $C$DW$T$6, DW_AT_name("unsigned char")
    1057                            .dwattr $C$DW$T$6, DW_AT_byte_size(0x01)
    1058                    
    1059                    $C$DW$T$136     .dwtag  DW_TAG_typedef
    1060                            .dwattr $C$DW$T$136, DW_AT_name("uint8")
    1061                            .dwattr $C$DW$T$136, DW_AT_type(*$C$DW$T$6)
    1062                            .dwattr $C$DW$T$136, DW_AT_language(DW_LANG_C)
    1063                            .dwattr $C$DW$T$136, DW_AT_decl_file("C:\ti\simplelink_cc13x0_sdk_1_50_00_08\source\ti\ti154st
    1064                            .dwattr $C$DW$T$136, DW_AT_decl_line(0x39)
    1065                            .dwattr $C$DW$T$136, DW_AT_decl_column(0x19)
    1066                    
    1067                    $C$DW$T$149     .dwtag  DW_TAG_pointer_type
    1068                            .dwattr $C$DW$T$149, DW_AT_type(*$C$DW$T$136)
    1069                            .dwattr $C$DW$T$149, DW_AT_address_class(0x20)
    1070                    
    1071                    
    1072                    $C$DW$T$151     .dwtag  DW_TAG_array_type
    1073                            .dwattr $C$DW$T$151, DW_AT_type(*$C$DW$T$136)
    1074                            .dwattr $C$DW$T$151, DW_AT_language(DW_LANG_C)
    1075                            .dwattr $C$DW$T$151, DW_AT_byte_size(0x02)
    1076                    $C$DW$65        .dwtag  DW_TAG_subrange_type
    1077                            .dwattr $C$DW$65, DW_AT_upper_bound(0x01)
    1078                    
    1079                            .dwendtag $C$DW$T$151
    1080                    
    1081                    $C$DW$T$30      .dwtag  DW_TAG_typedef
    1082                            .dwattr $C$DW$T$30, DW_AT_name("uint8_t")
    1083                            .dwattr $C$DW$T$30, DW_AT_type(*$C$DW$T$6)
    1084                            .dwattr $C$DW$T$30, DW_AT_language(DW_LANG_C)
    1085                            .dwattr $C$DW$T$30, DW_AT_decl_file("C:/ti/ccsv7/tools/compiler/ti-cgt-arm_16.9.4.LTS/include/
    1086                            .dwattr $C$DW$T$30, DW_AT_decl_line(0x2b)
    1087                            .dwattr $C$DW$T$30, DW_AT_decl_column(0x1c)
    1088                    
    1089                    $C$DW$T$31      .dwtag  DW_TAG_typedef
    1090                            .dwattr $C$DW$T$31, DW_AT_name("uint_least8_t")
    1091                            .dwattr $C$DW$T$31, DW_AT_type(*$C$DW$T$30)
    1092                            .dwattr $C$DW$T$31, DW_AT_language(DW_LANG_C)
    1093                            .dwattr $C$DW$T$31, DW_AT_decl_file("C:/ti/ccsv7/tools/compiler/ti-cgt-arm_16.9.4.LTS/include/
    1094                            .dwattr $C$DW$T$31, DW_AT_decl_line(0x38)
    1095                            .dwattr $C$DW$T$31, DW_AT_decl_column(0x16)
    1096                    
    1097                    $C$DW$T$32      .dwtag  DW_TAG_typedef
    1098                            .dwattr $C$DW$T$32, DW_AT_name("ICall_EntityID")
    1099                            .dwattr $C$DW$T$32, DW_AT_type(*$C$DW$T$31)
    1100                            .dwattr $C$DW$T$32, DW_AT_language(DW_LANG_C)
TI ARM Assembler PC v16.9.4 Sat Nov 18 18:46:28 2017

Tools Copyright (c) 1996-2017 Texas Instruments Incorporated
C:\Users\Kevin\AppData\Local\Temp\{25EC31FF-BE6A-4273-8ABE-530A93E63F10} PAGE   21

    1101                            .dwattr $C$DW$T$32, DW_AT_decl_file("C:/ti/simplelink_cc13x0_sdk_1_50_00_08/source/ti/ti154sta
    1102                            .dwattr $C$DW$T$32, DW_AT_decl_line(0x1b4)
    1103                            .dwattr $C$DW$T$32, DW_AT_decl_column(0x17)
    1104                    
    1105                    $C$DW$T$97      .dwtag  DW_TAG_typedef
    1106                            .dwattr $C$DW$T$97, DW_AT_name("ICall_MSGFormat")
    1107                            .dwattr $C$DW$T$97, DW_AT_type(*$C$DW$T$31)
    1108                            .dwattr $C$DW$T$97, DW_AT_language(DW_LANG_C)
    1109                            .dwattr $C$DW$T$97, DW_AT_decl_file("C:/ti/simplelink_cc13x0_sdk_1_50_00_08/source/ti/ti154sta
    1110                            .dwattr $C$DW$T$97, DW_AT_decl_line(0x1a4)
    1111                            .dwattr $C$DW$T$97, DW_AT_decl_column(0x17)
    1112                    
    1113                    $C$DW$T$7       .dwtag  DW_TAG_base_type
    1114                            .dwattr $C$DW$T$7, DW_AT_encoding(DW_ATE_signed_char)
    1115                            .dwattr $C$DW$T$7, DW_AT_name("wchar_t")
    1116                            .dwattr $C$DW$T$7, DW_AT_byte_size(0x02)
    1117                    
    1118                    $C$DW$T$8       .dwtag  DW_TAG_base_type
    1119                            .dwattr $C$DW$T$8, DW_AT_encoding(DW_ATE_signed)
    1120                            .dwattr $C$DW$T$8, DW_AT_name("short")
    1121                            .dwattr $C$DW$T$8, DW_AT_byte_size(0x02)
    1122                    
    1123                    $C$DW$T$152     .dwtag  DW_TAG_typedef
    1124                            .dwattr $C$DW$T$152, DW_AT_name("int16")
    1125                            .dwattr $C$DW$T$152, DW_AT_type(*$C$DW$T$8)
    1126                            .dwattr $C$DW$T$152, DW_AT_language(DW_LANG_C)
    1127                            .dwattr $C$DW$T$152, DW_AT_decl_file("C:\ti\simplelink_cc13x0_sdk_1_50_00_08\source\ti\ti154st
    1128                            .dwattr $C$DW$T$152, DW_AT_decl_line(0x3b)
    1129                            .dwattr $C$DW$T$152, DW_AT_decl_column(0x19)
    1130                    
    1131                    $C$DW$T$153     .dwtag  DW_TAG_typedef
    1132                            .dwattr $C$DW$T$153, DW_AT_name("int16_t")
    1133                            .dwattr $C$DW$T$153, DW_AT_type(*$C$DW$T$8)
    1134                            .dwattr $C$DW$T$153, DW_AT_language(DW_LANG_C)
    1135                            .dwattr $C$DW$T$153, DW_AT_decl_file("C:/ti/ccsv7/tools/compiler/ti-cgt-arm_16.9.4.LTS/include
    1136                            .dwattr $C$DW$T$153, DW_AT_decl_line(0x2c)
    1137                            .dwattr $C$DW$T$153, DW_AT_decl_column(0x1d)
    1138                    
    1139                    $C$DW$T$154     .dwtag  DW_TAG_typedef
    1140                            .dwattr $C$DW$T$154, DW_AT_name("int_least16_t")
    1141                            .dwattr $C$DW$T$154, DW_AT_type(*$C$DW$T$153)
    1142                            .dwattr $C$DW$T$154, DW_AT_language(DW_LANG_C)
    1143                            .dwattr $C$DW$T$154, DW_AT_decl_file("C:/ti/ccsv7/tools/compiler/ti-cgt-arm_16.9.4.LTS/include
    1144                            .dwattr $C$DW$T$154, DW_AT_decl_line(0x3a)
    1145                            .dwattr $C$DW$T$154, DW_AT_decl_column(0x17)
    1146                    
    1147                    $C$DW$T$9       .dwtag  DW_TAG_base_type
    1148                            .dwattr $C$DW$T$9, DW_AT_encoding(DW_ATE_unsigned)
    1149                            .dwattr $C$DW$T$9, DW_AT_name("unsigned short")
    1150                            .dwattr $C$DW$T$9, DW_AT_byte_size(0x02)
    1151                    
    1152                    $C$DW$T$156     .dwtag  DW_TAG_typedef
    1153                            .dwattr $C$DW$T$156, DW_AT_name("uint16")
    1154                            .dwattr $C$DW$T$156, DW_AT_type(*$C$DW$T$9)
    1155                            .dwattr $C$DW$T$156, DW_AT_language(DW_LANG_C)
TI ARM Assembler PC v16.9.4 Sat Nov 18 18:46:28 2017

Tools Copyright (c) 1996-2017 Texas Instruments Incorporated
C:\Users\Kevin\AppData\Local\Temp\{25EC31FF-BE6A-4273-8ABE-530A93E63F10} PAGE   22

    1156                            .dwattr $C$DW$T$156, DW_AT_decl_file("C:\ti\simplelink_cc13x0_sdk_1_50_00_08\source\ti\ti154st
    1157                            .dwattr $C$DW$T$156, DW_AT_decl_line(0x3c)
    1158                            .dwattr $C$DW$T$156, DW_AT_decl_column(0x19)
    1159                    
    1160                    $C$DW$T$33      .dwtag  DW_TAG_typedef
    1161                            .dwattr $C$DW$T$33, DW_AT_name("uint16_t")
    1162                            .dwattr $C$DW$T$33, DW_AT_type(*$C$DW$T$9)
    1163                            .dwattr $C$DW$T$33, DW_AT_language(DW_LANG_C)
    1164                            .dwattr $C$DW$T$33, DW_AT_decl_file("C:/ti/ccsv7/tools/compiler/ti-cgt-arm_16.9.4.LTS/include/
    1165                            .dwattr $C$DW$T$33, DW_AT_decl_line(0x2d)
    1166                            .dwattr $C$DW$T$33, DW_AT_decl_column(0x1c)
    1167                    
    1168                    $C$DW$T$34      .dwtag  DW_TAG_typedef
    1169                            .dwattr $C$DW$T$34, DW_AT_name("uint_least16_t")
    1170                            .dwattr $C$DW$T$34, DW_AT_type(*$C$DW$T$33)
    1171                            .dwattr $C$DW$T$34, DW_AT_language(DW_LANG_C)
    1172                            .dwattr $C$DW$T$34, DW_AT_decl_file("C:/ti/ccsv7/tools/compiler/ti-cgt-arm_16.9.4.LTS/include/
    1173                            .dwattr $C$DW$T$34, DW_AT_decl_line(0x3b)
    1174                            .dwattr $C$DW$T$34, DW_AT_decl_column(0x16)
    1175                    
    1176                    $C$DW$T$57      .dwtag  DW_TAG_typedef
    1177                            .dwattr $C$DW$T$57, DW_AT_name("ICall_FuncID")
    1178                            .dwattr $C$DW$T$57, DW_AT_type(*$C$DW$T$34)
    1179                            .dwattr $C$DW$T$57, DW_AT_language(DW_LANG_C)
    1180                            .dwattr $C$DW$T$57, DW_AT_decl_file("C:/ti/simplelink_cc13x0_sdk_1_50_00_08/source/ti/ti154sta
    1181                            .dwattr $C$DW$T$57, DW_AT_decl_line(0x1a7)
    1182                            .dwattr $C$DW$T$57, DW_AT_decl_column(0x18)
    1183                    
    1184                    $C$DW$T$35      .dwtag  DW_TAG_typedef
    1185                            .dwattr $C$DW$T$35, DW_AT_name("ICall_ServiceEnum")
    1186                            .dwattr $C$DW$T$35, DW_AT_type(*$C$DW$T$34)
    1187                            .dwattr $C$DW$T$35, DW_AT_language(DW_LANG_C)
    1188                            .dwattr $C$DW$T$35, DW_AT_decl_file("C:/ti/simplelink_cc13x0_sdk_1_50_00_08/source/ti/ti154sta
    1189                            .dwattr $C$DW$T$35, DW_AT_decl_line(0x1a1)
    1190                            .dwattr $C$DW$T$35, DW_AT_decl_column(0x18)
    1191                    
    1192                    $C$DW$T$160     .dwtag  DW_TAG_typedef
    1193                            .dwattr $C$DW$T$160, DW_AT_name("wchar_t")
    1194                            .dwattr $C$DW$T$160, DW_AT_type(*$C$DW$T$9)
    1195                            .dwattr $C$DW$T$160, DW_AT_language(DW_LANG_C)
    1196                            .dwattr $C$DW$T$160, DW_AT_decl_file("C:/ti/ccsv7/tools/compiler/ti-cgt-arm_16.9.4.LTS/include
    1197                            .dwattr $C$DW$T$160, DW_AT_decl_line(0x78)
    1198                            .dwattr $C$DW$T$160, DW_AT_decl_column(0x1a)
    1199                    
    1200                    $C$DW$T$10      .dwtag  DW_TAG_base_type
    1201                            .dwattr $C$DW$T$10, DW_AT_encoding(DW_ATE_signed)
    1202                            .dwattr $C$DW$T$10, DW_AT_name("int")
    1203                            .dwattr $C$DW$T$10, DW_AT_byte_size(0x04)
    1204                    
    1205                    
    1206                    $C$DW$T$163     .dwtag  DW_TAG_subroutine_type
    1207                            .dwattr $C$DW$T$163, DW_AT_type(*$C$DW$T$10)
    1208                            .dwattr $C$DW$T$163, DW_AT_language(DW_LANG_C)
    1209                    $C$DW$66        .dwtag  DW_TAG_formal_parameter
    1210                            .dwattr $C$DW$66, DW_AT_type(*$C$DW$T$110)
TI ARM Assembler PC v16.9.4 Sat Nov 18 18:46:28 2017

Tools Copyright (c) 1996-2017 Texas Instruments Incorporated
C:\Users\Kevin\AppData\Local\Temp\{25EC31FF-BE6A-4273-8ABE-530A93E63F10} PAGE   23

    1211                    
    1212                    $C$DW$67        .dwtag  DW_TAG_formal_parameter
    1213                            .dwattr $C$DW$67, DW_AT_type(*$C$DW$T$110)
    1214                    
    1215                            .dwendtag $C$DW$T$163
    1216                    
    1217                    $C$DW$T$164     .dwtag  DW_TAG_pointer_type
    1218                            .dwattr $C$DW$T$164, DW_AT_type(*$C$DW$T$163)
    1219                            .dwattr $C$DW$T$164, DW_AT_address_class(0x20)
    1220                    
    1221                    $C$DW$T$165     .dwtag  DW_TAG_typedef
    1222                            .dwattr $C$DW$T$165, DW_AT_name("__TI_compar_fn")
    1223                            .dwattr $C$DW$T$165, DW_AT_type(*$C$DW$T$164)
    1224                            .dwattr $C$DW$T$165, DW_AT_language(DW_LANG_C)
    1225                            .dwattr $C$DW$T$165, DW_AT_decl_file("C:/ti/ccsv7/tools/compiler/ti-cgt-arm_16.9.4.LTS/include
    1226                            .dwattr $C$DW$T$165, DW_AT_decl_line(0xbc)
    1227                            .dwattr $C$DW$T$165, DW_AT_decl_column(0x13)
    1228                    
    1229                    $C$DW$T$45      .dwtag  DW_TAG_typedef
    1230                            .dwattr $C$DW$T$45, DW_AT_name("int32_t")
    1231                            .dwattr $C$DW$T$45, DW_AT_type(*$C$DW$T$10)
    1232                            .dwattr $C$DW$T$45, DW_AT_language(DW_LANG_C)
    1233                            .dwattr $C$DW$T$45, DW_AT_decl_file("C:/ti/ccsv7/tools/compiler/ti-cgt-arm_16.9.4.LTS/include/
    1234                            .dwattr $C$DW$T$45, DW_AT_decl_line(0x2e)
    1235                            .dwattr $C$DW$T$45, DW_AT_decl_column(0x1d)
    1236                    
    1237                    $C$DW$T$46      .dwtag  DW_TAG_typedef
    1238                            .dwattr $C$DW$T$46, DW_AT_name("int_fast16_t")
    1239                            .dwattr $C$DW$T$46, DW_AT_type(*$C$DW$T$45)
    1240                            .dwattr $C$DW$T$46, DW_AT_language(DW_LANG_C)
    1241                            .dwattr $C$DW$T$46, DW_AT_decl_file("C:/ti/ccsv7/tools/compiler/ti-cgt-arm_16.9.4.LTS/include/
    1242                            .dwattr $C$DW$T$46, DW_AT_decl_line(0x47)
    1243                            .dwattr $C$DW$T$46, DW_AT_decl_column(0x17)
    1244                    
    1245                    $C$DW$T$47      .dwtag  DW_TAG_typedef
    1246                            .dwattr $C$DW$T$47, DW_AT_name("ICall_Errno")
    1247                            .dwattr $C$DW$T$47, DW_AT_type(*$C$DW$T$46)
    1248                            .dwattr $C$DW$T$47, DW_AT_language(DW_LANG_C)
    1249                            .dwattr $C$DW$T$47, DW_AT_decl_file("C:/ti/simplelink_cc13x0_sdk_1_50_00_08/source/ti/ti154sta
    1250                            .dwattr $C$DW$T$47, DW_AT_decl_line(0x19e)
    1251                            .dwattr $C$DW$T$47, DW_AT_decl_column(0x16)
    1252                    
    1253                    
    1254                    $C$DW$T$49      .dwtag  DW_TAG_subroutine_type
    1255                            .dwattr $C$DW$T$49, DW_AT_type(*$C$DW$T$47)
    1256                            .dwattr $C$DW$T$49, DW_AT_language(DW_LANG_C)
    1257                    $C$DW$68        .dwtag  DW_TAG_formal_parameter
    1258                            .dwattr $C$DW$68, DW_AT_type(*$C$DW$T$48)
    1259                    
    1260                            .dwendtag $C$DW$T$49
    1261                    
    1262                    $C$DW$T$50      .dwtag  DW_TAG_pointer_type
    1263                            .dwattr $C$DW$T$50, DW_AT_type(*$C$DW$T$49)
    1264                            .dwattr $C$DW$T$50, DW_AT_address_class(0x20)
    1265                    
TI ARM Assembler PC v16.9.4 Sat Nov 18 18:46:28 2017

Tools Copyright (c) 1996-2017 Texas Instruments Incorporated
C:\Users\Kevin\AppData\Local\Temp\{25EC31FF-BE6A-4273-8ABE-530A93E63F10} PAGE   24

    1266                    $C$DW$T$88      .dwtag  DW_TAG_typedef
    1267                            .dwattr $C$DW$T$88, DW_AT_name("ICall_Dispatcher")
    1268                            .dwattr $C$DW$T$88, DW_AT_type(*$C$DW$T$50)
    1269                            .dwattr $C$DW$T$88, DW_AT_language(DW_LANG_C)
    1270                            .dwattr $C$DW$T$88, DW_AT_decl_file("C:/ti/simplelink_cc13x0_sdk_1_50_00_08/source/ti/ti154sta
    1271                            .dwattr $C$DW$T$88, DW_AT_decl_line(0x36c)
    1272                            .dwattr $C$DW$T$88, DW_AT_decl_column(0x17)
    1273                    
    1274                    $C$DW$T$51      .dwtag  DW_TAG_typedef
    1275                            .dwattr $C$DW$T$51, DW_AT_name("ICall_ServiceFunc")
    1276                            .dwattr $C$DW$T$51, DW_AT_type(*$C$DW$T$50)
    1277                            .dwattr $C$DW$T$51, DW_AT_language(DW_LANG_C)
    1278                            .dwattr $C$DW$T$51, DW_AT_decl_file("C:/ti/simplelink_cc13x0_sdk_1_50_00_08/source/ti/ti154sta
    1279                            .dwattr $C$DW$T$51, DW_AT_decl_line(0x3a3)
    1280                            .dwattr $C$DW$T$51, DW_AT_decl_column(0x17)
    1281                    
    1282                    $C$DW$T$169     .dwtag  DW_TAG_typedef
    1283                            .dwattr $C$DW$T$169, DW_AT_name("int_fast32_t")
    1284                            .dwattr $C$DW$T$169, DW_AT_type(*$C$DW$T$45)
    1285                            .dwattr $C$DW$T$169, DW_AT_language(DW_LANG_C)
    1286                            .dwattr $C$DW$T$169, DW_AT_decl_file("C:/ti/ccsv7/tools/compiler/ti-cgt-arm_16.9.4.LTS/include
    1287                            .dwattr $C$DW$T$169, DW_AT_decl_line(0x4a)
    1288                            .dwattr $C$DW$T$169, DW_AT_decl_column(0x17)
    1289                    
    1290                    $C$DW$T$170     .dwtag  DW_TAG_typedef
    1291                            .dwattr $C$DW$T$170, DW_AT_name("int_fast8_t")
    1292                            .dwattr $C$DW$T$170, DW_AT_type(*$C$DW$T$45)
    1293                            .dwattr $C$DW$T$170, DW_AT_language(DW_LANG_C)
    1294                            .dwattr $C$DW$T$170, DW_AT_decl_file("C:/ti/ccsv7/tools/compiler/ti-cgt-arm_16.9.4.LTS/include
    1295                            .dwattr $C$DW$T$170, DW_AT_decl_line(0x45)
    1296                            .dwattr $C$DW$T$170, DW_AT_decl_column(0x17)
    1297                    
    1298                    $C$DW$T$64      .dwtag  DW_TAG_typedef
    1299                            .dwattr $C$DW$T$64, DW_AT_name("int_least32_t")
    1300                            .dwattr $C$DW$T$64, DW_AT_type(*$C$DW$T$45)
    1301                            .dwattr $C$DW$T$64, DW_AT_language(DW_LANG_C)
    1302                            .dwattr $C$DW$T$64, DW_AT_decl_file("C:/ti/ccsv7/tools/compiler/ti-cgt-arm_16.9.4.LTS/include/
    1303                            .dwattr $C$DW$T$64, DW_AT_decl_line(0x3c)
    1304                            .dwattr $C$DW$T$64, DW_AT_decl_column(0x17)
    1305                    
    1306                    $C$DW$T$171     .dwtag  DW_TAG_typedef
    1307                            .dwattr $C$DW$T$171, DW_AT_name("intptr_t")
    1308                            .dwattr $C$DW$T$171, DW_AT_type(*$C$DW$T$10)
    1309                            .dwattr $C$DW$T$171, DW_AT_language(DW_LANG_C)
    1310                            .dwattr $C$DW$T$171, DW_AT_decl_file("C:/ti/ccsv7/tools/compiler/ti-cgt-arm_16.9.4.LTS/include
    1311                            .dwattr $C$DW$T$171, DW_AT_decl_line(0x52)
    1312                            .dwattr $C$DW$T$171, DW_AT_decl_column(0x1a)
    1313                    
    1314                    $C$DW$T$11      .dwtag  DW_TAG_base_type
    1315                            .dwattr $C$DW$T$11, DW_AT_encoding(DW_ATE_unsigned)
    1316                            .dwattr $C$DW$T$11, DW_AT_name("unsigned int")
    1317                            .dwattr $C$DW$T$11, DW_AT_byte_size(0x04)
    1318                    
    1319                    $C$DW$T$40      .dwtag  DW_TAG_typedef
    1320                            .dwattr $C$DW$T$40, DW_AT_name("size_t")
TI ARM Assembler PC v16.9.4 Sat Nov 18 18:46:28 2017

Tools Copyright (c) 1996-2017 Texas Instruments Incorporated
C:\Users\Kevin\AppData\Local\Temp\{25EC31FF-BE6A-4273-8ABE-530A93E63F10} PAGE   25

    1321                            .dwattr $C$DW$T$40, DW_AT_type(*$C$DW$T$11)
    1322                            .dwattr $C$DW$T$40, DW_AT_language(DW_LANG_C)
    1323                            .dwattr $C$DW$T$40, DW_AT_decl_file("C:/ti/ccsv7/tools/compiler/ti-cgt-arm_16.9.4.LTS/include/
    1324                            .dwattr $C$DW$T$40, DW_AT_decl_line(0x72)
    1325                            .dwattr $C$DW$T$40, DW_AT_decl_column(0x19)
    1326                    
    1327                    $C$DW$T$22      .dwtag  DW_TAG_typedef
    1328                            .dwattr $C$DW$T$22, DW_AT_name("uint32_t")
    1329                            .dwattr $C$DW$T$22, DW_AT_type(*$C$DW$T$11)
    1330                            .dwattr $C$DW$T$22, DW_AT_language(DW_LANG_C)
    1331                            .dwattr $C$DW$T$22, DW_AT_decl_file("C:/ti/ccsv7/tools/compiler/ti-cgt-arm_16.9.4.LTS/include/
    1332                            .dwattr $C$DW$T$22, DW_AT_decl_line(0x2f)
    1333                            .dwattr $C$DW$T$22, DW_AT_decl_column(0x1c)
    1334                    
    1335                    $C$DW$T$179     .dwtag  DW_TAG_typedef
    1336                            .dwattr $C$DW$T$179, DW_AT_name("uint_fast16_t")
    1337                            .dwattr $C$DW$T$179, DW_AT_type(*$C$DW$T$22)
    1338                            .dwattr $C$DW$T$179, DW_AT_language(DW_LANG_C)
    1339                            .dwattr $C$DW$T$179, DW_AT_decl_file("C:/ti/ccsv7/tools/compiler/ti-cgt-arm_16.9.4.LTS/include
    1340                            .dwattr $C$DW$T$179, DW_AT_decl_line(0x48)
    1341                            .dwattr $C$DW$T$179, DW_AT_decl_column(0x16)
    1342                    
    1343                    $C$DW$T$67      .dwtag  DW_TAG_typedef
    1344                            .dwattr $C$DW$T$67, DW_AT_name("uint_fast32_t")
    1345                            .dwattr $C$DW$T$67, DW_AT_type(*$C$DW$T$22)
    1346                            .dwattr $C$DW$T$67, DW_AT_language(DW_LANG_C)
    1347                            .dwattr $C$DW$T$67, DW_AT_decl_file("C:/ti/ccsv7/tools/compiler/ti-cgt-arm_16.9.4.LTS/include/
    1348                            .dwattr $C$DW$T$67, DW_AT_decl_line(0x4b)
    1349                            .dwattr $C$DW$T$67, DW_AT_decl_column(0x16)
    1350                    
    1351                    $C$DW$T$68      .dwtag  DW_TAG_typedef
    1352                            .dwattr $C$DW$T$68, DW_AT_name("ICall_PwrBitmap_t")
    1353                            .dwattr $C$DW$T$68, DW_AT_type(*$C$DW$T$67)
    1354                            .dwattr $C$DW$T$68, DW_AT_language(DW_LANG_C)
    1355                            .dwattr $C$DW$T$68, DW_AT_decl_file("C:/ti/simplelink_cc13x0_sdk_1_50_00_08/source/ti/ti154sta
    1356                            .dwattr $C$DW$T$68, DW_AT_decl_line(0x287)
    1357                            .dwattr $C$DW$T$68, DW_AT_decl_column(0x17)
    1358                    
    1359                    $C$DW$T$70      .dwtag  DW_TAG_typedef
    1360                            .dwattr $C$DW$T$70, DW_AT_name("uint_fast8_t")
    1361                            .dwattr $C$DW$T$70, DW_AT_type(*$C$DW$T$22)
    1362                            .dwattr $C$DW$T$70, DW_AT_language(DW_LANG_C)
    1363                            .dwattr $C$DW$T$70, DW_AT_decl_file("C:/ti/ccsv7/tools/compiler/ti-cgt-arm_16.9.4.LTS/include/
    1364                            .dwattr $C$DW$T$70, DW_AT_decl_line(0x46)
    1365                            .dwattr $C$DW$T$70, DW_AT_decl_column(0x16)
    1366                    
    1367                    $C$DW$T$73      .dwtag  DW_TAG_typedef
    1368                            .dwattr $C$DW$T$73, DW_AT_name("ICall_PwrTransition")
    1369                            .dwattr $C$DW$T$73, DW_AT_type(*$C$DW$T$70)
    1370                            .dwattr $C$DW$T$73, DW_AT_language(DW_LANG_C)
    1371                            .dwattr $C$DW$T$73, DW_AT_decl_file("C:/ti/simplelink_cc13x0_sdk_1_50_00_08/source/ti/ti154sta
    1372                            .dwattr $C$DW$T$73, DW_AT_decl_line(0x326)
    1373                            .dwattr $C$DW$T$73, DW_AT_decl_column(0x16)
    1374                    
    1375                    $C$DW$T$23      .dwtag  DW_TAG_typedef
TI ARM Assembler PC v16.9.4 Sat Nov 18 18:46:28 2017

Tools Copyright (c) 1996-2017 Texas Instruments Incorporated
C:\Users\Kevin\AppData\Local\Temp\{25EC31FF-BE6A-4273-8ABE-530A93E63F10} PAGE   26

    1376                            .dwattr $C$DW$T$23, DW_AT_name("uint_least32_t")
    1377                            .dwattr $C$DW$T$23, DW_AT_type(*$C$DW$T$22)
    1378                            .dwattr $C$DW$T$23, DW_AT_language(DW_LANG_C)
    1379                            .dwattr $C$DW$T$23, DW_AT_decl_file("C:/ti/ccsv7/tools/compiler/ti-cgt-arm_16.9.4.LTS/include/
    1380                            .dwattr $C$DW$T$23, DW_AT_decl_line(0x3d)
    1381                            .dwattr $C$DW$T$23, DW_AT_decl_column(0x16)
    1382                    
    1383                    $C$DW$T$89      .dwtag  DW_TAG_typedef
    1384                            .dwattr $C$DW$T$89, DW_AT_name("ICall_CSState")
    1385                            .dwattr $C$DW$T$89, DW_AT_type(*$C$DW$T$23)
    1386                            .dwattr $C$DW$T$89, DW_AT_language(DW_LANG_C)
    1387                            .dwattr $C$DW$T$89, DW_AT_decl_file("C:/ti/simplelink_cc13x0_sdk_1_50_00_08/source/ti/ti154sta
    1388                            .dwattr $C$DW$T$89, DW_AT_decl_line(0x371)
    1389                            .dwattr $C$DW$T$89, DW_AT_decl_column(0x18)
    1390                    
    1391                    
    1392                    $C$DW$T$90      .dwtag  DW_TAG_subroutine_type
    1393                            .dwattr $C$DW$T$90, DW_AT_type(*$C$DW$T$89)
    1394                            .dwattr $C$DW$T$90, DW_AT_language(DW_LANG_C)
    1395                            .dwendtag $C$DW$T$90
    1396                    
    1397                    $C$DW$T$91      .dwtag  DW_TAG_pointer_type
    1398                            .dwattr $C$DW$T$91, DW_AT_type(*$C$DW$T$90)
    1399                            .dwattr $C$DW$T$91, DW_AT_address_class(0x20)
    1400                    
    1401                    $C$DW$T$92      .dwtag  DW_TAG_typedef
    1402                            .dwattr $C$DW$T$92, DW_AT_name("ICall_EnterCS")
    1403                            .dwattr $C$DW$T$92, DW_AT_type(*$C$DW$T$91)
    1404                            .dwattr $C$DW$T$92, DW_AT_language(DW_LANG_C)
    1405                            .dwattr $C$DW$T$92, DW_AT_decl_file("C:/ti/simplelink_cc13x0_sdk_1_50_00_08/source/ti/ti154sta
    1406                            .dwattr $C$DW$T$92, DW_AT_decl_line(0x377)
    1407                            .dwattr $C$DW$T$92, DW_AT_decl_column(0x19)
    1408                    
    1409                    $C$DW$T$24      .dwtag  DW_TAG_pointer_type
    1410                            .dwattr $C$DW$T$24, DW_AT_type(*$C$DW$T$23)
    1411                            .dwattr $C$DW$T$24, DW_AT_address_class(0x20)
    1412                    
    1413                    $C$DW$T$25      .dwtag  DW_TAG_typedef
    1414                            .dwattr $C$DW$T$25, DW_AT_name("icall_lite_id_t")
    1415                            .dwattr $C$DW$T$25, DW_AT_type(*$C$DW$T$23)
    1416                            .dwattr $C$DW$T$25, DW_AT_language(DW_LANG_C)
    1417                            .dwattr $C$DW$T$25, DW_AT_decl_file("C:/ti/simplelink_cc13x0_sdk_1_50_00_08/source/ti/ti154sta
    1418                            .dwattr $C$DW$T$25, DW_AT_decl_line(0x3ec)
    1419                            .dwattr $C$DW$T$25, DW_AT_decl_column(0x18)
    1420                    
    1421                    $C$DW$T$180     .dwtag  DW_TAG_typedef
    1422                            .dwattr $C$DW$T$180, DW_AT_name("uintptr_t")
    1423                            .dwattr $C$DW$T$180, DW_AT_type(*$C$DW$T$11)
    1424                            .dwattr $C$DW$T$180, DW_AT_language(DW_LANG_C)
    1425                            .dwattr $C$DW$T$180, DW_AT_decl_file("C:/ti/ccsv7/tools/compiler/ti-cgt-arm_16.9.4.LTS/include
    1426                            .dwattr $C$DW$T$180, DW_AT_decl_line(0x53)
    1427                            .dwattr $C$DW$T$180, DW_AT_decl_column(0x1a)
    1428                    
    1429                    $C$DW$T$12      .dwtag  DW_TAG_base_type
    1430                            .dwattr $C$DW$T$12, DW_AT_encoding(DW_ATE_signed)
TI ARM Assembler PC v16.9.4 Sat Nov 18 18:46:28 2017

Tools Copyright (c) 1996-2017 Texas Instruments Incorporated
C:\Users\Kevin\AppData\Local\Temp\{25EC31FF-BE6A-4273-8ABE-530A93E63F10} PAGE   27

    1431                            .dwattr $C$DW$T$12, DW_AT_name("long")
    1432                            .dwattr $C$DW$T$12, DW_AT_byte_size(0x04)
    1433                    
    1434                    $C$DW$T$181     .dwtag  DW_TAG_typedef
    1435                            .dwattr $C$DW$T$181, DW_AT_name("int32")
    1436                            .dwattr $C$DW$T$181, DW_AT_type(*$C$DW$T$12)
    1437                            .dwattr $C$DW$T$181, DW_AT_language(DW_LANG_C)
    1438                            .dwattr $C$DW$T$181, DW_AT_decl_file("C:\ti\simplelink_cc13x0_sdk_1_50_00_08\source\ti\ti154st
    1439                            .dwattr $C$DW$T$181, DW_AT_decl_line(0x3e)
    1440                            .dwattr $C$DW$T$181, DW_AT_decl_column(0x19)
    1441                    
    1442                    $C$DW$T$13      .dwtag  DW_TAG_base_type
    1443                            .dwattr $C$DW$T$13, DW_AT_encoding(DW_ATE_unsigned)
    1444                            .dwattr $C$DW$T$13, DW_AT_name("unsigned long")
    1445                            .dwattr $C$DW$T$13, DW_AT_byte_size(0x04)
    1446                    
    1447                    $C$DW$T$143     .dwtag  DW_TAG_typedef
    1448                            .dwattr $C$DW$T$143, DW_AT_name("uint32")
    1449                            .dwattr $C$DW$T$143, DW_AT_type(*$C$DW$T$13)
    1450                            .dwattr $C$DW$T$143, DW_AT_language(DW_LANG_C)
    1451                            .dwattr $C$DW$T$143, DW_AT_decl_file("C:\ti\simplelink_cc13x0_sdk_1_50_00_08\source\ti\ti154st
    1452                            .dwattr $C$DW$T$143, DW_AT_decl_line(0x3f)
    1453                            .dwattr $C$DW$T$143, DW_AT_decl_column(0x19)
    1454                    
    1455                    $C$DW$T$182     .dwtag  DW_TAG_typedef
    1456                            .dwattr $C$DW$T$182, DW_AT_name("halDataAlign_t")
    1457                            .dwattr $C$DW$T$182, DW_AT_type(*$C$DW$T$143)
    1458                            .dwattr $C$DW$T$182, DW_AT_language(DW_LANG_C)
    1459                            .dwattr $C$DW$T$182, DW_AT_decl_file("C:\ti\simplelink_cc13x0_sdk_1_50_00_08\source\ti\ti154st
    1460                            .dwattr $C$DW$T$182, DW_AT_decl_line(0x43)
    1461                            .dwattr $C$DW$T$182, DW_AT_decl_column(0x19)
    1462                    
    1463                    $C$DW$T$144     .dwtag  DW_TAG_const_type
    1464                            .dwattr $C$DW$T$144, DW_AT_type(*$C$DW$T$143)
    1465                    
    1466                    $C$DW$T$145     .dwtag  DW_TAG_pointer_type
    1467                            .dwattr $C$DW$T$145, DW_AT_type(*$C$DW$T$144)
    1468                            .dwattr $C$DW$T$145, DW_AT_address_class(0x20)
    1469                    
    1470                    $C$DW$T$183     .dwtag  DW_TAG_const_type
    1471                            .dwattr $C$DW$T$183, DW_AT_type(*$C$DW$T$145)
    1472                    
    1473                    $C$DW$T$14      .dwtag  DW_TAG_base_type
    1474                            .dwattr $C$DW$T$14, DW_AT_encoding(DW_ATE_signed)
    1475                            .dwattr $C$DW$T$14, DW_AT_name("long long")
    1476                            .dwattr $C$DW$T$14, DW_AT_byte_size(0x08)
    1477                    
    1478                    $C$DW$T$184     .dwtag  DW_TAG_typedef
    1479                            .dwattr $C$DW$T$184, DW_AT_name("int64_t")
    1480                            .dwattr $C$DW$T$184, DW_AT_type(*$C$DW$T$14)
    1481                            .dwattr $C$DW$T$184, DW_AT_language(DW_LANG_C)
    1482                            .dwattr $C$DW$T$184, DW_AT_decl_file("C:/ti/ccsv7/tools/compiler/ti-cgt-arm_16.9.4.LTS/include
    1483                            .dwattr $C$DW$T$184, DW_AT_decl_line(0x32)
    1484                            .dwattr $C$DW$T$184, DW_AT_decl_column(0x21)
    1485                    
TI ARM Assembler PC v16.9.4 Sat Nov 18 18:46:28 2017

Tools Copyright (c) 1996-2017 Texas Instruments Incorporated
C:\Users\Kevin\AppData\Local\Temp\{25EC31FF-BE6A-4273-8ABE-530A93E63F10} PAGE   28

    1486                    $C$DW$T$185     .dwtag  DW_TAG_typedef
    1487                            .dwattr $C$DW$T$185, DW_AT_name("int_fast64_t")
    1488                            .dwattr $C$DW$T$185, DW_AT_type(*$C$DW$T$184)
    1489                            .dwattr $C$DW$T$185, DW_AT_language(DW_LANG_C)
    1490                            .dwattr $C$DW$T$185, DW_AT_decl_file("C:/ti/ccsv7/tools/compiler/ti-cgt-arm_16.9.4.LTS/include
    1491                            .dwattr $C$DW$T$185, DW_AT_decl_line(0x4e)
    1492                            .dwattr $C$DW$T$185, DW_AT_decl_column(0x17)
    1493                    
    1494                    $C$DW$T$186     .dwtag  DW_TAG_typedef
    1495                            .dwattr $C$DW$T$186, DW_AT_name("int_least64_t")
    1496                            .dwattr $C$DW$T$186, DW_AT_type(*$C$DW$T$184)
    1497                            .dwattr $C$DW$T$186, DW_AT_language(DW_LANG_C)
    1498                            .dwattr $C$DW$T$186, DW_AT_decl_file("C:/ti/ccsv7/tools/compiler/ti-cgt-arm_16.9.4.LTS/include
    1499                            .dwattr $C$DW$T$186, DW_AT_decl_line(0x40)
    1500                            .dwattr $C$DW$T$186, DW_AT_decl_column(0x17)
    1501                    
    1502                    $C$DW$T$187     .dwtag  DW_TAG_typedef
    1503                            .dwattr $C$DW$T$187, DW_AT_name("intmax_t")
    1504                            .dwattr $C$DW$T$187, DW_AT_type(*$C$DW$T$14)
    1505                            .dwattr $C$DW$T$187, DW_AT_language(DW_LANG_C)
    1506                            .dwattr $C$DW$T$187, DW_AT_decl_file("C:/ti/ccsv7/tools/compiler/ti-cgt-arm_16.9.4.LTS/include
    1507                            .dwattr $C$DW$T$187, DW_AT_decl_line(0x56)
    1508                            .dwattr $C$DW$T$187, DW_AT_decl_column(0x20)
    1509                    
    1510                    $C$DW$T$15      .dwtag  DW_TAG_base_type
    1511                            .dwattr $C$DW$T$15, DW_AT_encoding(DW_ATE_unsigned)
    1512                            .dwattr $C$DW$T$15, DW_AT_name("unsigned long long")
    1513                            .dwattr $C$DW$T$15, DW_AT_byte_size(0x08)
    1514                    
    1515                    $C$DW$T$188     .dwtag  DW_TAG_typedef
    1516                            .dwattr $C$DW$T$188, DW_AT_name("uint64_t")
    1517                            .dwattr $C$DW$T$188, DW_AT_type(*$C$DW$T$15)
    1518                            .dwattr $C$DW$T$188, DW_AT_language(DW_LANG_C)
    1519                            .dwattr $C$DW$T$188, DW_AT_decl_file("C:/ti/ccsv7/tools/compiler/ti-cgt-arm_16.9.4.LTS/include
    1520                            .dwattr $C$DW$T$188, DW_AT_decl_line(0x33)
    1521                            .dwattr $C$DW$T$188, DW_AT_decl_column(0x20)
    1522                    
    1523                    $C$DW$T$189     .dwtag  DW_TAG_typedef
    1524                            .dwattr $C$DW$T$189, DW_AT_name("uint_fast64_t")
    1525                            .dwattr $C$DW$T$189, DW_AT_type(*$C$DW$T$188)
    1526                            .dwattr $C$DW$T$189, DW_AT_language(DW_LANG_C)
    1527                            .dwattr $C$DW$T$189, DW_AT_decl_file("C:/ti/ccsv7/tools/compiler/ti-cgt-arm_16.9.4.LTS/include
    1528                            .dwattr $C$DW$T$189, DW_AT_decl_line(0x4f)
    1529                            .dwattr $C$DW$T$189, DW_AT_decl_column(0x16)
    1530                    
    1531                    $C$DW$T$190     .dwtag  DW_TAG_typedef
    1532                            .dwattr $C$DW$T$190, DW_AT_name("uint_least64_t")
    1533                            .dwattr $C$DW$T$190, DW_AT_type(*$C$DW$T$188)
    1534                            .dwattr $C$DW$T$190, DW_AT_language(DW_LANG_C)
    1535                            .dwattr $C$DW$T$190, DW_AT_decl_file("C:/ti/ccsv7/tools/compiler/ti-cgt-arm_16.9.4.LTS/include
    1536                            .dwattr $C$DW$T$190, DW_AT_decl_line(0x41)
    1537                            .dwattr $C$DW$T$190, DW_AT_decl_column(0x16)
    1538                    
    1539                    $C$DW$T$191     .dwtag  DW_TAG_typedef
    1540                            .dwattr $C$DW$T$191, DW_AT_name("uintmax_t")
TI ARM Assembler PC v16.9.4 Sat Nov 18 18:46:28 2017

Tools Copyright (c) 1996-2017 Texas Instruments Incorporated
C:\Users\Kevin\AppData\Local\Temp\{25EC31FF-BE6A-4273-8ABE-530A93E63F10} PAGE   29

    1541                            .dwattr $C$DW$T$191, DW_AT_type(*$C$DW$T$15)
    1542                            .dwattr $C$DW$T$191, DW_AT_language(DW_LANG_C)
    1543                            .dwattr $C$DW$T$191, DW_AT_decl_file("C:/ti/ccsv7/tools/compiler/ti-cgt-arm_16.9.4.LTS/include
    1544                            .dwattr $C$DW$T$191, DW_AT_decl_line(0x57)
    1545                            .dwattr $C$DW$T$191, DW_AT_decl_column(0x20)
    1546                    
    1547                    $C$DW$T$16      .dwtag  DW_TAG_base_type
    1548                            .dwattr $C$DW$T$16, DW_AT_encoding(DW_ATE_float)
    1549                            .dwattr $C$DW$T$16, DW_AT_name("float")
    1550                            .dwattr $C$DW$T$16, DW_AT_byte_size(0x04)
    1551                    
    1552                    $C$DW$T$17      .dwtag  DW_TAG_base_type
    1553                            .dwattr $C$DW$T$17, DW_AT_encoding(DW_ATE_float)
    1554                            .dwattr $C$DW$T$17, DW_AT_name("double")
    1555                            .dwattr $C$DW$T$17, DW_AT_byte_size(0x08)
    1556                    
    1557                    $C$DW$T$18      .dwtag  DW_TAG_base_type
    1558                            .dwattr $C$DW$T$18, DW_AT_encoding(DW_ATE_float)
    1559                            .dwattr $C$DW$T$18, DW_AT_name("long double")
    1560                            .dwattr $C$DW$T$18, DW_AT_byte_size(0x08)
    1561                    
    1562                    $C$DW$T$61      .dwtag  DW_TAG_base_type
    1563                            .dwattr $C$DW$T$61, DW_AT_encoding(DW_ATE_unsigned_char)
    1564                            .dwattr $C$DW$T$61, DW_AT_name("unsigned char")
    1565                            .dwattr $C$DW$T$61, DW_AT_byte_size(0x01)
    1566                    
    1567                    
    1568                    $C$DW$T$111     .dwtag  DW_TAG_subroutine_type
    1569                            .dwattr $C$DW$T$111, DW_AT_type(*$C$DW$T$61)
    1570                            .dwattr $C$DW$T$111, DW_AT_language(DW_LANG_C)
    1571                    $C$DW$69        .dwtag  DW_TAG_formal_parameter
    1572                            .dwattr $C$DW$69, DW_AT_type(*$C$DW$T$35)
    1573                    
    1574                    $C$DW$70        .dwtag  DW_TAG_formal_parameter
    1575                            .dwattr $C$DW$70, DW_AT_type(*$C$DW$T$32)
    1576                    
    1577                    $C$DW$71        .dwtag  DW_TAG_formal_parameter
    1578                            .dwattr $C$DW$71, DW_AT_type(*$C$DW$T$110)
    1579                    
    1580                            .dwendtag $C$DW$T$111
    1581                    
    1582                    $C$DW$T$112     .dwtag  DW_TAG_pointer_type
    1583                            .dwattr $C$DW$T$112, DW_AT_type(*$C$DW$T$111)
    1584                            .dwattr $C$DW$T$112, DW_AT_address_class(0x20)
    1585                    
    1586                    $C$DW$T$113     .dwtag  DW_TAG_typedef
    1587                            .dwattr $C$DW$T$113, DW_AT_name("ICall_MsgMatchFn")
    1588                            .dwattr $C$DW$T$113, DW_AT_type(*$C$DW$T$112)
    1589                            .dwattr $C$DW$T$113, DW_AT_language(DW_LANG_C)
    1590                            .dwattr $C$DW$T$113, DW_AT_decl_file("C:/ti/simplelink_cc13x0_sdk_1_50_00_08/source/ti/ti154st
    1591                            .dwattr $C$DW$T$113, DW_AT_decl_line(0x1c1)
    1592                            .dwattr $C$DW$T$113, DW_AT_decl_column(0x10)
    1593                    
    1594                    
    1595                    $C$DW$T$41      .dwtag  DW_TAG_structure_type
TI ARM Assembler PC v16.9.4 Sat Nov 18 18:46:28 2017

Tools Copyright (c) 1996-2017 Texas Instruments Incorporated
C:\Users\Kevin\AppData\Local\Temp\{25EC31FF-BE6A-4273-8ABE-530A93E63F10} PAGE   30

    1596                            .dwattr $C$DW$T$41, DW_AT_name("_icall_alloc_args_t")
    1597                            .dwattr $C$DW$T$41, DW_AT_byte_size(0x0c)
    1598                    $C$DW$72        .dwtag  DW_TAG_member
    1599                            .dwattr $C$DW$72, DW_AT_type(*$C$DW$T$39)
    1600                            .dwattr $C$DW$72, DW_AT_name("hdr")
    1601                            .dwattr $C$DW$72, DW_AT_TI_symbol_name("hdr")
    1602                            .dwattr $C$DW$72, DW_AT_data_member_location[DW_OP_plus_uconst 0x0]
    1603                            .dwattr $C$DW$72, DW_AT_accessibility(DW_ACCESS_public)
    1604                            .dwattr $C$DW$72, DW_AT_decl_file("C:/ti/simplelink_cc13x0_sdk_1_50_00_08/source/ti/ti154stack
    1605                            .dwattr $C$DW$72, DW_AT_decl_line(0x1e3)
    1606                            .dwattr $C$DW$72, DW_AT_decl_column(0x15)
    1607                    
    1608                    $C$DW$73        .dwtag  DW_TAG_member
    1609                            .dwattr $C$DW$73, DW_AT_type(*$C$DW$T$40)
    1610                            .dwattr $C$DW$73, DW_AT_name("size")
    1611                            .dwattr $C$DW$73, DW_AT_TI_symbol_name("size")
    1612                            .dwattr $C$DW$73, DW_AT_data_member_location[DW_OP_plus_uconst 0x4]
    1613                            .dwattr $C$DW$73, DW_AT_accessibility(DW_ACCESS_public)
    1614                            .dwattr $C$DW$73, DW_AT_decl_file("C:/ti/simplelink_cc13x0_sdk_1_50_00_08/source/ti/ti154stack
    1615                            .dwattr $C$DW$73, DW_AT_decl_line(0x1e5)
    1616                            .dwattr $C$DW$73, DW_AT_decl_column(0x0a)
    1617                    
    1618                    $C$DW$74        .dwtag  DW_TAG_member
    1619                            .dwattr $C$DW$74, DW_AT_type(*$C$DW$T$3)
    1620                            .dwattr $C$DW$74, DW_AT_name("ptr")
    1621                            .dwattr $C$DW$74, DW_AT_TI_symbol_name("ptr")
    1622                            .dwattr $C$DW$74, DW_AT_data_member_location[DW_OP_plus_uconst 0x8]
    1623                            .dwattr $C$DW$74, DW_AT_accessibility(DW_ACCESS_public)
    1624                            .dwattr $C$DW$74, DW_AT_decl_file("C:/ti/simplelink_cc13x0_sdk_1_50_00_08/source/ti/ti154stack
    1625                            .dwattr $C$DW$74, DW_AT_decl_line(0x1e7)
    1626                            .dwattr $C$DW$74, DW_AT_decl_column(0x0a)
    1627                    
    1628                            .dwattr $C$DW$T$41, DW_AT_decl_file("C:/ti/simplelink_cc13x0_sdk_1_50_00_08/source/ti/ti154sta
    1629                            .dwattr $C$DW$T$41, DW_AT_decl_line(0x1e0)
    1630                            .dwattr $C$DW$T$41, DW_AT_decl_column(0x10)
    1631                            .dwendtag $C$DW$T$41
    1632                    
    1633                    $C$DW$T$192     .dwtag  DW_TAG_typedef
    1634                            .dwattr $C$DW$T$192, DW_AT_name("ICall_AllocArgs")
    1635                            .dwattr $C$DW$T$192, DW_AT_type(*$C$DW$T$41)
    1636                            .dwattr $C$DW$T$192, DW_AT_language(DW_LANG_C)
    1637                            .dwattr $C$DW$T$192, DW_AT_decl_file("C:/ti/simplelink_cc13x0_sdk_1_50_00_08/source/ti/ti154st
    1638                            .dwattr $C$DW$T$192, DW_AT_decl_line(0x1e8)
    1639                            .dwattr $C$DW$T$192, DW_AT_decl_column(0x03)
    1640                    
    1641                    
    1642                    $C$DW$T$44      .dwtag  DW_TAG_structure_type
    1643                            .dwattr $C$DW$T$44, DW_AT_name("_icall_create_task_args_t")
    1644                            .dwattr $C$DW$T$44, DW_AT_byte_size(0x10)
    1645                    $C$DW$75        .dwtag  DW_TAG_member
    1646                            .dwattr $C$DW$75, DW_AT_type(*$C$DW$T$39)
    1647                            .dwattr $C$DW$75, DW_AT_name("hdr")
    1648                            .dwattr $C$DW$75, DW_AT_TI_symbol_name("hdr")
    1649                            .dwattr $C$DW$75, DW_AT_data_member_location[DW_OP_plus_uconst 0x0]
    1650                            .dwattr $C$DW$75, DW_AT_accessibility(DW_ACCESS_public)
TI ARM Assembler PC v16.9.4 Sat Nov 18 18:46:28 2017

Tools Copyright (c) 1996-2017 Texas Instruments Incorporated
C:\Users\Kevin\AppData\Local\Temp\{25EC31FF-BE6A-4273-8ABE-530A93E63F10} PAGE   31

    1651                            .dwattr $C$DW$75, DW_AT_decl_file("C:/ti/simplelink_cc13x0_sdk_1_50_00_08/source/ti/ti154stack
    1652                            .dwattr $C$DW$75, DW_AT_decl_line(0x2bc)
    1653                            .dwattr $C$DW$75, DW_AT_decl_column(0x15)
    1654                    
    1655                    $C$DW$76        .dwtag  DW_TAG_member
    1656                            .dwattr $C$DW$76, DW_AT_type(*$C$DW$T$43)
    1657                            .dwattr $C$DW$76, DW_AT_name("entryfn")
    1658                            .dwattr $C$DW$76, DW_AT_TI_symbol_name("entryfn")
    1659                            .dwattr $C$DW$76, DW_AT_data_member_location[DW_OP_plus_uconst 0x4]
    1660                            .dwattr $C$DW$76, DW_AT_accessibility(DW_ACCESS_public)
    1661                            .dwattr $C$DW$76, DW_AT_decl_file("C:/ti/simplelink_cc13x0_sdk_1_50_00_08/source/ti/ti154stack
    1662                            .dwattr $C$DW$76, DW_AT_decl_line(0x2be)
    1663                            .dwattr $C$DW$76, DW_AT_decl_column(0x0a)
    1664                    
    1665                    $C$DW$77        .dwtag  DW_TAG_member
    1666                            .dwattr $C$DW$77, DW_AT_type(*$C$DW$T$31)
    1667                            .dwattr $C$DW$77, DW_AT_name("priority")
    1668                            .dwattr $C$DW$77, DW_AT_TI_symbol_name("priority")
    1669                            .dwattr $C$DW$77, DW_AT_data_member_location[DW_OP_plus_uconst 0x8]
    1670                            .dwattr $C$DW$77, DW_AT_accessibility(DW_ACCESS_public)
    1671                            .dwattr $C$DW$77, DW_AT_decl_file("C:/ti/simplelink_cc13x0_sdk_1_50_00_08/source/ti/ti154stack
    1672                            .dwattr $C$DW$77, DW_AT_decl_line(0x2c0)
    1673                            .dwattr $C$DW$77, DW_AT_decl_column(0x11)
    1674                    
    1675                    $C$DW$78        .dwtag  DW_TAG_member
    1676                            .dwattr $C$DW$78, DW_AT_type(*$C$DW$T$34)
    1677                            .dwattr $C$DW$78, DW_AT_name("stacksize")
    1678                            .dwattr $C$DW$78, DW_AT_TI_symbol_name("stacksize")
    1679                            .dwattr $C$DW$78, DW_AT_data_member_location[DW_OP_plus_uconst 0xa]
    1680                            .dwattr $C$DW$78, DW_AT_accessibility(DW_ACCESS_public)
    1681                            .dwattr $C$DW$78, DW_AT_decl_file("C:/ti/simplelink_cc13x0_sdk_1_50_00_08/source/ti/ti154stack
    1682                            .dwattr $C$DW$78, DW_AT_decl_line(0x2c2)
    1683                            .dwattr $C$DW$78, DW_AT_decl_column(0x12)
    1684                    
    1685                    $C$DW$79        .dwtag  DW_TAG_member
    1686                            .dwattr $C$DW$79, DW_AT_type(*$C$DW$T$40)
    1687                            .dwattr $C$DW$79, DW_AT_name("arg")
    1688                            .dwattr $C$DW$79, DW_AT_TI_symbol_name("arg")
    1689                            .dwattr $C$DW$79, DW_AT_data_member_location[DW_OP_plus_uconst 0xc]
    1690                            .dwattr $C$DW$79, DW_AT_accessibility(DW_ACCESS_public)
    1691                            .dwattr $C$DW$79, DW_AT_decl_file("C:/ti/simplelink_cc13x0_sdk_1_50_00_08/source/ti/ti154stack
    1692                            .dwattr $C$DW$79, DW_AT_decl_line(0x2c4)
    1693                            .dwattr $C$DW$79, DW_AT_decl_column(0x0a)
    1694                    
    1695                            .dwattr $C$DW$T$44, DW_AT_decl_file("C:/ti/simplelink_cc13x0_sdk_1_50_00_08/source/ti/ti154sta
    1696                            .dwattr $C$DW$T$44, DW_AT_decl_line(0x2b9)
    1697                            .dwattr $C$DW$T$44, DW_AT_decl_column(0x10)
    1698                            .dwendtag $C$DW$T$44
    1699                    
    1700                    $C$DW$T$193     .dwtag  DW_TAG_typedef
    1701                            .dwattr $C$DW$T$193, DW_AT_name("ICall_CreateTaskArgs")
    1702                            .dwattr $C$DW$T$193, DW_AT_type(*$C$DW$T$44)
    1703                            .dwattr $C$DW$T$193, DW_AT_language(DW_LANG_C)
    1704                            .dwattr $C$DW$T$193, DW_AT_decl_file("C:/ti/simplelink_cc13x0_sdk_1_50_00_08/source/ti/ti154st
    1705                            .dwattr $C$DW$T$193, DW_AT_decl_line(0x2c5)
TI ARM Assembler PC v16.9.4 Sat Nov 18 18:46:28 2017

Tools Copyright (c) 1996-2017 Texas Instruments Incorporated
C:\Users\Kevin\AppData\Local\Temp\{25EC31FF-BE6A-4273-8ABE-530A93E63F10} PAGE   32

    1706                            .dwattr $C$DW$T$193, DW_AT_decl_column(0x03)
    1707                    
    1708                    
    1709                    $C$DW$T$53      .dwtag  DW_TAG_structure_type
    1710                            .dwattr $C$DW$T$53, DW_AT_name("_icall_enroll_service_args_t")
    1711                            .dwattr $C$DW$T$53, DW_AT_byte_size(0x14)
    1712                    $C$DW$80        .dwtag  DW_TAG_member
    1713                            .dwattr $C$DW$80, DW_AT_type(*$C$DW$T$39)
    1714                            .dwattr $C$DW$80, DW_AT_name("hdr")
    1715                            .dwattr $C$DW$80, DW_AT_TI_symbol_name("hdr")
    1716                            .dwattr $C$DW$80, DW_AT_data_member_location[DW_OP_plus_uconst 0x0]
    1717                            .dwattr $C$DW$80, DW_AT_accessibility(DW_ACCESS_public)
    1718                            .dwattr $C$DW$80, DW_AT_decl_file("C:/ti/simplelink_cc13x0_sdk_1_50_00_08/source/ti/ti154stack
    1719                            .dwattr $C$DW$80, DW_AT_decl_line(0x3a9)
    1720                            .dwattr $C$DW$80, DW_AT_decl_column(0x15)
    1721                    
    1722                    $C$DW$81        .dwtag  DW_TAG_member
    1723                            .dwattr $C$DW$81, DW_AT_type(*$C$DW$T$35)
    1724                            .dwattr $C$DW$81, DW_AT_name("service")
    1725                            .dwattr $C$DW$81, DW_AT_TI_symbol_name("service")
    1726                            .dwattr $C$DW$81, DW_AT_data_member_location[DW_OP_plus_uconst 0x4]
    1727                            .dwattr $C$DW$81, DW_AT_accessibility(DW_ACCESS_public)
    1728                            .dwattr $C$DW$81, DW_AT_decl_file("C:/ti/simplelink_cc13x0_sdk_1_50_00_08/source/ti/ti154stack
    1729                            .dwattr $C$DW$81, DW_AT_decl_line(0x3ab)
    1730                            .dwattr $C$DW$81, DW_AT_decl_column(0x15)
    1731                    
    1732                    $C$DW$82        .dwtag  DW_TAG_member
    1733                            .dwattr $C$DW$82, DW_AT_type(*$C$DW$T$51)
    1734                            .dwattr $C$DW$82, DW_AT_name("fn")
    1735                            .dwattr $C$DW$82, DW_AT_TI_symbol_name("fn")
    1736                            .dwattr $C$DW$82, DW_AT_data_member_location[DW_OP_plus_uconst 0x8]
    1737                            .dwattr $C$DW$82, DW_AT_accessibility(DW_ACCESS_public)
    1738                            .dwattr $C$DW$82, DW_AT_decl_file("C:/ti/simplelink_cc13x0_sdk_1_50_00_08/source/ti/ti154stack
    1739                            .dwattr $C$DW$82, DW_AT_decl_line(0x3ad)
    1740                            .dwattr $C$DW$82, DW_AT_decl_column(0x15)
    1741                    
    1742                    $C$DW$83        .dwtag  DW_TAG_member
    1743                            .dwattr $C$DW$83, DW_AT_type(*$C$DW$T$32)
    1744                            .dwattr $C$DW$83, DW_AT_name("entity")
    1745                            .dwattr $C$DW$83, DW_AT_TI_symbol_name("entity")
    1746                            .dwattr $C$DW$83, DW_AT_data_member_location[DW_OP_plus_uconst 0xc]
    1747                            .dwattr $C$DW$83, DW_AT_accessibility(DW_ACCESS_public)
    1748                            .dwattr $C$DW$83, DW_AT_decl_file("C:/ti/simplelink_cc13x0_sdk_1_50_00_08/source/ti/ti154stack
    1749                            .dwattr $C$DW$83, DW_AT_decl_line(0x3af)
    1750                            .dwattr $C$DW$83, DW_AT_decl_column(0x12)
    1751                    
    1752                    $C$DW$84        .dwtag  DW_TAG_member
    1753                            .dwattr $C$DW$84, DW_AT_type(*$C$DW$T$52)
    1754                            .dwattr $C$DW$84, DW_AT_name("msgSyncHdl")
    1755                            .dwattr $C$DW$84, DW_AT_TI_symbol_name("msgSyncHdl")
    1756                            .dwattr $C$DW$84, DW_AT_data_member_location[DW_OP_plus_uconst 0x10]
    1757                            .dwattr $C$DW$84, DW_AT_accessibility(DW_ACCESS_public)
    1758                            .dwattr $C$DW$84, DW_AT_decl_file("C:/ti/simplelink_cc13x0_sdk_1_50_00_08/source/ti/ti154stack
    1759                            .dwattr $C$DW$84, DW_AT_decl_line(0x3b2)
    1760                            .dwattr $C$DW$84, DW_AT_decl_column(0x14)
TI ARM Assembler PC v16.9.4 Sat Nov 18 18:46:28 2017

Tools Copyright (c) 1996-2017 Texas Instruments Incorporated
C:\Users\Kevin\AppData\Local\Temp\{25EC31FF-BE6A-4273-8ABE-530A93E63F10} PAGE   33

    1761                    
    1762                            .dwattr $C$DW$T$53, DW_AT_decl_file("C:/ti/simplelink_cc13x0_sdk_1_50_00_08/source/ti/ti154sta
    1763                            .dwattr $C$DW$T$53, DW_AT_decl_line(0x3a6)
    1764                            .dwattr $C$DW$T$53, DW_AT_decl_column(0x10)
    1765                            .dwendtag $C$DW$T$53
    1766                    
    1767                    $C$DW$T$194     .dwtag  DW_TAG_typedef
    1768                            .dwattr $C$DW$T$194, DW_AT_name("ICall_EnrollServiceArgs")
    1769                            .dwattr $C$DW$T$194, DW_AT_type(*$C$DW$T$53)
    1770                            .dwattr $C$DW$T$194, DW_AT_language(DW_LANG_C)
    1771                            .dwattr $C$DW$T$194, DW_AT_decl_file("C:/ti/simplelink_cc13x0_sdk_1_50_00_08/source/ti/ti154st
    1772                            .dwattr $C$DW$T$194, DW_AT_decl_line(0x3b3)
    1773                            .dwattr $C$DW$T$194, DW_AT_decl_column(0x03)
    1774                    
    1775                    
    1776                    $C$DW$T$54      .dwtag  DW_TAG_structure_type
    1777                            .dwattr $C$DW$T$54, DW_AT_name("_icall_entity2service_args_t")
    1778                            .dwattr $C$DW$T$54, DW_AT_byte_size(0x08)
    1779                    $C$DW$85        .dwtag  DW_TAG_member
    1780                            .dwattr $C$DW$85, DW_AT_type(*$C$DW$T$39)
    1781                            .dwattr $C$DW$85, DW_AT_name("hdr")
    1782                            .dwattr $C$DW$85, DW_AT_TI_symbol_name("hdr")
    1783                            .dwattr $C$DW$85, DW_AT_data_member_location[DW_OP_plus_uconst 0x0]
    1784                            .dwattr $C$DW$85, DW_AT_accessibility(DW_ACCESS_public)
    1785                            .dwattr $C$DW$85, DW_AT_decl_file("C:/ti/simplelink_cc13x0_sdk_1_50_00_08/source/ti/ti154stack
    1786                            .dwattr $C$DW$85, DW_AT_decl_line(0x23e)
    1787                            .dwattr $C$DW$85, DW_AT_decl_column(0x15)
    1788                    
    1789                    $C$DW$86        .dwtag  DW_TAG_member
    1790                            .dwattr $C$DW$86, DW_AT_type(*$C$DW$T$32)
    1791                            .dwattr $C$DW$86, DW_AT_name("entityId")
    1792                            .dwattr $C$DW$86, DW_AT_TI_symbol_name("entityId")
    1793                            .dwattr $C$DW$86, DW_AT_data_member_location[DW_OP_plus_uconst 0x4]
    1794                            .dwattr $C$DW$86, DW_AT_accessibility(DW_ACCESS_public)
    1795                            .dwattr $C$DW$86, DW_AT_decl_file("C:/ti/simplelink_cc13x0_sdk_1_50_00_08/source/ti/ti154stack
    1796                            .dwattr $C$DW$86, DW_AT_decl_line(0x240)
    1797                            .dwattr $C$DW$86, DW_AT_decl_column(0x12)
    1798                    
    1799                    $C$DW$87        .dwtag  DW_TAG_member
    1800                            .dwattr $C$DW$87, DW_AT_type(*$C$DW$T$35)
    1801                            .dwattr $C$DW$87, DW_AT_name("servId")
    1802                            .dwattr $C$DW$87, DW_AT_TI_symbol_name("servId")
    1803                            .dwattr $C$DW$87, DW_AT_data_member_location[DW_OP_plus_uconst 0x6]
    1804                            .dwattr $C$DW$87, DW_AT_accessibility(DW_ACCESS_public)
    1805                            .dwattr $C$DW$87, DW_AT_decl_file("C:/ti/simplelink_cc13x0_sdk_1_50_00_08/source/ti/ti154stack
    1806                            .dwattr $C$DW$87, DW_AT_decl_line(0x242)
    1807                            .dwattr $C$DW$87, DW_AT_decl_column(0x15)
    1808                    
    1809                            .dwattr $C$DW$T$54, DW_AT_decl_file("C:/ti/simplelink_cc13x0_sdk_1_50_00_08/source/ti/ti154sta
    1810                            .dwattr $C$DW$T$54, DW_AT_decl_line(0x23b)
    1811                            .dwattr $C$DW$T$54, DW_AT_decl_column(0x10)
    1812                            .dwendtag $C$DW$T$54
    1813                    
    1814                    $C$DW$T$195     .dwtag  DW_TAG_typedef
    1815                            .dwattr $C$DW$T$195, DW_AT_name("ICall_EntityId2ServiceIdArgs")
TI ARM Assembler PC v16.9.4 Sat Nov 18 18:46:28 2017

Tools Copyright (c) 1996-2017 Texas Instruments Incorporated
C:\Users\Kevin\AppData\Local\Temp\{25EC31FF-BE6A-4273-8ABE-530A93E63F10} PAGE   34

    1816                            .dwattr $C$DW$T$195, DW_AT_type(*$C$DW$T$54)
    1817                            .dwattr $C$DW$T$195, DW_AT_language(DW_LANG_C)
    1818                            .dwattr $C$DW$T$195, DW_AT_decl_file("C:/ti/simplelink_cc13x0_sdk_1_50_00_08/source/ti/ti154st
    1819                            .dwattr $C$DW$T$195, DW_AT_decl_line(0x243)
    1820                            .dwattr $C$DW$T$195, DW_AT_decl_column(0x03)
    1821                    
    1822                    
    1823                    $C$DW$T$55      .dwtag  DW_TAG_structure_type
    1824                            .dwattr $C$DW$T$55, DW_AT_name("_icall_fetch_msg_args_t")
    1825                            .dwattr $C$DW$T$55, DW_AT_byte_size(0x0c)
    1826                    $C$DW$88        .dwtag  DW_TAG_member
    1827                            .dwattr $C$DW$88, DW_AT_type(*$C$DW$T$39)
    1828                            .dwattr $C$DW$88, DW_AT_name("hdr")
    1829                            .dwattr $C$DW$88, DW_AT_TI_symbol_name("hdr")
    1830                            .dwattr $C$DW$88, DW_AT_data_member_location[DW_OP_plus_uconst 0x0]
    1831                            .dwattr $C$DW$88, DW_AT_accessibility(DW_ACCESS_public)
    1832                            .dwattr $C$DW$88, DW_AT_decl_file("C:/ti/simplelink_cc13x0_sdk_1_50_00_08/source/ti/ti154stack
    1833                            .dwattr $C$DW$88, DW_AT_decl_line(0x20c)
    1834                            .dwattr $C$DW$88, DW_AT_decl_column(0x15)
    1835                    
    1836                    $C$DW$89        .dwtag  DW_TAG_member
    1837                            .dwattr $C$DW$89, DW_AT_type(*$C$DW$T$37)
    1838                            .dwattr $C$DW$89, DW_AT_name("src")
    1839                            .dwattr $C$DW$89, DW_AT_TI_symbol_name("src")
    1840                            .dwattr $C$DW$89, DW_AT_data_member_location[DW_OP_plus_uconst 0x4]
    1841                            .dwattr $C$DW$89, DW_AT_accessibility(DW_ACCESS_public)
    1842                            .dwattr $C$DW$89, DW_AT_decl_file("C:/ti/simplelink_cc13x0_sdk_1_50_00_08/source/ti/ti154stack
    1843                            .dwattr $C$DW$89, DW_AT_decl_line(0x214)
    1844                            .dwattr $C$DW$89, DW_AT_decl_column(0x05)
    1845                    
    1846                    $C$DW$90        .dwtag  DW_TAG_member
    1847                            .dwattr $C$DW$90, DW_AT_type(*$C$DW$T$32)
    1848                            .dwattr $C$DW$90, DW_AT_name("dest")
    1849                            .dwattr $C$DW$90, DW_AT_TI_symbol_name("dest")
    1850                            .dwattr $C$DW$90, DW_AT_data_member_location[DW_OP_plus_uconst 0x6]
    1851                            .dwattr $C$DW$90, DW_AT_accessibility(DW_ACCESS_public)
    1852                            .dwattr $C$DW$90, DW_AT_decl_file("C:/ti/simplelink_cc13x0_sdk_1_50_00_08/source/ti/ti154stack
    1853                            .dwattr $C$DW$90, DW_AT_decl_line(0x216)
    1854                            .dwattr $C$DW$90, DW_AT_decl_column(0x12)
    1855                    
    1856                    $C$DW$91        .dwtag  DW_TAG_member
    1857                            .dwattr $C$DW$91, DW_AT_type(*$C$DW$T$3)
    1858                            .dwattr $C$DW$91, DW_AT_name("msg")
    1859                            .dwattr $C$DW$91, DW_AT_TI_symbol_name("msg")
    1860                            .dwattr $C$DW$91, DW_AT_data_member_location[DW_OP_plus_uconst 0x8]
    1861                            .dwattr $C$DW$91, DW_AT_accessibility(DW_ACCESS_public)
    1862                            .dwattr $C$DW$91, DW_AT_decl_file("C:/ti/simplelink_cc13x0_sdk_1_50_00_08/source/ti/ti154stack
    1863                            .dwattr $C$DW$91, DW_AT_decl_line(0x218)
    1864                            .dwattr $C$DW$91, DW_AT_decl_column(0x09)
    1865                    
    1866                            .dwattr $C$DW$T$55, DW_AT_decl_file("C:/ti/simplelink_cc13x0_sdk_1_50_00_08/source/ti/ti154sta
    1867                            .dwattr $C$DW$T$55, DW_AT_decl_line(0x209)
    1868                            .dwattr $C$DW$T$55, DW_AT_decl_column(0x10)
    1869                            .dwendtag $C$DW$T$55
    1870                    
TI ARM Assembler PC v16.9.4 Sat Nov 18 18:46:28 2017

Tools Copyright (c) 1996-2017 Texas Instruments Incorporated
C:\Users\Kevin\AppData\Local\Temp\{25EC31FF-BE6A-4273-8ABE-530A93E63F10} PAGE   35

    1871                    $C$DW$T$196     .dwtag  DW_TAG_typedef
    1872                            .dwattr $C$DW$T$196, DW_AT_name("ICall_FetchMsgArgs")
    1873                            .dwattr $C$DW$T$196, DW_AT_type(*$C$DW$T$55)
    1874                            .dwattr $C$DW$T$196, DW_AT_language(DW_LANG_C)
    1875                            .dwattr $C$DW$T$196, DW_AT_decl_file("C:/ti/simplelink_cc13x0_sdk_1_50_00_08/source/ti/ti154st
    1876                            .dwattr $C$DW$T$196, DW_AT_decl_line(0x219)
    1877                            .dwattr $C$DW$T$196, DW_AT_decl_column(0x03)
    1878                    
    1879                    
    1880                    $C$DW$T$56      .dwtag  DW_TAG_structure_type
    1881                            .dwattr $C$DW$T$56, DW_AT_name("_icall_free_args_t")
    1882                            .dwattr $C$DW$T$56, DW_AT_byte_size(0x08)
    1883                    $C$DW$92        .dwtag  DW_TAG_member
    1884                            .dwattr $C$DW$92, DW_AT_type(*$C$DW$T$39)
    1885                            .dwattr $C$DW$92, DW_AT_name("hdr")
    1886                            .dwattr $C$DW$92, DW_AT_TI_symbol_name("hdr")
    1887                            .dwattr $C$DW$92, DW_AT_data_member_location[DW_OP_plus_uconst 0x0]
    1888                            .dwattr $C$DW$92, DW_AT_accessibility(DW_ACCESS_public)
    1889                            .dwattr $C$DW$92, DW_AT_decl_file("C:/ti/simplelink_cc13x0_sdk_1_50_00_08/source/ti/ti154stack
    1890                            .dwattr $C$DW$92, DW_AT_decl_line(0x1ee)
    1891                            .dwattr $C$DW$92, DW_AT_decl_column(0x15)
    1892                    
    1893                    $C$DW$93        .dwtag  DW_TAG_member
    1894                            .dwattr $C$DW$93, DW_AT_type(*$C$DW$T$3)
    1895                            .dwattr $C$DW$93, DW_AT_name("ptr")
    1896                            .dwattr $C$DW$93, DW_AT_TI_symbol_name("ptr")
    1897                            .dwattr $C$DW$93, DW_AT_data_member_location[DW_OP_plus_uconst 0x4]
    1898                            .dwattr $C$DW$93, DW_AT_accessibility(DW_ACCESS_public)
    1899                            .dwattr $C$DW$93, DW_AT_decl_file("C:/ti/simplelink_cc13x0_sdk_1_50_00_08/source/ti/ti154stack
    1900                            .dwattr $C$DW$93, DW_AT_decl_line(0x1f0)
    1901                            .dwattr $C$DW$93, DW_AT_decl_column(0x0a)
    1902                    
    1903                            .dwattr $C$DW$T$56, DW_AT_decl_file("C:/ti/simplelink_cc13x0_sdk_1_50_00_08/source/ti/ti154sta
    1904                            .dwattr $C$DW$T$56, DW_AT_decl_line(0x1eb)
    1905                            .dwattr $C$DW$T$56, DW_AT_decl_column(0x10)
    1906                            .dwendtag $C$DW$T$56
    1907                    
    1908                    $C$DW$T$197     .dwtag  DW_TAG_typedef
    1909                            .dwattr $C$DW$T$197, DW_AT_name("ICall_FreeArgs")
    1910                            .dwattr $C$DW$T$197, DW_AT_type(*$C$DW$T$56)
    1911                            .dwattr $C$DW$T$197, DW_AT_language(DW_LANG_C)
    1912                            .dwattr $C$DW$T$197, DW_AT_decl_file("C:/ti/simplelink_cc13x0_sdk_1_50_00_08/source/ti/ti154st
    1913                            .dwattr $C$DW$T$197, DW_AT_decl_line(0x1f1)
    1914                            .dwattr $C$DW$T$197, DW_AT_decl_column(0x03)
    1915                    
    1916                    
    1917                    $C$DW$T$58      .dwtag  DW_TAG_structure_type
    1918                            .dwattr $C$DW$T$58, DW_AT_name("_icall_func_args_hdr_t")
    1919                            .dwattr $C$DW$T$58, DW_AT_byte_size(0x04)
    1920                    $C$DW$94        .dwtag  DW_TAG_member
    1921                            .dwattr $C$DW$94, DW_AT_type(*$C$DW$T$35)
    1922                            .dwattr $C$DW$94, DW_AT_name("service")
    1923                            .dwattr $C$DW$94, DW_AT_TI_symbol_name("service")
    1924                            .dwattr $C$DW$94, DW_AT_data_member_location[DW_OP_plus_uconst 0x0]
    1925                            .dwattr $C$DW$94, DW_AT_accessibility(DW_ACCESS_public)
TI ARM Assembler PC v16.9.4 Sat Nov 18 18:46:28 2017

Tools Copyright (c) 1996-2017 Texas Instruments Incorporated
C:\Users\Kevin\AppData\Local\Temp\{25EC31FF-BE6A-4273-8ABE-530A93E63F10} PAGE   36

    1926                            .dwattr $C$DW$94, DW_AT_decl_file("C:/ti/simplelink_cc13x0_sdk_1_50_00_08/source/ti/ti154stack
    1927                            .dwattr $C$DW$94, DW_AT_decl_line(0x1ce)
    1928                            .dwattr $C$DW$94, DW_AT_decl_column(0x15)
    1929                    
    1930                    $C$DW$95        .dwtag  DW_TAG_member
    1931                            .dwattr $C$DW$95, DW_AT_type(*$C$DW$T$57)
    1932                            .dwattr $C$DW$95, DW_AT_name("func")
    1933                            .dwattr $C$DW$95, DW_AT_TI_symbol_name("func")
    1934                            .dwattr $C$DW$95, DW_AT_data_member_location[DW_OP_plus_uconst 0x2]
    1935                            .dwattr $C$DW$95, DW_AT_accessibility(DW_ACCESS_public)
    1936                            .dwattr $C$DW$95, DW_AT_decl_file("C:/ti/simplelink_cc13x0_sdk_1_50_00_08/source/ti/ti154stack
    1937                            .dwattr $C$DW$95, DW_AT_decl_line(0x1d0)
    1938                            .dwattr $C$DW$95, DW_AT_decl_column(0x10)
    1939                    
    1940                            .dwattr $C$DW$T$58, DW_AT_decl_file("C:/ti/simplelink_cc13x0_sdk_1_50_00_08/source/ti/ti154sta
    1941                            .dwattr $C$DW$T$58, DW_AT_decl_line(0x1cb)
    1942                            .dwattr $C$DW$T$58, DW_AT_decl_column(0x10)
    1943                            .dwendtag $C$DW$T$58
    1944                    
    1945                    $C$DW$T$39      .dwtag  DW_TAG_typedef
    1946                            .dwattr $C$DW$T$39, DW_AT_name("ICall_FuncArgsHdr")
    1947                            .dwattr $C$DW$T$39, DW_AT_type(*$C$DW$T$58)
    1948                            .dwattr $C$DW$T$39, DW_AT_language(DW_LANG_C)
    1949                            .dwattr $C$DW$T$39, DW_AT_decl_file("C:/ti/simplelink_cc13x0_sdk_1_50_00_08/source/ti/ti154sta
    1950                            .dwattr $C$DW$T$39, DW_AT_decl_line(0x1d1)
    1951                            .dwattr $C$DW$T$39, DW_AT_decl_column(0x03)
    1952                    
    1953                    $C$DW$T$48      .dwtag  DW_TAG_pointer_type
    1954                            .dwattr $C$DW$T$48, DW_AT_type(*$C$DW$T$39)
    1955                            .dwattr $C$DW$T$48, DW_AT_address_class(0x20)
    1956                    
    1957                    
    1958                    $C$DW$T$59      .dwtag  DW_TAG_structure_type
    1959                            .dwattr $C$DW$T$59, DW_AT_name("_icall_get_entity_id_args_t")
    1960                            .dwattr $C$DW$T$59, DW_AT_byte_size(0x06)
    1961                    $C$DW$96        .dwtag  DW_TAG_member
    1962                            .dwattr $C$DW$96, DW_AT_type(*$C$DW$T$39)
    1963                            .dwattr $C$DW$96, DW_AT_name("hdr")
    1964                            .dwattr $C$DW$96, DW_AT_TI_symbol_name("hdr")
    1965                            .dwattr $C$DW$96, DW_AT_data_member_location[DW_OP_plus_uconst 0x0]
    1966                            .dwattr $C$DW$96, DW_AT_accessibility(DW_ACCESS_public)
    1967                            .dwattr $C$DW$96, DW_AT_decl_file("C:/ti/simplelink_cc13x0_sdk_1_50_00_08/source/ti/ti154stack
    1968                            .dwattr $C$DW$96, DW_AT_decl_line(0x362)
    1969                            .dwattr $C$DW$96, DW_AT_decl_column(0x15)
    1970                    
    1971                    $C$DW$97        .dwtag  DW_TAG_member
    1972                            .dwattr $C$DW$97, DW_AT_type(*$C$DW$T$32)
    1973                            .dwattr $C$DW$97, DW_AT_name("entity")
    1974                            .dwattr $C$DW$97, DW_AT_TI_symbol_name("entity")
    1975                            .dwattr $C$DW$97, DW_AT_data_member_location[DW_OP_plus_uconst 0x4]
    1976                            .dwattr $C$DW$97, DW_AT_accessibility(DW_ACCESS_public)
    1977                            .dwattr $C$DW$97, DW_AT_decl_file("C:/ti/simplelink_cc13x0_sdk_1_50_00_08/source/ti/ti154stack
    1978                            .dwattr $C$DW$97, DW_AT_decl_line(0x364)
    1979                            .dwattr $C$DW$97, DW_AT_decl_column(0x12)
    1980                    
TI ARM Assembler PC v16.9.4 Sat Nov 18 18:46:28 2017

Tools Copyright (c) 1996-2017 Texas Instruments Incorporated
C:\Users\Kevin\AppData\Local\Temp\{25EC31FF-BE6A-4273-8ABE-530A93E63F10} PAGE   37

    1981                            .dwattr $C$DW$T$59, DW_AT_decl_file("C:/ti/simplelink_cc13x0_sdk_1_50_00_08/source/ti/ti154sta
    1982                            .dwattr $C$DW$T$59, DW_AT_decl_line(0x35f)
    1983                            .dwattr $C$DW$T$59, DW_AT_decl_column(0x10)
    1984                            .dwendtag $C$DW$T$59
    1985                    
    1986                    $C$DW$T$198     .dwtag  DW_TAG_typedef
    1987                            .dwattr $C$DW$T$198, DW_AT_name("ICall_GetEntityIdArgs")
    1988                            .dwattr $C$DW$T$198, DW_AT_type(*$C$DW$T$59)
    1989                            .dwattr $C$DW$T$198, DW_AT_language(DW_LANG_C)
    1990                            .dwattr $C$DW$T$198, DW_AT_decl_file("C:/ti/simplelink_cc13x0_sdk_1_50_00_08/source/ti/ti154st
    1991                            .dwattr $C$DW$T$198, DW_AT_decl_line(0x365)
    1992                            .dwattr $C$DW$T$198, DW_AT_decl_column(0x03)
    1993                    
    1994                    
    1995                    $C$DW$T$60      .dwtag  DW_TAG_structure_type
    1996                            .dwattr $C$DW$T$60, DW_AT_name("_icall_get_local_msg_entity_id_args_t")
    1997                            .dwattr $C$DW$T$60, DW_AT_byte_size(0x08)
    1998                    $C$DW$98        .dwtag  DW_TAG_member
    1999                            .dwattr $C$DW$98, DW_AT_type(*$C$DW$T$39)
    2000                            .dwattr $C$DW$98, DW_AT_name("hdr")
    2001                            .dwattr $C$DW$98, DW_AT_TI_symbol_name("hdr")
    2002                            .dwattr $C$DW$98, DW_AT_data_member_location[DW_OP_plus_uconst 0x0]
    2003                            .dwattr $C$DW$98, DW_AT_accessibility(DW_ACCESS_public)
    2004                            .dwattr $C$DW$98, DW_AT_decl_file("C:/ti/simplelink_cc13x0_sdk_1_50_00_08/source/ti/ti154stack
    2005                            .dwattr $C$DW$98, DW_AT_decl_line(0x3d1)
    2006                            .dwattr $C$DW$98, DW_AT_decl_column(0x15)
    2007                    
    2008                    $C$DW$99        .dwtag  DW_TAG_member
    2009                            .dwattr $C$DW$99, DW_AT_type(*$C$DW$T$35)
    2010                            .dwattr $C$DW$99, DW_AT_name("service")
    2011                            .dwattr $C$DW$99, DW_AT_TI_symbol_name("service")
    2012                            .dwattr $C$DW$99, DW_AT_data_member_location[DW_OP_plus_uconst 0x4]
    2013                            .dwattr $C$DW$99, DW_AT_accessibility(DW_ACCESS_public)
    2014                            .dwattr $C$DW$99, DW_AT_decl_file("C:/ti/simplelink_cc13x0_sdk_1_50_00_08/source/ti/ti154stack
    2015                            .dwattr $C$DW$99, DW_AT_decl_line(0x3d3)
    2016                            .dwattr $C$DW$99, DW_AT_decl_column(0x15)
    2017                    
    2018                    $C$DW$100       .dwtag  DW_TAG_member
    2019                            .dwattr $C$DW$100, DW_AT_type(*$C$DW$T$32)
    2020                            .dwattr $C$DW$100, DW_AT_name("entity")
    2021                            .dwattr $C$DW$100, DW_AT_TI_symbol_name("entity")
    2022                            .dwattr $C$DW$100, DW_AT_data_member_location[DW_OP_plus_uconst 0x6]
    2023                            .dwattr $C$DW$100, DW_AT_accessibility(DW_ACCESS_public)
    2024                            .dwattr $C$DW$100, DW_AT_decl_file("C:/ti/simplelink_cc13x0_sdk_1_50_00_08/source/ti/ti154stac
    2025                            .dwattr $C$DW$100, DW_AT_decl_line(0x3d5)
    2026                            .dwattr $C$DW$100, DW_AT_decl_column(0x12)
    2027                    
    2028                    $C$DW$101       .dwtag  DW_TAG_member
    2029                            .dwattr $C$DW$101, DW_AT_type(*$C$DW$T$31)
    2030                            .dwattr $C$DW$101, DW_AT_name("localId")
    2031                            .dwattr $C$DW$101, DW_AT_TI_symbol_name("localId")
    2032                            .dwattr $C$DW$101, DW_AT_data_member_location[DW_OP_plus_uconst 0x7]
    2033                            .dwattr $C$DW$101, DW_AT_accessibility(DW_ACCESS_public)
    2034                            .dwattr $C$DW$101, DW_AT_decl_file("C:/ti/simplelink_cc13x0_sdk_1_50_00_08/source/ti/ti154stac
    2035                            .dwattr $C$DW$101, DW_AT_decl_line(0x3d7)
TI ARM Assembler PC v16.9.4 Sat Nov 18 18:46:28 2017

Tools Copyright (c) 1996-2017 Texas Instruments Incorporated
C:\Users\Kevin\AppData\Local\Temp\{25EC31FF-BE6A-4273-8ABE-530A93E63F10} PAGE   38

    2036                            .dwattr $C$DW$101, DW_AT_decl_column(0x11)
    2037                    
    2038                            .dwattr $C$DW$T$60, DW_AT_decl_file("C:/ti/simplelink_cc13x0_sdk_1_50_00_08/source/ti/ti154sta
    2039                            .dwattr $C$DW$T$60, DW_AT_decl_line(0x3ce)
    2040                            .dwattr $C$DW$T$60, DW_AT_decl_column(0x10)
    2041                            .dwendtag $C$DW$T$60
    2042                    
    2043                    $C$DW$T$199     .dwtag  DW_TAG_typedef
    2044                            .dwattr $C$DW$T$199, DW_AT_name("ICall_GetLocalMsgEntityIdArgs")
    2045                            .dwattr $C$DW$T$199, DW_AT_type(*$C$DW$T$60)
    2046                            .dwattr $C$DW$T$199, DW_AT_language(DW_LANG_C)
    2047                            .dwattr $C$DW$T$199, DW_AT_decl_file("C:/ti/simplelink_cc13x0_sdk_1_50_00_08/source/ti/ti154st
    2048                            .dwattr $C$DW$T$199, DW_AT_decl_line(0x3d8)
    2049                            .dwattr $C$DW$T$199, DW_AT_decl_column(0x03)
    2050                    
    2051                    
    2052                    $C$DW$T$62      .dwtag  DW_TAG_structure_type
    2053                            .dwattr $C$DW$T$62, DW_AT_name("_icall_getbool_args_t")
    2054                            .dwattr $C$DW$T$62, DW_AT_byte_size(0x06)
    2055                    $C$DW$102       .dwtag  DW_TAG_member
    2056                            .dwattr $C$DW$102, DW_AT_type(*$C$DW$T$39)
    2057                            .dwattr $C$DW$102, DW_AT_name("hdr")
    2058                            .dwattr $C$DW$102, DW_AT_TI_symbol_name("hdr")
    2059                            .dwattr $C$DW$102, DW_AT_data_member_location[DW_OP_plus_uconst 0x0]
    2060                            .dwattr $C$DW$102, DW_AT_accessibility(DW_ACCESS_public)
    2061                            .dwattr $C$DW$102, DW_AT_decl_file("C:/ti/simplelink_cc13x0_sdk_1_50_00_08/source/ti/ti154stac
    2062                            .dwattr $C$DW$102, DW_AT_decl_line(0x274)
    2063                            .dwattr $C$DW$102, DW_AT_decl_column(0x15)
    2064                    
    2065                    $C$DW$103       .dwtag  DW_TAG_member
    2066                            .dwattr $C$DW$103, DW_AT_type(*$C$DW$T$61)
    2067                            .dwattr $C$DW$103, DW_AT_name("value")
    2068                            .dwattr $C$DW$103, DW_AT_TI_symbol_name("value")
    2069                            .dwattr $C$DW$103, DW_AT_data_member_location[DW_OP_plus_uconst 0x4]
    2070                            .dwattr $C$DW$103, DW_AT_accessibility(DW_ACCESS_public)
    2071                            .dwattr $C$DW$103, DW_AT_decl_file("C:/ti/simplelink_cc13x0_sdk_1_50_00_08/source/ti/ti154stac
    2072                            .dwattr $C$DW$103, DW_AT_decl_line(0x276)
    2073                            .dwattr $C$DW$103, DW_AT_decl_column(0x08)
    2074                    
    2075                            .dwattr $C$DW$T$62, DW_AT_decl_file("C:/ti/simplelink_cc13x0_sdk_1_50_00_08/source/ti/ti154sta
    2076                            .dwattr $C$DW$T$62, DW_AT_decl_line(0x271)
    2077                            .dwattr $C$DW$T$62, DW_AT_decl_column(0x10)
    2078                            .dwendtag $C$DW$T$62
    2079                    
    2080                    $C$DW$T$200     .dwtag  DW_TAG_typedef
    2081                            .dwattr $C$DW$T$200, DW_AT_name("ICall_GetBoolArgs")
    2082                            .dwattr $C$DW$T$200, DW_AT_type(*$C$DW$T$62)
    2083                            .dwattr $C$DW$T$200, DW_AT_language(DW_LANG_C)
    2084                            .dwattr $C$DW$T$200, DW_AT_decl_file("C:/ti/simplelink_cc13x0_sdk_1_50_00_08/source/ti/ti154st
    2085                            .dwattr $C$DW$T$200, DW_AT_decl_line(0x277)
    2086                            .dwattr $C$DW$T$200, DW_AT_decl_column(0x03)
    2087                    
    2088                    
    2089                    $C$DW$T$63      .dwtag  DW_TAG_structure_type
    2090                            .dwattr $C$DW$T$63, DW_AT_name("_icall_getuint32_args_t")
TI ARM Assembler PC v16.9.4 Sat Nov 18 18:46:28 2017

Tools Copyright (c) 1996-2017 Texas Instruments Incorporated
C:\Users\Kevin\AppData\Local\Temp\{25EC31FF-BE6A-4273-8ABE-530A93E63F10} PAGE   39

    2091                            .dwattr $C$DW$T$63, DW_AT_byte_size(0x08)
    2092                    $C$DW$104       .dwtag  DW_TAG_member
    2093                            .dwattr $C$DW$104, DW_AT_type(*$C$DW$T$39)
    2094                            .dwattr $C$DW$104, DW_AT_name("hdr")
    2095                            .dwattr $C$DW$104, DW_AT_TI_symbol_name("hdr")
    2096                            .dwattr $C$DW$104, DW_AT_data_member_location[DW_OP_plus_uconst 0x0]
    2097                            .dwattr $C$DW$104, DW_AT_accessibility(DW_ACCESS_public)
    2098                            .dwattr $C$DW$104, DW_AT_decl_file("C:/ti/simplelink_cc13x0_sdk_1_50_00_08/source/ti/ti154stac
    2099                            .dwattr $C$DW$104, DW_AT_decl_line(0x269)
    2100                            .dwattr $C$DW$104, DW_AT_decl_column(0x15)
    2101                    
    2102                    $C$DW$105       .dwtag  DW_TAG_member
    2103                            .dwattr $C$DW$105, DW_AT_type(*$C$DW$T$23)
    2104                            .dwattr $C$DW$105, DW_AT_name("value")
    2105                            .dwattr $C$DW$105, DW_AT_TI_symbol_name("value")
    2106                            .dwattr $C$DW$105, DW_AT_data_member_location[DW_OP_plus_uconst 0x4]
    2107                            .dwattr $C$DW$105, DW_AT_accessibility(DW_ACCESS_public)
    2108                            .dwattr $C$DW$105, DW_AT_decl_file("C:/ti/simplelink_cc13x0_sdk_1_50_00_08/source/ti/ti154stac
    2109                            .dwattr $C$DW$105, DW_AT_decl_line(0x26b)
    2110                            .dwattr $C$DW$105, DW_AT_decl_column(0x12)
    2111                    
    2112                            .dwattr $C$DW$T$63, DW_AT_decl_file("C:/ti/simplelink_cc13x0_sdk_1_50_00_08/source/ti/ti154sta
    2113                            .dwattr $C$DW$T$63, DW_AT_decl_line(0x266)
    2114                            .dwattr $C$DW$T$63, DW_AT_decl_column(0x10)
    2115                            .dwendtag $C$DW$T$63
    2116                    
    2117                    $C$DW$T$201     .dwtag  DW_TAG_typedef
    2118                            .dwattr $C$DW$T$201, DW_AT_name("ICall_GetUint32Args")
    2119                            .dwattr $C$DW$T$201, DW_AT_type(*$C$DW$T$63)
    2120                            .dwattr $C$DW$T$201, DW_AT_language(DW_LANG_C)
    2121                            .dwattr $C$DW$T$201, DW_AT_decl_file("C:/ti/simplelink_cc13x0_sdk_1_50_00_08/source/ti/ti154st
    2122                            .dwattr $C$DW$T$201, DW_AT_decl_line(0x26c)
    2123                            .dwattr $C$DW$T$201, DW_AT_decl_column(0x03)
    2124                    
    2125                    
    2126                    $C$DW$T$65      .dwtag  DW_TAG_structure_type
    2127                            .dwattr $C$DW$T$65, DW_AT_name("_icall_intnum_args_t")
    2128                            .dwattr $C$DW$T$65, DW_AT_byte_size(0x08)
    2129                    $C$DW$106       .dwtag  DW_TAG_member
    2130                            .dwattr $C$DW$106, DW_AT_type(*$C$DW$T$39)
    2131                            .dwattr $C$DW$106, DW_AT_name("hdr")
    2132                            .dwattr $C$DW$106, DW_AT_TI_symbol_name("hdr")
    2133                            .dwattr $C$DW$106, DW_AT_data_member_location[DW_OP_plus_uconst 0x0]
    2134                            .dwattr $C$DW$106, DW_AT_accessibility(DW_ACCESS_public)
    2135                            .dwattr $C$DW$106, DW_AT_decl_file("C:/ti/simplelink_cc13x0_sdk_1_50_00_08/source/ti/ti154stac
    2136                            .dwattr $C$DW$106, DW_AT_decl_line(0x249)
    2137                            .dwattr $C$DW$106, DW_AT_decl_column(0x15)
    2138                    
    2139                    $C$DW$107       .dwtag  DW_TAG_member
    2140                            .dwattr $C$DW$107, DW_AT_type(*$C$DW$T$64)
    2141                            .dwattr $C$DW$107, DW_AT_name("intnum")
    2142                            .dwattr $C$DW$107, DW_AT_TI_symbol_name("intnum")
    2143                            .dwattr $C$DW$107, DW_AT_data_member_location[DW_OP_plus_uconst 0x4]
    2144                            .dwattr $C$DW$107, DW_AT_accessibility(DW_ACCESS_public)
    2145                            .dwattr $C$DW$107, DW_AT_decl_file("C:/ti/simplelink_cc13x0_sdk_1_50_00_08/source/ti/ti154stac
TI ARM Assembler PC v16.9.4 Sat Nov 18 18:46:28 2017

Tools Copyright (c) 1996-2017 Texas Instruments Incorporated
C:\Users\Kevin\AppData\Local\Temp\{25EC31FF-BE6A-4273-8ABE-530A93E63F10} PAGE   40

    2146                            .dwattr $C$DW$107, DW_AT_decl_line(0x24b)
    2147                            .dwattr $C$DW$107, DW_AT_decl_column(0x11)
    2148                    
    2149                            .dwattr $C$DW$T$65, DW_AT_decl_file("C:/ti/simplelink_cc13x0_sdk_1_50_00_08/source/ti/ti154sta
    2150                            .dwattr $C$DW$T$65, DW_AT_decl_line(0x246)
    2151                            .dwattr $C$DW$T$65, DW_AT_decl_column(0x10)
    2152                            .dwendtag $C$DW$T$65
    2153                    
    2154                    $C$DW$T$202     .dwtag  DW_TAG_typedef
    2155                            .dwattr $C$DW$T$202, DW_AT_name("ICall_IntNumArgs")
    2156                            .dwattr $C$DW$T$202, DW_AT_type(*$C$DW$T$65)
    2157                            .dwattr $C$DW$T$202, DW_AT_language(DW_LANG_C)
    2158                            .dwattr $C$DW$T$202, DW_AT_decl_file("C:/ti/simplelink_cc13x0_sdk_1_50_00_08/source/ti/ti154st
    2159                            .dwattr $C$DW$T$202, DW_AT_decl_line(0x24c)
    2160                            .dwattr $C$DW$T$202, DW_AT_decl_column(0x03)
    2161                    
    2162                    
    2163                    $C$DW$T$66      .dwtag  DW_TAG_structure_type
    2164                            .dwattr $C$DW$T$66, DW_AT_name("_icall_msg_hdr_t")
    2165                            .dwattr $C$DW$T$66, DW_AT_byte_size(0x0c)
    2166                    $C$DW$108       .dwtag  DW_TAG_member
    2167                            .dwattr $C$DW$108, DW_AT_type(*$C$DW$T$3)
    2168                            .dwattr $C$DW$108, DW_AT_name("next")
    2169                            .dwattr $C$DW$108, DW_AT_TI_symbol_name("next")
    2170                            .dwattr $C$DW$108, DW_AT_data_member_location[DW_OP_plus_uconst 0x0]
    2171                            .dwattr $C$DW$108, DW_AT_accessibility(DW_ACCESS_public)
    2172                            .dwattr $C$DW$108, DW_AT_decl_file("C:/ti/simplelink_cc13x0_sdk_1_50_00_08/source/ti/ti154stac
    2173                            .dwattr $C$DW$108, DW_AT_decl_line(0x317)
    2174                            .dwattr $C$DW$108, DW_AT_decl_column(0x0c)
    2175                    
    2176                    $C$DW$109       .dwtag  DW_TAG_member
    2177                            .dwattr $C$DW$109, DW_AT_type(*$C$DW$T$30)
    2178                            .dwattr $C$DW$109, DW_AT_name("srcentity")
    2179                            .dwattr $C$DW$109, DW_AT_TI_symbol_name("srcentity")
    2180                            .dwattr $C$DW$109, DW_AT_data_member_location[DW_OP_plus_uconst 0x4]
    2181                            .dwattr $C$DW$109, DW_AT_accessibility(DW_ACCESS_public)
    2182                            .dwattr $C$DW$109, DW_AT_decl_file("C:/ti/simplelink_cc13x0_sdk_1_50_00_08/source/ti/ti154stac
    2183                            .dwattr $C$DW$109, DW_AT_decl_line(0x318)
    2184                            .dwattr $C$DW$109, DW_AT_decl_column(0x0c)
    2185                    
    2186                    $C$DW$110       .dwtag  DW_TAG_member
    2187                            .dwattr $C$DW$110, DW_AT_type(*$C$DW$T$30)
    2188                            .dwattr $C$DW$110, DW_AT_name("dstentity")
    2189                            .dwattr $C$DW$110, DW_AT_TI_symbol_name("dstentity")
    2190                            .dwattr $C$DW$110, DW_AT_data_member_location[DW_OP_plus_uconst 0x5]
    2191                            .dwattr $C$DW$110, DW_AT_accessibility(DW_ACCESS_public)
    2192                            .dwattr $C$DW$110, DW_AT_decl_file("C:/ti/simplelink_cc13x0_sdk_1_50_00_08/source/ti/ti154stac
    2193                            .dwattr $C$DW$110, DW_AT_decl_line(0x319)
    2194                            .dwattr $C$DW$110, DW_AT_decl_column(0x0c)
    2195                    
    2196                    $C$DW$111       .dwtag  DW_TAG_member
    2197                            .dwattr $C$DW$111, DW_AT_type(*$C$DW$T$30)
    2198                            .dwattr $C$DW$111, DW_AT_name("format")
    2199                            .dwattr $C$DW$111, DW_AT_TI_symbol_name("format")
    2200                            .dwattr $C$DW$111, DW_AT_data_member_location[DW_OP_plus_uconst 0x6]
TI ARM Assembler PC v16.9.4 Sat Nov 18 18:46:28 2017

Tools Copyright (c) 1996-2017 Texas Instruments Incorporated
C:\Users\Kevin\AppData\Local\Temp\{25EC31FF-BE6A-4273-8ABE-530A93E63F10} PAGE   41

    2201                            .dwattr $C$DW$111, DW_AT_accessibility(DW_ACCESS_public)
    2202                            .dwattr $C$DW$111, DW_AT_decl_file("C:/ti/simplelink_cc13x0_sdk_1_50_00_08/source/ti/ti154stac
    2203                            .dwattr $C$DW$111, DW_AT_decl_line(0x31a)
    2204                            .dwattr $C$DW$111, DW_AT_decl_column(0x0c)
    2205                    
    2206                    $C$DW$112       .dwtag  DW_TAG_member
    2207                            .dwattr $C$DW$112, DW_AT_type(*$C$DW$T$33)
    2208                            .dwattr $C$DW$112, DW_AT_name("len")
    2209                            .dwattr $C$DW$112, DW_AT_TI_symbol_name("len")
    2210                            .dwattr $C$DW$112, DW_AT_data_member_location[DW_OP_plus_uconst 0x8]
    2211                            .dwattr $C$DW$112, DW_AT_accessibility(DW_ACCESS_public)
    2212                            .dwattr $C$DW$112, DW_AT_decl_file("C:/ti/simplelink_cc13x0_sdk_1_50_00_08/source/ti/ti154stac
    2213                            .dwattr $C$DW$112, DW_AT_decl_line(0x31b)
    2214                            .dwattr $C$DW$112, DW_AT_decl_column(0x0c)
    2215                    
    2216                    $C$DW$113       .dwtag  DW_TAG_member
    2217                            .dwattr $C$DW$113, DW_AT_type(*$C$DW$T$30)
    2218                            .dwattr $C$DW$113, DW_AT_name("dest_id")
    2219                            .dwattr $C$DW$113, DW_AT_TI_symbol_name("dest_id")
    2220                            .dwattr $C$DW$113, DW_AT_data_member_location[DW_OP_plus_uconst 0xa]
    2221                            .dwattr $C$DW$113, DW_AT_accessibility(DW_ACCESS_public)
    2222                            .dwattr $C$DW$113, DW_AT_decl_file("C:/ti/simplelink_cc13x0_sdk_1_50_00_08/source/ti/ti154stac
    2223                            .dwattr $C$DW$113, DW_AT_decl_line(0x31c)
    2224                            .dwattr $C$DW$113, DW_AT_decl_column(0x0c)
    2225                    
    2226                            .dwattr $C$DW$T$66, DW_AT_decl_file("C:/ti/simplelink_cc13x0_sdk_1_50_00_08/source/ti/ti154sta
    2227                            .dwattr $C$DW$T$66, DW_AT_decl_line(0x315)
    2228                            .dwattr $C$DW$T$66, DW_AT_decl_column(0x10)
    2229                            .dwendtag $C$DW$T$66
    2230                    
    2231                    $C$DW$T$27      .dwtag  DW_TAG_typedef
    2232                            .dwattr $C$DW$T$27, DW_AT_name("ICall_MsgHdr")
    2233                            .dwattr $C$DW$T$27, DW_AT_type(*$C$DW$T$66)
    2234                            .dwattr $C$DW$T$27, DW_AT_language(DW_LANG_C)
    2235                            .dwattr $C$DW$T$27, DW_AT_decl_file("C:/ti/simplelink_cc13x0_sdk_1_50_00_08/source/ti/ti154sta
    2236                            .dwattr $C$DW$T$27, DW_AT_decl_line(0x31d)
    2237                            .dwattr $C$DW$T$27, DW_AT_decl_column(0x03)
    2238                    
    2239                    
    2240                    $C$DW$T$69      .dwtag  DW_TAG_structure_type
    2241                            .dwattr $C$DW$T$69, DW_AT_name("_icall_pwr_bitmap_args_t")
    2242                            .dwattr $C$DW$T$69, DW_AT_byte_size(0x08)
    2243                    $C$DW$114       .dwtag  DW_TAG_member
    2244                            .dwattr $C$DW$114, DW_AT_type(*$C$DW$T$39)
    2245                            .dwattr $C$DW$114, DW_AT_name("hdr")
    2246                            .dwattr $C$DW$114, DW_AT_TI_symbol_name("hdr")
    2247                            .dwattr $C$DW$114, DW_AT_data_member_location[DW_OP_plus_uconst 0x0]
    2248                            .dwattr $C$DW$114, DW_AT_accessibility(DW_ACCESS_public)
    2249                            .dwattr $C$DW$114, DW_AT_decl_file("C:/ti/simplelink_cc13x0_sdk_1_50_00_08/source/ti/ti154stac
    2250                            .dwattr $C$DW$114, DW_AT_decl_line(0x290)
    2251                            .dwattr $C$DW$114, DW_AT_decl_column(0x15)
    2252                    
    2253                    $C$DW$115       .dwtag  DW_TAG_member
    2254                            .dwattr $C$DW$115, DW_AT_type(*$C$DW$T$68)
    2255                            .dwattr $C$DW$115, DW_AT_name("bitmap")
TI ARM Assembler PC v16.9.4 Sat Nov 18 18:46:28 2017

Tools Copyright (c) 1996-2017 Texas Instruments Incorporated
C:\Users\Kevin\AppData\Local\Temp\{25EC31FF-BE6A-4273-8ABE-530A93E63F10} PAGE   42

    2256                            .dwattr $C$DW$115, DW_AT_TI_symbol_name("bitmap")
    2257                            .dwattr $C$DW$115, DW_AT_data_member_location[DW_OP_plus_uconst 0x4]
    2258                            .dwattr $C$DW$115, DW_AT_accessibility(DW_ACCESS_public)
    2259                            .dwattr $C$DW$115, DW_AT_decl_file("C:/ti/simplelink_cc13x0_sdk_1_50_00_08/source/ti/ti154stac
    2260                            .dwattr $C$DW$115, DW_AT_decl_line(0x292)
    2261                            .dwattr $C$DW$115, DW_AT_decl_column(0x15)
    2262                    
    2263                            .dwattr $C$DW$T$69, DW_AT_decl_file("C:/ti/simplelink_cc13x0_sdk_1_50_00_08/source/ti/ti154sta
    2264                            .dwattr $C$DW$T$69, DW_AT_decl_line(0x28d)
    2265                            .dwattr $C$DW$T$69, DW_AT_decl_column(0x10)
    2266                            .dwendtag $C$DW$T$69
    2267                    
    2268                    $C$DW$T$203     .dwtag  DW_TAG_typedef
    2269                            .dwattr $C$DW$T$203, DW_AT_name("ICall_PwrBitmapArgs")
    2270                            .dwattr $C$DW$T$203, DW_AT_type(*$C$DW$T$69)
    2271                            .dwattr $C$DW$T$203, DW_AT_language(DW_LANG_C)
    2272                            .dwattr $C$DW$T$203, DW_AT_decl_file("C:/ti/simplelink_cc13x0_sdk_1_50_00_08/source/ti/ti154st
    2273                            .dwattr $C$DW$T$203, DW_AT_decl_line(0x293)
    2274                            .dwattr $C$DW$T$203, DW_AT_decl_column(0x03)
    2275                    
    2276                    
    2277                    $C$DW$T$71      .dwtag  DW_TAG_structure_type
    2278                            .dwattr $C$DW$T$71, DW_AT_name("_icall_pwr_get_transition_state_args_t")
    2279                            .dwattr $C$DW$T$71, DW_AT_byte_size(0x08)
    2280                    $C$DW$116       .dwtag  DW_TAG_member
    2281                            .dwattr $C$DW$116, DW_AT_type(*$C$DW$T$39)
    2282                            .dwattr $C$DW$116, DW_AT_name("hdr")
    2283                            .dwattr $C$DW$116, DW_AT_TI_symbol_name("hdr")
    2284                            .dwattr $C$DW$116, DW_AT_data_member_location[DW_OP_plus_uconst 0x0]
    2285                            .dwattr $C$DW$116, DW_AT_accessibility(DW_ACCESS_public)
    2286                            .dwattr $C$DW$116, DW_AT_decl_file("C:/ti/simplelink_cc13x0_sdk_1_50_00_08/source/ti/ti154stac
    2287                            .dwattr $C$DW$116, DW_AT_decl_line(0x29b)
    2288                            .dwattr $C$DW$116, DW_AT_decl_column(0x15)
    2289                    
    2290                    $C$DW$117       .dwtag  DW_TAG_member
    2291                            .dwattr $C$DW$117, DW_AT_type(*$C$DW$T$70)
    2292                            .dwattr $C$DW$117, DW_AT_name("state")
    2293                            .dwattr $C$DW$117, DW_AT_TI_symbol_name("state")
    2294                            .dwattr $C$DW$117, DW_AT_data_member_location[DW_OP_plus_uconst 0x4]
    2295                            .dwattr $C$DW$117, DW_AT_accessibility(DW_ACCESS_public)
    2296                            .dwattr $C$DW$117, DW_AT_decl_file("C:/ti/simplelink_cc13x0_sdk_1_50_00_08/source/ti/ti154stac
    2297                            .dwattr $C$DW$117, DW_AT_decl_line(0x29d)
    2298                            .dwattr $C$DW$117, DW_AT_decl_column(0x10)
    2299                    
    2300                            .dwattr $C$DW$T$71, DW_AT_decl_file("C:/ti/simplelink_cc13x0_sdk_1_50_00_08/source/ti/ti154sta
    2301                            .dwattr $C$DW$T$71, DW_AT_decl_line(0x298)
    2302                            .dwattr $C$DW$T$71, DW_AT_decl_column(0x10)
    2303                            .dwendtag $C$DW$T$71
    2304                    
    2305                    $C$DW$T$204     .dwtag  DW_TAG_typedef
    2306                            .dwattr $C$DW$T$204, DW_AT_name("ICall_PwrGetTransitionStateArgs")
    2307                            .dwattr $C$DW$T$204, DW_AT_type(*$C$DW$T$71)
    2308                            .dwattr $C$DW$T$204, DW_AT_language(DW_LANG_C)
    2309                            .dwattr $C$DW$T$204, DW_AT_decl_file("C:/ti/simplelink_cc13x0_sdk_1_50_00_08/source/ti/ti154st
    2310                            .dwattr $C$DW$T$204, DW_AT_decl_line(0x29e)
TI ARM Assembler PC v16.9.4 Sat Nov 18 18:46:28 2017

Tools Copyright (c) 1996-2017 Texas Instruments Incorporated
C:\Users\Kevin\AppData\Local\Temp\{25EC31FF-BE6A-4273-8ABE-530A93E63F10} PAGE   43

    2311                            .dwattr $C$DW$T$204, DW_AT_decl_column(0x03)
    2312                    
    2313                    
    2314                    $C$DW$T$72      .dwtag  DW_TAG_structure_type
    2315                            .dwattr $C$DW$T$72, DW_AT_name("_icall_pwr_get_xosc_startup_time_args_t")
    2316                            .dwattr $C$DW$T$72, DW_AT_byte_size(0x0c)
    2317                    $C$DW$118       .dwtag  DW_TAG_member
    2318                            .dwattr $C$DW$118, DW_AT_type(*$C$DW$T$39)
    2319                            .dwattr $C$DW$118, DW_AT_name("hdr")
    2320                            .dwattr $C$DW$118, DW_AT_TI_symbol_name("hdr")
    2321                            .dwattr $C$DW$118, DW_AT_data_member_location[DW_OP_plus_uconst 0x0]
    2322                            .dwattr $C$DW$118, DW_AT_accessibility(DW_ACCESS_public)
    2323                            .dwattr $C$DW$118, DW_AT_decl_file("C:/ti/simplelink_cc13x0_sdk_1_50_00_08/source/ti/ti154stac
    2324                            .dwattr $C$DW$118, DW_AT_decl_line(0x2a6)
    2325                            .dwattr $C$DW$118, DW_AT_decl_column(0x15)
    2326                    
    2327                    $C$DW$119       .dwtag  DW_TAG_member
    2328                            .dwattr $C$DW$119, DW_AT_type(*$C$DW$T$23)
    2329                            .dwattr $C$DW$119, DW_AT_name("timeUntilWakeupInMs")
    2330                            .dwattr $C$DW$119, DW_AT_TI_symbol_name("timeUntilWakeupInMs")
    2331                            .dwattr $C$DW$119, DW_AT_data_member_location[DW_OP_plus_uconst 0x4]
    2332                            .dwattr $C$DW$119, DW_AT_accessibility(DW_ACCESS_public)
    2333                            .dwattr $C$DW$119, DW_AT_decl_file("C:/ti/simplelink_cc13x0_sdk_1_50_00_08/source/ti/ti154stac
    2334                            .dwattr $C$DW$119, DW_AT_decl_line(0x2a8)
    2335                            .dwattr $C$DW$119, DW_AT_decl_column(0x12)
    2336                    
    2337                    $C$DW$120       .dwtag  DW_TAG_member
    2338                            .dwattr $C$DW$120, DW_AT_type(*$C$DW$T$23)
    2339                            .dwattr $C$DW$120, DW_AT_name("value")
    2340                            .dwattr $C$DW$120, DW_AT_TI_symbol_name("value")
    2341                            .dwattr $C$DW$120, DW_AT_data_member_location[DW_OP_plus_uconst 0x8]
    2342                            .dwattr $C$DW$120, DW_AT_accessibility(DW_ACCESS_public)
    2343                            .dwattr $C$DW$120, DW_AT_decl_file("C:/ti/simplelink_cc13x0_sdk_1_50_00_08/source/ti/ti154stac
    2344                            .dwattr $C$DW$120, DW_AT_decl_line(0x2aa)
    2345                            .dwattr $C$DW$120, DW_AT_decl_column(0x12)
    2346                    
    2347                            .dwattr $C$DW$T$72, DW_AT_decl_file("C:/ti/simplelink_cc13x0_sdk_1_50_00_08/source/ti/ti154sta
    2348                            .dwattr $C$DW$T$72, DW_AT_decl_line(0x2a3)
    2349                            .dwattr $C$DW$T$72, DW_AT_decl_column(0x10)
    2350                            .dwendtag $C$DW$T$72
    2351                    
    2352                    $C$DW$T$205     .dwtag  DW_TAG_typedef
    2353                            .dwattr $C$DW$T$205, DW_AT_name("ICall_PwrGetXOSCStartupTimeArgs")
    2354                            .dwattr $C$DW$T$205, DW_AT_type(*$C$DW$T$72)
    2355                            .dwattr $C$DW$T$205, DW_AT_language(DW_LANG_C)
    2356                            .dwattr $C$DW$T$205, DW_AT_decl_file("C:/ti/simplelink_cc13x0_sdk_1_50_00_08/source/ti/ti154st
    2357                            .dwattr $C$DW$T$205, DW_AT_decl_line(0x2ab)
    2358                            .dwattr $C$DW$T$205, DW_AT_decl_column(0x03)
    2359                    
    2360                    
    2361                    $C$DW$T$78      .dwtag  DW_TAG_structure_type
    2362                            .dwattr $C$DW$T$78, DW_AT_name("_icall_pwr_notify_data_t")
    2363                            .dwattr $C$DW$T$78, DW_AT_byte_size(0x04)
    2364                    $C$DW$121       .dwtag  DW_TAG_member
    2365                            .dwattr $C$DW$121, DW_AT_type(*$C$DW$T$77)
TI ARM Assembler PC v16.9.4 Sat Nov 18 18:46:28 2017

Tools Copyright (c) 1996-2017 Texas Instruments Incorporated
C:\Users\Kevin\AppData\Local\Temp\{25EC31FF-BE6A-4273-8ABE-530A93E63F10} PAGE   44

    2366                            .dwattr $C$DW$121, DW_AT_name("_private")
    2367                            .dwattr $C$DW$121, DW_AT_TI_symbol_name("_private")
    2368                            .dwattr $C$DW$121, DW_AT_data_member_location[DW_OP_plus_uconst 0x0]
    2369                            .dwattr $C$DW$121, DW_AT_accessibility(DW_ACCESS_public)
    2370                            .dwattr $C$DW$121, DW_AT_decl_file("C:/ti/simplelink_cc13x0_sdk_1_50_00_08/source/ti/ti154stac
    2371                            .dwattr $C$DW$121, DW_AT_decl_line(0x33f)
    2372                            .dwattr $C$DW$121, DW_AT_decl_column(0x15)
    2373                    
    2374                            .dwattr $C$DW$T$78, DW_AT_decl_file("C:/ti/simplelink_cc13x0_sdk_1_50_00_08/source/ti/ti154sta
    2375                            .dwattr $C$DW$T$78, DW_AT_decl_line(0x339)
    2376                            .dwattr $C$DW$T$78, DW_AT_decl_column(0x10)
    2377                            .dwendtag $C$DW$T$78
    2378                    
    2379                    $C$DW$T$79      .dwtag  DW_TAG_typedef
    2380                            .dwattr $C$DW$T$79, DW_AT_name("ICall_PwrNotifyData")
    2381                            .dwattr $C$DW$T$79, DW_AT_type(*$C$DW$T$78)
    2382                            .dwattr $C$DW$T$79, DW_AT_language(DW_LANG_C)
    2383                            .dwattr $C$DW$T$79, DW_AT_decl_file("C:/ti/simplelink_cc13x0_sdk_1_50_00_08/source/ti/ti154sta
    2384                            .dwattr $C$DW$T$79, DW_AT_decl_line(0x340)
    2385                            .dwattr $C$DW$T$79, DW_AT_decl_column(0x03)
    2386                    
    2387                    $C$DW$T$80      .dwtag  DW_TAG_pointer_type
    2388                            .dwattr $C$DW$T$80, DW_AT_type(*$C$DW$T$79)
    2389                            .dwattr $C$DW$T$80, DW_AT_address_class(0x20)
    2390                    
    2391                    $C$DW$T$74      .dwtag  DW_TAG_pointer_type
    2392                            .dwattr $C$DW$T$74, DW_AT_type(*$C$DW$T$78)
    2393                            .dwattr $C$DW$T$74, DW_AT_address_class(0x20)
    2394                    
    2395                    
    2396                    $C$DW$T$81      .dwtag  DW_TAG_structure_type
    2397                            .dwattr $C$DW$T$81, DW_AT_name("_icall_pwr_register_notify_args_t")
    2398                            .dwattr $C$DW$T$81, DW_AT_byte_size(0x0c)
    2399                    $C$DW$122       .dwtag  DW_TAG_member
    2400                            .dwattr $C$DW$122, DW_AT_type(*$C$DW$T$39)
    2401                            .dwattr $C$DW$122, DW_AT_name("hdr")
    2402                            .dwattr $C$DW$122, DW_AT_TI_symbol_name("hdr")
    2403                            .dwattr $C$DW$122, DW_AT_data_member_location[DW_OP_plus_uconst 0x0]
    2404                            .dwattr $C$DW$122, DW_AT_accessibility(DW_ACCESS_public)
    2405                            .dwattr $C$DW$122, DW_AT_decl_file("C:/ti/simplelink_cc13x0_sdk_1_50_00_08/source/ti/ti154stac
    2406                            .dwattr $C$DW$122, DW_AT_decl_line(0x346)
    2407                            .dwattr $C$DW$122, DW_AT_decl_column(0x15)
    2408                    
    2409                    $C$DW$123       .dwtag  DW_TAG_member
    2410                            .dwattr $C$DW$123, DW_AT_type(*$C$DW$T$77)
    2411                            .dwattr $C$DW$123, DW_AT_name("fn")
    2412                            .dwattr $C$DW$123, DW_AT_TI_symbol_name("fn")
    2413                            .dwattr $C$DW$123, DW_AT_data_member_location[DW_OP_plus_uconst 0x4]
    2414                            .dwattr $C$DW$123, DW_AT_accessibility(DW_ACCESS_public)
    2415                            .dwattr $C$DW$123, DW_AT_decl_file("C:/ti/simplelink_cc13x0_sdk_1_50_00_08/source/ti/ti154stac
    2416                            .dwattr $C$DW$123, DW_AT_decl_line(0x348)
    2417                            .dwattr $C$DW$123, DW_AT_decl_column(0x15)
    2418                    
    2419                    $C$DW$124       .dwtag  DW_TAG_member
    2420                            .dwattr $C$DW$124, DW_AT_type(*$C$DW$T$80)
TI ARM Assembler PC v16.9.4 Sat Nov 18 18:46:28 2017

Tools Copyright (c) 1996-2017 Texas Instruments Incorporated
C:\Users\Kevin\AppData\Local\Temp\{25EC31FF-BE6A-4273-8ABE-530A93E63F10} PAGE   45

    2421                            .dwattr $C$DW$124, DW_AT_name("obj")
    2422                            .dwattr $C$DW$124, DW_AT_TI_symbol_name("obj")
    2423                            .dwattr $C$DW$124, DW_AT_data_member_location[DW_OP_plus_uconst 0x8]
    2424                            .dwattr $C$DW$124, DW_AT_accessibility(DW_ACCESS_public)
    2425                            .dwattr $C$DW$124, DW_AT_decl_file("C:/ti/simplelink_cc13x0_sdk_1_50_00_08/source/ti/ti154stac
    2426                            .dwattr $C$DW$124, DW_AT_decl_line(0x34a)
    2427                            .dwattr $C$DW$124, DW_AT_decl_column(0x18)
    2428                    
    2429                            .dwattr $C$DW$T$81, DW_AT_decl_file("C:/ti/simplelink_cc13x0_sdk_1_50_00_08/source/ti/ti154sta
    2430                            .dwattr $C$DW$T$81, DW_AT_decl_line(0x343)
    2431                            .dwattr $C$DW$T$81, DW_AT_decl_column(0x10)
    2432                            .dwendtag $C$DW$T$81
    2433                    
    2434                    $C$DW$T$206     .dwtag  DW_TAG_typedef
    2435                            .dwattr $C$DW$T$206, DW_AT_name("ICall_PwrRegisterNotifyArgs")
    2436                            .dwattr $C$DW$T$206, DW_AT_type(*$C$DW$T$81)
    2437                            .dwattr $C$DW$T$206, DW_AT_language(DW_LANG_C)
    2438                            .dwattr $C$DW$T$206, DW_AT_decl_file("C:/ti/simplelink_cc13x0_sdk_1_50_00_08/source/ti/ti154st
    2439                            .dwattr $C$DW$T$206, DW_AT_decl_line(0x34b)
    2440                            .dwattr $C$DW$T$206, DW_AT_decl_column(0x03)
    2441                    
    2442                    
    2443                    $C$DW$T$82      .dwtag  DW_TAG_structure_type
    2444                            .dwattr $C$DW$T$82, DW_AT_name("_icall_pwr_upd_activity_counter_args_t")
    2445                            .dwattr $C$DW$T$82, DW_AT_byte_size(0x06)
    2446                    $C$DW$125       .dwtag  DW_TAG_member
    2447                            .dwattr $C$DW$125, DW_AT_type(*$C$DW$T$39)
    2448                            .dwattr $C$DW$125, DW_AT_name("hdr")
    2449                            .dwattr $C$DW$125, DW_AT_TI_symbol_name("hdr")
    2450                            .dwattr $C$DW$125, DW_AT_data_member_location[DW_OP_plus_uconst 0x0]
    2451                            .dwattr $C$DW$125, DW_AT_accessibility(DW_ACCESS_public)
    2452                            .dwattr $C$DW$125, DW_AT_decl_file("C:/ti/simplelink_cc13x0_sdk_1_50_00_08/source/ti/ti154stac
    2453                            .dwattr $C$DW$125, DW_AT_decl_line(0x27d)
    2454                            .dwattr $C$DW$125, DW_AT_decl_column(0x15)
    2455                    
    2456                    $C$DW$126       .dwtag  DW_TAG_member
    2457                            .dwattr $C$DW$126, DW_AT_type(*$C$DW$T$61)
    2458                            .dwattr $C$DW$126, DW_AT_name("incFlag")
    2459                            .dwattr $C$DW$126, DW_AT_TI_symbol_name("incFlag")
    2460                            .dwattr $C$DW$126, DW_AT_data_member_location[DW_OP_plus_uconst 0x4]
    2461                            .dwattr $C$DW$126, DW_AT_accessibility(DW_ACCESS_public)
    2462                            .dwattr $C$DW$126, DW_AT_decl_file("C:/ti/simplelink_cc13x0_sdk_1_50_00_08/source/ti/ti154stac
    2463                            .dwattr $C$DW$126, DW_AT_decl_line(0x27f)
    2464                            .dwattr $C$DW$126, DW_AT_decl_column(0x08)
    2465                    
    2466                    $C$DW$127       .dwtag  DW_TAG_member
    2467                            .dwattr $C$DW$127, DW_AT_type(*$C$DW$T$61)
    2468                            .dwattr $C$DW$127, DW_AT_name("pwrRequired")
    2469                            .dwattr $C$DW$127, DW_AT_TI_symbol_name("pwrRequired")
    2470                            .dwattr $C$DW$127, DW_AT_data_member_location[DW_OP_plus_uconst 0x5]
    2471                            .dwattr $C$DW$127, DW_AT_accessibility(DW_ACCESS_public)
    2472                            .dwattr $C$DW$127, DW_AT_decl_file("C:/ti/simplelink_cc13x0_sdk_1_50_00_08/source/ti/ti154stac
    2473                            .dwattr $C$DW$127, DW_AT_decl_line(0x281)
    2474                            .dwattr $C$DW$127, DW_AT_decl_column(0x08)
    2475                    
TI ARM Assembler PC v16.9.4 Sat Nov 18 18:46:28 2017

Tools Copyright (c) 1996-2017 Texas Instruments Incorporated
C:\Users\Kevin\AppData\Local\Temp\{25EC31FF-BE6A-4273-8ABE-530A93E63F10} PAGE   46

    2476                            .dwattr $C$DW$T$82, DW_AT_decl_file("C:/ti/simplelink_cc13x0_sdk_1_50_00_08/source/ti/ti154sta
    2477                            .dwattr $C$DW$T$82, DW_AT_decl_line(0x27a)
    2478                            .dwattr $C$DW$T$82, DW_AT_decl_column(0x10)
    2479                            .dwendtag $C$DW$T$82
    2480                    
    2481                    $C$DW$T$207     .dwtag  DW_TAG_typedef
    2482                            .dwattr $C$DW$T$207, DW_AT_name("ICall_PwrUpdActivityCounterArgs")
    2483                            .dwattr $C$DW$T$207, DW_AT_type(*$C$DW$T$82)
    2484                            .dwattr $C$DW$T$207, DW_AT_language(DW_LANG_C)
    2485                            .dwattr $C$DW$T$207, DW_AT_decl_file("C:/ti/simplelink_cc13x0_sdk_1_50_00_08/source/ti/ti154st
    2486                            .dwattr $C$DW$T$207, DW_AT_decl_line(0x282)
    2487                            .dwattr $C$DW$T$207, DW_AT_decl_column(0x03)
    2488                    
    2489                    
    2490                    $C$DW$T$83      .dwtag  DW_TAG_structure_type
    2491                            .dwattr $C$DW$T$83, DW_AT_name("_icall_register_app_args_t")
    2492                            .dwattr $C$DW$T$83, DW_AT_byte_size(0x0c)
    2493                    $C$DW$128       .dwtag  DW_TAG_member
    2494                            .dwattr $C$DW$128, DW_AT_type(*$C$DW$T$39)
    2495                            .dwattr $C$DW$128, DW_AT_name("hdr")
    2496                            .dwattr $C$DW$128, DW_AT_TI_symbol_name("hdr")
    2497                            .dwattr $C$DW$128, DW_AT_data_member_location[DW_OP_plus_uconst 0x0]
    2498                            .dwattr $C$DW$128, DW_AT_accessibility(DW_ACCESS_public)
    2499                            .dwattr $C$DW$128, DW_AT_decl_file("C:/ti/simplelink_cc13x0_sdk_1_50_00_08/source/ti/ti154stac
    2500                            .dwattr $C$DW$128, DW_AT_decl_line(0x1d7)
    2501                            .dwattr $C$DW$128, DW_AT_decl_column(0x15)
    2502                    
    2503                    $C$DW$129       .dwtag  DW_TAG_member
    2504                            .dwattr $C$DW$129, DW_AT_type(*$C$DW$T$32)
    2505                            .dwattr $C$DW$129, DW_AT_name("entity")
    2506                            .dwattr $C$DW$129, DW_AT_TI_symbol_name("entity")
    2507                            .dwattr $C$DW$129, DW_AT_data_member_location[DW_OP_plus_uconst 0x4]
    2508                            .dwattr $C$DW$129, DW_AT_accessibility(DW_ACCESS_public)
    2509                            .dwattr $C$DW$129, DW_AT_decl_file("C:/ti/simplelink_cc13x0_sdk_1_50_00_08/source/ti/ti154stac
    2510                            .dwattr $C$DW$129, DW_AT_decl_line(0x1d9)
    2511                            .dwattr $C$DW$129, DW_AT_decl_column(0x15)
    2512                    
    2513                    $C$DW$130       .dwtag  DW_TAG_member
    2514                            .dwattr $C$DW$130, DW_AT_type(*$C$DW$T$52)
    2515                            .dwattr $C$DW$130, DW_AT_name("msgSyncHdl")
    2516                            .dwattr $C$DW$130, DW_AT_TI_symbol_name("msgSyncHdl")
    2517                            .dwattr $C$DW$130, DW_AT_data_member_location[DW_OP_plus_uconst 0x8]
    2518                            .dwattr $C$DW$130, DW_AT_accessibility(DW_ACCESS_public)
    2519                            .dwattr $C$DW$130, DW_AT_decl_file("C:/ti/simplelink_cc13x0_sdk_1_50_00_08/source/ti/ti154stac
    2520                            .dwattr $C$DW$130, DW_AT_decl_line(0x1dc)
    2521                            .dwattr $C$DW$130, DW_AT_decl_column(0x16)
    2522                    
    2523                            .dwattr $C$DW$T$83, DW_AT_decl_file("C:/ti/simplelink_cc13x0_sdk_1_50_00_08/source/ti/ti154sta
    2524                            .dwattr $C$DW$T$83, DW_AT_decl_line(0x1d4)
    2525                            .dwattr $C$DW$T$83, DW_AT_decl_column(0x10)
    2526                            .dwendtag $C$DW$T$83
    2527                    
    2528                    $C$DW$T$208     .dwtag  DW_TAG_typedef
    2529                            .dwattr $C$DW$T$208, DW_AT_name("ICall_RegisterAppArgs")
    2530                            .dwattr $C$DW$T$208, DW_AT_type(*$C$DW$T$83)
TI ARM Assembler PC v16.9.4 Sat Nov 18 18:46:28 2017

Tools Copyright (c) 1996-2017 Texas Instruments Incorporated
C:\Users\Kevin\AppData\Local\Temp\{25EC31FF-BE6A-4273-8ABE-530A93E63F10} PAGE   47

    2531                            .dwattr $C$DW$T$208, DW_AT_language(DW_LANG_C)
    2532                            .dwattr $C$DW$T$208, DW_AT_decl_file("C:/ti/simplelink_cc13x0_sdk_1_50_00_08/source/ti/ti154st
    2533                            .dwattr $C$DW$T$208, DW_AT_decl_line(0x1dd)
    2534                            .dwattr $C$DW$T$208, DW_AT_decl_column(0x03)
    2535                    
    2536                    
    2537                    $C$DW$T$86      .dwtag  DW_TAG_structure_type
    2538                            .dwattr $C$DW$T$86, DW_AT_name("_icall_register_isr_args_ext_t")
    2539                            .dwattr $C$DW$T$86, DW_AT_byte_size(0x10)
    2540                    $C$DW$131       .dwtag  DW_TAG_member
    2541                            .dwattr $C$DW$131, DW_AT_type(*$C$DW$T$39)
    2542                            .dwattr $C$DW$131, DW_AT_name("hdr")
    2543                            .dwattr $C$DW$131, DW_AT_TI_symbol_name("hdr")
    2544                            .dwattr $C$DW$131, DW_AT_data_member_location[DW_OP_plus_uconst 0x0]
    2545                            .dwattr $C$DW$131, DW_AT_accessibility(DW_ACCESS_public)
    2546                            .dwattr $C$DW$131, DW_AT_decl_file("C:/ti/simplelink_cc13x0_sdk_1_50_00_08/source/ti/ti154stac
    2547                            .dwattr $C$DW$131, DW_AT_decl_line(0x25c)
    2548                            .dwattr $C$DW$131, DW_AT_decl_column(0x15)
    2549                    
    2550                    $C$DW$132       .dwtag  DW_TAG_member
    2551                            .dwattr $C$DW$132, DW_AT_type(*$C$DW$T$64)
    2552                            .dwattr $C$DW$132, DW_AT_name("intnum")
    2553                            .dwattr $C$DW$132, DW_AT_TI_symbol_name("intnum")
    2554                            .dwattr $C$DW$132, DW_AT_data_member_location[DW_OP_plus_uconst 0x4]
    2555                            .dwattr $C$DW$132, DW_AT_accessibility(DW_ACCESS_public)
    2556                            .dwattr $C$DW$132, DW_AT_decl_file("C:/ti/simplelink_cc13x0_sdk_1_50_00_08/source/ti/ti154stac
    2557                            .dwattr $C$DW$132, DW_AT_decl_line(0x25d)
    2558                            .dwattr $C$DW$132, DW_AT_decl_column(0x15)
    2559                    
    2560                    $C$DW$133       .dwtag  DW_TAG_member
    2561                            .dwattr $C$DW$133, DW_AT_type(*$C$DW$T$85)
    2562                            .dwattr $C$DW$133, DW_AT_name("isrfunc")
    2563                            .dwattr $C$DW$133, DW_AT_TI_symbol_name("isrfunc")
    2564                            .dwattr $C$DW$133, DW_AT_data_member_location[DW_OP_plus_uconst 0x8]
    2565                            .dwattr $C$DW$133, DW_AT_accessibility(DW_ACCESS_public)
    2566                            .dwattr $C$DW$133, DW_AT_decl_file("C:/ti/simplelink_cc13x0_sdk_1_50_00_08/source/ti/ti154stac
    2567                            .dwattr $C$DW$133, DW_AT_decl_line(0x25e)
    2568                            .dwattr $C$DW$133, DW_AT_decl_column(0x17)
    2569                    
    2570                    $C$DW$134       .dwtag  DW_TAG_member
    2571                            .dwattr $C$DW$134, DW_AT_type(*$C$DW$T$10)
    2572                            .dwattr $C$DW$134, DW_AT_name("intPriority")
    2573                            .dwattr $C$DW$134, DW_AT_TI_symbol_name("intPriority")
    2574                            .dwattr $C$DW$134, DW_AT_data_member_location[DW_OP_plus_uconst 0xc]
    2575                            .dwattr $C$DW$134, DW_AT_accessibility(DW_ACCESS_public)
    2576                            .dwattr $C$DW$134, DW_AT_decl_file("C:/ti/simplelink_cc13x0_sdk_1_50_00_08/source/ti/ti154stac
    2577                            .dwattr $C$DW$134, DW_AT_decl_line(0x25f)
    2578                            .dwattr $C$DW$134, DW_AT_decl_column(0x15)
    2579                    
    2580                            .dwattr $C$DW$T$86, DW_AT_decl_file("C:/ti/simplelink_cc13x0_sdk_1_50_00_08/source/ti/ti154sta
    2581                            .dwattr $C$DW$T$86, DW_AT_decl_line(0x25a)
    2582                            .dwattr $C$DW$T$86, DW_AT_decl_column(0x10)
    2583                            .dwendtag $C$DW$T$86
    2584                    
    2585                    $C$DW$T$209     .dwtag  DW_TAG_typedef
TI ARM Assembler PC v16.9.4 Sat Nov 18 18:46:28 2017

Tools Copyright (c) 1996-2017 Texas Instruments Incorporated
C:\Users\Kevin\AppData\Local\Temp\{25EC31FF-BE6A-4273-8ABE-530A93E63F10} PAGE   48

    2586                            .dwattr $C$DW$T$209, DW_AT_name("ICall_RegisterISRArgs_Ext")
    2587                            .dwattr $C$DW$T$209, DW_AT_type(*$C$DW$T$86)
    2588                            .dwattr $C$DW$T$209, DW_AT_language(DW_LANG_C)
    2589                            .dwattr $C$DW$T$209, DW_AT_decl_file("C:/ti/simplelink_cc13x0_sdk_1_50_00_08/source/ti/ti154st
    2590                            .dwattr $C$DW$T$209, DW_AT_decl_line(0x260)
    2591                            .dwattr $C$DW$T$209, DW_AT_decl_column(0x03)
    2592                    
    2593                    
    2594                    $C$DW$T$87      .dwtag  DW_TAG_structure_type
    2595                            .dwattr $C$DW$T$87, DW_AT_name("_icall_register_isr_args_t")
    2596                            .dwattr $C$DW$T$87, DW_AT_byte_size(0x0c)
    2597                    $C$DW$135       .dwtag  DW_TAG_member
    2598                            .dwattr $C$DW$135, DW_AT_type(*$C$DW$T$39)
    2599                            .dwattr $C$DW$135, DW_AT_name("hdr")
    2600                            .dwattr $C$DW$135, DW_AT_TI_symbol_name("hdr")
    2601                            .dwattr $C$DW$135, DW_AT_data_member_location[DW_OP_plus_uconst 0x0]
    2602                            .dwattr $C$DW$135, DW_AT_accessibility(DW_ACCESS_public)
    2603                            .dwattr $C$DW$135, DW_AT_decl_file("C:/ti/simplelink_cc13x0_sdk_1_50_00_08/source/ti/ti154stac
    2604                            .dwattr $C$DW$135, DW_AT_decl_line(0x252)
    2605                            .dwattr $C$DW$135, DW_AT_decl_column(0x15)
    2606                    
    2607                    $C$DW$136       .dwtag  DW_TAG_member
    2608                            .dwattr $C$DW$136, DW_AT_type(*$C$DW$T$64)
    2609                            .dwattr $C$DW$136, DW_AT_name("intnum")
    2610                            .dwattr $C$DW$136, DW_AT_TI_symbol_name("intnum")
    2611                            .dwattr $C$DW$136, DW_AT_data_member_location[DW_OP_plus_uconst 0x4]
    2612                            .dwattr $C$DW$136, DW_AT_accessibility(DW_ACCESS_public)
    2613                            .dwattr $C$DW$136, DW_AT_decl_file("C:/ti/simplelink_cc13x0_sdk_1_50_00_08/source/ti/ti154stac
    2614                            .dwattr $C$DW$136, DW_AT_decl_line(0x254)
    2615                            .dwattr $C$DW$136, DW_AT_decl_column(0x11)
    2616                    
    2617                    $C$DW$137       .dwtag  DW_TAG_member
    2618                            .dwattr $C$DW$137, DW_AT_type(*$C$DW$T$85)
    2619                            .dwattr $C$DW$137, DW_AT_name("isrfunc")
    2620                            .dwattr $C$DW$137, DW_AT_TI_symbol_name("isrfunc")
    2621                            .dwattr $C$DW$137, DW_AT_data_member_location[DW_OP_plus_uconst 0x8]
    2622                            .dwattr $C$DW$137, DW_AT_accessibility(DW_ACCESS_public)
    2623                            .dwattr $C$DW$137, DW_AT_decl_file("C:/ti/simplelink_cc13x0_sdk_1_50_00_08/source/ti/ti154stac
    2624                            .dwattr $C$DW$137, DW_AT_decl_line(0x256)
    2625                            .dwattr $C$DW$137, DW_AT_decl_column(0x0a)
    2626                    
    2627                            .dwattr $C$DW$T$87, DW_AT_decl_file("C:/ti/simplelink_cc13x0_sdk_1_50_00_08/source/ti/ti154sta
    2628                            .dwattr $C$DW$T$87, DW_AT_decl_line(0x24f)
    2629                            .dwattr $C$DW$T$87, DW_AT_decl_column(0x10)
    2630                            .dwendtag $C$DW$T$87
    2631                    
    2632                    $C$DW$T$210     .dwtag  DW_TAG_typedef
    2633                            .dwattr $C$DW$T$210, DW_AT_name("ICall_RegisterISRArgs")
    2634                            .dwattr $C$DW$T$210, DW_AT_type(*$C$DW$T$87)
    2635                            .dwattr $C$DW$T$210, DW_AT_language(DW_LANG_C)
    2636                            .dwattr $C$DW$T$210, DW_AT_decl_file("C:/ti/simplelink_cc13x0_sdk_1_50_00_08/source/ti/ti154st
    2637                            .dwattr $C$DW$T$210, DW_AT_decl_line(0x257)
    2638                            .dwattr $C$DW$T$210, DW_AT_decl_column(0x03)
    2639                    
    2640                    
TI ARM Assembler PC v16.9.4 Sat Nov 18 18:46:28 2017

Tools Copyright (c) 1996-2017 Texas Instruments Incorporated
C:\Users\Kevin\AppData\Local\Temp\{25EC31FF-BE6A-4273-8ABE-530A93E63F10} PAGE   49

    2641                    $C$DW$T$96      .dwtag  DW_TAG_structure_type
    2642                            .dwattr $C$DW$T$96, DW_AT_name("_icall_remote_task_arg_t")
    2643                            .dwattr $C$DW$T$96, DW_AT_byte_size(0x0c)
    2644                    $C$DW$138       .dwtag  DW_TAG_member
    2645                            .dwattr $C$DW$138, DW_AT_type(*$C$DW$T$88)
    2646                            .dwattr $C$DW$138, DW_AT_name("dispatch")
    2647                            .dwattr $C$DW$138, DW_AT_TI_symbol_name("dispatch")
    2648                            .dwattr $C$DW$138, DW_AT_data_member_location[DW_OP_plus_uconst 0x0]
    2649                            .dwattr $C$DW$138, DW_AT_accessibility(DW_ACCESS_public)
    2650                            .dwattr $C$DW$138, DW_AT_decl_file("C:/ti/simplelink_cc13x0_sdk_1_50_00_08/source/ti/ti154stac
    2651                            .dwattr $C$DW$138, DW_AT_decl_line(0x38d)
    2652                            .dwattr $C$DW$138, DW_AT_decl_column(0x14)
    2653                    
    2654                    $C$DW$139       .dwtag  DW_TAG_member
    2655                            .dwattr $C$DW$139, DW_AT_type(*$C$DW$T$92)
    2656                            .dwattr $C$DW$139, DW_AT_name("entercs")
    2657                            .dwattr $C$DW$139, DW_AT_TI_symbol_name("entercs")
    2658                            .dwattr $C$DW$139, DW_AT_data_member_location[DW_OP_plus_uconst 0x4]
    2659                            .dwattr $C$DW$139, DW_AT_accessibility(DW_ACCESS_public)
    2660                            .dwattr $C$DW$139, DW_AT_decl_file("C:/ti/simplelink_cc13x0_sdk_1_50_00_08/source/ti/ti154stac
    2661                            .dwattr $C$DW$139, DW_AT_decl_line(0x38e)
    2662                            .dwattr $C$DW$139, DW_AT_decl_column(0x11)
    2663                    
    2664                    $C$DW$140       .dwtag  DW_TAG_member
    2665                            .dwattr $C$DW$140, DW_AT_type(*$C$DW$T$95)
    2666                            .dwattr $C$DW$140, DW_AT_name("leavecs")
    2667                            .dwattr $C$DW$140, DW_AT_TI_symbol_name("leavecs")
    2668                            .dwattr $C$DW$140, DW_AT_data_member_location[DW_OP_plus_uconst 0x8]
    2669                            .dwattr $C$DW$140, DW_AT_accessibility(DW_ACCESS_public)
    2670                            .dwattr $C$DW$140, DW_AT_decl_file("C:/ti/simplelink_cc13x0_sdk_1_50_00_08/source/ti/ti154stac
    2671                            .dwattr $C$DW$140, DW_AT_decl_line(0x38f)
    2672                            .dwattr $C$DW$140, DW_AT_decl_column(0x11)
    2673                    
    2674                            .dwattr $C$DW$T$96, DW_AT_decl_file("C:/ti/simplelink_cc13x0_sdk_1_50_00_08/source/ti/ti154sta
    2675                            .dwattr $C$DW$T$96, DW_AT_decl_line(0x38b)
    2676                            .dwattr $C$DW$T$96, DW_AT_decl_column(0x10)
    2677                            .dwendtag $C$DW$T$96
    2678                    
    2679                    $C$DW$T$130     .dwtag  DW_TAG_typedef
    2680                            .dwattr $C$DW$T$130, DW_AT_name("ICall_RemoteTaskArg")
    2681                            .dwattr $C$DW$T$130, DW_AT_type(*$C$DW$T$96)
    2682                            .dwattr $C$DW$T$130, DW_AT_language(DW_LANG_C)
    2683                            .dwattr $C$DW$T$130, DW_AT_decl_file("C:/ti/simplelink_cc13x0_sdk_1_50_00_08/source/ti/ti154st
    2684                            .dwattr $C$DW$T$130, DW_AT_decl_line(0x390)
    2685                            .dwattr $C$DW$T$130, DW_AT_decl_column(0x03)
    2686                    
    2687                    $C$DW$T$131     .dwtag  DW_TAG_const_type
    2688                            .dwattr $C$DW$T$131, DW_AT_type(*$C$DW$T$130)
    2689                    
    2690                    $C$DW$T$132     .dwtag  DW_TAG_pointer_type
    2691                            .dwattr $C$DW$T$132, DW_AT_type(*$C$DW$T$131)
    2692                            .dwattr $C$DW$T$132, DW_AT_address_class(0x20)
    2693                    
    2694                    $C$DW$T$211     .dwtag  DW_TAG_const_type
    2695                            .dwattr $C$DW$T$211, DW_AT_type(*$C$DW$T$132)
TI ARM Assembler PC v16.9.4 Sat Nov 18 18:46:28 2017

Tools Copyright (c) 1996-2017 Texas Instruments Incorporated
C:\Users\Kevin\AppData\Local\Temp\{25EC31FF-BE6A-4273-8ABE-530A93E63F10} PAGE   50

    2696                    
    2697                    
    2698                    $C$DW$T$98      .dwtag  DW_TAG_structure_type
    2699                            .dwattr $C$DW$T$98, DW_AT_name("_icall_send_args_t")
    2700                            .dwattr $C$DW$T$98, DW_AT_byte_size(0x10)
    2701                    $C$DW$141       .dwtag  DW_TAG_member
    2702                            .dwattr $C$DW$141, DW_AT_type(*$C$DW$T$39)
    2703                            .dwattr $C$DW$141, DW_AT_name("hdr")
    2704                            .dwattr $C$DW$141, DW_AT_TI_symbol_name("hdr")
    2705                            .dwattr $C$DW$141, DW_AT_data_member_location[DW_OP_plus_uconst 0x0]
    2706                            .dwattr $C$DW$141, DW_AT_accessibility(DW_ACCESS_public)
    2707                            .dwattr $C$DW$141, DW_AT_decl_file("C:/ti/simplelink_cc13x0_sdk_1_50_00_08/source/ti/ti154stac
    2708                            .dwattr $C$DW$141, DW_AT_decl_line(0x1f7)
    2709                            .dwattr $C$DW$141, DW_AT_decl_column(0x15)
    2710                    
    2711                    $C$DW$142       .dwtag  DW_TAG_member
    2712                            .dwattr $C$DW$142, DW_AT_type(*$C$DW$T$32)
    2713                            .dwattr $C$DW$142, DW_AT_name("src")
    2714                            .dwattr $C$DW$142, DW_AT_TI_symbol_name("src")
    2715                            .dwattr $C$DW$142, DW_AT_data_member_location[DW_OP_plus_uconst 0x4]
    2716                            .dwattr $C$DW$142, DW_AT_accessibility(DW_ACCESS_public)
    2717                            .dwattr $C$DW$142, DW_AT_decl_file("C:/ti/simplelink_cc13x0_sdk_1_50_00_08/source/ti/ti154stac
    2718                            .dwattr $C$DW$142, DW_AT_decl_line(0x1f9)
    2719                            .dwattr $C$DW$142, DW_AT_decl_column(0x12)
    2720                    
    2721                    $C$DW$143       .dwtag  DW_TAG_member
    2722                            .dwattr $C$DW$143, DW_AT_type(*$C$DW$T$36)
    2723                            .dwattr $C$DW$143, DW_AT_name("dest")
    2724                            .dwattr $C$DW$143, DW_AT_TI_symbol_name("dest")
    2725                            .dwattr $C$DW$143, DW_AT_data_member_location[DW_OP_plus_uconst 0x6]
    2726                            .dwattr $C$DW$143, DW_AT_accessibility(DW_ACCESS_public)
    2727                            .dwattr $C$DW$143, DW_AT_decl_file("C:/ti/simplelink_cc13x0_sdk_1_50_00_08/source/ti/ti154stac
    2728                            .dwattr $C$DW$143, DW_AT_decl_line(0x201)
    2729                            .dwattr $C$DW$143, DW_AT_decl_column(0x05)
    2730                    
    2731                    $C$DW$144       .dwtag  DW_TAG_member
    2732                            .dwattr $C$DW$144, DW_AT_type(*$C$DW$T$97)
    2733                            .dwattr $C$DW$144, DW_AT_name("format")
    2734                            .dwattr $C$DW$144, DW_AT_TI_symbol_name("format")
    2735                            .dwattr $C$DW$144, DW_AT_data_member_location[DW_OP_plus_uconst 0x8]
    2736                            .dwattr $C$DW$144, DW_AT_accessibility(DW_ACCESS_public)
    2737                            .dwattr $C$DW$144, DW_AT_decl_file("C:/ti/simplelink_cc13x0_sdk_1_50_00_08/source/ti/ti154stac
    2738                            .dwattr $C$DW$144, DW_AT_decl_line(0x203)
    2739                            .dwattr $C$DW$144, DW_AT_decl_column(0x13)
    2740                    
    2741                    $C$DW$145       .dwtag  DW_TAG_member
    2742                            .dwattr $C$DW$145, DW_AT_type(*$C$DW$T$3)
    2743                            .dwattr $C$DW$145, DW_AT_name("msg")
    2744                            .dwattr $C$DW$145, DW_AT_TI_symbol_name("msg")
    2745                            .dwattr $C$DW$145, DW_AT_data_member_location[DW_OP_plus_uconst 0xc]
    2746                            .dwattr $C$DW$145, DW_AT_accessibility(DW_ACCESS_public)
    2747                            .dwattr $C$DW$145, DW_AT_decl_file("C:/ti/simplelink_cc13x0_sdk_1_50_00_08/source/ti/ti154stac
    2748                            .dwattr $C$DW$145, DW_AT_decl_line(0x205)
    2749                            .dwattr $C$DW$145, DW_AT_decl_column(0x09)
    2750                    
TI ARM Assembler PC v16.9.4 Sat Nov 18 18:46:28 2017

Tools Copyright (c) 1996-2017 Texas Instruments Incorporated
C:\Users\Kevin\AppData\Local\Temp\{25EC31FF-BE6A-4273-8ABE-530A93E63F10} PAGE   51

    2751                            .dwattr $C$DW$T$98, DW_AT_decl_file("C:/ti/simplelink_cc13x0_sdk_1_50_00_08/source/ti/ti154sta
    2752                            .dwattr $C$DW$T$98, DW_AT_decl_line(0x1f4)
    2753                            .dwattr $C$DW$T$98, DW_AT_decl_column(0x10)
    2754                            .dwendtag $C$DW$T$98
    2755                    
    2756                    $C$DW$T$216     .dwtag  DW_TAG_typedef
    2757                            .dwattr $C$DW$T$216, DW_AT_name("ICall_SendArgs")
    2758                            .dwattr $C$DW$T$216, DW_AT_type(*$C$DW$T$98)
    2759                            .dwattr $C$DW$T$216, DW_AT_language(DW_LANG_C)
    2760                            .dwattr $C$DW$T$216, DW_AT_decl_file("C:/ti/simplelink_cc13x0_sdk_1_50_00_08/source/ti/ti154st
    2761                            .dwattr $C$DW$T$216, DW_AT_decl_line(0x206)
    2762                            .dwattr $C$DW$T$216, DW_AT_decl_column(0x03)
    2763                    
    2764                    
    2765                    $C$DW$T$103     .dwtag  DW_TAG_structure_type
    2766                            .dwattr $C$DW$T$103, DW_AT_name("_icall_set_timer_args_t")
    2767                            .dwattr $C$DW$T$103, DW_AT_byte_size(0x14)
    2768                    $C$DW$146       .dwtag  DW_TAG_member
    2769                            .dwattr $C$DW$146, DW_AT_type(*$C$DW$T$39)
    2770                            .dwattr $C$DW$146, DW_AT_name("hdr")
    2771                            .dwattr $C$DW$146, DW_AT_TI_symbol_name("hdr")
    2772                            .dwattr $C$DW$146, DW_AT_data_member_location[DW_OP_plus_uconst 0x0]
    2773                            .dwattr $C$DW$146, DW_AT_accessibility(DW_ACCESS_public)
    2774                            .dwattr $C$DW$146, DW_AT_decl_file("C:/ti/simplelink_cc13x0_sdk_1_50_00_08/source/ti/ti154stac
    2775                            .dwattr $C$DW$146, DW_AT_decl_line(0x3b9)
    2776                            .dwattr $C$DW$146, DW_AT_decl_column(0x15)
    2777                    
    2778                    $C$DW$147       .dwtag  DW_TAG_member
    2779                            .dwattr $C$DW$147, DW_AT_type(*$C$DW$T$23)
    2780                            .dwattr $C$DW$147, DW_AT_name("timeout")
    2781                            .dwattr $C$DW$147, DW_AT_TI_symbol_name("timeout")
    2782                            .dwattr $C$DW$147, DW_AT_data_member_location[DW_OP_plus_uconst 0x4]
    2783                            .dwattr $C$DW$147, DW_AT_accessibility(DW_ACCESS_public)
    2784                            .dwattr $C$DW$147, DW_AT_decl_file("C:/ti/simplelink_cc13x0_sdk_1_50_00_08/source/ti/ti154stac
    2785                            .dwattr $C$DW$147, DW_AT_decl_line(0x3bb)
    2786                            .dwattr $C$DW$147, DW_AT_decl_column(0x12)
    2787                    
    2788                    $C$DW$148       .dwtag  DW_TAG_member
    2789                            .dwattr $C$DW$148, DW_AT_type(*$C$DW$T$99)
    2790                            .dwattr $C$DW$148, DW_AT_name("timerid")
    2791                            .dwattr $C$DW$148, DW_AT_TI_symbol_name("timerid")
    2792                            .dwattr $C$DW$148, DW_AT_data_member_location[DW_OP_plus_uconst 0x8]
    2793                            .dwattr $C$DW$148, DW_AT_accessibility(DW_ACCESS_public)
    2794                            .dwattr $C$DW$148, DW_AT_decl_file("C:/ti/simplelink_cc13x0_sdk_1_50_00_08/source/ti/ti154stac
    2795                            .dwattr $C$DW$148, DW_AT_decl_line(0x3bd)
    2796                            .dwattr $C$DW$148, DW_AT_decl_column(0x11)
    2797                    
    2798                    $C$DW$149       .dwtag  DW_TAG_member
    2799                            .dwattr $C$DW$149, DW_AT_type(*$C$DW$T$102)
    2800                            .dwattr $C$DW$149, DW_AT_name("cback")
    2801                            .dwattr $C$DW$149, DW_AT_TI_symbol_name("cback")
    2802                            .dwattr $C$DW$149, DW_AT_data_member_location[DW_OP_plus_uconst 0xc]
    2803                            .dwattr $C$DW$149, DW_AT_accessibility(DW_ACCESS_public)
    2804                            .dwattr $C$DW$149, DW_AT_decl_file("C:/ti/simplelink_cc13x0_sdk_1_50_00_08/source/ti/ti154stac
    2805                            .dwattr $C$DW$149, DW_AT_decl_line(0x3bf)
TI ARM Assembler PC v16.9.4 Sat Nov 18 18:46:28 2017

Tools Copyright (c) 1996-2017 Texas Instruments Incorporated
C:\Users\Kevin\AppData\Local\Temp\{25EC31FF-BE6A-4273-8ABE-530A93E63F10} PAGE   52

    2806                            .dwattr $C$DW$149, DW_AT_decl_column(0x14)
    2807                    
    2808                    $C$DW$150       .dwtag  DW_TAG_member
    2809                            .dwattr $C$DW$150, DW_AT_type(*$C$DW$T$3)
    2810                            .dwattr $C$DW$150, DW_AT_name("arg")
    2811                            .dwattr $C$DW$150, DW_AT_TI_symbol_name("arg")
    2812                            .dwattr $C$DW$150, DW_AT_data_member_location[DW_OP_plus_uconst 0x10]
    2813                            .dwattr $C$DW$150, DW_AT_accessibility(DW_ACCESS_public)
    2814                            .dwattr $C$DW$150, DW_AT_decl_file("C:/ti/simplelink_cc13x0_sdk_1_50_00_08/source/ti/ti154stac
    2815                            .dwattr $C$DW$150, DW_AT_decl_line(0x3c1)
    2816                            .dwattr $C$DW$150, DW_AT_decl_column(0x09)
    2817                    
    2818                            .dwattr $C$DW$T$103, DW_AT_decl_file("C:/ti/simplelink_cc13x0_sdk_1_50_00_08/source/ti/ti154st
    2819                            .dwattr $C$DW$T$103, DW_AT_decl_line(0x3b6)
    2820                            .dwattr $C$DW$T$103, DW_AT_decl_column(0x10)
    2821                            .dwendtag $C$DW$T$103
    2822                    
    2823                    $C$DW$T$217     .dwtag  DW_TAG_typedef
    2824                            .dwattr $C$DW$T$217, DW_AT_name("ICall_SetTimerArgs")
    2825                            .dwattr $C$DW$T$217, DW_AT_type(*$C$DW$T$103)
    2826                            .dwattr $C$DW$T$217, DW_AT_language(DW_LANG_C)
    2827                            .dwattr $C$DW$T$217, DW_AT_decl_file("C:/ti/simplelink_cc13x0_sdk_1_50_00_08/source/ti/ti154st
    2828                            .dwattr $C$DW$T$217, DW_AT_decl_line(0x3c2)
    2829                            .dwattr $C$DW$T$217, DW_AT_decl_column(0x03)
    2830                    
    2831                    
    2832                    $C$DW$T$104     .dwtag  DW_TAG_structure_type
    2833                            .dwattr $C$DW$T$104, DW_AT_name("_icall_signal_args_t")
    2834                            .dwattr $C$DW$T$104, DW_AT_byte_size(0x08)
    2835                    $C$DW$151       .dwtag  DW_TAG_member
    2836                            .dwattr $C$DW$151, DW_AT_type(*$C$DW$T$39)
    2837                            .dwattr $C$DW$151, DW_AT_name("hdr")
    2838                            .dwattr $C$DW$151, DW_AT_TI_symbol_name("hdr")
    2839                            .dwattr $C$DW$151, DW_AT_data_member_location[DW_OP_plus_uconst 0x0]
    2840                            .dwattr $C$DW$151, DW_AT_accessibility(DW_ACCESS_public)
    2841                            .dwattr $C$DW$151, DW_AT_decl_file("C:/ti/simplelink_cc13x0_sdk_1_50_00_08/source/ti/ti154stac
    2842                            .dwattr $C$DW$151, DW_AT_decl_line(0x228)
    2843                            .dwattr $C$DW$151, DW_AT_decl_column(0x15)
    2844                    
    2845                    $C$DW$152       .dwtag  DW_TAG_member
    2846                            .dwattr $C$DW$152, DW_AT_type(*$C$DW$T$52)
    2847                            .dwattr $C$DW$152, DW_AT_name("syncHandle")
    2848                            .dwattr $C$DW$152, DW_AT_TI_symbol_name("syncHandle")
    2849                            .dwattr $C$DW$152, DW_AT_data_member_location[DW_OP_plus_uconst 0x4]
    2850                            .dwattr $C$DW$152, DW_AT_accessibility(DW_ACCESS_public)
    2851                            .dwattr $C$DW$152, DW_AT_decl_file("C:/ti/simplelink_cc13x0_sdk_1_50_00_08/source/ti/ti154stac
    2852                            .dwattr $C$DW$152, DW_AT_decl_line(0x22a)
    2853                            .dwattr $C$DW$152, DW_AT_decl_column(0x14)
    2854                    
    2855                            .dwattr $C$DW$T$104, DW_AT_decl_file("C:/ti/simplelink_cc13x0_sdk_1_50_00_08/source/ti/ti154st
    2856                            .dwattr $C$DW$T$104, DW_AT_decl_line(0x225)
    2857                            .dwattr $C$DW$T$104, DW_AT_decl_column(0x10)
    2858                            .dwendtag $C$DW$T$104
    2859                    
    2860                    $C$DW$T$218     .dwtag  DW_TAG_typedef
TI ARM Assembler PC v16.9.4 Sat Nov 18 18:46:28 2017

Tools Copyright (c) 1996-2017 Texas Instruments Incorporated
C:\Users\Kevin\AppData\Local\Temp\{25EC31FF-BE6A-4273-8ABE-530A93E63F10} PAGE   53

    2861                            .dwattr $C$DW$T$218, DW_AT_name("ICall_SignalArgs")
    2862                            .dwattr $C$DW$T$218, DW_AT_type(*$C$DW$T$104)
    2863                            .dwattr $C$DW$T$218, DW_AT_language(DW_LANG_C)
    2864                            .dwattr $C$DW$T$218, DW_AT_decl_file("C:/ti/simplelink_cc13x0_sdk_1_50_00_08/source/ti/ti154st
    2865                            .dwattr $C$DW$T$218, DW_AT_decl_line(0x22b)
    2866                            .dwattr $C$DW$T$218, DW_AT_decl_column(0x03)
    2867                    
    2868                    
    2869                    $C$DW$T$105     .dwtag  DW_TAG_structure_type
    2870                            .dwattr $C$DW$T$105, DW_AT_name("_icall_signal_events_args_t")
    2871                            .dwattr $C$DW$T$105, DW_AT_byte_size(0x0c)
    2872                    $C$DW$153       .dwtag  DW_TAG_member
    2873                            .dwattr $C$DW$153, DW_AT_type(*$C$DW$T$39)
    2874                            .dwattr $C$DW$153, DW_AT_name("hdr")
    2875                            .dwattr $C$DW$153, DW_AT_TI_symbol_name("hdr")
    2876                            .dwattr $C$DW$153, DW_AT_data_member_location[DW_OP_plus_uconst 0x0]
    2877                            .dwattr $C$DW$153, DW_AT_accessibility(DW_ACCESS_public)
    2878                            .dwattr $C$DW$153, DW_AT_decl_file("C:/ti/simplelink_cc13x0_sdk_1_50_00_08/source/ti/ti154stac
    2879                            .dwattr $C$DW$153, DW_AT_decl_line(0x231)
    2880                            .dwattr $C$DW$153, DW_AT_decl_column(0x15)
    2881                    
    2882                    $C$DW$154       .dwtag  DW_TAG_member
    2883                            .dwattr $C$DW$154, DW_AT_type(*$C$DW$T$52)
    2884                            .dwattr $C$DW$154, DW_AT_name("syncHandle")
    2885                            .dwattr $C$DW$154, DW_AT_TI_symbol_name("syncHandle")
    2886                            .dwattr $C$DW$154, DW_AT_data_member_location[DW_OP_plus_uconst 0x4]
    2887                            .dwattr $C$DW$154, DW_AT_accessibility(DW_ACCESS_public)
    2888                            .dwattr $C$DW$154, DW_AT_decl_file("C:/ti/simplelink_cc13x0_sdk_1_50_00_08/source/ti/ti154stac
    2889                            .dwattr $C$DW$154, DW_AT_decl_line(0x233)
    2890                            .dwattr $C$DW$154, DW_AT_decl_column(0x14)
    2891                    
    2892                    $C$DW$155       .dwtag  DW_TAG_member
    2893                            .dwattr $C$DW$155, DW_AT_type(*$C$DW$T$22)
    2894                            .dwattr $C$DW$155, DW_AT_name("events")
    2895                            .dwattr $C$DW$155, DW_AT_TI_symbol_name("events")
    2896                            .dwattr $C$DW$155, DW_AT_data_member_location[DW_OP_plus_uconst 0x8]
    2897                            .dwattr $C$DW$155, DW_AT_accessibility(DW_ACCESS_public)
    2898                            .dwattr $C$DW$155, DW_AT_decl_file("C:/ti/simplelink_cc13x0_sdk_1_50_00_08/source/ti/ti154stac
    2899                            .dwattr $C$DW$155, DW_AT_decl_line(0x234)
    2900                            .dwattr $C$DW$155, DW_AT_decl_column(0x15)
    2901                    
    2902                            .dwattr $C$DW$T$105, DW_AT_decl_file("C:/ti/simplelink_cc13x0_sdk_1_50_00_08/source/ti/ti154st
    2903                            .dwattr $C$DW$T$105, DW_AT_decl_line(0x22e)
    2904                            .dwattr $C$DW$T$105, DW_AT_decl_column(0x10)
    2905                            .dwendtag $C$DW$T$105
    2906                    
    2907                    $C$DW$T$219     .dwtag  DW_TAG_typedef
    2908                            .dwattr $C$DW$T$219, DW_AT_name("ICall_SignalEventsArgs")
    2909                            .dwattr $C$DW$T$219, DW_AT_type(*$C$DW$T$105)
    2910                            .dwattr $C$DW$T$219, DW_AT_language(DW_LANG_C)
    2911                            .dwattr $C$DW$T$219, DW_AT_decl_file("C:/ti/simplelink_cc13x0_sdk_1_50_00_08/source/ti/ti154st
    2912                            .dwattr $C$DW$T$219, DW_AT_decl_line(0x235)
    2913                            .dwattr $C$DW$T$219, DW_AT_decl_column(0x03)
    2914                    
    2915                    
TI ARM Assembler PC v16.9.4 Sat Nov 18 18:46:28 2017

Tools Copyright (c) 1996-2017 Texas Instruments Incorporated
C:\Users\Kevin\AppData\Local\Temp\{25EC31FF-BE6A-4273-8ABE-530A93E63F10} PAGE   54

    2916                    $C$DW$T$106     .dwtag  DW_TAG_structure_type
    2917                            .dwattr $C$DW$T$106, DW_AT_name("_icall_stop_timer_args_t")
    2918                            .dwattr $C$DW$T$106, DW_AT_byte_size(0x08)
    2919                    $C$DW$156       .dwtag  DW_TAG_member
    2920                            .dwattr $C$DW$156, DW_AT_type(*$C$DW$T$39)
    2921                            .dwattr $C$DW$156, DW_AT_name("hdr")
    2922                            .dwattr $C$DW$156, DW_AT_TI_symbol_name("hdr")
    2923                            .dwattr $C$DW$156, DW_AT_data_member_location[DW_OP_plus_uconst 0x0]
    2924                            .dwattr $C$DW$156, DW_AT_accessibility(DW_ACCESS_public)
    2925                            .dwattr $C$DW$156, DW_AT_decl_file("C:/ti/simplelink_cc13x0_sdk_1_50_00_08/source/ti/ti154stac
    2926                            .dwattr $C$DW$156, DW_AT_decl_line(0x3c8)
    2927                            .dwattr $C$DW$156, DW_AT_decl_column(0x15)
    2928                    
    2929                    $C$DW$157       .dwtag  DW_TAG_member
    2930                            .dwattr $C$DW$157, DW_AT_type(*$C$DW$T$99)
    2931                            .dwattr $C$DW$157, DW_AT_name("timerid")
    2932                            .dwattr $C$DW$157, DW_AT_TI_symbol_name("timerid")
    2933                            .dwattr $C$DW$157, DW_AT_data_member_location[DW_OP_plus_uconst 0x4]
    2934                            .dwattr $C$DW$157, DW_AT_accessibility(DW_ACCESS_public)
    2935                            .dwattr $C$DW$157, DW_AT_decl_file("C:/ti/simplelink_cc13x0_sdk_1_50_00_08/source/ti/ti154stac
    2936                            .dwattr $C$DW$157, DW_AT_decl_line(0x3ca)
    2937                            .dwattr $C$DW$157, DW_AT_decl_column(0x11)
    2938                    
    2939                            .dwattr $C$DW$T$106, DW_AT_decl_file("C:/ti/simplelink_cc13x0_sdk_1_50_00_08/source/ti/ti154st
    2940                            .dwattr $C$DW$T$106, DW_AT_decl_line(0x3c5)
    2941                            .dwattr $C$DW$T$106, DW_AT_decl_column(0x10)
    2942                            .dwendtag $C$DW$T$106
    2943                    
    2944                    $C$DW$T$220     .dwtag  DW_TAG_typedef
    2945                            .dwattr $C$DW$T$220, DW_AT_name("ICall_StopTimerArgs")
    2946                            .dwattr $C$DW$T$220, DW_AT_type(*$C$DW$T$106)
    2947                            .dwattr $C$DW$T$220, DW_AT_language(DW_LANG_C)
    2948                            .dwattr $C$DW$T$220, DW_AT_decl_file("C:/ti/simplelink_cc13x0_sdk_1_50_00_08/source/ti/ti154st
    2949                            .dwattr $C$DW$T$220, DW_AT_decl_line(0x3cb)
    2950                            .dwattr $C$DW$T$220, DW_AT_decl_column(0x03)
    2951                    
    2952                    
    2953                    $C$DW$T$107     .dwtag  DW_TAG_structure_type
    2954                            .dwattr $C$DW$T$107, DW_AT_name("_icall_thread_serves_args_t")
    2955                            .dwattr $C$DW$T$107, DW_AT_byte_size(0x0c)
    2956                    $C$DW$158       .dwtag  DW_TAG_member
    2957                            .dwattr $C$DW$158, DW_AT_type(*$C$DW$T$39)
    2958                            .dwattr $C$DW$158, DW_AT_name("hdr")
    2959                            .dwattr $C$DW$158, DW_AT_TI_symbol_name("hdr")
    2960                            .dwattr $C$DW$158, DW_AT_data_member_location[DW_OP_plus_uconst 0x0]
    2961                            .dwattr $C$DW$158, DW_AT_accessibility(DW_ACCESS_public)
    2962                            .dwattr $C$DW$158, DW_AT_decl_file("C:/ti/simplelink_cc13x0_sdk_1_50_00_08/source/ti/ti154stac
    2963                            .dwattr $C$DW$158, DW_AT_decl_line(0x2b1)
    2964                            .dwattr $C$DW$158, DW_AT_decl_column(0x15)
    2965                    
    2966                    $C$DW$159       .dwtag  DW_TAG_member
    2967                            .dwattr $C$DW$159, DW_AT_type(*$C$DW$T$35)
    2968                            .dwattr $C$DW$159, DW_AT_name("servId")
    2969                            .dwattr $C$DW$159, DW_AT_TI_symbol_name("servId")
    2970                            .dwattr $C$DW$159, DW_AT_data_member_location[DW_OP_plus_uconst 0x4]
TI ARM Assembler PC v16.9.4 Sat Nov 18 18:46:28 2017

Tools Copyright (c) 1996-2017 Texas Instruments Incorporated
C:\Users\Kevin\AppData\Local\Temp\{25EC31FF-BE6A-4273-8ABE-530A93E63F10} PAGE   55

    2971                            .dwattr $C$DW$159, DW_AT_accessibility(DW_ACCESS_public)
    2972                            .dwattr $C$DW$159, DW_AT_decl_file("C:/ti/simplelink_cc13x0_sdk_1_50_00_08/source/ti/ti154stac
    2973                            .dwattr $C$DW$159, DW_AT_decl_line(0x2b3)
    2974                            .dwattr $C$DW$159, DW_AT_decl_column(0x15)
    2975                    
    2976                    $C$DW$160       .dwtag  DW_TAG_member
    2977                            .dwattr $C$DW$160, DW_AT_type(*$C$DW$T$70)
    2978                            .dwattr $C$DW$160, DW_AT_name("result")
    2979                            .dwattr $C$DW$160, DW_AT_TI_symbol_name("result")
    2980                            .dwattr $C$DW$160, DW_AT_data_member_location[DW_OP_plus_uconst 0x8]
    2981                            .dwattr $C$DW$160, DW_AT_accessibility(DW_ACCESS_public)
    2982                            .dwattr $C$DW$160, DW_AT_decl_file("C:/ti/simplelink_cc13x0_sdk_1_50_00_08/source/ti/ti154stac
    2983                            .dwattr $C$DW$160, DW_AT_decl_line(0x2b5)
    2984                            .dwattr $C$DW$160, DW_AT_decl_column(0x10)
    2985                    
    2986                            .dwattr $C$DW$T$107, DW_AT_decl_file("C:/ti/simplelink_cc13x0_sdk_1_50_00_08/source/ti/ti154st
    2987                            .dwattr $C$DW$T$107, DW_AT_decl_line(0x2ae)
    2988                            .dwattr $C$DW$T$107, DW_AT_decl_column(0x10)
    2989                            .dwendtag $C$DW$T$107
    2990                    
    2991                    $C$DW$T$221     .dwtag  DW_TAG_typedef
    2992                            .dwattr $C$DW$T$221, DW_AT_name("ICall_ThreadServesArgs")
    2993                            .dwattr $C$DW$T$221, DW_AT_type(*$C$DW$T$107)
    2994                            .dwattr $C$DW$T$221, DW_AT_language(DW_LANG_C)
    2995                            .dwattr $C$DW$T$221, DW_AT_decl_file("C:/ti/simplelink_cc13x0_sdk_1_50_00_08/source/ti/ti154st
    2996                            .dwattr $C$DW$T$221, DW_AT_decl_line(0x2b6)
    2997                            .dwattr $C$DW$T$221, DW_AT_decl_column(0x03)
    2998                    
    2999                    
    3000                    $C$DW$T$108     .dwtag  DW_TAG_structure_type
    3001                            .dwattr $C$DW$T$108, DW_AT_name("_icall_wait_args_t")
    3002                            .dwattr $C$DW$T$108, DW_AT_byte_size(0x08)
    3003                    $C$DW$161       .dwtag  DW_TAG_member
    3004                            .dwattr $C$DW$161, DW_AT_type(*$C$DW$T$39)
    3005                            .dwattr $C$DW$161, DW_AT_name("hdr")
    3006                            .dwattr $C$DW$161, DW_AT_TI_symbol_name("hdr")
    3007                            .dwattr $C$DW$161, DW_AT_data_member_location[DW_OP_plus_uconst 0x0]
    3008                            .dwattr $C$DW$161, DW_AT_accessibility(DW_ACCESS_public)
    3009                            .dwattr $C$DW$161, DW_AT_decl_file("C:/ti/simplelink_cc13x0_sdk_1_50_00_08/source/ti/ti154stac
    3010                            .dwattr $C$DW$161, DW_AT_decl_line(0x21f)
    3011                            .dwattr $C$DW$161, DW_AT_decl_column(0x15)
    3012                    
    3013                    $C$DW$162       .dwtag  DW_TAG_member
    3014                            .dwattr $C$DW$162, DW_AT_type(*$C$DW$T$23)
    3015                            .dwattr $C$DW$162, DW_AT_name("milliseconds")
    3016                            .dwattr $C$DW$162, DW_AT_TI_symbol_name("milliseconds")
    3017                            .dwattr $C$DW$162, DW_AT_data_member_location[DW_OP_plus_uconst 0x4]
    3018                            .dwattr $C$DW$162, DW_AT_accessibility(DW_ACCESS_public)
    3019                            .dwattr $C$DW$162, DW_AT_decl_file("C:/ti/simplelink_cc13x0_sdk_1_50_00_08/source/ti/ti154stac
    3020                            .dwattr $C$DW$162, DW_AT_decl_line(0x221)
    3021                            .dwattr $C$DW$162, DW_AT_decl_column(0x12)
    3022                    
    3023                            .dwattr $C$DW$T$108, DW_AT_decl_file("C:/ti/simplelink_cc13x0_sdk_1_50_00_08/source/ti/ti154st
    3024                            .dwattr $C$DW$T$108, DW_AT_decl_line(0x21c)
    3025                            .dwattr $C$DW$T$108, DW_AT_decl_column(0x10)
TI ARM Assembler PC v16.9.4 Sat Nov 18 18:46:28 2017

Tools Copyright (c) 1996-2017 Texas Instruments Incorporated
C:\Users\Kevin\AppData\Local\Temp\{25EC31FF-BE6A-4273-8ABE-530A93E63F10} PAGE   56

    3026                            .dwendtag $C$DW$T$108
    3027                    
    3028                    $C$DW$T$222     .dwtag  DW_TAG_typedef
    3029                            .dwattr $C$DW$T$222, DW_AT_name("ICall_WaitArgs")
    3030                            .dwattr $C$DW$T$222, DW_AT_type(*$C$DW$T$108)
    3031                            .dwattr $C$DW$T$222, DW_AT_language(DW_LANG_C)
    3032                            .dwattr $C$DW$T$222, DW_AT_decl_file("C:/ti/simplelink_cc13x0_sdk_1_50_00_08/source/ti/ti154st
    3033                            .dwattr $C$DW$T$222, DW_AT_decl_line(0x222)
    3034                            .dwattr $C$DW$T$222, DW_AT_decl_column(0x03)
    3035                    
    3036                    
    3037                    $C$DW$T$114     .dwtag  DW_TAG_structure_type
    3038                            .dwattr $C$DW$T$114, DW_AT_name("_icall_wait_match_args_t")
    3039                            .dwattr $C$DW$T$114, DW_AT_byte_size(0x14)
    3040                    $C$DW$163       .dwtag  DW_TAG_member
    3041                            .dwattr $C$DW$163, DW_AT_type(*$C$DW$T$39)
    3042                            .dwattr $C$DW$163, DW_AT_name("hdr")
    3043                            .dwattr $C$DW$163, DW_AT_TI_symbol_name("hdr")
    3044                            .dwattr $C$DW$163, DW_AT_data_member_location[DW_OP_plus_uconst 0x0]
    3045                            .dwattr $C$DW$163, DW_AT_accessibility(DW_ACCESS_public)
    3046                            .dwattr $C$DW$163, DW_AT_decl_file("C:/ti/simplelink_cc13x0_sdk_1_50_00_08/source/ti/ti154stac
    3047                            .dwattr $C$DW$163, DW_AT_decl_line(0x351)
    3048                            .dwattr $C$DW$163, DW_AT_decl_column(0x15)
    3049                    
    3050                    $C$DW$164       .dwtag  DW_TAG_member
    3051                            .dwattr $C$DW$164, DW_AT_type(*$C$DW$T$23)
    3052                            .dwattr $C$DW$164, DW_AT_name("milliseconds")
    3053                            .dwattr $C$DW$164, DW_AT_TI_symbol_name("milliseconds")
    3054                            .dwattr $C$DW$164, DW_AT_data_member_location[DW_OP_plus_uconst 0x4]
    3055                            .dwattr $C$DW$164, DW_AT_accessibility(DW_ACCESS_public)
    3056                            .dwattr $C$DW$164, DW_AT_decl_file("C:/ti/simplelink_cc13x0_sdk_1_50_00_08/source/ti/ti154stac
    3057                            .dwattr $C$DW$164, DW_AT_decl_line(0x353)
    3058                            .dwattr $C$DW$164, DW_AT_decl_column(0x12)
