TI ARM Assembler PC v16.9.4 Sat Nov 18 18:46:31 2017

Tools Copyright (c) 1996-2017 Texas Instruments Incorporated
C:\Users\Kevin\AppData\Local\Temp\{6C42DDD5-7C92-479C-8F05-55537E4479EC} PAGE    1

       1                    ;******************************************************************************
       2                    ;* TI ARM C/C++ Codegen                                        PC v16.9.4.LTS *
       3                    ;* Date/Time created: Sat Nov 18 18:46:30 2017                                *
       4                    ;******************************************************************************
       5                            .compiler_opts --abi=eabi --arm_vmrs_si_workaround=off --code_state=16 --diag_wrap=off --embed
       6 00000000                   .thumb
       7                    
       8                    $C$DW$CU        .dwtag  DW_TAG_compile_unit
       9                            .dwattr $C$DW$CU, DW_AT_name("../Application/Services/nvocop.c")
      10                            .dwattr $C$DW$CU, DW_AT_producer("TI TI ARM C/C++ Codegen PC v16.9.4.LTS Copyright (c) 1996-20
      11                            .dwattr $C$DW$CU, DW_AT_TI_version(0x01)
      12                            .dwattr $C$DW$CU, DW_AT_comp_dir("C:\Users\Kevin\workspace_v7\sensor_cc1310lp\sensor_cc1310lp"
      13                            .bound  ".TI.bound:NV_FLASH", 122880, 0
      14                    
      15                    $C$DW$1 .dwtag  DW_TAG_subprogram
      16                            .dwattr $C$DW$1, DW_AT_name("memcpy")
      17                            .dwattr $C$DW$1, DW_AT_TI_symbol_name("memcpy")
      18                            .dwattr $C$DW$1, DW_AT_type(*$C$DW$T$3)
      19                            .dwattr $C$DW$1, DW_AT_declaration
      20                            .dwattr $C$DW$1, DW_AT_external
      21                            .dwattr $C$DW$1, DW_AT_decl_file("C:/ti/ccsv7/tools/compiler/ti-cgt-arm_16.9.4.LTS/include/str
      22                            .dwattr $C$DW$1, DW_AT_decl_line(0x6b)
      23                            .dwattr $C$DW$1, DW_AT_decl_column(0x16)
      24                    $C$DW$2 .dwtag  DW_TAG_formal_parameter
      25                            .dwattr $C$DW$2, DW_AT_type(*$C$DW$T$3)
      26                    
      27                    $C$DW$3 .dwtag  DW_TAG_formal_parameter
      28                            .dwattr $C$DW$3, DW_AT_type(*$C$DW$T$152)
      29                    
      30                    $C$DW$4 .dwtag  DW_TAG_formal_parameter
      31                            .dwattr $C$DW$4, DW_AT_type(*$C$DW$T$84)
      32                    
      33                            .dwendtag $C$DW$1
      34                    
      35                    
      36                    $C$DW$5 .dwtag  DW_TAG_subprogram
      37                            .dwattr $C$DW$5, DW_AT_name("memcmp")
      38                            .dwattr $C$DW$5, DW_AT_TI_symbol_name("memcmp")
      39                            .dwattr $C$DW$5, DW_AT_type(*$C$DW$T$10)
      40                            .dwattr $C$DW$5, DW_AT_declaration
      41                            .dwattr $C$DW$5, DW_AT_external
      42                            .dwattr $C$DW$5, DW_AT_decl_file("C:/ti/ccsv7/tools/compiler/ti-cgt-arm_16.9.4.LTS/include/str
      43                            .dwattr $C$DW$5, DW_AT_decl_line(0x6e)
      44                            .dwattr $C$DW$5, DW_AT_decl_column(0x14)
      45                    $C$DW$6 .dwtag  DW_TAG_formal_parameter
      46                            .dwattr $C$DW$6, DW_AT_type(*$C$DW$T$152)
      47                    
      48                    $C$DW$7 .dwtag  DW_TAG_formal_parameter
      49                            .dwattr $C$DW$7, DW_AT_type(*$C$DW$T$152)
      50                    
      51                    $C$DW$8 .dwtag  DW_TAG_formal_parameter
      52                            .dwattr $C$DW$8, DW_AT_type(*$C$DW$T$84)
      53                    
      54                            .dwendtag $C$DW$5
      55                    
TI ARM Assembler PC v16.9.4 Sat Nov 18 18:46:31 2017

Tools Copyright (c) 1996-2017 Texas Instruments Incorporated
C:\Users\Kevin\AppData\Local\Temp\{6C42DDD5-7C92-479C-8F05-55537E4479EC} PAGE    2

      56                    
      57                    $C$DW$9 .dwtag  DW_TAG_subprogram
      58                            .dwattr $C$DW$9, DW_AT_name("NOROM_FlashSectorErase")
      59                            .dwattr $C$DW$9, DW_AT_TI_symbol_name("NOROM_FlashSectorErase")
      60                            .dwattr $C$DW$9, DW_AT_type(*$C$DW$T$21)
      61                            .dwattr $C$DW$9, DW_AT_declaration
      62                            .dwattr $C$DW$9, DW_AT_external
      63                            .dwattr $C$DW$9, DW_AT_decl_file("C:/ti/simplelink_cc13x0_sdk_1_50_00_08/source/ti/devices/cc1
      64                            .dwattr $C$DW$9, DW_AT_decl_line(0x29f)
      65                            .dwattr $C$DW$9, DW_AT_decl_column(0x11)
      66                    $C$DW$10        .dwtag  DW_TAG_formal_parameter
      67                            .dwattr $C$DW$10, DW_AT_type(*$C$DW$T$21)
      68                    
      69                            .dwendtag $C$DW$9
      70                    
      71                    
      72                    $C$DW$11        .dwtag  DW_TAG_subprogram
      73                            .dwattr $C$DW$11, DW_AT_name("HAL_APPASRT_callAssrtHanlder")
      74                            .dwattr $C$DW$11, DW_AT_TI_symbol_name("HAL_APPASRT_callAssrtHanlder")
      75                            .dwattr $C$DW$11, DW_AT_declaration
      76                            .dwattr $C$DW$11, DW_AT_external
      77                            .dwattr $C$DW$11, DW_AT_decl_file("C:\ti\simplelink_cc13x0_sdk_1_50_00_08\source\ti\ti154stack
      78                            .dwattr $C$DW$11, DW_AT_decl_line(0x51)
      79                            .dwattr $C$DW$11, DW_AT_decl_column(0x0d)
      80                            .dwendtag $C$DW$11
      81                    
      82                    
      83                    $C$DW$12        .dwtag  DW_TAG_subprogram
      84                            .dwattr $C$DW$12, DW_AT_name("HalFlashRead")
      85                            .dwattr $C$DW$12, DW_AT_TI_symbol_name("HalFlashRead")
      86                            .dwattr $C$DW$12, DW_AT_declaration
      87                            .dwattr $C$DW$12, DW_AT_external
      88                            .dwattr $C$DW$12, DW_AT_decl_file("C:/ti/simplelink_cc13x0_sdk_1_50_00_08/source/ti/ti154stack
      89                            .dwattr $C$DW$12, DW_AT_decl_line(0x52)
      90                            .dwattr $C$DW$12, DW_AT_decl_column(0x06)
      91                    $C$DW$13        .dwtag  DW_TAG_formal_parameter
      92                            .dwattr $C$DW$13, DW_AT_type(*$C$DW$T$73)
      93                    
      94                    $C$DW$14        .dwtag  DW_TAG_formal_parameter
      95                            .dwattr $C$DW$14, DW_AT_type(*$C$DW$T$19)
      96                    
      97                    $C$DW$15        .dwtag  DW_TAG_formal_parameter
      98                            .dwattr $C$DW$15, DW_AT_type(*$C$DW$T$207)
      99                    
     100                    $C$DW$16        .dwtag  DW_TAG_formal_parameter
     101                            .dwattr $C$DW$16, DW_AT_type(*$C$DW$T$19)
     102                    
     103                            .dwendtag $C$DW$12
     104                    
     105                    
     106                    $C$DW$17        .dwtag  DW_TAG_subprogram
     107                            .dwattr $C$DW$17, DW_AT_name("HalFlashWrite")
     108                            .dwattr $C$DW$17, DW_AT_TI_symbol_name("HalFlashWrite")
     109                            .dwattr $C$DW$17, DW_AT_declaration
     110                            .dwattr $C$DW$17, DW_AT_external
TI ARM Assembler PC v16.9.4 Sat Nov 18 18:46:31 2017

Tools Copyright (c) 1996-2017 Texas Instruments Incorporated
C:\Users\Kevin\AppData\Local\Temp\{6C42DDD5-7C92-479C-8F05-55537E4479EC} PAGE    3

     111                            .dwattr $C$DW$17, DW_AT_decl_file("C:/ti/simplelink_cc13x0_sdk_1_50_00_08/source/ti/ti154stack
     112                            .dwattr $C$DW$17, DW_AT_decl_line(0x66)
     113                            .dwattr $C$DW$17, DW_AT_decl_column(0x06)
     114                    $C$DW$18        .dwtag  DW_TAG_formal_parameter
     115                            .dwattr $C$DW$18, DW_AT_type(*$C$DW$T$210)
     116                    
     117                    $C$DW$19        .dwtag  DW_TAG_formal_parameter
     118                            .dwattr $C$DW$19, DW_AT_type(*$C$DW$T$207)
     119                    
     120                    $C$DW$20        .dwtag  DW_TAG_formal_parameter
     121                            .dwattr $C$DW$20, DW_AT_type(*$C$DW$T$19)
     122                    
     123                            .dwendtag $C$DW$17
     124                    
     125                    
     126                    $C$DW$21        .dwtag  DW_TAG_subprogram
     127                            .dwattr $C$DW$21, DW_AT_name("NOROM_VIMSModeGet")
     128                            .dwattr $C$DW$21, DW_AT_TI_symbol_name("NOROM_VIMSModeGet")
     129                            .dwattr $C$DW$21, DW_AT_type(*$C$DW$T$21)
     130                            .dwattr $C$DW$21, DW_AT_declaration
     131                            .dwattr $C$DW$21, DW_AT_external
     132                            .dwattr $C$DW$21, DW_AT_decl_file("C:/ti/simplelink_cc13x0_sdk_1_50_00_08/source/ti/devices/cc
     133                            .dwattr $C$DW$21, DW_AT_decl_line(0xe2)
     134                            .dwattr $C$DW$21, DW_AT_decl_column(0x11)
     135                    $C$DW$22        .dwtag  DW_TAG_formal_parameter
     136                            .dwattr $C$DW$22, DW_AT_type(*$C$DW$T$21)
     137                    
     138                            .dwendtag $C$DW$21
     139                    
     140                    
     141                    $C$DW$23        .dwtag  DW_TAG_subprogram
     142                            .dwattr $C$DW$23, DW_AT_name("HalFlashGetAddress")
     143                            .dwattr $C$DW$23, DW_AT_TI_symbol_name("HalFlashGetAddress")
     144                            .dwattr $C$DW$23, DW_AT_type(*$C$DW$T$207)
     145                            .dwattr $C$DW$23, DW_AT_declaration
     146                            .dwattr $C$DW$23, DW_AT_external
     147                            .dwattr $C$DW$23, DW_AT_decl_file("../Application/Services/nvocop.c")
     148                            .dwattr $C$DW$23, DW_AT_decl_line(0xb4)
     149                            .dwattr $C$DW$23, DW_AT_decl_column(0x0f)
     150                    $C$DW$24        .dwtag  DW_TAG_formal_parameter
     151                            .dwattr $C$DW$24, DW_AT_type(*$C$DW$T$73)
     152                    
     153                    $C$DW$25        .dwtag  DW_TAG_formal_parameter
     154                            .dwattr $C$DW$25, DW_AT_type(*$C$DW$T$19)
     155                    
     156                            .dwendtag $C$DW$23
     157                    
     158                    $C$DW$26        .dwtag  DW_TAG_variable
     159                            .dwattr $C$DW$26, DW_AT_name("ICall_enterCriticalSection")
     160                            .dwattr $C$DW$26, DW_AT_TI_symbol_name("ICall_enterCriticalSection")
     161                            .dwattr $C$DW$26, DW_AT_type(*$C$DW$T$134)
     162                            .dwattr $C$DW$26, DW_AT_declaration
     163                            .dwattr $C$DW$26, DW_AT_external
     164                            .dwattr $C$DW$26, DW_AT_decl_file("C:/ti/simplelink_cc13x0_sdk_1_50_00_08/source/ti/ti154stack
     165                            .dwattr $C$DW$26, DW_AT_decl_line(0x384)
TI ARM Assembler PC v16.9.4 Sat Nov 18 18:46:31 2017

Tools Copyright (c) 1996-2017 Texas Instruments Incorporated
C:\Users\Kevin\AppData\Local\Temp\{6C42DDD5-7C92-479C-8F05-55537E4479EC} PAGE    4

     166                            .dwattr $C$DW$26, DW_AT_decl_column(0x16)
     167                    
     168                    $C$DW$27        .dwtag  DW_TAG_variable
     169                            .dwattr $C$DW$27, DW_AT_name("ICall_leaveCriticalSection")
     170                            .dwattr $C$DW$27, DW_AT_TI_symbol_name("ICall_leaveCriticalSection")
     171                            .dwattr $C$DW$27, DW_AT_type(*$C$DW$T$137)
     172                            .dwattr $C$DW$27, DW_AT_declaration
     173                            .dwattr $C$DW$27, DW_AT_external
     174                            .dwattr $C$DW$27, DW_AT_decl_file("C:/ti/simplelink_cc13x0_sdk_1_50_00_08/source/ti/ti154stack
     175                            .dwattr $C$DW$27, DW_AT_decl_line(0x387)
     176                            .dwattr $C$DW$27, DW_AT_decl_column(0x16)
     177                    
     178                            .global NV_FLASH
     179 00000000                   .sect   ".TI.bound:NV_FLASH"
     180                            .clink
     181                            .align  1
     182                            .elfsym NV_FLASH,SYM_SIZE(4096)
     183 00000000           NV_FLASH:
     184 00000000 000000FF          .bits   255,8                   ; NV_FLASH[0] @ 0
     185 00000001                   .space  4095
     186                    
     187                    $C$DW$28        .dwtag  DW_TAG_variable
     188                            .dwattr $C$DW$28, DW_AT_name("NV_FLASH")
     189                            .dwattr $C$DW$28, DW_AT_TI_symbol_name("NV_FLASH")
     190                            .dwattr $C$DW$28, DW_AT_location[DW_OP_addr NV_FLASH]
     191                            .dwattr $C$DW$28, DW_AT_type(*$C$DW$T$263)
     192                            .dwattr $C$DW$28, DW_AT_external
     193                            .dwattr $C$DW$28, DW_AT_decl_file("../Application/Services/nvocop.c")
     194                            .dwattr $C$DW$28, DW_AT_decl_line(0xc4)
     195                            .dwattr $C$DW$28, DW_AT_decl_column(0x0d)
     196                    
     197 00000000                   .sect   ".data:$O1$$", RW
     198                            .clink
     199                            .align  4
     200                            .elfsym ||$O1$$||,SYM_SIZE(8)
     201 00000000           ||$O1$$||:
     202 00000000 00000001          .bits   1,8                     ; $O1$$.failF @ 0
     203 00000001                   .space  7
     204                    
     205                    
     206                    ;*********************************************************************
     207                    ;* GROUPED GLOBALS FOR $O1$$                                         *
     208                    ;*********************************************************************
     209          00000000! failF:  .set    ||$O1$$||+0
     210                    $C$DW$29        .dwtag  DW_TAG_variable
     211                            .dwattr $C$DW$29, DW_AT_name("failF")
     212                            .dwattr $C$DW$29, DW_AT_TI_symbol_name("failF")
     213                            .dwattr $C$DW$29, DW_AT_type(*$C$DW$T$73)
     214                            .dwattr $C$DW$29, DW_AT_location[DW_OP_addr failF]
     215                            .dwattr $C$DW$29, DW_AT_decl_file("../Application/Services/nvocop.c")
     216                            .dwattr $C$DW$29, DW_AT_decl_line(0xda)
     217                            .dwattr $C$DW$29, DW_AT_decl_column(0x0e)
     218                    
     219          00000001! failW:  .set    ||$O1$$||+1
     220                    $C$DW$30        .dwtag  DW_TAG_variable
TI ARM Assembler PC v16.9.4 Sat Nov 18 18:46:31 2017

Tools Copyright (c) 1996-2017 Texas Instruments Incorporated
C:\Users\Kevin\AppData\Local\Temp\{6C42DDD5-7C92-479C-8F05-55537E4479EC} PAGE    5

     221                            .dwattr $C$DW$30, DW_AT_name("failW")
     222                            .dwattr $C$DW$30, DW_AT_TI_symbol_name("failW")
     223                            .dwattr $C$DW$30, DW_AT_type(*$C$DW$T$73)
     224                            .dwattr $C$DW$30, DW_AT_location[DW_OP_addr failW]
     225                            .dwattr $C$DW$30, DW_AT_decl_file("../Application/Services/nvocop.c")
     226                            .dwattr $C$DW$30, DW_AT_decl_line(0xdf)
     227                            .dwattr $C$DW$30, DW_AT_decl_column(0x0e)
     228                    
     229          00000002! pgOff:  .set    ||$O1$$||+2
     230                    $C$DW$31        .dwtag  DW_TAG_variable
     231                            .dwattr $C$DW$31, DW_AT_name("pgOff")
     232                            .dwattr $C$DW$31, DW_AT_TI_symbol_name("pgOff")
     233                            .dwattr $C$DW$31, DW_AT_type(*$C$DW$T$19)
     234                            .dwattr $C$DW$31, DW_AT_location[DW_OP_addr pgOff]
     235                            .dwattr $C$DW$31, DW_AT_decl_file("../Application/Services/nvocop.c")
     236                            .dwattr $C$DW$31, DW_AT_decl_line(0xd5)
     237                            .dwattr $C$DW$31, DW_AT_decl_column(0x0f)
     238                    
     239          00000004! sector_addr:    .set    ||$O1$$||+4
     240                            .global sector_addr
     241                    $C$DW$32        .dwtag  DW_TAG_variable
     242                            .dwattr $C$DW$32, DW_AT_name("sector_addr")
     243                            .dwattr $C$DW$32, DW_AT_TI_symbol_name("sector_addr")
     244                            .dwattr $C$DW$32, DW_AT_location[DW_OP_addr sector_addr]
     245                            .dwattr $C$DW$32, DW_AT_type(*$C$DW$T$21)
     246                            .dwattr $C$DW$32, DW_AT_external
     247                            .dwattr $C$DW$32, DW_AT_decl_file("../Application/Services/nvocop.c")
     248                            .dwattr $C$DW$32, DW_AT_decl_line(0x221)
     249                            .dwattr $C$DW$32, DW_AT_decl_column(0x0a)
     250                    
     251                    ;       C:\ti\ccsv7\tools\compiler\ti-cgt-arm_16.9.4.LTS\bin\armopt.exe C:/Users/Kevin/workspace_v7/se
     252                    ;**     Parameter deleted: offset == pgOff;
     253 00000000                   .sect   ".text:findItem"
     254                            .clink
     255                            .thumbfunc findItem
     256 00000000                   .thumb
     257                    
     258                    $C$DW$33        .dwtag  DW_TAG_subprogram
     259                            .dwattr $C$DW$33, DW_AT_name("findItem")
     260                            .dwattr $C$DW$33, DW_AT_low_pc(findItem)
     261                            .dwattr $C$DW$33, DW_AT_high_pc(0x00)
     262                            .dwattr $C$DW$33, DW_AT_TI_symbol_name("findItem")
     263                            .dwattr $C$DW$33, DW_AT_type(*$C$DW$T$19)
     264                            .dwattr $C$DW$33, DW_AT_TI_begin_file("../Application/Services/nvocop.c")
     265                            .dwattr $C$DW$33, DW_AT_TI_begin_line(0x27a)
     266                            .dwattr $C$DW$33, DW_AT_TI_begin_column(0x0f)
     267                            .dwattr $C$DW$33, DW_AT_decl_file("../Application/Services/nvocop.c")
     268                            .dwattr $C$DW$33, DW_AT_decl_line(0x27a)
     269                            .dwattr $C$DW$33, DW_AT_decl_column(0x0f)
     270                            .dwattr $C$DW$33, DW_AT_TI_max_frame_size(0x28)
     271                            .dwpsn  file "../Application/Services/nvocop.c",line 636,column 1,is_stmt,address findItem,isa
     272                    
     273                            .dwfde $C$DW$CIE, findItem
     274                    $C$DW$34        .dwtag  DW_TAG_formal_parameter
     275                            .dwattr $C$DW$34, DW_AT_name("nv_id")
TI ARM Assembler PC v16.9.4 Sat Nov 18 18:46:31 2017

Tools Copyright (c) 1996-2017 Texas Instruments Incorporated
C:\Users\Kevin\AppData\Local\Temp\{6C42DDD5-7C92-479C-8F05-55537E4479EC} PAGE    6

     276                            .dwattr $C$DW$34, DW_AT_TI_symbol_name("nv_id")
     277                            .dwattr $C$DW$34, DW_AT_type(*$C$DW$T$166)
     278                            .dwattr $C$DW$34, DW_AT_location[DW_OP_breg13 32]
     279                    
     280                    
     281                    ;*****************************************************************************
     282                    ;* FUNCTION NAME: findItem                                                   *
     283                    ;*                                                                           *
     284                    ;*   Regs Modified     : A1,A2,A3,A4,V1,V2,V3,V4,V5,V9,SP,LR,SR              *
     285                    ;*   Regs Used         : A1,A2,A3,A4,V1,V2,V3,V4,V5,V9,SP,LR,SR              *
     286                    ;*   Local Frame Size  : 0 Args + 8 Auto + 24 Save = 32 byte                 *
     287                    ;*****************************************************************************
     288                    findItem:
     289                    ;* --------------------------------------------------------------------------*
     290                    $C$DW$35        .dwtag  DW_TAG_variable
     291                            .dwattr $C$DW$35, DW_AT_name("hdr")
     292                            .dwattr $C$DW$35, DW_AT_TI_symbol_name("hdr")
     293                            .dwattr $C$DW$35, DW_AT_type(*$C$DW$T$188)
     294                            .dwattr $C$DW$35, DW_AT_location[DW_OP_breg13 0]
     295                    
     296                    ;* V5    assigned to $O$K35
     297                    ;* A1    assigned to $O$v1
     298                    ;* V3    assigned to $O$CSU$nv_id$systemID
     299                    ;* V2    assigned to $O$CSU$nv_id$itemID
     300                    ;* V4    assigned to $O$CSU$nv_id$subID
     301                    ;* V1    assigned to offset
     302                    $C$DW$36        .dwtag  DW_TAG_variable
     303                            .dwattr $C$DW$36, DW_AT_name("offset")
     304                            .dwattr $C$DW$36, DW_AT_TI_symbol_name("offset")
     305                            .dwattr $C$DW$36, DW_AT_type(*$C$DW$T$19)
     306                            .dwattr $C$DW$36, DW_AT_location[DW_OP_reg4]
     307                    
     308                            .dwcfi  cfa_offset, 0
     309 00000000 B403              PUSH      {A1, A2}              ; [DPU_3_PIPE]  ; [ORIG 16-BIT INS]
     310                            .dwcfi  cfa_offset, 8
     311                            .dwcfi  save_reg_to_mem, 1, -4
     312                            .dwcfi  save_reg_to_mem, 0, -8
     313 00000002 4823              LDR       A1, $C$CON1           ; [DPU_3_PIPE] |636|  ; [ORIG 16-BIT INS]
     314 00000004 41F0E92D          PUSH      {V1, V2, V3, V4, V5, LR} ; [DPU_3_PIPE]  ; [KEEP 32-BIT INS]
     315                            .dwcfi  cfa_offset, 32
     316                            .dwcfi  save_reg_to_mem, 14, -12
     317                            .dwcfi  save_reg_to_mem, 8, -16
     318                            .dwcfi  save_reg_to_mem, 7, -20
     319                            .dwcfi  save_reg_to_mem, 6, -24
     320                            .dwcfi  save_reg_to_mem, 5, -28
     321                            .dwcfi  save_reg_to_mem, 4, -32
     322 00000008 AF06              ADD       V4, SP, #24           ; [DPU_3_PIPE]  ; [ORIG 16-BIT INS]
     323 0000000a 783E              LDRB      V3, [V4, #0]          ; [DPU_3_PIPE] |636|  ; [ORIG 16-BIT INS]
     324 0000000c 887D              LDRH      V2, [V4, #2]          ; [DPU_3_PIPE] |636|  ; [ORIG 16-BIT INS]
     325 0000000e 8800              LDRH      A1, [A1, #0]          ; [DPU_3_PIPE] |636|  ; [ORIG 16-BIT INS]
     326 00000010 88BF              LDRH      V4, [V4, #4]          ; [DPU_3_PIPE] |636|  ; [ORIG 16-BIT INS]
     327 00000012 0D08F1AD          SUB       SP, SP, #8            ; [DPU_3_PIPE]  ; [KEEP 32-BIT INS]
     328                            .dwcfi  cfa_offset, 40
     329 00000016 1F00              SUBS      A1, A1, #4            ; [DPU_3_PIPE] |636|  ; [ORIG 16-BIT INS]
     330 00000018 B284              UXTH      V1, A1                ; [DPU_3_PIPE] |636|  ; [ORIG 16-BIT INS]
TI ARM Assembler PC v16.9.4 Sat Nov 18 18:46:31 2017

Tools Copyright (c) 1996-2017 Texas Instruments Incorporated
C:\Users\Kevin\AppData\Local\Temp\{6C42DDD5-7C92-479C-8F05-55537E4479EC} PAGE    7

     331 0000001a 2C08              CMP       V1, #8                ; [DPU_3_PIPE] |636|  ; [ORIG 16-BIT INS]
     332 0000001c DB31              BLT       ||$C$L6||             ; [DPU_3_PIPE] |636|  ; [ORIG 16-BIT INS]
     333                            ; BRANCHCC OCCURS {||$C$L6||}    ; [] |636| 
     334                    ;* --------------------------------------------------------------------------*
     335 0000001e 481D              LDR       A1, $C$CON2           ; [DPU_3_PIPE]  ; [ORIG 16-BIT INS]
     336 00000020 0B00              LSRS      A1, A1, #12           ; [DPU_3_PIPE]  ; [ORIG 16-BIT INS]
     337 00000022 F880FA5F          UXTB      V5, A1                ; [DPU_3_PIPE]  ; [KEEP 32-BIT INS]
     338                    ;* --------------------------------------------------------------------------*
     339                    ;*   BEGIN LOOP ||$C$L1||
     340                    ;*
     341                    ;*   Loop source line                : 639
     342                    ;*   Loop closing brace source line  : 680
     343                    ;*   Known Minimum Trip Count        : 1
     344                    ;*   Known Maximum Trip Count        : 4294967295
     345                    ;*   Known Max Trip Count Factor     : 1
     346                    ;* --------------------------------------------------------------------------*
     347 00000026           ||$C$L1||:    
     348                            .dwpsn  file "../Application/Services/nvocop.c",line 643,column 5,is_stmt,isa 1
     349 00000026 1F21              SUBS      A2, V1, #4            ; [DPU_3_PIPE] |643|  ; [ORIG 16-BIT INS]
     350 00000028 4640              MOV       A1, V5                ; [DPU_3_PIPE] |643|  ; [ORIG 16-BIT INS]
     351 0000002a 466A              MOV       A3, SP                ; [DPU_3_PIPE] |643|  ; [ORIG 16-BIT INS]
     352 0000002c 2308              MOVS      A4, #8                ; [DPU_3_PIPE] |643|  ; [ORIG 16-BIT INS]
     353 0000002e B289              UXTH      A2, A2                ; [DPU_3_PIPE] |643|  ; [ORIG 16-BIT INS]
     354                    $C$DW$37        .dwtag  DW_TAG_TI_branch
     355                            .dwattr $C$DW$37, DW_AT_low_pc(0x00)
     356                            .dwattr $C$DW$37, DW_AT_name("HalFlashRead")
     357                            .dwattr $C$DW$37, DW_AT_TI_call
     358                    
     359 00000030 FFFEF7FF!         BL        HalFlashRead          ; [DPU_3_PIPE] |643|  ; [KEEP 32-BIT INS]
     360                            ; CALL OCCURS {HalFlashRead }    ; [] |643| 
     361                            .dwpsn  file "../Application/Services/nvocop.c",line 649,column 5,is_stmt,isa 1
     362 00000034 0000F8BD          LDRH      A1, [SP, #0]          ; [DPU_3_PIPE] |649|  ; [KEEP 32-BIT INS]
     363 00000038 4286              CMP       V3, A1                ; [DPU_3_PIPE] |649|  ; [ORIG 16-BIT INS]
     364 0000003a D10F              BNE       ||$C$L2||             ; [DPU_3_PIPE] |649|  ; [ORIG 16-BIT INS]
     365                            ; BRANCHCC OCCURS {||$C$L2||}    ; [] |649| 
     366                    ;* --------------------------------------------------------------------------*
     367 0000003c 0002F8BD          LDRH      A1, [SP, #2]          ; [DPU_3_PIPE] |649|  ; [KEEP 32-BIT INS]
     368 00000040 4285              CMP       V2, A1                ; [DPU_3_PIPE] |649|  ; [ORIG 16-BIT INS]
     369 00000042 D10B              BNE       ||$C$L2||             ; [DPU_3_PIPE] |649|  ; [ORIG 16-BIT INS]
     370                            ; BRANCHCC OCCURS {||$C$L2||}    ; [] |649| 
     371                    ;* --------------------------------------------------------------------------*
     372 00000044 0004F8BD          LDRH      A1, [SP, #4]          ; [DPU_3_PIPE] |649|  ; [KEEP 32-BIT INS]
     373 00000048 4287              CMP       V4, A1                ; [DPU_3_PIPE] |649|  ; [ORIG 16-BIT INS]
     374 0000004a D107              BNE       ||$C$L2||             ; [DPU_3_PIPE] |649|  ; [ORIG 16-BIT INS]
     375                            ; BRANCHCC OCCURS {||$C$L2||}    ; [] |649| 
     376                    ;* --------------------------------------------------------------------------*
     377                            .dwpsn  file "../Application/Services/nvocop.c",line 657,column 7,is_stmt,isa 1
     378 0000004c 0006F8BD          LDRH      A1, [SP, #6]          ; [DPU_3_PIPE] |657|  ; [KEEP 32-BIT INS]
     379 00000050 30DFF36F          BFC       A1, #15, #17          ; [DPU_3_PIPE] |657|  ; [KEEP 32-BIT INS]
     380 00000054 1A24              SUBS      V1, V1, A1            ; [DPU_3_PIPE] |657|  ; [ORIG 16-BIT INS]
     381 00000056 1F24              SUBS      V1, V1, #4            ; [DPU_3_PIPE] |657|  ; [ORIG 16-BIT INS]
     382 00000058 B2A0              UXTH      A1, V1                ; [DPU_3_PIPE] |657|  ; [ORIG 16-BIT INS]
     383 0000005a E013              B         ||$C$L7||             ; [DPU_3_PIPE] |657|  ; [ORIG 16-BIT INS]
     384                            ; BRANCH OCCURS {||$C$L7||}      ; [] |657| 
     385                    ;* --------------------------------------------------------------------------*
TI ARM Assembler PC v16.9.4 Sat Nov 18 18:46:31 2017

Tools Copyright (c) 1996-2017 Texas Instruments Incorporated
C:\Users\Kevin\AppData\Local\Temp\{6C42DDD5-7C92-479C-8F05-55537E4479EC} PAGE    8

     386 0000005c           ||$C$L2||:    
     387                            .dwpsn  file "../Application/Services/nvocop.c",line 659,column 10,is_stmt,isa 1
     388 0000005c 0006F8BD          LDRH      A1, [SP, #6]          ; [DPU_3_PIPE] |659|  ; [KEEP 32-BIT INS]
     389 00000060 0BC1              LSRS      A2, A1, #15           ; [DPU_3_PIPE] |659|  ; [ORIG 16-BIT INS]
     390 00000062 03CB              LSLS      A4, A2, #15           ; [DPU_3_PIPE] |659|  ; [ORIG 16-BIT INS]
     391 00000064 D109              BNE       ||$C$L4||             ; [DPU_3_PIPE] |659|  ; [ORIG 16-BIT INS]
     392                            ; BRANCHCC OCCURS {||$C$L4||}    ; [] |659| 
     393                    ;* --------------------------------------------------------------------------*
     394                            .dwpsn  file "../Application/Services/nvocop.c",line 666,column 7,is_stmt,isa 1
     395 00000066 0108F100          ADD       A2, A1, #8            ; [DPU_3_PIPE] |666|  ; [KEEP 32-BIT INS]
     396 0000006a 428C              CMP       V1, A2                ; [DPU_3_PIPE] |666|  ; [ORIG 16-BIT INS]
     397 0000006c DA02              BGE       ||$C$L3||             ; [DPU_3_PIPE] |666|  ; [ORIG 16-BIT INS]
     398                            ; BRANCHCC OCCURS {||$C$L3||}    ; [] |666| 
     399                    ;* --------------------------------------------------------------------------*
     400                            .dwpsn  file "../Application/Services/nvocop.c",line 676,column 9,is_stmt,isa 1
     401                    $C$DW$38        .dwtag  DW_TAG_TI_branch
     402                            .dwattr $C$DW$38, DW_AT_low_pc(0x00)
     403                            .dwattr $C$DW$38, DW_AT_name("HAL_APPASRT_callAssrtHanlder")
     404                            .dwattr $C$DW$38, DW_AT_TI_call
     405                    
     406 0000006e FFFEF7FF!         BL        HAL_APPASRT_callAssrtHanlder ; [DPU_3_PIPE] |676|  ; [KEEP 32-BIT INS]
     407                            ; CALL OCCURS {HAL_APPASRT_callAssrtHanlder }  ; [] |676| 
     408                            .dwpsn  file "../Application/Services/nvocop.c",line 677,column 9,is_stmt,isa 1
     409 00000072 E006              B         ||$C$L6||             ; [DPU_3_PIPE] |677|  ; [ORIG 16-BIT INS]
     410                            ; BRANCH OCCURS {||$C$L6||}      ; [] |677| 
     411                    ;* --------------------------------------------------------------------------*
     412 00000074           ||$C$L3||:    
     413                            .dwpsn  file "../Application/Services/nvocop.c",line 669,column 9,is_stmt,isa 1
     414 00000074 1A24              SUBS      V1, V1, A1            ; [DPU_3_PIPE] |669|  ; [ORIG 16-BIT INS]
     415 00000076 3C08              SUBS      V1, V1, #8            ; [DPU_3_PIPE] |669|  ; [ORIG 16-BIT INS]
     416                            .dwpsn  file "../Application/Services/nvocop.c",line 670,column 7,is_stmt,isa 1
     417 00000078 E000              B         ||$C$L5||             ; [DPU_3_PIPE] |670|  ; [ORIG 16-BIT INS]
     418                            ; BRANCH OCCURS {||$C$L5||}      ; [] |670| 
     419                    ;* --------------------------------------------------------------------------*
     420 0000007a           ||$C$L4||:    
     421                            .dwpsn  file "../Application/Services/nvocop.c",line 661,column 7,is_stmt,isa 1
     422 0000007a 1F24              SUBS      V1, V1, #4            ; [DPU_3_PIPE] |661|  ; [ORIG 16-BIT INS]
     423                    ;* --------------------------------------------------------------------------*
     424 0000007c           ||$C$L5||:    
     425 0000007c B2A4              UXTH      V1, V1                ; [DPU_3_PIPE] |661|  ; [ORIG 16-BIT INS]
     426                            .dwpsn  file "../Application/Services/nvocop.c",line 639,column 10,is_stmt,isa 1
     427 0000007e 2C08              CMP       V1, #8                ; [DPU_3_PIPE] |639|  ; [ORIG 16-BIT INS]
     428 00000080 DAD1              BGE       ||$C$L1||             ; [DPU_3_PIPE] |639|  ; [ORIG 16-BIT INS]
     429                            ; BRANCHCC OCCURS {||$C$L1||}    ; [] |639| 
     430                    ;* --------------------------------------------------------------------------*
     431 00000082           ||$C$L6||:    
     432                            .dwpsn  file "../Application/Services/nvocop.c",line 681,column 3,is_stmt,isa 1
     433 00000082 2000              MOVS      A1, #0                ; [DPU_3_PIPE] |681|  ; [ORIG 16-BIT INS]
     434                    ;* --------------------------------------------------------------------------*
     435 00000084           ||$C$L7||:    
     436 00000084 B002              ADD       SP, SP, #8            ; [DPU_3_PIPE]  ; [ORIG 16-BIT INS]
     437                            .dwcfi  cfa_offset, 32
     438 00000086 41F0E8BD          POP       {V1, V2, V3, V4, V5, LR} ; [DPU_3_PIPE]  ; [KEEP 32-BIT INS]
     439                            .dwcfi  cfa_offset, 8
     440                            .dwcfi  restore_reg, 14
TI ARM Assembler PC v16.9.4 Sat Nov 18 18:46:31 2017

Tools Copyright (c) 1996-2017 Texas Instruments Incorporated
C:\Users\Kevin\AppData\Local\Temp\{6C42DDD5-7C92-479C-8F05-55537E4479EC} PAGE    9

     441                            .dwcfi  restore_reg, 8
     442                            .dwcfi  restore_reg, 7
     443                            .dwcfi  restore_reg, 6
     444                            .dwcfi  restore_reg, 5
     445                            .dwcfi  restore_reg, 4
     446 0000008a B002              ADD       SP, SP, #8            ; [DPU_3_PIPE]  ; [ORIG 16-BIT INS]
     447                            .dwcfi  cfa_offset, 0
     448                    $C$DW$39        .dwtag  DW_TAG_TI_branch
     449                            .dwattr $C$DW$39, DW_AT_low_pc(0x00)
     450                            .dwattr $C$DW$39, DW_AT_TI_return
     451                    
     452 0000008c 4770              BX        LR                    ; [DPU_3_PIPE]  ; [ORIG 16-BIT INS]
     453                            ; BRANCH OCCURS                  ; [] 
     454                            .dwattr $C$DW$33, DW_AT_TI_end_file("../Application/Services/nvocop.c")
     455                            .dwattr $C$DW$33, DW_AT_TI_end_line(0x2aa)
     456                            .dwattr $C$DW$33, DW_AT_TI_end_column(0x01)
     457                            .dwendentry
     458                            .dwendtag $C$DW$33
     459                    
     460 00000000                   .sect   ".text:disableCache"
     461                            .clink
     462                            .thumbfunc disableCache
     463 00000000                   .thumb
     464                    
     465                    $C$DW$40        .dwtag  DW_TAG_subprogram
     466                            .dwattr $C$DW$40, DW_AT_name("disableCache")
     467                            .dwattr $C$DW$40, DW_AT_low_pc(disableCache)
     468                            .dwattr $C$DW$40, DW_AT_high_pc(0x00)
     469                            .dwattr $C$DW$40, DW_AT_TI_symbol_name("disableCache")
     470                            .dwattr $C$DW$40, DW_AT_type(*$C$DW$T$73)
     471                            .dwattr $C$DW$40, DW_AT_TI_begin_file("../Application/Services/nvocop.c")
     472                            .dwattr $C$DW$40, DW_AT_TI_begin_line(0x417)
     473                            .dwattr $C$DW$40, DW_AT_TI_begin_column(0x0e)
     474                            .dwattr $C$DW$40, DW_AT_decl_file("../Application/Services/nvocop.c")
     475                            .dwattr $C$DW$40, DW_AT_decl_line(0x417)
     476                            .dwattr $C$DW$40, DW_AT_decl_column(0x0e)
     477                            .dwattr $C$DW$40, DW_AT_TI_max_frame_size(0x10)
     478                            .dwpsn  file "../Application/Services/nvocop.c",line 1048,column 1,is_stmt,address disableCach
     479                    
     480                            .dwfde $C$DW$CIE, disableCache
     481                    
     482                    ;*****************************************************************************
     483                    ;* FUNCTION NAME: disableCache                                               *
     484                    ;*                                                                           *
     485                    ;*   Regs Modified     : A1,A2,A3,A4,V1,V4,V9,SP,LR,SR                       *
     486                    ;*   Regs Used         : A1,A2,A3,A4,V1,V4,V9,SP,LR,SR                       *
     487                    ;*   Local Frame Size  : 0 Args + 0 Auto + 12 Save = 12 byte                 *
     488                    ;*****************************************************************************
     489                    disableCache:
     490                    ;* --------------------------------------------------------------------------*
     491                    ;* V4    assigned to state
     492                    $C$DW$41        .dwtag  DW_TAG_variable
     493                            .dwattr $C$DW$41, DW_AT_name("state")
     494                            .dwattr $C$DW$41, DW_AT_TI_symbol_name("state")
     495                            .dwattr $C$DW$41, DW_AT_type(*$C$DW$T$73)
TI ARM Assembler PC v16.9.4 Sat Nov 18 18:46:31 2017

Tools Copyright (c) 1996-2017 Texas Instruments Incorporated
C:\Users\Kevin\AppData\Local\Temp\{6C42DDD5-7C92-479C-8F05-55537E4479EC} PAGE   10

     496                            .dwattr $C$DW$41, DW_AT_location[DW_OP_reg7]
     497                    
     498                            .dwcfi  cfa_offset, 0
     499 00000000 B598              PUSH      {A4, V1, V4, LR}      ; [DPU_3_PIPE]  ; [ORIG 16-BIT INS]
     500                            .dwcfi  cfa_offset, 16
     501                            .dwcfi  save_reg_to_mem, 14, -4
     502                            .dwcfi  save_reg_to_mem, 7, -8
     503                            .dwcfi  save_reg_to_mem, 4, -12
     504                            .dwcfi  save_reg_to_mem, 3, -16
     505                            .dwpsn  file "../Application/Services/nvocop.c",line 1058,column 13,is_stmt,isa 1
     506 00000002 4C09              LDR       V1, $C$CON3           ; [DPU_3_PIPE] |1058|  ; [ORIG 16-BIT INS]
     507                            .dwpsn  file "../Application/Services/nvocop.c",line 1049,column 15,is_stmt,isa 1
     508 00000004 4620              MOV       A1, V1                ; [DPU_3_PIPE] |1049|  ; [ORIG 16-BIT INS]
     509                    $C$DW$42        .dwtag  DW_TAG_TI_branch
     510                            .dwattr $C$DW$42, DW_AT_low_pc(0x00)
     511                            .dwattr $C$DW$42, DW_AT_name("NOROM_VIMSModeGet")
     512                            .dwattr $C$DW$42, DW_AT_TI_call
     513                    
     514 00000006 FFFEF7FF!         BL        NOROM_VIMSModeGet     ; [DPU_3_PIPE] |1049|  ; [KEEP 32-BIT INS]
     515                            ; CALL OCCURS {NOROM_VIMSModeGet }  ; [] |1049| 
     516 0000000a B2C7              UXTB      V4, A1                ; [DPU_3_PIPE] |1049|  ; [ORIG 16-BIT INS]
     517 0000000c B157              CBZ       V4, ||$C$L9||         ; []  ; [ORIG 16-BIT INS]
     518                            ; BRANCHCC OCCURS {||$C$L9||}    ; [] |1049| 
     519                    ;* --------------------------------------------------------------------------*
     520                            .dwpsn  file "../Application/Services/nvocop.c",line 1055,column 5,is_stmt,isa 1
     521 0000000e 4807              LDR       A1, $C$CON4           ; [DPU_3_PIPE] |1055|  ; [ORIG 16-BIT INS]
     522 00000010 6800              LDR       A1, [A1, #0]          ; [DPU_3_PIPE] |1055|  ; [ORIG 16-BIT INS]
     523 00000012 6842              LDR       A3, [A1, #4]          ; [DPU_3_PIPE] |1055|  ; [ORIG 16-BIT INS]
     524 00000014 2100              MOVS      A2, #0                ; [DPU_3_PIPE] |1055|  ; [ORIG 16-BIT INS]
     525 00000016 4620              MOV       A1, V1                ; [DPU_3_PIPE] |1055|  ; [ORIG 16-BIT INS]
     526                    $C$DW$43        .dwtag  DW_TAG_TI_branch
     527                            .dwattr $C$DW$43, DW_AT_low_pc(0x00)
     528                            .dwattr $C$DW$43, DW_AT_TI_call
     529                            .dwattr $C$DW$43, DW_AT_TI_indirect
     530                    
     531 00000018 4790              BLX       A3                    ; [DPU_3_PIPE] |1055|  ; [ORIG 16-BIT INS]
     532                            ; CALL OCCURS {}                 ; [] |1055| 
     533                    ;* --------------------------------------------------------------------------*
     534                    ;*   BEGIN LOOP ||$C$L8||
     535                    ;*
     536                    ;*   Loop source line                : 1058
     537                    ;*   Loop closing brace source line  : 1058
     538                    ;*   Known Minimum Trip Count        : 1
     539                    ;*   Known Maximum Trip Count        : 4294967295
     540                    ;*   Known Max Trip Count Factor     : 1
     541                    ;* --------------------------------------------------------------------------*
     542 0000001a           ||$C$L8||:    
     543                            .dwpsn  file "../Application/Services/nvocop.c",line 1058,column 13,is_stmt,isa 1
     544 0000001a 4620              MOV       A1, V1                ; [DPU_3_PIPE] |1058|  ; [ORIG 16-BIT INS]
     545                    $C$DW$44        .dwtag  DW_TAG_TI_branch
     546                            .dwattr $C$DW$44, DW_AT_low_pc(0x00)
     547                            .dwattr $C$DW$44, DW_AT_name("NOROM_VIMSModeGet")
     548                            .dwattr $C$DW$44, DW_AT_TI_call
     549                    
     550 0000001c FFFEF7FF!         BL        NOROM_VIMSModeGet     ; [DPU_3_PIPE] |1058|  ; [KEEP 32-BIT INS]
TI ARM Assembler PC v16.9.4 Sat Nov 18 18:46:31 2017

Tools Copyright (c) 1996-2017 Texas Instruments Incorporated
C:\Users\Kevin\AppData\Local\Temp\{6C42DDD5-7C92-479C-8F05-55537E4479EC} PAGE   11

     551                            ; CALL OCCURS {NOROM_VIMSModeGet }  ; [] |1058| 
     552 00000020 2800              CMP       A1, #0                ; [DPU_3_PIPE] |1058|  ; [ORIG 16-BIT INS]
     553 00000022 D1FA              BNE       ||$C$L8||             ; [DPU_3_PIPE] |1058|  ; [ORIG 16-BIT INS]
     554                            ; BRANCHCC OCCURS {||$C$L8||}    ; [] |1058| 
     555                    ;* --------------------------------------------------------------------------*
     556 00000024           ||$C$L9||:    
     557                            .dwpsn  file "../Application/Services/nvocop.c",line 1062,column 3,is_stmt,isa 1
     558 00000024 4638              MOV       A1, V4                ; [DPU_3_PIPE] |1062|  ; [ORIG 16-BIT INS]
     559                    $C$DW$45        .dwtag  DW_TAG_TI_branch
     560                            .dwattr $C$DW$45, DW_AT_low_pc(0x00)
     561                            .dwattr $C$DW$45, DW_AT_TI_return
     562                    
     563 00000026 BD98              POP       {A4, V1, V4, PC}      ; [DPU_3_PIPE]  ; [ORIG 16-BIT INS]
     564                            .dwcfi  cfa_offset, 0
     565                            ; BRANCH OCCURS                  ; [] 
     566                            .dwattr $C$DW$40, DW_AT_TI_end_file("../Application/Services/nvocop.c")
     567                            .dwattr $C$DW$40, DW_AT_TI_end_line(0x427)
     568                            .dwattr $C$DW$40, DW_AT_TI_end_column(0x01)
     569                            .dwendentry
     570                            .dwendtag $C$DW$40
     571                    
     572 00000000                   .sect   ".text:enableCache"
     573                            .clink
     574                            .thumbfunc enableCache
     575 00000000                   .thumb
     576                    
     577                    $C$DW$46        .dwtag  DW_TAG_subprogram
     578                            .dwattr $C$DW$46, DW_AT_name("enableCache")
     579                            .dwattr $C$DW$46, DW_AT_low_pc(enableCache)
     580                            .dwattr $C$DW$46, DW_AT_high_pc(0x00)
     581                            .dwattr $C$DW$46, DW_AT_TI_symbol_name("enableCache")
     582                            .dwattr $C$DW$46, DW_AT_TI_begin_file("../Application/Services/nvocop.c")
     583                            .dwattr $C$DW$46, DW_AT_TI_begin_line(0x405)
     584                            .dwattr $C$DW$46, DW_AT_TI_begin_column(0x0d)
     585                            .dwattr $C$DW$46, DW_AT_decl_file("../Application/Services/nvocop.c")
     586                            .dwattr $C$DW$46, DW_AT_decl_line(0x405)
     587                            .dwattr $C$DW$46, DW_AT_decl_column(0x0d)
     588                            .dwattr $C$DW$46, DW_AT_TI_max_frame_size(0x08)
     589                            .dwpsn  file "../Application/Services/nvocop.c",line 1030,column 1,is_stmt,address enableCache
     590                    
     591                            .dwfde $C$DW$CIE, enableCache
     592                    $C$DW$47        .dwtag  DW_TAG_formal_parameter
     593                            .dwattr $C$DW$47, DW_AT_name("state")
     594                            .dwattr $C$DW$47, DW_AT_TI_symbol_name("state")
     595                            .dwattr $C$DW$47, DW_AT_type(*$C$DW$T$73)
     596                            .dwattr $C$DW$47, DW_AT_location[DW_OP_reg0]
     597                    
     598                    
     599                    ;*****************************************************************************
     600                    ;* FUNCTION NAME: enableCache                                                *
     601                    ;*                                                                           *
     602                    ;*   Regs Modified     : A1,A2,A3,A4,V9,SP,LR,SR                             *
     603                    ;*   Regs Used         : A1,A2,A3,A4,V9,SP,LR,SR                             *
     604                    ;*   Local Frame Size  : 0 Args + 0 Auto + 4 Save = 4 byte                   *
     605                    ;*****************************************************************************
TI ARM Assembler PC v16.9.4 Sat Nov 18 18:46:31 2017

Tools Copyright (c) 1996-2017 Texas Instruments Incorporated
C:\Users\Kevin\AppData\Local\Temp\{6C42DDD5-7C92-479C-8F05-55537E4479EC} PAGE   12

     606                    enableCache:
     607                    ;* --------------------------------------------------------------------------*
     608                    ;* A1    assigned to state
     609                    $C$DW$48        .dwtag  DW_TAG_variable
     610                            .dwattr $C$DW$48, DW_AT_name("state")
     611                            .dwattr $C$DW$48, DW_AT_TI_symbol_name("state")
     612                            .dwattr $C$DW$48, DW_AT_type(*$C$DW$T$262)
     613                            .dwattr $C$DW$48, DW_AT_location[DW_OP_reg0]
     614                    
     615                            .dwcfi  cfa_offset, 0
     616 00000000 B508              PUSH      {A4, LR}              ; [DPU_3_PIPE]  ; [ORIG 16-BIT INS]
     617                            .dwcfi  cfa_offset, 8
     618                            .dwcfi  save_reg_to_mem, 14, -4
     619                            .dwcfi  save_reg_to_mem, 3, -8
     620 00000002 B128              CBZ       A1, ||$C$L10||        ; []  ; [ORIG 16-BIT INS]
     621                            .dwpsn  file "../Application/Services/nvocop.c",line 1031,column 3,is_stmt,isa 1
     622                            ; BRANCHCC OCCURS {||$C$L10||}   ; [] |1031| 
     623                    ;* --------------------------------------------------------------------------*
     624                            .dwpsn  file "../Application/Services/nvocop.c",line 1034,column 5,is_stmt,isa 1
     625 00000004 4803              LDR       A1, $C$CON5           ; [DPU_3_PIPE] |1034|  ; [ORIG 16-BIT INS]
     626 00000006 6800              LDR       A1, [A1, #0]          ; [DPU_3_PIPE] |1034|  ; [ORIG 16-BIT INS]
     627 00000008 6842              LDR       A3, [A1, #4]          ; [DPU_3_PIPE] |1034|  ; [ORIG 16-BIT INS]
     628 0000000a 4803              LDR       A1, $C$CON6           ; [DPU_3_PIPE] |1034|  ; [ORIG 16-BIT INS]
     629 0000000c 2101              MOVS      A2, #1                ; [DPU_3_PIPE] |1034|  ; [ORIG 16-BIT INS]
     630                    $C$DW$49        .dwtag  DW_TAG_TI_branch
     631                            .dwattr $C$DW$49, DW_AT_low_pc(0x00)
     632                            .dwattr $C$DW$49, DW_AT_TI_call
     633                            .dwattr $C$DW$49, DW_AT_TI_indirect
     634                    
     635 0000000e 4790              BLX       A3                    ; [DPU_3_PIPE] |1034|  ; [ORIG 16-BIT INS]
     636                            ; CALL OCCURS {}                 ; [] |1034| 
     637                    ;* --------------------------------------------------------------------------*
     638                    ||$C$L10||:    
     639                    $C$DW$50        .dwtag  DW_TAG_TI_branch
     640                            .dwattr $C$DW$50, DW_AT_low_pc(0x00)
     641                            .dwattr $C$DW$50, DW_AT_TI_return
     642                    
     643 00000010 BD08              POP       {A4, PC}              ; [DPU_3_PIPE]  ; [ORIG 16-BIT INS]
     644                            .dwcfi  cfa_offset, 0
     645                            ; BRANCH OCCURS                  ; [] 
     646                            .dwattr $C$DW$46, DW_AT_TI_end_file("../Application/Services/nvocop.c")
     647                            .dwattr $C$DW$46, DW_AT_TI_end_line(0x40c)
     648                            .dwattr $C$DW$46, DW_AT_TI_end_column(0x01)
     649                            .dwendentry
     650                            .dwendtag $C$DW$46
     651                    
     652 00000000                   .sect   ".text:writeWord"
     653                            .clink
     654                            .thumbfunc writeWord
     655 00000000                   .thumb
     656                    
     657                    $C$DW$51        .dwtag  DW_TAG_subprogram
     658                            .dwattr $C$DW$51, DW_AT_name("writeWord")
     659                            .dwattr $C$DW$51, DW_AT_low_pc(writeWord)
     660                            .dwattr $C$DW$51, DW_AT_high_pc(0x00)
TI ARM Assembler PC v16.9.4 Sat Nov 18 18:46:31 2017

Tools Copyright (c) 1996-2017 Texas Instruments Incorporated
C:\Users\Kevin\AppData\Local\Temp\{6C42DDD5-7C92-479C-8F05-55537E4479EC} PAGE   13

     661                            .dwattr $C$DW$51, DW_AT_TI_symbol_name("writeWord")
     662                            .dwattr $C$DW$51, DW_AT_TI_begin_file("../Application/Services/nvocop.c")
     663                            .dwattr $C$DW$51, DW_AT_TI_begin_line(0x3de)
     664                            .dwattr $C$DW$51, DW_AT_TI_begin_column(0x0d)
     665                            .dwattr $C$DW$51, DW_AT_decl_file("../Application/Services/nvocop.c")
     666                            .dwattr $C$DW$51, DW_AT_decl_line(0x3de)
     667                            .dwattr $C$DW$51, DW_AT_decl_column(0x0d)
     668                            .dwattr $C$DW$51, DW_AT_TI_max_frame_size(0x28)
     669                            .dwpsn  file "../Application/Services/nvocop.c",line 991,column 1,is_stmt,address writeWord,is
     670                    
     671                            .dwfde $C$DW$CIE, writeWord
     672                    $C$DW$52        .dwtag  DW_TAG_formal_parameter
     673                            .dwattr $C$DW$52, DW_AT_name("offset")
     674                            .dwattr $C$DW$52, DW_AT_TI_symbol_name("offset")
     675                            .dwattr $C$DW$52, DW_AT_type(*$C$DW$T$19)
     676                            .dwattr $C$DW$52, DW_AT_location[DW_OP_reg0]
     677                    
     678                    $C$DW$53        .dwtag  DW_TAG_formal_parameter
     679                            .dwattr $C$DW$53, DW_AT_name("pBuf")
     680                            .dwattr $C$DW$53, DW_AT_TI_symbol_name("pBuf")
     681                            .dwattr $C$DW$53, DW_AT_type(*$C$DW$T$207)
     682                            .dwattr $C$DW$53, DW_AT_location[DW_OP_reg1]
     683                    
     684                    $C$DW$54        .dwtag  DW_TAG_formal_parameter
     685                            .dwattr $C$DW$54, DW_AT_name("cnt")
     686                            .dwattr $C$DW$54, DW_AT_TI_symbol_name("cnt")
     687                            .dwattr $C$DW$54, DW_AT_type(*$C$DW$T$215)
     688                            .dwattr $C$DW$54, DW_AT_location[DW_OP_reg2]
     689                    
     690                    
     691                    ;*****************************************************************************
     692                    ;* FUNCTION NAME: writeWord                                                  *
     693                    ;*                                                                           *
     694                    ;*   Regs Modified     : A1,A2,A3,A4,V1,V2,V3,V4,V5,V6,V7,V9,SP,LR,SR        *
     695                    ;*   Regs Used         : A1,A2,A3,A4,V1,V2,V3,V4,V5,V6,V7,V9,SP,LR,SR        *
     696                    ;*   Local Frame Size  : 0 Args + 4 Auto + 32 Save = 36 byte                 *
     697                    ;*****************************************************************************
     698                    writeWord:
     699                    ;* --------------------------------------------------------------------------*
     700                    $C$DW$55        .dwtag  DW_TAG_variable
     701                            .dwattr $C$DW$55, DW_AT_name("tmp")
     702                            .dwattr $C$DW$55, DW_AT_TI_symbol_name("tmp")
     703                            .dwattr $C$DW$55, DW_AT_type(*$C$DW$T$259)
     704                            .dwattr $C$DW$55, DW_AT_location[DW_OP_breg13 0]
     705                    
     706                    ;* A1    assigned to $O$C1
     707                    ;* A2    assigned to $O$C2
     708                    ;* A1    assigned to $O$C3
     709                    ;* V4    assigned to $O$K8
     710                    ;* V1    assigned to offset
     711                    $C$DW$56        .dwtag  DW_TAG_variable
     712                            .dwattr $C$DW$56, DW_AT_name("offset")
     713                            .dwattr $C$DW$56, DW_AT_TI_symbol_name("offset")
     714                            .dwattr $C$DW$56, DW_AT_type(*$C$DW$T$277)
     715                            .dwattr $C$DW$56, DW_AT_location[DW_OP_reg4]
TI ARM Assembler PC v16.9.4 Sat Nov 18 18:46:31 2017

Tools Copyright (c) 1996-2017 Texas Instruments Incorporated
C:\Users\Kevin\AppData\Local\Temp\{6C42DDD5-7C92-479C-8F05-55537E4479EC} PAGE   14

     716                    
     717                    ;* V2    assigned to pBuf
     718                    $C$DW$57        .dwtag  DW_TAG_variable
     719                            .dwattr $C$DW$57, DW_AT_name("pBuf")
     720                            .dwattr $C$DW$57, DW_AT_TI_symbol_name("pBuf")
     721                            .dwattr $C$DW$57, DW_AT_type(*$C$DW$T$252)
     722                            .dwattr $C$DW$57, DW_AT_location[DW_OP_reg5]
     723                    
     724                    ;* V3    assigned to cnt
     725                    $C$DW$58        .dwtag  DW_TAG_variable
     726                            .dwattr $C$DW$58, DW_AT_name("cnt")
     727                            .dwattr $C$DW$58, DW_AT_TI_symbol_name("cnt")
     728                            .dwattr $C$DW$58, DW_AT_type(*$C$DW$T$261)
     729                            .dwattr $C$DW$58, DW_AT_location[DW_OP_reg6]
     730                    
     731                    ;* V6    assigned to addr
     732                    $C$DW$59        .dwtag  DW_TAG_variable
     733                            .dwattr $C$DW$59, DW_AT_name("addr")
     734                            .dwattr $C$DW$59, DW_AT_TI_symbol_name("addr")
     735                            .dwattr $C$DW$59, DW_AT_type(*$C$DW$T$210)
     736                            .dwattr $C$DW$59, DW_AT_location[DW_OP_reg9]
     737                    
     738                    ;* V5    assigned to cs
     739                    $C$DW$60        .dwtag  DW_TAG_variable
     740                            .dwattr $C$DW$60, DW_AT_name("cs")
     741                            .dwattr $C$DW$60, DW_AT_TI_symbol_name("cs")
     742                            .dwattr $C$DW$60, DW_AT_type(*$C$DW$T$294)
     743                            .dwattr $C$DW$60, DW_AT_location[DW_OP_reg8]
     744                    
     745                    ;* V7    assigned to state
     746                    $C$DW$61        .dwtag  DW_TAG_variable
     747                            .dwattr $C$DW$61, DW_AT_name("state")
     748                            .dwattr $C$DW$61, DW_AT_TI_symbol_name("state")
     749                            .dwattr $C$DW$61, DW_AT_type(*$C$DW$T$10)
     750                            .dwattr $C$DW$61, DW_AT_location[DW_OP_reg10]
     751                    
     752                    ;* V1    assigned to offset
     753                    $C$DW$62        .dwtag  DW_TAG_variable
     754                            .dwattr $C$DW$62, DW_AT_name("offset")
     755                            .dwattr $C$DW$62, DW_AT_TI_symbol_name("offset")
     756                            .dwattr $C$DW$62, DW_AT_type(*$C$DW$T$19)
     757                            .dwattr $C$DW$62, DW_AT_location[DW_OP_reg4]
     758                    
     759                    ;* V2    assigned to pBuf
     760                    $C$DW$63        .dwtag  DW_TAG_variable
     761                            .dwattr $C$DW$63, DW_AT_name("pBuf")
     762                            .dwattr $C$DW$63, DW_AT_TI_symbol_name("pBuf")
     763                            .dwattr $C$DW$63, DW_AT_type(*$C$DW$T$207)
     764                            .dwattr $C$DW$63, DW_AT_location[DW_OP_reg5]
     765                    
     766                    ;* V3    assigned to cnt
     767                    $C$DW$64        .dwtag  DW_TAG_variable
     768                            .dwattr $C$DW$64, DW_AT_name("cnt")
     769                            .dwattr $C$DW$64, DW_AT_TI_symbol_name("cnt")
     770                            .dwattr $C$DW$64, DW_AT_type(*$C$DW$T$215)
TI ARM Assembler PC v16.9.4 Sat Nov 18 18:46:31 2017

Tools Copyright (c) 1996-2017 Texas Instruments Incorporated
C:\Users\Kevin\AppData\Local\Temp\{6C42DDD5-7C92-479C-8F05-55537E4479EC} PAGE   15

     771                            .dwattr $C$DW$64, DW_AT_location[DW_OP_reg6]
     772                    
     773                            .dwcfi  cfa_offset, 0
     774 00000000 47FCE92D          PUSH      {A3, A4, V1, V2, V3, V4, V5, V6, V7, LR} ; [DPU_3_PIPE]  ; [KEEP 32-BIT INS]
     775                            .dwcfi  cfa_offset, 40
     776                            .dwcfi  save_reg_to_mem, 14, -4
     777                            .dwcfi  save_reg_to_mem, 10, -8
     778                            .dwcfi  save_reg_to_mem, 9, -12
     779                            .dwcfi  save_reg_to_mem, 8, -16
     780                            .dwcfi  save_reg_to_mem, 7, -20
     781                            .dwcfi  save_reg_to_mem, 6, -24
     782                            .dwcfi  save_reg_to_mem, 5, -28
     783                            .dwcfi  save_reg_to_mem, 4, -32
     784                            .dwcfi  save_reg_to_mem, 3, -36
     785                            .dwcfi  save_reg_to_mem, 2, -40
     786 00000004 4604              MOV       V1, A1                ; [DPU_3_PIPE] |991|  ; [ORIG 16-BIT INS]
     787                            .dwpsn  file "../Application/Services/nvocop.c",line 992,column 15,is_stmt,isa 1
     788 00000006 481E              LDR       A1, $C$CON11          ; [DPU_3_PIPE] |992|  ; [ORIG 16-BIT INS]
     789                            .dwpsn  file "../Application/Services/nvocop.c",line 991,column 1,is_stmt,isa 1
     790 00000008 460D              MOV       V2, A2                ; [DPU_3_PIPE] |991|  ; [ORIG 16-BIT INS]
     791 0000000a 4616              MOV       V3, A3                ; [DPU_3_PIPE] |991|  ; [ORIG 16-BIT INS]
     792                            .dwpsn  file "../Application/Services/nvocop.c",line 992,column 15,is_stmt,isa 1
     793 0000000c 4621              MOV       A2, V1                ; [DPU_3_PIPE] |992|  ; [ORIG 16-BIT INS]
     794 0000000e 0B00              LSRS      A1, A1, #12           ; [DPU_3_PIPE] |992|  ; [ORIG 16-BIT INS]
     795 00000010 B2C0              UXTB      A1, A1                ; [DPU_3_PIPE] |992|  ; [ORIG 16-BIT INS]
     796 00000012 4607              MOV       V4, A1                ; [DPU_3_PIPE] |992|  ; [ORIG 16-BIT INS]
     797                    $C$DW$65        .dwtag  DW_TAG_TI_branch
     798                            .dwattr $C$DW$65, DW_AT_low_pc(0x00)
     799                            .dwattr $C$DW$65, DW_AT_name("HalFlashGetAddress")
     800                            .dwattr $C$DW$65, DW_AT_TI_call
     801                    
     802 00000014 FFFEF7FF!         BL        HalFlashGetAddress    ; [DPU_3_PIPE] |992|  ; [KEEP 32-BIT INS]
     803                            ; CALL OCCURS {HalFlashGetAddress }  ; [] |992| 
     804 00000018 4681              MOV       V6, A1                ; [DPU_3_PIPE] |992|  ; [ORIG 16-BIT INS]
     805                            .dwpsn  file "../Application/Services/nvocop.c",line 998,column 5,is_stmt,isa 1
     806 0000001a 4817              LDR       A1, $C$CON8           ; [DPU_3_PIPE] |998|  ; [ORIG 16-BIT INS]
     807 0000001c 6800              LDR       A1, [A1, #0]          ; [DPU_3_PIPE] |998|  ; [ORIG 16-BIT INS]
     808                    $C$DW$66        .dwtag  DW_TAG_TI_branch
     809                            .dwattr $C$DW$66, DW_AT_low_pc(0x00)
     810                            .dwattr $C$DW$66, DW_AT_TI_call
     811                            .dwattr $C$DW$66, DW_AT_TI_indirect
     812                    
     813 0000001e 4780              BLX       A1                    ; [DPU_3_PIPE] |998|  ; [ORIG 16-BIT INS]
     814                            ; CALL OCCURS {}                 ; [] |998| 
     815 00000020 4680              MOV       V5, A1                ; [DPU_3_PIPE] |998|  ; [ORIG 16-BIT INS]
     816                            .dwpsn  file "../Application/Services/nvocop.c",line 1002,column 5,is_stmt,isa 1
     817                    $C$DW$67        .dwtag  DW_TAG_TI_branch
     818                            .dwattr $C$DW$67, DW_AT_low_pc(0x00)
     819                            .dwattr $C$DW$67, DW_AT_name("disableCache")
     820                            .dwattr $C$DW$67, DW_AT_TI_call
     821                    
     822 00000022 FFFEF7FF!         BL        disableCache          ; [DPU_3_PIPE] |1002|  ; [KEEP 32-BIT INS]
     823                            ; CALL OCCURS {disableCache }    ; [] |1002| 
     824 00000026 4682              MOV       V7, A1                ; [DPU_3_PIPE] |1002|  ; [ORIG 16-BIT INS]
     825                            .dwpsn  file "../Application/Services/nvocop.c",line 1005,column 5,is_stmt,isa 1
TI ARM Assembler PC v16.9.4 Sat Nov 18 18:46:31 2017

Tools Copyright (c) 1996-2017 Texas Instruments Incorporated
C:\Users\Kevin\AppData\Local\Temp\{6C42DDD5-7C92-479C-8F05-55537E4479EC} PAGE   16

     826 00000028 00B2              LSLS      A3, V3, #2            ; [DPU_3_PIPE] |1005|  ; [ORIG 16-BIT INS]
     827 0000002a 4629              MOV       A2, V2                ; [DPU_3_PIPE] |1005|  ; [ORIG 16-BIT INS]
     828 0000002c 4648              MOV       A1, V6                ; [DPU_3_PIPE] |1005|  ; [ORIG 16-BIT INS]
     829                    $C$DW$68        .dwtag  DW_TAG_TI_branch
     830                            .dwattr $C$DW$68, DW_AT_low_pc(0x00)
     831                            .dwattr $C$DW$68, DW_AT_name("HalFlashWrite")
     832                            .dwattr $C$DW$68, DW_AT_TI_call
     833                    
     834 0000002e FFFEF7FF!         BL        HalFlashWrite         ; [DPU_3_PIPE] |1005|  ; [KEEP 32-BIT INS]
     835                            ; CALL OCCURS {HalFlashWrite }   ; [] |1005| 
     836                            .dwpsn  file "../Application/Services/nvocop.c",line 1008,column 5,is_stmt,isa 1
     837 00000032 4650              MOV       A1, V7                ; [DPU_3_PIPE] |1008|  ; [ORIG 16-BIT INS]
     838                    $C$DW$69        .dwtag  DW_TAG_TI_branch
     839                            .dwattr $C$DW$69, DW_AT_low_pc(0x00)
     840                            .dwattr $C$DW$69, DW_AT_name("enableCache")
     841                            .dwattr $C$DW$69, DW_AT_TI_call
     842                    
     843 00000034 FFFEF7FF!         BL        enableCache           ; [DPU_3_PIPE] |1008|  ; [KEEP 32-BIT INS]
     844                            ; CALL OCCURS {enableCache }     ; [] |1008| 
     845                            .dwpsn  file "../Application/Services/nvocop.c",line 964,column 3,is_stmt,isa 1
     846 00000038 E002              B         ||$C$L12||            ; [DPU_3_PIPE] |964|  ; [ORIG 16-BIT INS]
     847                            ; BRANCH OCCURS {||$C$L12||}     ; [] |964| 
     848                    ;* --------------------------------------------------------------------------*
     849 0000003a           ||$C$L11||:    
     850                            .dwpsn  file "../Application/Services/nvocop.c",line 974,column 5,is_stmt,isa 1
     851 0000003a 1D24              ADDS      V1, V1, #4            ; [DPU_3_PIPE] |974|  ; [ORIG 16-BIT INS]
     852                            .dwpsn  file "../Application/Services/nvocop.c",line 975,column 5,is_stmt,isa 1
     853 0000003c 1D2D              ADDS      V2, V2, #4            ; [DPU_3_PIPE] |975|  ; [ORIG 16-BIT INS]
     854                            .dwpsn  file "../Application/Services/nvocop.c",line 974,column 5,is_stmt,isa 1
     855 0000003e B2A4              UXTH      V1, V1                ; [DPU_3_PIPE] |974|  ; [ORIG 16-BIT INS]
     856                    ;* --------------------------------------------------------------------------*
     857                    ;*   BEGIN LOOP ||$C$L12||
     858                    ;* --------------------------------------------------------------------------*
     859 00000040           ||$C$L12||:    
     860                            .dwpsn  file "../Application/Services/nvocop.c",line 964,column 3,is_stmt,isa 1
     861 00000040 4630              MOV       A1, V3                ; [DPU_3_PIPE] |964|  ; [ORIG 16-BIT INS]
     862 00000042 1E41              SUBS      A2, A1, #1            ; [DPU_3_PIPE] |964|  ; [ORIG 16-BIT INS]
     863 00000044 B2CE              UXTB      V3, A2                ; [DPU_3_PIPE] |964|  ; [ORIG 16-BIT INS]
     864 00000046 B188              CBZ       A1, ||$C$L13||        ; []  ; [ORIG 16-BIT INS]
     865                            ; BRANCHCC OCCURS {||$C$L13||}   ; [] |964| 
     866                    ;* --------------------------------------------------------------------------*
     867                            .dwpsn  file "../Application/Services/nvocop.c",line 968,column 5,is_stmt,isa 1
     868 00000048 4638              MOV       A1, V4                ; [DPU_3_PIPE] |968|  ; [ORIG 16-BIT INS]
     869 0000004a 4621              MOV       A2, V1                ; [DPU_3_PIPE] |968|  ; [ORIG 16-BIT INS]
     870 0000004c 466A              MOV       A3, SP                ; [DPU_3_PIPE] |968|  ; [ORIG 16-BIT INS]
     871 0000004e 2304              MOVS      A4, #4                ; [DPU_3_PIPE] |968|  ; [ORIG 16-BIT INS]
     872                    $C$DW$70        .dwtag  DW_TAG_TI_branch
     873                            .dwattr $C$DW$70, DW_AT_low_pc(0x00)
     874                            .dwattr $C$DW$70, DW_AT_name("HalFlashRead")
     875                            .dwattr $C$DW$70, DW_AT_TI_call
     876                    
     877 00000050 FFFEF7FF!         BL        HalFlashRead          ; [DPU_3_PIPE] |968|  ; [KEEP 32-BIT INS]
     878                            ; CALL OCCURS {HalFlashRead }    ; [] |968| 
     879                            .dwpsn  file "../Application/Services/nvocop.c",line 969,column 5,is_stmt,isa 1
     880 00000054 4668              MOV       A1, SP                ; [DPU_3_PIPE] |969|  ; [ORIG 16-BIT INS]
TI ARM Assembler PC v16.9.4 Sat Nov 18 18:46:31 2017

Tools Copyright (c) 1996-2017 Texas Instruments Incorporated
C:\Users\Kevin\AppData\Local\Temp\{6C42DDD5-7C92-479C-8F05-55537E4479EC} PAGE   17

     881 00000056 4629              MOV       A2, V2                ; [DPU_3_PIPE] |969|  ; [ORIG 16-BIT INS]
     882 00000058 2204              MOVS      A3, #4                ; [DPU_3_PIPE] |969|  ; [ORIG 16-BIT INS]
     883                    $C$DW$71        .dwtag  DW_TAG_TI_branch
     884                            .dwattr $C$DW$71, DW_AT_low_pc(0x00)
     885                            .dwattr $C$DW$71, DW_AT_name("memcmp")
     886                            .dwattr $C$DW$71, DW_AT_TI_call
     887                    
     888 0000005a FFFEF7FF!         BL        memcmp                ; [DPU_3_PIPE] |969|  ; [KEEP 32-BIT INS]
     889                            ; CALL OCCURS {memcmp }          ; [] |969| 
     890 0000005e 2800              CMP       A1, #0                ; [DPU_3_PIPE] |969|  ; [ORIG 16-BIT INS]
     891 00000060 D0EB              BEQ       ||$C$L11||            ; [DPU_3_PIPE] |969|  ; [ORIG 16-BIT INS]
     892                            ; BRANCHCC OCCURS {||$C$L11||}   ; [] |969| 
     893                    ;* --------------------------------------------------------------------------*
     894                            .dwpsn  file "../Application/Services/nvocop.c",line 971,column 7,is_stmt,isa 1
     895 00000062 4808              LDR       A1, $C$CON12          ; [DPU_3_PIPE] |971|  ; [ORIG 16-BIT INS]
     896 00000064 2101              MOVS      A2, #1                ; [DPU_3_PIPE] |971|  ; [ORIG 16-BIT INS]
     897 00000066 1E80              SUBS      A1, A1, #2            ; [DPU_3_PIPE]  ; [ORIG 16-BIT INS]
     898 00000068 7041              STRB      A2, [A1, #1]          ; [DPU_3_PIPE] |971|  ; [ORIG 16-BIT INS]
     899 0000006a 7001              STRB      A2, [A1, #0]          ; [DPU_3_PIPE] |971|  ; [ORIG 16-BIT INS]
     900                    ;* --------------------------------------------------------------------------*
     901 0000006c           ||$C$L13||:    
     902                            .dwpsn  file "../Application/Services/nvocop.c",line 1012,column 5,is_stmt,isa 1
     903 0000006c 4803              LDR       A1, $C$CON10          ; [DPU_3_PIPE] |1012|  ; [ORIG 16-BIT INS]
     904 0000006e 6801              LDR       A2, [A1, #0]          ; [DPU_3_PIPE] |1012|  ; [ORIG 16-BIT INS]
     905 00000070 4640              MOV       A1, V5                ; [DPU_3_PIPE] |1012|  ; [ORIG 16-BIT INS]
     906                    $C$DW$72        .dwtag  DW_TAG_TI_branch
     907                            .dwattr $C$DW$72, DW_AT_low_pc(0x00)
     908                            .dwattr $C$DW$72, DW_AT_TI_call
     909                            .dwattr $C$DW$72, DW_AT_TI_indirect
     910                    
     911 00000072 4788              BLX       A2                    ; [DPU_3_PIPE] |1012|  ; [ORIG 16-BIT INS]
     912                            ; CALL OCCURS {}                 ; [] |1012| 
     913                    $C$DW$73        .dwtag  DW_TAG_TI_branch
     914                            .dwattr $C$DW$73, DW_AT_low_pc(0x00)
     915                            .dwattr $C$DW$73, DW_AT_TI_return
     916                    
     917 00000074 87FCE8BD          POP       {A3, A4, V1, V2, V3, V4, V5, V6, V7, PC} ; [DPU_3_PIPE]  ; [KEEP 32-BIT INS]
     918                            .dwcfi  cfa_offset, 0
     919                            ; BRANCH OCCURS                  ; [] 
     920                            .dwattr $C$DW$51, DW_AT_TI_end_file("../Application/Services/nvocop.c")
     921                            .dwattr $C$DW$51, DW_AT_TI_end_line(0x3fa)
     922                            .dwattr $C$DW$51, DW_AT_TI_end_column(0x01)
     923                            .dwendentry
     924                            .dwendtag $C$DW$51
     925                    
     926 00000000                   .sect   ".text:setXferPage"
     927                            .clink
     928                            .thumbfunc setXferPage
     929 00000000                   .thumb
     930                    
     931                    $C$DW$74        .dwtag  DW_TAG_subprogram
     932                            .dwattr $C$DW$74, DW_AT_name("setXferPage")
     933                            .dwattr $C$DW$74, DW_AT_low_pc(setXferPage)
     934                            .dwattr $C$DW$74, DW_AT_high_pc(0x00)
     935                            .dwattr $C$DW$74, DW_AT_TI_symbol_name("setXferPage")
TI ARM Assembler PC v16.9.4 Sat Nov 18 18:46:31 2017

Tools Copyright (c) 1996-2017 Texas Instruments Incorporated
C:\Users\Kevin\AppData\Local\Temp\{6C42DDD5-7C92-479C-8F05-55537E4479EC} PAGE   18

     936                            .dwattr $C$DW$74, DW_AT_TI_begin_file("../Application/Services/nvocop.c")
     937                            .dwattr $C$DW$74, DW_AT_TI_begin_line(0x217)
     938                            .dwattr $C$DW$74, DW_AT_TI_begin_column(0x0d)
     939                            .dwattr $C$DW$74, DW_AT_decl_file("../Application/Services/nvocop.c")
     940                            .dwattr $C$DW$74, DW_AT_decl_line(0x217)
     941                            .dwattr $C$DW$74, DW_AT_decl_column(0x0d)
     942                            .dwattr $C$DW$74, DW_AT_TI_max_frame_size(0x08)
     943                            .dwpsn  file "../Application/Services/nvocop.c",line 536,column 1,is_stmt,address setXferPage,
     944                    
     945                            .dwfde $C$DW$CIE, setXferPage
     946                    
     947                    ;*****************************************************************************
     948                    ;* FUNCTION NAME: setXferPage                                                *
     949                    ;*                                                                           *
     950                    ;*   Regs Modified     : A1,A2,A3,A4,V9,SP,LR,SR                             *
     951                    ;*   Regs Used         : A1,A2,A3,A4,V9,SP,LR,SR                             *
     952                    ;*   Local Frame Size  : 0 Args + 4 Auto + 4 Save = 8 byte                   *
     953                    ;*****************************************************************************
     954                    setXferPage:
     955                    ;* --------------------------------------------------------------------------*
     956                    $C$DW$75        .dwtag  DW_TAG_variable
     957                            .dwattr $C$DW$75, DW_AT_name("pgHdr")
     958                            .dwattr $C$DW$75, DW_AT_TI_symbol_name("pgHdr")
     959                            .dwattr $C$DW$75, DW_AT_type(*$C$DW$T$210)
     960                            .dwattr $C$DW$75, DW_AT_location[DW_OP_breg13 0]
     961                    
     962                            .dwcfi  cfa_offset, 0
     963 00000000 B508              PUSH      {A4, LR}              ; [DPU_3_PIPE]  ; [ORIG 16-BIT INS]
     964                            .dwcfi  cfa_offset, 8
     965                            .dwcfi  save_reg_to_mem, 14, -4
     966                            .dwcfi  save_reg_to_mem, 3, -8
     967                            .dwpsn  file "../Application/Services/nvocop.c",line 540,column 3,is_stmt,isa 1
     968 00000002 2000              MOVS      A1, #0                ; [DPU_3_PIPE] |540|  ; [ORIG 16-BIT INS]
     969                            .dwpsn  file "../Application/Services/nvocop.c",line 542,column 3,is_stmt,isa 1
     970 00000004 2201              MOVS      A3, #1                ; [DPU_3_PIPE] |542|  ; [ORIG 16-BIT INS]
     971 00000006 4669              MOV       A2, SP                ; [DPU_3_PIPE] |542|  ; [ORIG 16-BIT INS]
     972                            .dwpsn  file "../Application/Services/nvocop.c",line 540,column 3,is_stmt,isa 1
     973 00000008 9000              STR       A1, [SP, #0]          ; [DPU_3_PIPE] |540|  ; [ORIG 16-BIT INS]
     974                            .dwpsn  file "../Application/Services/nvocop.c",line 542,column 3,is_stmt,isa 1
     975                    $C$DW$76        .dwtag  DW_TAG_TI_branch
     976                            .dwattr $C$DW$76, DW_AT_low_pc(0x00)
     977                            .dwattr $C$DW$76, DW_AT_name("writeWord")
     978                            .dwattr $C$DW$76, DW_AT_TI_call
     979                    
     980 0000000a FFFEF7FF!         BL        writeWord             ; [DPU_3_PIPE] |542|  ; [KEEP 32-BIT INS]
     981                            ; CALL OCCURS {writeWord }       ; [] |542| 
     982                    $C$DW$77        .dwtag  DW_TAG_TI_branch
     983                            .dwattr $C$DW$77, DW_AT_low_pc(0x00)
     984                            .dwattr $C$DW$77, DW_AT_TI_return
     985                    
     986 0000000e BD08              POP       {A4, PC}              ; [DPU_3_PIPE]  ; [ORIG 16-BIT INS]
     987                            .dwcfi  cfa_offset, 0
     988                            ; BRANCH OCCURS                  ; [] 
     989                            .dwattr $C$DW$74, DW_AT_TI_end_file("../Application/Services/nvocop.c")
     990                            .dwattr $C$DW$74, DW_AT_TI_end_line(0x21f)
TI ARM Assembler PC v16.9.4 Sat Nov 18 18:46:31 2017

Tools Copyright (c) 1996-2017 Texas Instruments Incorporated
C:\Users\Kevin\AppData\Local\Temp\{6C42DDD5-7C92-479C-8F05-55537E4479EC} PAGE   19

     991                            .dwattr $C$DW$74, DW_AT_TI_end_column(0x01)
     992                            .dwendentry
     993                            .dwendtag $C$DW$74
     994                    
     995 00000000                   .sect   ".text:findItemInCache"
     996                            .clink
     997                            .thumbfunc findItemInCache
     998 00000000                   .thumb
     999                    
    1000                    $C$DW$78        .dwtag  DW_TAG_subprogram
    1001                            .dwattr $C$DW$78, DW_AT_name("findItemInCache")
    1002                            .dwattr $C$DW$78, DW_AT_low_pc(findItemInCache)
    1003                            .dwattr $C$DW$78, DW_AT_high_pc(0x00)
    1004                            .dwattr $C$DW$78, DW_AT_TI_symbol_name("findItemInCache")
    1005                            .dwattr $C$DW$78, DW_AT_type(*$C$DW$T$19)
    1006                            .dwattr $C$DW$78, DW_AT_TI_begin_file("../Application/Services/nvocop.c")
    1007                            .dwattr $C$DW$78, DW_AT_TI_begin_line(0x2ba)
    1008                            .dwattr $C$DW$78, DW_AT_TI_begin_column(0x0f)
    1009                            .dwattr $C$DW$78, DW_AT_decl_file("../Application/Services/nvocop.c")
    1010                            .dwattr $C$DW$78, DW_AT_decl_line(0x2ba)
    1011                            .dwattr $C$DW$78, DW_AT_decl_column(0x0f)
    1012                            .dwattr $C$DW$78, DW_AT_TI_max_frame_size(0x20)
    1013                            .dwpsn  file "../Application/Services/nvocop.c",line 700,column 1,is_stmt,address findItemInCa
    1014                    
    1015                            .dwfde $C$DW$CIE, findItemInCache
    1016                    $C$DW$79        .dwtag  DW_TAG_formal_parameter
    1017                            .dwattr $C$DW$79, DW_AT_name("offset")
    1018                            .dwattr $C$DW$79, DW_AT_TI_symbol_name("offset")
    1019                            .dwattr $C$DW$79, DW_AT_type(*$C$DW$T$19)
    1020                            .dwattr $C$DW$79, DW_AT_location[DW_OP_reg0]
    1021                    
    1022                    $C$DW$80        .dwtag  DW_TAG_formal_parameter
    1023                            .dwattr $C$DW$80, DW_AT_name("nv_id")
    1024                            .dwattr $C$DW$80, DW_AT_TI_symbol_name("nv_id")
    1025                            .dwattr $C$DW$80, DW_AT_type(*$C$DW$T$166)
    1026                            .dwattr $C$DW$80, DW_AT_location[DW_OP_breg13 24]
    1027                    
    1028                    
    1029                    ;*****************************************************************************
    1030                    ;* FUNCTION NAME: findItemInCache                                            *
    1031                    ;*                                                                           *
    1032                    ;*   Regs Modified     : A1,A2,A3,A4,V1,V4,SP,LR,SR                          *
    1033                    ;*   Regs Used         : A1,A2,A3,A4,V1,V4,SP,LR,SR                          *
    1034                    ;*   Local Frame Size  : 0 Args + 8 Auto + 12 Save = 20 byte                 *
    1035                    ;*****************************************************************************
    1036                    findItemInCache:
    1037                    ;* --------------------------------------------------------------------------*
    1038                    $C$DW$81        .dwtag  DW_TAG_variable
    1039                            .dwattr $C$DW$81, DW_AT_name("hdr")
    1040                            .dwattr $C$DW$81, DW_AT_TI_symbol_name("hdr")
    1041                            .dwattr $C$DW$81, DW_AT_type(*$C$DW$T$188)
    1042                            .dwattr $C$DW$81, DW_AT_location[DW_OP_breg13 0]
    1043                    
    1044                    ;* A3    assigned to $O$v2
    1045                    ;* A1    assigned to offset
TI ARM Assembler PC v16.9.4 Sat Nov 18 18:46:31 2017

Tools Copyright (c) 1996-2017 Texas Instruments Incorporated
C:\Users\Kevin\AppData\Local\Temp\{6C42DDD5-7C92-479C-8F05-55537E4479EC} PAGE   20

    1046                    $C$DW$82        .dwtag  DW_TAG_variable
    1047                            .dwattr $C$DW$82, DW_AT_name("offset")
    1048                            .dwattr $C$DW$82, DW_AT_TI_symbol_name("offset")
    1049                            .dwattr $C$DW$82, DW_AT_type(*$C$DW$T$19)
    1050                            .dwattr $C$DW$82, DW_AT_location[DW_OP_reg0]
    1051                    
    1052                            .dwcfi  cfa_offset, 0
    1053                            .dwpsn  file "../Application/Services/nvocop.c",line 703,column 10,is_stmt,isa 1
    1054 00000000 1F00              SUBS      A1, A1, #4            ; [DPU_3_PIPE] |703|  ; [ORIG 16-BIT INS]
    1055 00000002 B406              PUSH      {A2, A3}              ; [DPU_3_PIPE]  ; [ORIG 16-BIT INS]
    1056                            .dwcfi  cfa_offset, 8
    1057                            .dwcfi  save_reg_to_mem, 2, -4
    1058                            .dwcfi  save_reg_to_mem, 1, -8
    1059 00000004 B280              UXTH      A1, A1                ; [DPU_3_PIPE] |703|  ; [ORIG 16-BIT INS]
    1060 00000006 B590              PUSH      {V1, V4, LR}          ; [DPU_3_PIPE]  ; [ORIG 16-BIT INS]
    1061                            .dwcfi  cfa_offset, 20
    1062                            .dwcfi  save_reg_to_mem, 14, -12
    1063                            .dwcfi  save_reg_to_mem, 7, -16
    1064                            .dwcfi  save_reg_to_mem, 4, -20
    1065 00000008 2808              CMP       A1, #8                ; [DPU_3_PIPE] |703|  ; [ORIG 16-BIT INS]
    1066 0000000a AF03              ADD       V4, SP, #12           ; [DPU_3_PIPE]  ; [ORIG 16-BIT INS]
    1067 0000000c 0D0CF1AD          SUB       SP, SP, #12           ; [DPU_3_PIPE]  ; [KEEP 32-BIT INS]
    1068                            .dwcfi  cfa_offset, 32
    1069 00000010 DB22              BLT       ||$C$L16||            ; [DPU_3_PIPE] |703|  ; [ORIG 16-BIT INS]
    1070                            ; BRANCHCC OCCURS {||$C$L16||}   ; [] |703| 
    1071                    ;* --------------------------------------------------------------------------*
    1072 00000012 783A              LDRB      A3, [V4, #0]          ; [DPU_3_PIPE] |703|  ; [ORIG 16-BIT INS]
    1073                    ;* --------------------------------------------------------------------------*
    1074                    ;*   BEGIN LOOP ||$C$L14||
    1075                    ;*
    1076                    ;*   Loop source line                : 703
    1077                    ;*   Loop closing brace source line  : 727
    1078                    ;*   Known Minimum Trip Count        : 1
    1079                    ;*   Known Maximum Trip Count        : 4294967295
    1080                    ;*   Known Max Trip Count Factor     : 1
    1081                    ;* --------------------------------------------------------------------------*
    1082 00000014           ||$C$L14||:    
    1083 00000014 5F80F5B0          CMP       A1, #4096             ; [DPU_3_PIPE] |703|  ; [KEEP 32-BIT INS]
    1084 00000018 DA1E              BGE       ||$C$L16||            ; [DPU_3_PIPE] |703|  ; [ORIG 16-BIT INS]
    1085                            ; BRANCHCC OCCURS {||$C$L16||}   ; [] |703| 
    1086                    ;* --------------------------------------------------------------------------*
    1087                            .dwpsn  file "../Application/Services/nvocop.c",line 709,column 5,is_stmt,isa 1
    1088 0000001a 5188F100          ADD       A2, A1, #285212672    ; [DPU_3_PIPE] |709|  ; [KEEP 32-BIT INS]
    1089 0000001e 1F09              SUBS      A2, A2, #4            ; [DPU_3_PIPE] |709|  ; [ORIG 16-BIT INS]
    1090 00000020 680C              LDR       V1, [A2, #0]          ; [DPU_3_PIPE] |709|  ; [ORIG 16-BIT INS]
    1091 00000022 466B              MOV       A4, SP                ; [DPU_3_PIPE] |709|  ; [ORIG 16-BIT INS]
    1092 00000024 601C              STR       V1, [A4, #0]          ; [DPU_3_PIPE] |709|  ; [ORIG 16-BIT INS]
    1093 00000026 6849              LDR       A2, [A2, #4]          ; [DPU_3_PIPE] |709|  ; [ORIG 16-BIT INS]
    1094 00000028 6059              STR       A2, [A4, #4]          ; [DPU_3_PIPE] |709|  ; [ORIG 16-BIT INS]
    1095                            .dwpsn  file "../Application/Services/nvocop.c",line 716,column 5,is_stmt,isa 1
    1096 0000002a 1000F8BD          LDRH      A2, [SP, #0]          ; [DPU_3_PIPE] |716|  ; [KEEP 32-BIT INS]
    1097 0000002e 428A              CMP       A3, A2                ; [DPU_3_PIPE] |716|  ; [ORIG 16-BIT INS]
    1098 00000030 D10B              BNE       ||$C$L15||            ; [DPU_3_PIPE] |716|  ; [ORIG 16-BIT INS]
    1099                            ; BRANCHCC OCCURS {||$C$L15||}   ; [] |716| 
    1100                    ;* --------------------------------------------------------------------------*
TI ARM Assembler PC v16.9.4 Sat Nov 18 18:46:31 2017

Tools Copyright (c) 1996-2017 Texas Instruments Incorporated
C:\Users\Kevin\AppData\Local\Temp\{6C42DDD5-7C92-479C-8F05-55537E4479EC} PAGE   21

    1101 00000032 8879              LDRH      A2, [V4, #2]          ; [DPU_3_PIPE] |716|  ; [ORIG 16-BIT INS]
    1102 00000034 3002F8BD          LDRH      A4, [SP, #2]          ; [DPU_3_PIPE] |716|  ; [KEEP 32-BIT INS]
    1103 00000038 4299              CMP       A2, A4                ; [DPU_3_PIPE] |716|  ; [ORIG 16-BIT INS]
    1104 0000003a D106              BNE       ||$C$L15||            ; [DPU_3_PIPE] |716|  ; [ORIG 16-BIT INS]
    1105                            ; BRANCHCC OCCURS {||$C$L15||}   ; [] |716| 
    1106                    ;* --------------------------------------------------------------------------*
    1107 0000003c 88B9              LDRH      A2, [V4, #4]          ; [DPU_3_PIPE] |716|  ; [ORIG 16-BIT INS]
    1108 0000003e 3004F8BD          LDRH      A4, [SP, #4]          ; [DPU_3_PIPE] |716|  ; [KEEP 32-BIT INS]
    1109 00000042 4299              CMP       A2, A4                ; [DPU_3_PIPE] |716|  ; [ORIG 16-BIT INS]
    1110 00000044 BF08              IT        EQ                    ; [DPU_3_PIPE]  ; [ORIG 16-BIT INS]
    1111                            .dwpsn  file "../Application/Services/nvocop.c",line 721,column 7,is_stmt,isa 1
    1112 00000046 2001              MOVEQ     A1, #1                ; [DPU_3_PIPE] |721|  ; [ORIG 16-BIT INS]
    1113 00000048 D007              BEQ       ||$C$L17||            ; [DPU_3_PIPE] |721|  ; [ORIG 16-BIT INS]
    1114                            ; BRANCHCC OCCURS {||$C$L17||}   ; [] |721| 
    1115                    ;* --------------------------------------------------------------------------*
    1116 0000004a           ||$C$L15||:    
    1117                            .dwpsn  file "../Application/Services/nvocop.c",line 725,column 7,is_stmt,isa 1
    1118 0000004a 1006F8BD          LDRH      A2, [SP, #6]          ; [DPU_3_PIPE] |725|  ; [KEEP 32-BIT INS]
    1119 0000004e 1A40              SUBS      A1, A1, A2            ; [DPU_3_PIPE] |725|  ; [ORIG 16-BIT INS]
    1120 00000050 3808              SUBS      A1, A1, #8            ; [DPU_3_PIPE] |725|  ; [ORIG 16-BIT INS]
    1121 00000052 B280              UXTH      A1, A1                ; [DPU_3_PIPE] |725|  ; [ORIG 16-BIT INS]
    1122 00000054 2808              CMP       A1, #8                ; [DPU_3_PIPE] |725|  ; [ORIG 16-BIT INS]
    1123 00000056 DADD              BGE       ||$C$L14||            ; [DPU_3_PIPE] |725|  ; [ORIG 16-BIT INS]
    1124                            ; BRANCHCC OCCURS {||$C$L14||}   ; [] |725| 
    1125                    ;* --------------------------------------------------------------------------*
    1126 00000058           ||$C$L16||:    
    1127                            .dwpsn  file "../Application/Services/nvocop.c",line 729,column 3,is_stmt,isa 1
    1128 00000058 2000              MOVS      A1, #0                ; [DPU_3_PIPE] |729|  ; [ORIG 16-BIT INS]
    1129                    ;* --------------------------------------------------------------------------*
    1130 0000005a           ||$C$L17||:    
    1131 0000005a B003              ADD       SP, SP, #12           ; [DPU_3_PIPE]  ; [ORIG 16-BIT INS]
    1132                            .dwcfi  cfa_offset, 20
    1133 0000005c 4090E8BD          POP       {V1, V4, LR}          ; [DPU_3_PIPE]  ; [KEEP 32-BIT INS]
    1134                            .dwcfi  cfa_offset, 8
    1135                            .dwcfi  restore_reg, 14
    1136                            .dwcfi  restore_reg, 7
    1137                            .dwcfi  restore_reg, 4
    1138 00000060 B002              ADD       SP, SP, #8            ; [DPU_3_PIPE]  ; [ORIG 16-BIT INS]
    1139                            .dwcfi  cfa_offset, 0
    1140                    $C$DW$83        .dwtag  DW_TAG_TI_branch
    1141                            .dwattr $C$DW$83, DW_AT_low_pc(0x00)
    1142                            .dwattr $C$DW$83, DW_AT_TI_return
    1143                    
    1144 00000062 4770              BX        LR                    ; [DPU_3_PIPE]  ; [ORIG 16-BIT INS]
    1145                            ; BRANCH OCCURS                  ; [] 
    1146                            .dwattr $C$DW$78, DW_AT_TI_end_file("../Application/Services/nvocop.c")
    1147                            .dwattr $C$DW$78, DW_AT_TI_end_line(0x2da)
    1148                            .dwattr $C$DW$78, DW_AT_TI_end_column(0x01)
    1149                            .dwendentry
    1150                            .dwendtag $C$DW$78
    1151                    
    1152 00000000                   .sect   ".text:erasePage"
    1153                            .clink
    1154                            .thumbfunc erasePage
    1155 00000000                   .thumb
TI ARM Assembler PC v16.9.4 Sat Nov 18 18:46:31 2017

Tools Copyright (c) 1996-2017 Texas Instruments Incorporated
C:\Users\Kevin\AppData\Local\Temp\{6C42DDD5-7C92-479C-8F05-55537E4479EC} PAGE   22

    1156                    
    1157                    $C$DW$84        .dwtag  DW_TAG_subprogram
    1158                            .dwattr $C$DW$84, DW_AT_name("erasePage")
    1159                            .dwattr $C$DW$84, DW_AT_low_pc(erasePage)
    1160                            .dwattr $C$DW$84, DW_AT_high_pc(0x00)
    1161                            .dwattr $C$DW$84, DW_AT_TI_symbol_name("erasePage")
    1162                            .dwattr $C$DW$84, DW_AT_TI_begin_file("../Application/Services/nvocop.c")
    1163                            .dwattr $C$DW$84, DW_AT_TI_begin_line(0x22b)
    1164                            .dwattr $C$DW$84, DW_AT_TI_begin_column(0x0d)
    1165                            .dwattr $C$DW$84, DW_AT_decl_file("../Application/Services/nvocop.c")
    1166                            .dwattr $C$DW$84, DW_AT_decl_line(0x22b)
    1167                            .dwattr $C$DW$84, DW_AT_decl_column(0x0d)
    1168                            .dwattr $C$DW$84, DW_AT_TI_max_frame_size(0x18)
    1169                            .dwpsn  file "../Application/Services/nvocop.c",line 556,column 1,is_stmt,address erasePage,is
    1170                    
    1171                            .dwfde $C$DW$CIE, erasePage
    1172                    
    1173                    ;*****************************************************************************
    1174                    ;* FUNCTION NAME: erasePage                                                  *
    1175                    ;*                                                                           *
    1176                    ;*   Regs Modified     : A1,A2,A3,A4,V1,V2,V3,V4,V9,SP,LR,SR                 *
    1177                    ;*   Regs Used         : A1,A2,A3,A4,V1,V2,V3,V4,V9,SP,LR,SR                 *
    1178                    ;*   Local Frame Size  : 0 Args + 0 Auto + 20 Save = 20 byte                 *
    1179                    ;*****************************************************************************
    1180                    erasePage:
    1181                    ;* --------------------------------------------------------------------------*
    1182                    ;* A1    assigned to $O$C1
    1183                    ;* V1    assigned to $O$C2
    1184                    ;* V1    assigned to $O$K15
    1185                    ;* A1    assigned to $O$v1
    1186                    ;* V2    assigned to cs
    1187                    $C$DW$85        .dwtag  DW_TAG_variable
    1188                            .dwattr $C$DW$85, DW_AT_name("cs")
    1189                            .dwattr $C$DW$85, DW_AT_TI_symbol_name("cs")
    1190                            .dwattr $C$DW$85, DW_AT_type(*$C$DW$T$294)
    1191                            .dwattr $C$DW$85, DW_AT_location[DW_OP_reg5]
    1192                    
    1193                    ;* V3    assigned to state
    1194                    $C$DW$86        .dwtag  DW_TAG_variable
    1195                            .dwattr $C$DW$86, DW_AT_name("state")
    1196                            .dwattr $C$DW$86, DW_AT_TI_symbol_name("state")
    1197                            .dwattr $C$DW$86, DW_AT_type(*$C$DW$T$10)
    1198                            .dwattr $C$DW$86, DW_AT_location[DW_OP_reg6]
    1199                    
    1200                    ;* V4    assigned to err
    1201                    $C$DW$87        .dwtag  DW_TAG_variable
    1202                            .dwattr $C$DW$87, DW_AT_name("err")
    1203                            .dwattr $C$DW$87, DW_AT_TI_symbol_name("err")
    1204                            .dwattr $C$DW$87, DW_AT_type(*$C$DW$T$21)
    1205                            .dwattr $C$DW$87, DW_AT_location[DW_OP_reg7]
    1206                    
    1207                            .dwcfi  cfa_offset, 0
    1208                            .dwpsn  file "../Application/Services/nvocop.c",line 569,column 5,is_stmt,isa 1
    1209 00000000 4811              LDR       A1, $C$CON17          ; [DPU_3_PIPE] |569|  ; [ORIG 16-BIT INS]
    1210 00000002 B5F8              PUSH      {A4, V1, V2, V3, V4, LR} ; [DPU_3_PIPE]  ; [ORIG 16-BIT INS]
TI ARM Assembler PC v16.9.4 Sat Nov 18 18:46:31 2017

Tools Copyright (c) 1996-2017 Texas Instruments Incorporated
C:\Users\Kevin\AppData\Local\Temp\{6C42DDD5-7C92-479C-8F05-55537E4479EC} PAGE   23

    1211                            .dwcfi  cfa_offset, 24
    1212                            .dwcfi  save_reg_to_mem, 14, -4
    1213                            .dwcfi  save_reg_to_mem, 7, -8
    1214                            .dwcfi  save_reg_to_mem, 6, -12
    1215                            .dwcfi  save_reg_to_mem, 5, -16
    1216                            .dwcfi  save_reg_to_mem, 4, -20
    1217                            .dwcfi  save_reg_to_mem, 3, -24
    1218 00000004 6800              LDR       A1, [A1, #0]          ; [DPU_3_PIPE] |569|  ; [ORIG 16-BIT INS]
    1219                    $C$DW$88        .dwtag  DW_TAG_TI_branch
    1220                            .dwattr $C$DW$88, DW_AT_low_pc(0x00)
    1221                            .dwattr $C$DW$88, DW_AT_TI_call
    1222                            .dwattr $C$DW$88, DW_AT_TI_indirect
    1223                    
    1224 00000006 4780              BLX       A1                    ; [DPU_3_PIPE] |569|  ; [ORIG 16-BIT INS]
    1225                            ; CALL OCCURS {}                 ; [] |569| 
    1226 00000008 4605              MOV       V2, A1                ; [DPU_3_PIPE] |569|  ; [ORIG 16-BIT INS]
    1227                            .dwpsn  file "../Application/Services/nvocop.c",line 572,column 5,is_stmt,isa 1
    1228                    $C$DW$89        .dwtag  DW_TAG_TI_branch
    1229                            .dwattr $C$DW$89, DW_AT_low_pc(0x00)
    1230                            .dwattr $C$DW$89, DW_AT_name("disableCache")
    1231                            .dwattr $C$DW$89, DW_AT_TI_call
    1232                    
    1233 0000000a FFFEF7FF!         BL        disableCache          ; [DPU_3_PIPE] |572|  ; [KEEP 32-BIT INS]
    1234                            ; CALL OCCURS {disableCache }    ; [] |572| 
    1235 0000000e 4606              MOV       V3, A1                ; [DPU_3_PIPE] |572|  ; [ORIG 16-BIT INS]
    1236                            .dwpsn  file "../Application/Services/nvocop.c",line 574,column 5,is_stmt,isa 1
    1237 00000010 480B              LDR       A1, $C$CON14          ; [DPU_3_PIPE] |574|  ; [ORIG 16-BIT INS]
    1238 00000012 2100              MOVS      A2, #0                ; [DPU_3_PIPE] |574|  ; [ORIG 16-BIT INS]
    1239 00000014 0B00              LSRS      A1, A1, #12           ; [DPU_3_PIPE] |574|  ; [ORIG 16-BIT INS]
    1240 00000016 B2C0              UXTB      A1, A1                ; [DPU_3_PIPE] |574|  ; [ORIG 16-BIT INS]
    1241                    $C$DW$90        .dwtag  DW_TAG_TI_branch
    1242                            .dwattr $C$DW$90, DW_AT_low_pc(0x00)
    1243                            .dwattr $C$DW$90, DW_AT_name("HalFlashGetAddress")
    1244                            .dwattr $C$DW$90, DW_AT_TI_call
    1245                    
    1246 00000018 FFFEF7FF!         BL        HalFlashGetAddress    ; [DPU_3_PIPE] |574|  ; [KEEP 32-BIT INS]
    1247                            ; CALL OCCURS {HalFlashGetAddress }  ; [] |574| 
    1248 0000001c 4C09              LDR       V1, $C$CON15          ; [DPU_3_PIPE] |574|  ; [ORIG 16-BIT INS]
    1249 0000001e 6060              STR       A1, [V1, #4]          ; [DPU_3_PIPE] |574|  ; [ORIG 16-BIT INS]
    1250                            .dwpsn  file "../Application/Services/nvocop.c",line 577,column 5,is_stmt,isa 1
    1251                    $C$DW$91        .dwtag  DW_TAG_TI_branch
    1252                            .dwattr $C$DW$91, DW_AT_low_pc(0x00)
    1253                            .dwattr $C$DW$91, DW_AT_name("NOROM_FlashSectorErase")
    1254                            .dwattr $C$DW$91, DW_AT_TI_call
    1255                    
    1256 00000020 FFFEF7FF!         BL        NOROM_FlashSectorErase ; [DPU_3_PIPE] |577|  ; [KEEP 32-BIT INS]
    1257                            ; CALL OCCURS {NOROM_FlashSectorErase }  ; [] |577| 
    1258 00000024 4607              MOV       V4, A1                ; [DPU_3_PIPE] |577|  ; [ORIG 16-BIT INS]
    1259                            .dwpsn  file "../Application/Services/nvocop.c",line 580,column 5,is_stmt,isa 1
    1260 00000026 4630              MOV       A1, V3                ; [DPU_3_PIPE] |580|  ; [ORIG 16-BIT INS]
    1261                    $C$DW$92        .dwtag  DW_TAG_TI_branch
    1262                            .dwattr $C$DW$92, DW_AT_low_pc(0x00)
    1263                            .dwattr $C$DW$92, DW_AT_name("enableCache")
    1264                            .dwattr $C$DW$92, DW_AT_TI_call
    1265                    
TI ARM Assembler PC v16.9.4 Sat Nov 18 18:46:31 2017

Tools Copyright (c) 1996-2017 Texas Instruments Incorporated
C:\Users\Kevin\AppData\Local\Temp\{6C42DDD5-7C92-479C-8F05-55537E4479EC} PAGE   24

    1266 00000028 FFFEF7FF!         BL        enableCache           ; [DPU_3_PIPE] |580|  ; [KEEP 32-BIT INS]
    1267                            ; CALL OCCURS {enableCache }     ; [] |580| 
    1268 0000002c B117              CBZ       V4, ||$C$L18||        ; []  ; [ORIG 16-BIT INS]
    1269                            .dwpsn  file "../Application/Services/nvocop.c",line 583,column 5,is_stmt,isa 1
    1270                            ; BRANCHCC OCCURS {||$C$L18||}   ; [] |583| 
    1271                    ;* --------------------------------------------------------------------------*
    1272                            .dwpsn  file "../Application/Services/nvocop.c",line 585,column 7,is_stmt,isa 1
    1273 0000002e 2001              MOVS      A1, #1                ; [DPU_3_PIPE] |585|  ; [ORIG 16-BIT INS]
    1274 00000030 7060              STRB      A1, [V1, #1]          ; [DPU_3_PIPE] |585|  ; [ORIG 16-BIT INS]
    1275 00000032 7020              STRB      A1, [V1, #0]          ; [DPU_3_PIPE] |585|  ; [ORIG 16-BIT INS]
    1276                    ;* --------------------------------------------------------------------------*
    1277 00000034           ||$C$L18||:    
    1278                            .dwpsn  file "../Application/Services/nvocop.c",line 588,column 5,is_stmt,isa 1
    1279 00000034 4805              LDR       A1, $C$CON18          ; [DPU_3_PIPE] |588|  ; [ORIG 16-BIT INS]
    1280 00000036 6801              LDR       A2, [A1, #0]          ; [DPU_3_PIPE] |588|  ; [ORIG 16-BIT INS]
    1281 00000038 4628              MOV       A1, V2                ; [DPU_3_PIPE] |588|  ; [ORIG 16-BIT INS]
    1282                    $C$DW$93        .dwtag  DW_TAG_TI_branch
    1283                            .dwattr $C$DW$93, DW_AT_low_pc(0x00)
    1284                            .dwattr $C$DW$93, DW_AT_TI_call
    1285                            .dwattr $C$DW$93, DW_AT_TI_indirect
    1286                    
    1287 0000003a 4788              BLX       A2                    ; [DPU_3_PIPE] |588|  ; [ORIG 16-BIT INS]
    1288                            ; CALL OCCURS {}                 ; [] |588| 
    1289                    $C$DW$94        .dwtag  DW_TAG_TI_branch
    1290                            .dwattr $C$DW$94, DW_AT_low_pc(0x00)
    1291                            .dwattr $C$DW$94, DW_AT_TI_return
    1292                    
    1293 0000003c BDF8              POP       {A4, V1, V2, V3, V4, PC} ; [DPU_3_PIPE]  ; [ORIG 16-BIT INS]
    1294                            .dwcfi  cfa_offset, 0
    1295                            ; BRANCH OCCURS                  ; [] 
    1296                            .dwattr $C$DW$84, DW_AT_TI_end_file("../Application/Services/nvocop.c")
    1297                            .dwattr $C$DW$84, DW_AT_TI_end_line(0x24e)
    1298                            .dwattr $C$DW$84, DW_AT_TI_end_column(0x01)
    1299                            .dwendentry
    1300                            .dwendtag $C$DW$84
    1301                    
    1302 00000000                   .sect   ".text:setActivePage"
    1303                            .clink
    1304                            .thumbfunc setActivePage
    1305 00000000                   .thumb
    1306                    
    1307                    $C$DW$95        .dwtag  DW_TAG_subprogram
    1308                            .dwattr $C$DW$95, DW_AT_name("setActivePage")
    1309                            .dwattr $C$DW$95, DW_AT_low_pc(setActivePage)
    1310                            .dwattr $C$DW$95, DW_AT_high_pc(0x00)
    1311                            .dwattr $C$DW$95, DW_AT_TI_symbol_name("setActivePage")
    1312                            .dwattr $C$DW$95, DW_AT_TI_begin_file("../Application/Services/nvocop.c")
    1313                            .dwattr $C$DW$95, DW_AT_TI_begin_line(0x205)
    1314                            .dwattr $C$DW$95, DW_AT_TI_begin_column(0x0d)
    1315                            .dwattr $C$DW$95, DW_AT_decl_file("../Application/Services/nvocop.c")
    1316                            .dwattr $C$DW$95, DW_AT_decl_line(0x205)
    1317                            .dwattr $C$DW$95, DW_AT_decl_column(0x0d)
    1318                            .dwattr $C$DW$95, DW_AT_TI_max_frame_size(0x08)
    1319                            .dwpsn  file "../Application/Services/nvocop.c",line 518,column 1,is_stmt,address setActivePag
    1320                    
TI ARM Assembler PC v16.9.4 Sat Nov 18 18:46:31 2017

Tools Copyright (c) 1996-2017 Texas Instruments Incorporated
C:\Users\Kevin\AppData\Local\Temp\{6C42DDD5-7C92-479C-8F05-55537E4479EC} PAGE   25

    1321                            .dwfde $C$DW$CIE, setActivePage
    1322                    
    1323                    ;*****************************************************************************
    1324                    ;* FUNCTION NAME: setActivePage                                              *
    1325                    ;*                                                                           *
    1326                    ;*   Regs Modified     : A1,A2,A3,A4,V9,SP,LR,SR                             *
    1327                    ;*   Regs Used         : A1,A2,A3,A4,V9,SP,LR,SR                             *
    1328                    ;*   Local Frame Size  : 0 Args + 4 Auto + 4 Save = 8 byte                   *
    1329                    ;*****************************************************************************
    1330                    setActivePage:
    1331                    ;* --------------------------------------------------------------------------*
    1332                    $C$DW$96        .dwtag  DW_TAG_variable
    1333                            .dwattr $C$DW$96, DW_AT_name("pgHdr")
    1334                            .dwattr $C$DW$96, DW_AT_TI_symbol_name("pgHdr")
    1335                            .dwattr $C$DW$96, DW_AT_type(*$C$DW$T$210)
    1336                            .dwattr $C$DW$96, DW_AT_location[DW_OP_breg13 0]
    1337                    
    1338                            .dwcfi  cfa_offset, 0
    1339 00000000 B508              PUSH      {A4, LR}              ; [DPU_3_PIPE]  ; [ORIG 16-BIT INS]
    1340                            .dwcfi  cfa_offset, 8
    1341                            .dwcfi  save_reg_to_mem, 14, -4
    1342                            .dwcfi  save_reg_to_mem, 3, -8
    1343                            .dwpsn  file "../Application/Services/nvocop.c",line 521,column 3,is_stmt,isa 1
    1344 00000002 1080F44F          MOV       A1, #1048576          ; [DPU_3_PIPE] |521|  ; [KEEP 32-BIT INS]
    1345                            .dwpsn  file "../Application/Services/nvocop.c",line 523,column 3,is_stmt,isa 1
    1346 00000006 2201              MOVS      A3, #1                ; [DPU_3_PIPE] |523|  ; [ORIG 16-BIT INS]
    1347 00000008 4669              MOV       A2, SP                ; [DPU_3_PIPE] |523|  ; [ORIG 16-BIT INS]
    1348                            .dwpsn  file "../Application/Services/nvocop.c",line 521,column 3,is_stmt,isa 1
    1349 0000000a 9000              STR       A1, [SP, #0]          ; [DPU_3_PIPE] |521|  ; [ORIG 16-BIT INS]
    1350                            .dwpsn  file "../Application/Services/nvocop.c",line 523,column 3,is_stmt,isa 1
    1351 0000000c 2000              MOVS      A1, #0                ; [DPU_3_PIPE] |523|  ; [ORIG 16-BIT INS]
    1352                    $C$DW$97        .dwtag  DW_TAG_TI_branch
    1353                            .dwattr $C$DW$97, DW_AT_low_pc(0x00)
    1354                            .dwattr $C$DW$97, DW_AT_name("writeWord")
    1355                            .dwattr $C$DW$97, DW_AT_TI_call
    1356                    
    1357 0000000e FFFEF7FF!         BL        writeWord             ; [DPU_3_PIPE] |523|  ; [KEEP 32-BIT INS]
    1358                            ; CALL OCCURS {writeWord }       ; [] |523| 
    1359                    $C$DW$98        .dwtag  DW_TAG_TI_branch
    1360                            .dwattr $C$DW$98, DW_AT_low_pc(0x00)
    1361                            .dwattr $C$DW$98, DW_AT_TI_return
    1362                    
    1363 00000012 BD08              POP       {A4, PC}              ; [DPU_3_PIPE]  ; [ORIG 16-BIT INS]
    1364                            .dwcfi  cfa_offset, 0
    1365                            ; BRANCH OCCURS                  ; [] 
    1366                            .dwattr $C$DW$95, DW_AT_TI_end_file("../Application/Services/nvocop.c")
    1367                            .dwattr $C$DW$95, DW_AT_TI_end_line(0x20c)
    1368                            .dwattr $C$DW$95, DW_AT_TI_end_column(0x01)
    1369                            .dwendentry
    1370                            .dwendtag $C$DW$95
    1371                    
    1372 00000000                   .sect   ".text:compactPage"
    1373                            .clink
    1374                            .thumbfunc compactPage
    1375 00000000                   .thumb
TI ARM Assembler PC v16.9.4 Sat Nov 18 18:46:31 2017

Tools Copyright (c) 1996-2017 Texas Instruments Incorporated
C:\Users\Kevin\AppData\Local\Temp\{6C42DDD5-7C92-479C-8F05-55537E4479EC} PAGE   26

    1376                    
    1377                    $C$DW$99        .dwtag  DW_TAG_subprogram
    1378                            .dwattr $C$DW$99, DW_AT_name("compactPage")
    1379                            .dwattr $C$DW$99, DW_AT_low_pc(compactPage)
    1380                            .dwattr $C$DW$99, DW_AT_high_pc(0x00)
    1381                            .dwattr $C$DW$99, DW_AT_TI_symbol_name("compactPage")
    1382                            .dwattr $C$DW$99, DW_AT_type(*$C$DW$T$19)
    1383                            .dwattr $C$DW$99, DW_AT_TI_begin_file("../Application/Services/nvocop.c")
    1384                            .dwattr $C$DW$99, DW_AT_TI_begin_line(0x320)
    1385                            .dwattr $C$DW$99, DW_AT_TI_begin_column(0x0f)
    1386                            .dwattr $C$DW$99, DW_AT_decl_file("../Application/Services/nvocop.c")
    1387                            .dwattr $C$DW$99, DW_AT_decl_line(0x320)
    1388                            .dwattr $C$DW$99, DW_AT_decl_column(0x0f)
    1389                            .dwattr $C$DW$99, DW_AT_TI_max_frame_size(0x38)
    1390                            .dwpsn  file "../Application/Services/nvocop.c",line 801,column 1,is_stmt,address compactPage,
    1391                    
    1392                            .dwfde $C$DW$CIE, compactPage
    1393                    
    1394                    ;*****************************************************************************
    1395                    ;* FUNCTION NAME: compactPage                                                *
    1396                    ;*                                                                           *
    1397                    ;*   Regs Modified     : A1,A2,A3,A4,V1,V2,V3,V4,V5,V6,V7,V8,V9,SP,LR,SR     *
    1398                    ;*   Regs Used         : A1,A2,A3,A4,V1,V2,V3,V4,V5,V6,V7,V8,V9,SP,LR,SR     *
    1399                    ;*   Local Frame Size  : 0 Args + 20 Auto + 36 Save = 56 byte                *
    1400                    ;*****************************************************************************
    1401                    compactPage:
    1402                    ;* --------------------------------------------------------------------------*
    1403                    $C$DW$100       .dwtag  DW_TAG_variable
    1404                            .dwattr $C$DW$100, DW_AT_name("lastId")
    1405                            .dwattr $C$DW$100, DW_AT_TI_symbol_name("lastId")
    1406                            .dwattr $C$DW$100, DW_AT_type(*$C$DW$T$166)
    1407                            .dwattr $C$DW$100, DW_AT_location[DW_OP_breg13 0]
    1408                    
    1409                    $C$DW$101       .dwtag  DW_TAG_variable
    1410                            .dwattr $C$DW$101, DW_AT_name("hdr")
    1411                            .dwattr $C$DW$101, DW_AT_TI_symbol_name("hdr")
    1412                            .dwattr $C$DW$101, DW_AT_type(*$C$DW$T$188)
    1413                            .dwattr $C$DW$101, DW_AT_location[DW_OP_breg13 8]
    1414                    
    1415                    ;* A4    assigned to $O$C16
    1416                    ;* V7    assigned to $O$C17
    1417                    ;* A1    assigned to $O$v1
    1418                    ;* A2    assigned to $O$v1
    1419                    ;* V6    assigned to $O$K38
    1420                    ;* A3    assigned to $O$K14
    1421                    ;* A3    assigned to $O$v7
    1422                    ;* V5    assigned to $O$v6
    1423                    ;* V3    assigned to $O$v5
    1424                    ;* V2    assigned to $O$v4
    1425                    ;* A1    assigned to $O$v3
    1426                    ;* A2    assigned to $O$v2
    1427                    $C$DW$102       .dwtag  DW_TAG_variable
    1428                            .dwattr $C$DW$102, DW_AT_name("state")
    1429                            .dwattr $C$DW$102, DW_AT_TI_symbol_name("state")
    1430                            .dwattr $C$DW$102, DW_AT_type(*$C$DW$T$10)
TI ARM Assembler PC v16.9.4 Sat Nov 18 18:46:31 2017

Tools Copyright (c) 1996-2017 Texas Instruments Incorporated
C:\Users\Kevin\AppData\Local\Temp\{6C42DDD5-7C92-479C-8F05-55537E4479EC} PAGE   27

    1431                            .dwattr $C$DW$102, DW_AT_location[DW_OP_breg13 16]
    1432                    
    1433                    ;* V1    assigned to srcOff
    1434                    $C$DW$103       .dwtag  DW_TAG_variable
    1435                            .dwattr $C$DW$103, DW_AT_name("srcOff")
    1436                            .dwattr $C$DW$103, DW_AT_TI_symbol_name("srcOff")
    1437                            .dwattr $C$DW$103, DW_AT_type(*$C$DW$T$19)
    1438                            .dwattr $C$DW$103, DW_AT_location[DW_OP_reg4]
    1439                    
    1440                    ;* V4    assigned to dstOff
    1441                    $C$DW$104       .dwtag  DW_TAG_variable
    1442                            .dwattr $C$DW$104, DW_AT_name("dstOff")
    1443                            .dwattr $C$DW$104, DW_AT_TI_symbol_name("dstOff")
    1444                            .dwattr $C$DW$104, DW_AT_type(*$C$DW$T$10)
    1445                            .dwattr $C$DW$104, DW_AT_location[DW_OP_reg7]
    1446                    
    1447                            .dwcfi  cfa_offset, 0
    1448 00000000 4FF0E92D          PUSH      {V1, V2, V3, V4, V5, V6, V7, V8, LR} ; [DPU_3_PIPE]  ; [KEEP 32-BIT INS]
    1449                            .dwcfi  cfa_offset, 36
    1450                            .dwcfi  save_reg_to_mem, 14, -4
    1451                            .dwcfi  save_reg_to_mem, 11, -8
    1452                            .dwcfi  save_reg_to_mem, 10, -12
    1453                            .dwcfi  save_reg_to_mem, 9, -16
    1454                            .dwcfi  save_reg_to_mem, 8, -20
    1455                            .dwcfi  save_reg_to_mem, 7, -24
    1456                            .dwcfi  save_reg_to_mem, 6, -28
    1457                            .dwcfi  save_reg_to_mem, 5, -32
    1458                            .dwcfi  save_reg_to_mem, 4, -36
    1459                            .dwpsn  file "../Application/Services/nvocop.c",line 809,column 3,is_stmt,isa 1
    1460 00000004 25FF              MOVS      V2, #255              ; [DPU_3_PIPE] |809|  ; [ORIG 16-BIT INS]
    1461 00000006 0D14F1AD          SUB       SP, SP, #20           ; [DPU_3_PIPE]  ; [KEEP 32-BIT INS]
    1462                            .dwcfi  cfa_offset, 56
    1463 0000000a 5000F88D          STRB      V2, [SP, #0]          ; [DPU_3_PIPE] |809|  ; [KEEP 32-BIT INS]
    1464                            .dwpsn  file "../Application/Services/nvocop.c",line 810,column 3,is_stmt,isa 1
    1465 0000000e 7AFFF64F          MOV       V7, #65535            ; [DPU_3_PIPE] |810|  ; [KEEP 32-BIT INS]
    1466 00000012 A002F8AD          STRH      V7, [SP, #2]          ; [DPU_3_PIPE] |810|  ; [KEEP 32-BIT INS]
    1467                            .dwpsn  file "../Application/Services/nvocop.c",line 811,column 3,is_stmt,isa 1
    1468 00000016 A004F8AD          STRH      V7, [SP, #4]          ; [DPU_3_PIPE] |811|  ; [KEEP 32-BIT INS]
    1469                            .dwpsn  file "../Application/Services/nvocop.c",line 818,column 3,is_stmt,isa 1
    1470                    $C$DW$105       .dwtag  DW_TAG_TI_branch
    1471                            .dwattr $C$DW$105, DW_AT_low_pc(0x00)
    1472                            .dwattr $C$DW$105, DW_AT_name("disableCache")
    1473                            .dwattr $C$DW$105, DW_AT_TI_call
    1474                    
    1475 0000001a FFFEF7FF!         BL        disableCache          ; [DPU_3_PIPE] |818|  ; [KEEP 32-BIT INS]
    1476                            ; CALL OCCURS {disableCache }    ; [] |818| 
    1477 0000001e 9004              STR       A1, [SP, #16]         ; [DPU_3_PIPE] |818|  ; [ORIG 16-BIT INS]
    1478                            .dwpsn  file "../Application/Services/nvocop.c",line 821,column 3,is_stmt,isa 1
    1479 00000020 4848              LDR       A1, $C$CON23          ; [DPU_3_PIPE] |821|  ; [ORIG 16-BIT INS]
    1480 00000022 1C80              ADDS      A1, A1, #2            ; [DPU_3_PIPE]  ; [ORIG 16-BIT INS]
    1481 00000024 8800              LDRH      A1, [A1, #0]          ; [DPU_3_PIPE] |821|  ; [ORIG 16-BIT INS]
    1482                            .dwpsn  file "../Application/Services/nvocop.c",line 815,column 3,is_stmt,isa 1
    1483 00000026 2700              MOVS      V4, #0                ; [DPU_3_PIPE] |815|  ; [ORIG 16-BIT INS]
    1484                            .dwpsn  file "../Application/Services/nvocop.c",line 821,column 3,is_stmt,isa 1
    1485 00000028 1F00              SUBS      A1, A1, #4            ; [DPU_3_PIPE] |821|  ; [ORIG 16-BIT INS]
TI ARM Assembler PC v16.9.4 Sat Nov 18 18:46:31 2017

Tools Copyright (c) 1996-2017 Texas Instruments Incorporated
C:\Users\Kevin\AppData\Local\Temp\{6C42DDD5-7C92-479C-8F05-55537E4479EC} PAGE   28

    1486 0000002a B284              UXTH      V1, A1                ; [DPU_3_PIPE] |821|  ; [ORIG 16-BIT INS]
    1487                            .dwpsn  file "../Application/Services/nvocop.c",line 823,column 10,is_stmt,isa 1
    1488 0000002c 2C08              CMP       V1, #8                ; [DPU_3_PIPE] |823|  ; [ORIG 16-BIT INS]
    1489 0000002e DB6A              BLT       ||$C$L30||            ; [DPU_3_PIPE] |823|  ; [ORIG 16-BIT INS]
    1490                            ; BRANCHCC OCCURS {||$C$L30||}   ; [] |823| 
    1491                    ;* --------------------------------------------------------------------------*
    1492                            .dwpsn  file "../Application/Services/nvocop.c",line 920,column 7,is_stmt,isa 1
    1493 00000030 4845              LDR       A1, $C$CON24          ; [DPU_3_PIPE] |920|  ; [ORIG 16-BIT INS]
    1494 00000032 4656              MOV       V3, V7                ; [DPU_3_PIPE]  ; [ORIG 16-BIT INS]
    1495 00000034 46B0              MOV       V5, V3                ; [DPU_3_PIPE]  ; [ORIG 16-BIT INS]
    1496 00000036 46C3              MOV       V8, V5                ; [DPU_3_PIPE]  ; [ORIG 16-BIT INS]
    1497 00000038 0B00              LSRS      A1, A1, #12           ; [DPU_3_PIPE]  ; [ORIG 16-BIT INS]
    1498 0000003a F980FA5F          UXTB      V6, A1                ; [DPU_3_PIPE]  ; [KEEP 32-BIT INS]
    1499                    ;* --------------------------------------------------------------------------*
    1500                    ;*   BEGIN LOOP ||$C$L19||
    1501                    ;*
    1502                    ;*   Loop source line                : 823
    1503                    ;*   Loop closing brace source line  : 910
    1504                    ;*   Known Minimum Trip Count        : 1
    1505                    ;*   Known Maximum Trip Count        : 4294967295
    1506                    ;*   Known Max Trip Count Factor     : 1
    1507                    ;* --------------------------------------------------------------------------*
    1508 0000003e           ||$C$L19||:    
    1509                            .dwpsn  file "../Application/Services/nvocop.c",line 827,column 5,is_stmt,isa 1
    1510 0000003e 1F21              SUBS      A2, V1, #4            ; [DPU_3_PIPE] |827|  ; [ORIG 16-BIT INS]
    1511 00000040 4648              MOV       A1, V6                ; [DPU_3_PIPE] |827|  ; [ORIG 16-BIT INS]
    1512 00000042 AA02              ADD       A3, SP, #8            ; [DPU_3_PIPE] |827|  ; [ORIG 16-BIT INS]
    1513 00000044 2308              MOVS      A4, #8                ; [DPU_3_PIPE] |827|  ; [ORIG 16-BIT INS]
    1514 00000046 B289              UXTH      A2, A2                ; [DPU_3_PIPE] |827|  ; [ORIG 16-BIT INS]
    1515                    $C$DW$106       .dwtag  DW_TAG_TI_branch
    1516                            .dwattr $C$DW$106, DW_AT_low_pc(0x00)
    1517                            .dwattr $C$DW$106, DW_AT_name("HalFlashRead")
    1518                            .dwattr $C$DW$106, DW_AT_TI_call
    1519                    
    1520 00000048 FFFEF7FF!         BL        HalFlashRead          ; [DPU_3_PIPE] |827|  ; [KEEP 32-BIT INS]
    1521                            ; CALL OCCURS {HalFlashRead }    ; [] |827| 
    1522                            .dwpsn  file "../Application/Services/nvocop.c",line 833,column 5,is_stmt,isa 1
    1523 0000004c 0008F8BD          LDRH      A1, [SP, #8]          ; [DPU_3_PIPE] |833|  ; [KEEP 32-BIT INS]
    1524 00000050 4582              CMP       V7, A1                ; [DPU_3_PIPE] |833|  ; [ORIG 16-BIT INS]
    1525 00000052 D108              BNE       ||$C$L20||            ; [DPU_3_PIPE] |833|  ; [ORIG 16-BIT INS]
    1526                            ; BRANCHCC OCCURS {||$C$L20||}   ; [] |833| 
    1527                    ;* --------------------------------------------------------------------------*
    1528 00000054 100AF8BD          LDRH      A2, [SP, #10]         ; [DPU_3_PIPE] |833|  ; [KEEP 32-BIT INS]
    1529 00000058 458A              CMP       V7, A2                ; [DPU_3_PIPE] |833|  ; [ORIG 16-BIT INS]
    1530 0000005a D106              BNE       ||$C$L21||            ; [DPU_3_PIPE] |833|  ; [ORIG 16-BIT INS]
    1531                            ; BRANCHCC OCCURS {||$C$L21||}   ; [] |833| 
    1532                    ;* --------------------------------------------------------------------------*
    1533 0000005c 200CF8BD          LDRH      A3, [SP, #12]         ; [DPU_3_PIPE] |833|  ; [KEEP 32-BIT INS]
    1534 00000060 4593              CMP       V8, A3                ; [DPU_3_PIPE] |833|  ; [ORIG 16-BIT INS]
    1535 00000062 D102              BNE       ||$C$L21||            ; [DPU_3_PIPE] |833|  ; [ORIG 16-BIT INS]
    1536                            ; BRANCHCC OCCURS {||$C$L21||}   ; [] |833| 
    1537                    ;* --------------------------------------------------------------------------*
    1538 00000064 E007              B         ||$C$L22||            ; [DPU_3_PIPE] |833|  ; [ORIG 16-BIT INS]
    1539                            ; BRANCH OCCURS {||$C$L22||}     ; [] |833| 
    1540                    ;* --------------------------------------------------------------------------*
TI ARM Assembler PC v16.9.4 Sat Nov 18 18:46:31 2017

Tools Copyright (c) 1996-2017 Texas Instruments Incorporated
C:\Users\Kevin\AppData\Local\Temp\{6C42DDD5-7C92-479C-8F05-55537E4479EC} PAGE   29

    1541 00000066           ||$C$L20||:    
    1542 00000066 100AF8BD          LDRH      A2, [SP, #10]         ; [DPU_3_PIPE]  ; [KEEP 32-BIT INS]
    1543                    ;* --------------------------------------------------------------------------*
    1544 0000006a           ||$C$L21||:    
    1545 0000006a 0300EA51          ORRS      A4, A2, A1            ; [DPU_3_PIPE] |833|  ; [KEEP 32-BIT INS]
    1546 0000006e D117              BNE       ||$C$L25||            ; [DPU_3_PIPE] |833|  ; [ORIG 16-BIT INS]
    1547                            ; BRANCHCC OCCURS {||$C$L25||}   ; [] |833| 
    1548                    ;* --------------------------------------------------------------------------*
    1549 00000070 300CF8BD          LDRH      A4, [SP, #12]         ; [DPU_3_PIPE] |833|  ; [KEEP 32-BIT INS]
    1550 00000074 B9A3              CBNZ      A4, ||$C$L25||        ; []  ; [ORIG 16-BIT INS]
    1551                            ; BRANCHCC OCCURS {||$C$L25||}   ; [] |833| 
    1552                    ;* --------------------------------------------------------------------------*
    1553 00000076           ||$C$L22||:    
    1554                            .dwpsn  file "../Application/Services/nvocop.c",line 839,column 7,is_stmt,isa 1
    1555 00000076 100EF8BD          LDRH      A2, [SP, #14]         ; [DPU_3_PIPE] |839|  ; [KEEP 32-BIT INS]
    1556 0000007a 4608              MOV       A1, A2                ; [DPU_3_PIPE] |839|  ; [ORIG 16-BIT INS]
    1557 0000007c 000EF36F          BFC       A1, #0, #15           ; [DPU_3_PIPE] |839|  ; [KEEP 32-BIT INS]
    1558 00000080 B960              CBNZ      A1, ||$C$L24||        ; []  ; [ORIG 16-BIT INS]
    1559                            ; BRANCHCC OCCURS {||$C$L24||}   ; [] |839| 
    1560                    ;* --------------------------------------------------------------------------*
    1561                            .dwpsn  file "../Application/Services/nvocop.c",line 845,column 9,is_stmt,isa 1
    1562 00000082 4608              MOV       A1, A2                ; [DPU_3_PIPE] |845|  ; [ORIG 16-BIT INS]
    1563 00000084 3008              ADDS      A1, A1, #8            ; [DPU_3_PIPE] |845|  ; [ORIG 16-BIT INS]
    1564 00000086 4284              CMP       V1, A1                ; [DPU_3_PIPE] |845|  ; [ORIG 16-BIT INS]
    1565 00000088 DA06              BGE       ||$C$L23||            ; [DPU_3_PIPE] |845|  ; [ORIG 16-BIT INS]
    1566                            ; BRANCHCC OCCURS {||$C$L23||}   ; [] |845| 
    1567                    ;* --------------------------------------------------------------------------*
    1568                            .dwpsn  file "../Application/Services/nvocop.c",line 865,column 11,is_stmt,isa 1
    1569                    $C$DW$107       .dwtag  DW_TAG_TI_branch
    1570                            .dwattr $C$DW$107, DW_AT_low_pc(0x00)
    1571                            .dwattr $C$DW$107, DW_AT_name("HAL_APPASRT_callAssrtHanlder")
    1572                            .dwattr $C$DW$107, DW_AT_TI_call
    1573                    
    1574 0000008a FFFEF7FF!         BL        HAL_APPASRT_callAssrtHanlder ; [DPU_3_PIPE] |865|  ; [KEEP 32-BIT INS]
    1575                            ; CALL OCCURS {HAL_APPASRT_callAssrtHanlder }  ; [] |865| 
    1576 0000008e 9804              LDR       A1, [SP, #16]         ; [DPU_3_PIPE] |865|  ; [ORIG 16-BIT INS]
    1577                            .dwpsn  file "../Application/Services/nvocop.c",line 868,column 11,is_stmt,isa 1
    1578                    $C$DW$108       .dwtag  DW_TAG_TI_branch
    1579                            .dwattr $C$DW$108, DW_AT_low_pc(0x00)
    1580                            .dwattr $C$DW$108, DW_AT_name("enableCache")
    1581                            .dwattr $C$DW$108, DW_AT_TI_call
    1582                    
    1583 00000090 FFFEF7FF!         BL        enableCache           ; [DPU_3_PIPE] |868|  ; [KEEP 32-BIT INS]
    1584                            ; CALL OCCURS {enableCache }     ; [] |868| 
    1585                            .dwpsn  file "../Application/Services/nvocop.c",line 870,column 11,is_stmt,isa 1
    1586 00000094 2000              MOVS      A1, #0                ; [DPU_3_PIPE] |870|  ; [ORIG 16-BIT INS]
    1587 00000096 E051              B         ||$C$L33||            ; [DPU_3_PIPE] |870|  ; [ORIG 16-BIT INS]
    1588                            ; BRANCH OCCURS {||$C$L33||}     ; [] |870| 
    1589                    ;* --------------------------------------------------------------------------*
    1590 00000098           ||$C$L23||:    
    1591 00000098 4608              MOV       A1, A2                ; [DPU_3_PIPE]  ; [ORIG 16-BIT INS]
    1592                            .dwpsn  file "../Application/Services/nvocop.c",line 848,column 9,is_stmt,isa 1
    1593 0000009a E02F              B         ||$C$L28||            ; [DPU_3_PIPE] |848|  ; [ORIG 16-BIT INS]
    1594                            ; BRANCH OCCURS {||$C$L28||}     ; [] |848| 
    1595                    ;* --------------------------------------------------------------------------*
TI ARM Assembler PC v16.9.4 Sat Nov 18 18:46:31 2017

Tools Copyright (c) 1996-2017 Texas Instruments Incorporated
C:\Users\Kevin\AppData\Local\Temp\{6C42DDD5-7C92-479C-8F05-55537E4479EC} PAGE   30

    1596 0000009c           ||$C$L24||:    
    1597                            .dwpsn  file "../Application/Services/nvocop.c",line 841,column 9,is_stmt,isa 1
    1598 0000009c 1F24              SUBS      V1, V1, #4            ; [DPU_3_PIPE] |841|  ; [ORIG 16-BIT INS]
    1599                            .dwpsn  file "../Application/Services/nvocop.c",line 842,column 7,is_stmt,isa 1
    1600 0000009e E02F              B         ||$C$L29||            ; [DPU_3_PIPE] |842|  ; [ORIG 16-BIT INS]
    1601                            ; BRANCH OCCURS {||$C$L29||}     ; [] |842| 
    1602                    ;* --------------------------------------------------------------------------*
    1603 000000a0           ||$C$L25||:    
    1604                            .dwpsn  file "../Application/Services/nvocop.c",line 881,column 5,is_stmt,isa 1
    1605 000000a0 0BC2              LSRS      A3, A1, #15           ; [DPU_3_PIPE] |881|  ; [ORIG 16-BIT INS]
    1606 000000a2 03D3              LSLS      A4, A3, #15           ; [DPU_3_PIPE] |881|  ; [ORIG 16-BIT INS]
    1607 000000a4 D128              BNE       ||$C$L27||            ; [DPU_3_PIPE] |881|  ; [ORIG 16-BIT INS]
    1608                            ; BRANCHCC OCCURS {||$C$L27||}   ; [] |881| 
    1609                    ;* --------------------------------------------------------------------------*
    1610 000000a6 200CF8BD          LDRH      A3, [SP, #12]         ; [DPU_3_PIPE] |881|  ; [KEEP 32-BIT INS]
    1611 000000aa 4285              CMP       V2, A1                ; [DPU_3_PIPE] |881|  ; [ORIG 16-BIT INS]
    1612 000000ac D103              BNE       ||$C$L26||            ; [DPU_3_PIPE] |881|  ; [ORIG 16-BIT INS]
    1613                            ; BRANCHCC OCCURS {||$C$L26||}   ; [] |881| 
    1614                    ;* --------------------------------------------------------------------------*
    1615 000000ae 428E              CMP       V3, A2                ; [DPU_3_PIPE] |881|  ; [ORIG 16-BIT INS]
    1616 000000b0 BF08              IT        EQ                    ; [DPU_3_PIPE]  ; [ORIG 16-BIT INS]
    1617 000000b2 4590              CMPEQ     V5, A3                ; [DPU_3_PIPE] |881|  ; [ORIG 16-BIT INS]
    1618 000000b4 D020              BEQ       ||$C$L27||            ; [DPU_3_PIPE] |881|  ; [ORIG 16-BIT INS]
    1619                            ; BRANCHCC OCCURS {||$C$L27||}   ; [] |881| 
    1620                    ;* --------------------------------------------------------------------------*
    1621 000000b6           ||$C$L26||:    
    1622                            .dwpsn  file "../Application/Services/nvocop.c",line 891,column 7,is_stmt,isa 1
    1623 000000b6 B2C5              UXTB      V2, A1                ; [DPU_3_PIPE] |891|  ; [ORIG 16-BIT INS]
    1624 000000b8 5000F88D          STRB      V2, [SP, #0]          ; [DPU_3_PIPE] |891|  ; [KEEP 32-BIT INS]
    1625                            .dwpsn  file "../Application/Services/nvocop.c",line 892,column 7,is_stmt,isa 1
    1626 000000bc 460E              MOV       V3, A2                ; [DPU_3_PIPE] |892|  ; [ORIG 16-BIT INS]
    1627 000000be 6002F8AD          STRH      V3, [SP, #2]          ; [DPU_3_PIPE] |892|  ; [KEEP 32-BIT INS]
    1628                            .dwpsn  file "../Application/Services/nvocop.c",line 893,column 7,is_stmt,isa 1
    1629 000000c2 4690              MOV       V5, A3                ; [DPU_3_PIPE] |893|  ; [ORIG 16-BIT INS]
    1630 000000c4 8004F8AD          STRH      V5, [SP, #4]          ; [DPU_3_PIPE] |893|  ; [KEEP 32-BIT INS]
    1631                            .dwpsn  file "../Application/Services/nvocop.c",line 897,column 7,is_stmt,isa 1
    1632 000000c8 0006E89D          LDMIA     SP, {A2,A3}           ; [DPU_3_PIPE] |897|  ; [KEEP 32-BIT INS]
    1633 000000cc 4638              MOV       A1, V4                ; [DPU_3_PIPE] |897|  ; [ORIG 16-BIT INS]
    1634                    $C$DW$109       .dwtag  DW_TAG_TI_branch
    1635                            .dwattr $C$DW$109, DW_AT_low_pc(0x00)
    1636                            .dwattr $C$DW$109, DW_AT_name("findItemInCache")
    1637                            .dwattr $C$DW$109, DW_AT_TI_call
    1638                    
    1639 000000ce FFFEF7FF!         BL        findItemInCache       ; [DPU_3_PIPE] |897|  ; [KEEP 32-BIT INS]
    1640                            ; CALL OCCURS {findItemInCache }  ; [] |897| 
    1641 000000d2 B988              CBNZ      A1, ||$C$L27||        ; []  ; [ORIG 16-BIT INS]
    1642                            ; BRANCHCC OCCURS {||$C$L27||}   ; [] |897| 
    1643                    ;* --------------------------------------------------------------------------*
    1644                            .dwpsn  file "../Application/Services/nvocop.c",line 902,column 9,is_stmt,isa 1
    1645 000000d4 300EF8BD          LDRH      A4, [SP, #14]         ; [DPU_3_PIPE] |902|  ; [KEEP 32-BIT INS]
    1646 000000d8 1AE1              SUBS      A2, V1, A4            ; [DPU_3_PIPE] |902|  ; [ORIG 16-BIT INS]
    1647 000000da 5288F107          ADD       A3, V4, #285212672    ; [DPU_3_PIPE] |902|  ; [KEEP 32-BIT INS]
    1648 000000de 4648              MOV       A1, V6                ; [DPU_3_PIPE] |902|  ; [ORIG 16-BIT INS]
    1649 000000e0 1F09              SUBS      A2, A2, #4            ; [DPU_3_PIPE] |902|  ; [ORIG 16-BIT INS]
    1650 000000e2 3308              ADDS      A4, A4, #8            ; [DPU_3_PIPE] |902|  ; [ORIG 16-BIT INS]
TI ARM Assembler PC v16.9.4 Sat Nov 18 18:46:31 2017

Tools Copyright (c) 1996-2017 Texas Instruments Incorporated
C:\Users\Kevin\AppData\Local\Temp\{6C42DDD5-7C92-479C-8F05-55537E4479EC} PAGE   31

    1651 000000e4 B289              UXTH      A2, A2                ; [DPU_3_PIPE] |902|  ; [ORIG 16-BIT INS]
    1652 000000e6 B29B              UXTH      A4, A4                ; [DPU_3_PIPE] |902|  ; [ORIG 16-BIT INS]
    1653                    $C$DW$110       .dwtag  DW_TAG_TI_branch
    1654                            .dwattr $C$DW$110, DW_AT_low_pc(0x00)
    1655                            .dwattr $C$DW$110, DW_AT_name("HalFlashRead")
    1656                            .dwattr $C$DW$110, DW_AT_TI_call
    1657                    
    1658 000000e8 FFFEF7FF!         BL        HalFlashRead          ; [DPU_3_PIPE] |902|  ; [KEEP 32-BIT INS]
    1659                            ; CALL OCCURS {HalFlashRead }    ; [] |902| 
    1660                            .dwpsn  file "../Application/Services/nvocop.c",line 906,column 9,is_stmt,isa 1
    1661 000000ec 000EF8BD          LDRH      A1, [SP, #14]         ; [DPU_3_PIPE] |906|  ; [KEEP 32-BIT INS]
    1662 000000f0 183F              ADDS      V4, V4, A1            ; [DPU_3_PIPE] |906|  ; [ORIG 16-BIT INS]
    1663 000000f2 3708              ADDS      V4, V4, #8            ; [DPU_3_PIPE] |906|  ; [ORIG 16-BIT INS]
    1664 000000f4 B2BF              UXTH      V4, V4                ; [DPU_3_PIPE] |906|  ; [ORIG 16-BIT INS]
    1665 000000f6 E001              B         ||$C$L28||            ; [DPU_3_PIPE] |906|  ; [ORIG 16-BIT INS]
    1666                            ; BRANCH OCCURS {||$C$L28||}     ; [] |906| 
    1667                    ;* --------------------------------------------------------------------------*
    1668 000000f8           ||$C$L27||:    
    1669 000000f8 000EF8BD          LDRH      A1, [SP, #14]         ; [DPU_3_PIPE]  ; [KEEP 32-BIT INS]
    1670                    ;* --------------------------------------------------------------------------*
    1671 000000fc           ||$C$L28||:    
    1672                            .dwpsn  file "../Application/Services/nvocop.c",line 909,column 5,is_stmt,isa 1
    1673 000000fc 1A24              SUBS      V1, V1, A1            ; [DPU_3_PIPE] |909|  ; [ORIG 16-BIT INS]
    1674 000000fe 3C08              SUBS      V1, V1, #8            ; [DPU_3_PIPE] |909|  ; [ORIG 16-BIT INS]
    1675                    ;* --------------------------------------------------------------------------*
    1676 00000100           ||$C$L29||:    
    1677 00000100 B2A4              UXTH      V1, V1                ; [DPU_3_PIPE] |909|  ; [ORIG 16-BIT INS]
    1678                            .dwpsn  file "../Application/Services/nvocop.c",line 823,column 10,is_stmt,isa 1
    1679 00000102 2C08              CMP       V1, #8                ; [DPU_3_PIPE] |823|  ; [ORIG 16-BIT INS]
    1680 00000104 DA9B              BGE       ||$C$L19||            ; [DPU_3_PIPE] |823|  ; [ORIG 16-BIT INS]
    1681                            ; BRANCHCC OCCURS {||$C$L19||}   ; [] |823| 
    1682                    ;* --------------------------------------------------------------------------*
    1683 00000106           ||$C$L30||:    
    1684                            .dwpsn  file "../Application/Services/nvocop.c",line 913,column 3,is_stmt,isa 1
    1685                    $C$DW$111       .dwtag  DW_TAG_TI_branch
    1686                            .dwattr $C$DW$111, DW_AT_low_pc(0x00)
    1687                            .dwattr $C$DW$111, DW_AT_name("erasePage")
    1688                            .dwattr $C$DW$111, DW_AT_TI_call
    1689                    
    1690 00000106 FFFEF7FF!         BL        erasePage             ; [DPU_3_PIPE] |913|  ; [KEEP 32-BIT INS]
    1691                            ; CALL OCCURS {erasePage }       ; [] |913| 
    1692 0000010a B147              CBZ       V4, ||$C$L31||        ; []  ; [ORIG 16-BIT INS]
    1693                            .dwpsn  file "../Application/Services/nvocop.c",line 916,column 3,is_stmt,isa 1
    1694                            ; BRANCHCC OCCURS {||$C$L31||}   ; [] |916| 
    1695                    ;* --------------------------------------------------------------------------*
    1696                            .dwpsn  file "../Application/Services/nvocop.c",line 920,column 7,is_stmt,isa 1
    1697 0000010c 480E              LDR       A1, $C$CON24          ; [DPU_3_PIPE] |920|  ; [ORIG 16-BIT INS]
    1698 0000010e 5188F04F          MOV       A2, #285212672        ; [DPU_3_PIPE] |920|  ; [KEEP 32-BIT INS]
    1699 00000112 463A              MOV       A3, V4                ; [DPU_3_PIPE] |920|  ; [ORIG 16-BIT INS]
    1700 00000114 1D00              ADDS      A1, A1, #4            ; [DPU_3_PIPE]  ; [ORIG 16-BIT INS]
    1701                    $C$DW$112       .dwtag  DW_TAG_TI_branch
    1702                            .dwattr $C$DW$112, DW_AT_low_pc(0x00)
    1703                            .dwattr $C$DW$112, DW_AT_name("HalFlashWrite")
    1704                            .dwattr $C$DW$112, DW_AT_TI_call
    1705                    
TI ARM Assembler PC v16.9.4 Sat Nov 18 18:46:31 2017

Tools Copyright (c) 1996-2017 Texas Instruments Incorporated
C:\Users\Kevin\AppData\Local\Temp\{6C42DDD5-7C92-479C-8F05-55537E4479EC} PAGE   32

    1706 00000116 FFFEF7FF!         BL        HalFlashWrite         ; [DPU_3_PIPE] |920|  ; [KEEP 32-BIT INS]
    1707                            ; CALL OCCURS {HalFlashWrite }   ; [] |920| 
    1708                            .dwpsn  file "../Application/Services/nvocop.c",line 924,column 7,is_stmt,isa 1
    1709                    $C$DW$113       .dwtag  DW_TAG_TI_branch
    1710                            .dwattr $C$DW$113, DW_AT_low_pc(0x00)
    1711                            .dwattr $C$DW$113, DW_AT_name("setActivePage")
    1712                            .dwattr $C$DW$113, DW_AT_TI_call
    1713                    
    1714 0000011a FFFEF7FF!         BL        setActivePage         ; [DPU_3_PIPE] |924|  ; [KEEP 32-BIT INS]
    1715                            ; CALL OCCURS {setActivePage }   ; [] |924| 
    1716                    ;* --------------------------------------------------------------------------*
    1717 0000011e           ||$C$L31||:    
    1718 0000011e 9804              LDR       A1, [SP, #16]         ; [DPU_3_PIPE]  ; [ORIG 16-BIT INS]
    1719                            .dwpsn  file "../Application/Services/nvocop.c",line 933,column 3,is_stmt,isa 1
    1720                    $C$DW$114       .dwtag  DW_TAG_TI_branch
    1721                            .dwattr $C$DW$114, DW_AT_low_pc(0x00)
    1722                            .dwattr $C$DW$114, DW_AT_name("enableCache")
    1723                            .dwattr $C$DW$114, DW_AT_TI_call
    1724                    
    1725 00000120 FFFEF7FF!         BL        enableCache           ; [DPU_3_PIPE] |933|  ; [KEEP 32-BIT INS]
    1726                            ; CALL OCCURS {enableCache }     ; [] |933| 
    1727                            .dwpsn  file "../Application/Services/nvocop.c",line 821,column 3,is_stmt,isa 1
    1728 00000124 4A07              LDR       A3, $C$CON23          ; [DPU_3_PIPE] |821|  ; [ORIG 16-BIT INS]
    1729                            .dwpsn  file "../Application/Services/nvocop.c",line 935,column 3,is_stmt,isa 1
    1730 00000126 7850              LDRB      A1, [A3, #1]          ; [DPU_3_PIPE] |935|  ; [ORIG 16-BIT INS]
    1731 00000128 2800              CMP       A1, #0                ; [DPU_3_PIPE] |935|  ; [ORIG 16-BIT INS]
    1732 0000012a BF1C              ITT       NE                    ; [DPU_3_PIPE]  ; [ORIG 16-BIT INS]
    1733                            .dwpsn  file "../Application/Services/nvocop.c",line 943,column 5,is_stmt,isa 1
    1734 0000012c 2000              MOVNE     A1, #0                ; [DPU_3_PIPE] |943|  ; [ORIG 16-BIT INS]
    1735 0000012e 1C01              MOVNE     A2, A1                ; [DPU_3_PIPE] |943|  ; [ORIG 16-BIT INS]
    1736                            .dwpsn  file "../Application/Services/nvocop.c",line 945,column 5,is_stmt,isa 1
    1737 00000130 D103              BNE       ||$C$L32||            ; [DPU_3_PIPE] |945|  ; [ORIG 16-BIT INS]
    1738                            ; BRANCHCC OCCURS {||$C$L32||}   ; [] |945| 
    1739                    ;* --------------------------------------------------------------------------*
    1740                            .dwpsn  file "../Application/Services/nvocop.c",line 939,column 5,is_stmt,isa 1
    1741 00000132 5480F5C7          RSB       V1, V4, #4096         ; [DPU_3_PIPE] |939|  ; [KEEP 32-BIT INS]
    1742                            .dwpsn  file "../Application/Services/nvocop.c",line 937,column 5,is_stmt,isa 1
    1743 00000136 1D39              ADDS      A2, V4, #4            ; [DPU_3_PIPE] |937|  ; [ORIG 16-BIT INS]
    1744                            .dwpsn  file "../Application/Services/nvocop.c",line 939,column 5,is_stmt,isa 1
    1745 00000138 B2A0              UXTH      A1, V1                ; [DPU_3_PIPE] |939|  ; [ORIG 16-BIT INS]
    1746                    ;* --------------------------------------------------------------------------*
    1747 0000013a           ||$C$L32||:    
    1748                            .dwpsn  file "../Application/Services/nvocop.c",line 937,column 5,is_stmt,isa 1
    1749 0000013a 8051              STRH      A2, [A3, #2]          ; [DPU_3_PIPE] |937|  ; [ORIG 16-BIT INS]
    1750                    ;* --------------------------------------------------------------------------*
    1751 0000013c           ||$C$L33||:    
    1752 0000013c B005              ADD       SP, SP, #20           ; [DPU_3_PIPE]  ; [ORIG 16-BIT INS]
    1753                            .dwcfi  cfa_offset, 36
    1754                    $C$DW$115       .dwtag  DW_TAG_TI_branch
    1755                            .dwattr $C$DW$115, DW_AT_low_pc(0x00)
    1756                            .dwattr $C$DW$115, DW_AT_TI_return
    1757                    
    1758 0000013e 8FF0E8BD          POP       {V1, V2, V3, V4, V5, V6, V7, V8, PC} ; [DPU_3_PIPE]  ; [KEEP 32-BIT INS]
    1759                            .dwcfi  cfa_offset, 0
    1760                            ; BRANCH OCCURS                  ; [] 
TI ARM Assembler PC v16.9.4 Sat Nov 18 18:46:31 2017

Tools Copyright (c) 1996-2017 Texas Instruments Incorporated
C:\Users\Kevin\AppData\Local\Temp\{6C42DDD5-7C92-479C-8F05-55537E4479EC} PAGE   33

    1761                            .dwattr $C$DW$99, DW_AT_TI_end_file("../Application/Services/nvocop.c")
    1762                            .dwattr $C$DW$99, DW_AT_TI_end_line(0x3b3)
    1763                            .dwattr $C$DW$99, DW_AT_TI_end_column(0x01)
    1764                            .dwendentry
    1765                            .dwendtag $C$DW$99
    1766                    
    1767                    ;**     Parameter deleted: offset == pgOff;
    1768 00000000                   .sect   ".text:writeItem"
    1769                            .clink
    1770                            .thumbfunc writeItem
    1771 00000000                   .thumb
    1772                    
    1773                    $C$DW$116       .dwtag  DW_TAG_subprogram
    1774                            .dwattr $C$DW$116, DW_AT_name("writeItem")
    1775                            .dwattr $C$DW$116, DW_AT_low_pc(writeItem)
    1776                            .dwattr $C$DW$116, DW_AT_high_pc(0x00)
    1777                            .dwattr $C$DW$116, DW_AT_TI_symbol_name("writeItem")
    1778                            .dwattr $C$DW$116, DW_AT_TI_begin_file("../Application/Services/nvocop.c")
    1779                            .dwattr $C$DW$116, DW_AT_TI_begin_line(0x2ec)
    1780                            .dwattr $C$DW$116, DW_AT_TI_begin_column(0x0d)
    1781                            .dwattr $C$DW$116, DW_AT_decl_file("../Application/Services/nvocop.c")
    1782                            .dwattr $C$DW$116, DW_AT_decl_line(0x2ec)
    1783                            .dwattr $C$DW$116, DW_AT_decl_column(0x0d)
    1784                            .dwattr $C$DW$116, DW_AT_TI_max_frame_size(0x28)
    1785                            .dwpsn  file "../Application/Services/nvocop.c",line 750,column 1,is_stmt,address writeItem,is
    1786                    
    1787                            .dwfde $C$DW$CIE, writeItem
    1788                    $C$DW$117       .dwtag  DW_TAG_formal_parameter
    1789                            .dwattr $C$DW$117, DW_AT_name("nv_id")
    1790                            .dwattr $C$DW$117, DW_AT_TI_symbol_name("nv_id")
    1791                            .dwattr $C$DW$117, DW_AT_type(*$C$DW$T$166)
    1792                            .dwattr $C$DW$117, DW_AT_location[DW_OP_breg13 32]
    1793                    
    1794                    $C$DW$118       .dwtag  DW_TAG_formal_parameter
    1795                            .dwattr $C$DW$118, DW_AT_name("alignedLen")
    1796                            .dwattr $C$DW$118, DW_AT_TI_symbol_name("alignedLen")
    1797                            .dwattr $C$DW$118, DW_AT_type(*$C$DW$T$19)
    1798                            .dwattr $C$DW$118, DW_AT_location[DW_OP_reg2]
    1799                    
    1800                    $C$DW$119       .dwtag  DW_TAG_formal_parameter
    1801                            .dwattr $C$DW$119, DW_AT_name("pBuf")
    1802                            .dwattr $C$DW$119, DW_AT_TI_symbol_name("pBuf")
    1803                            .dwattr $C$DW$119, DW_AT_type(*$C$DW$T$207)
    1804                            .dwattr $C$DW$119, DW_AT_location[DW_OP_reg3]
    1805                    
    1806                    
    1807                    ;*****************************************************************************
    1808                    ;* FUNCTION NAME: writeItem                                                  *
    1809                    ;*                                                                           *
    1810                    ;*   Regs Modified     : A1,A2,A3,A4,V1,V2,V3,V4,V5,V9,SP,LR,SR              *
    1811                    ;*   Regs Used         : A1,A2,A3,A4,V1,V2,V3,V4,V5,V9,SP,LR,SR              *
    1812                    ;*   Local Frame Size  : 0 Args + 8 Auto + 24 Save = 32 byte                 *
    1813                    ;*****************************************************************************
    1814                    writeItem:
    1815                    ;* --------------------------------------------------------------------------*
TI ARM Assembler PC v16.9.4 Sat Nov 18 18:46:31 2017

Tools Copyright (c) 1996-2017 Texas Instruments Incorporated
C:\Users\Kevin\AppData\Local\Temp\{6C42DDD5-7C92-479C-8F05-55537E4479EC} PAGE   34

    1816                    $C$DW$120       .dwtag  DW_TAG_variable
    1817                            .dwattr $C$DW$120, DW_AT_name("hdr")
    1818                            .dwattr $C$DW$120, DW_AT_TI_symbol_name("hdr")
    1819                            .dwattr $C$DW$120, DW_AT_type(*$C$DW$T$188)
    1820                            .dwattr $C$DW$120, DW_AT_location[DW_OP_breg13 0]
    1821                    
    1822                    ;* V3    assigned to $O$C1
    1823                    ;* A1    assigned to $O$C2
    1824                    ;* V2    assigned to offset
    1825                    $C$DW$121       .dwtag  DW_TAG_variable
    1826                            .dwattr $C$DW$121, DW_AT_name("offset")
    1827                            .dwattr $C$DW$121, DW_AT_TI_symbol_name("offset")
    1828                            .dwattr $C$DW$121, DW_AT_type(*$C$DW$T$277)
    1829                            .dwattr $C$DW$121, DW_AT_location[DW_OP_reg5]
    1830                    
    1831                    ;* V1    assigned to alignedLen
    1832                    $C$DW$122       .dwtag  DW_TAG_variable
    1833                            .dwattr $C$DW$122, DW_AT_name("alignedLen")
    1834                            .dwattr $C$DW$122, DW_AT_TI_symbol_name("alignedLen")
    1835                            .dwattr $C$DW$122, DW_AT_type(*$C$DW$T$277)
    1836                            .dwattr $C$DW$122, DW_AT_location[DW_OP_reg4]
    1837                    
    1838                    ;* V5    assigned to pBuf
    1839                    $C$DW$123       .dwtag  DW_TAG_variable
    1840                            .dwattr $C$DW$123, DW_AT_name("pBuf")
    1841                            .dwattr $C$DW$123, DW_AT_TI_symbol_name("pBuf")
    1842                            .dwattr $C$DW$123, DW_AT_type(*$C$DW$T$252)
    1843                            .dwattr $C$DW$123, DW_AT_location[DW_OP_reg8]
    1844                    
    1845                            .dwcfi  cfa_offset, 0
    1846 00000000 B403              PUSH      {A1, A2}              ; [DPU_3_PIPE]  ; [ORIG 16-BIT INS]
    1847                            .dwcfi  cfa_offset, 8
    1848                            .dwcfi  save_reg_to_mem, 1, -4
    1849                            .dwcfi  save_reg_to_mem, 0, -8
    1850 00000002 4826              LDR       A1, $C$CON25          ; [DPU_3_PIPE] |750|  ; [ORIG 16-BIT INS]
    1851 00000004 41F0E92D          PUSH      {V1, V2, V3, V4, V5, LR} ; [DPU_3_PIPE]  ; [KEEP 32-BIT INS]
    1852                            .dwcfi  cfa_offset, 32
    1853                            .dwcfi  save_reg_to_mem, 14, -12
    1854                            .dwcfi  save_reg_to_mem, 8, -16
    1855                            .dwcfi  save_reg_to_mem, 7, -20
    1856                            .dwcfi  save_reg_to_mem, 6, -24
    1857                            .dwcfi  save_reg_to_mem, 5, -28
    1858                            .dwcfi  save_reg_to_mem, 4, -32
    1859 00000008 8805              LDRH      V2, [A1, #0]          ; [DPU_3_PIPE] |750|  ; [ORIG 16-BIT INS]
    1860 0000000a AF06              ADD       V4, SP, #24           ; [DPU_3_PIPE]  ; [ORIG 16-BIT INS]
    1861 0000000c 4614              MOV       V1, A3                ; [DPU_3_PIPE] |750|  ; [ORIG 16-BIT INS]
    1862 0000000e 0D08F1AD          SUB       SP, SP, #8            ; [DPU_3_PIPE]  ; [KEEP 32-BIT INS]
    1863                            .dwcfi  cfa_offset, 40
    1864 00000012 4698              MOV       V5, A4                ; [DPU_3_PIPE] |750|  ; [ORIG 16-BIT INS]
    1865                            .dwpsn  file "../Application/Services/nvocop.c",line 756,column 3,is_stmt,isa 1
    1866 00000014 70FFF64F          MOV       A1, #65535            ; [DPU_3_PIPE] |756|  ; [KEEP 32-BIT INS]
    1867 00000018 0000F8AD          STRH      A1, [SP, #0]          ; [DPU_3_PIPE] |756|  ; [KEEP 32-BIT INS]
    1868                            .dwpsn  file "../Application/Services/nvocop.c",line 763,column 3,is_stmt,isa 1
    1869 0000001c 2202              MOVS      A3, #2                ; [DPU_3_PIPE] |763|  ; [ORIG 16-BIT INS]
    1870                            .dwpsn  file "../Application/Services/nvocop.c",line 757,column 3,is_stmt,isa 1
TI ARM Assembler PC v16.9.4 Sat Nov 18 18:46:31 2017

Tools Copyright (c) 1996-2017 Texas Instruments Incorporated
C:\Users\Kevin\AppData\Local\Temp\{6C42DDD5-7C92-479C-8F05-55537E4479EC} PAGE   35

    1871 0000001e 0002F8AD          STRH      A1, [SP, #2]          ; [DPU_3_PIPE] |757|  ; [KEEP 32-BIT INS]
    1872                            .dwpsn  file "../Application/Services/nvocop.c",line 763,column 3,is_stmt,isa 1
    1873 00000022 4669              MOV       A2, SP                ; [DPU_3_PIPE] |763|  ; [ORIG 16-BIT INS]
    1874                            .dwpsn  file "../Application/Services/nvocop.c",line 758,column 3,is_stmt,isa 1
    1875 00000024 0004F8AD          STRH      A1, [SP, #4]          ; [DPU_3_PIPE] |758|  ; [KEEP 32-BIT INS]
    1876                            .dwpsn  file "../Application/Services/nvocop.c",line 760,column 3,is_stmt,isa 1
    1877 00000028 4000F444          ORR       A1, V1, #32768        ; [DPU_3_PIPE] |760|  ; [KEEP 32-BIT INS]
    1878 0000002c 0006F8AD          STRH      A1, [SP, #6]          ; [DPU_3_PIPE] |760|  ; [KEEP 32-BIT INS]
    1879                            .dwpsn  file "../Application/Services/nvocop.c",line 763,column 3,is_stmt,isa 1
    1880 00000030 1960              ADDS      A1, V1, V2            ; [DPU_3_PIPE] |763|  ; [ORIG 16-BIT INS]
    1881 00000032 B286              UXTH      V3, A1                ; [DPU_3_PIPE] |763|  ; [ORIG 16-BIT INS]
    1882 00000034 4630              MOV       A1, V3                ; [DPU_3_PIPE] |763|  ; [ORIG 16-BIT INS]
    1883                    $C$DW$124       .dwtag  DW_TAG_TI_branch
    1884                            .dwattr $C$DW$124, DW_AT_low_pc(0x00)
    1885                            .dwattr $C$DW$124, DW_AT_name("writeWord")
    1886                            .dwattr $C$DW$124, DW_AT_TI_call
    1887                    
    1888 00000036 FFFEF7FF!         BL        writeWord             ; [DPU_3_PIPE] |763|  ; [KEEP 32-BIT INS]
    1889                            ; CALL OCCURS {writeWord }       ; [] |763| 
    1890                            .dwpsn  file "../Application/Services/nvocop.c",line 766,column 3,is_stmt,isa 1
    1891 0000003a 0006F8BD          LDRH      A1, [SP, #6]          ; [DPU_3_PIPE] |766|  ; [KEEP 32-BIT INS]
    1892                            .dwpsn  file "../Application/Services/nvocop.c",line 767,column 3,is_stmt,isa 1
    1893 0000003e 2202              MOVS      A3, #2                ; [DPU_3_PIPE] |767|  ; [ORIG 16-BIT INS]
    1894 00000040 4669              MOV       A2, SP                ; [DPU_3_PIPE] |767|  ; [ORIG 16-BIT INS]
    1895                            .dwpsn  file "../Application/Services/nvocop.c",line 766,column 3,is_stmt,isa 1
    1896 00000042 30DFF36F          BFC       A1, #15, #17          ; [DPU_3_PIPE] |766|  ; [KEEP 32-BIT INS]
    1897 00000046 0006F8AD          STRH      A1, [SP, #6]          ; [DPU_3_PIPE] |766|  ; [KEEP 32-BIT INS]
    1898                            .dwpsn  file "../Application/Services/nvocop.c",line 767,column 3,is_stmt,isa 1
    1899 0000004a 4630              MOV       A1, V3                ; [DPU_3_PIPE] |767|  ; [ORIG 16-BIT INS]
    1900                    $C$DW$125       .dwtag  DW_TAG_TI_branch
    1901                            .dwattr $C$DW$125, DW_AT_low_pc(0x00)
    1902                            .dwattr $C$DW$125, DW_AT_name("writeWord")
    1903                            .dwattr $C$DW$125, DW_AT_TI_call
    1904                    
    1905 0000004c FFFEF7FF!         BL        writeWord             ; [DPU_3_PIPE] |767|  ; [KEEP 32-BIT INS]
    1906                            ; CALL OCCURS {writeWord }       ; [] |767| 
    1907                            .dwpsn  file "../Application/Services/nvocop.c",line 770,column 3,is_stmt,isa 1
    1908 00000050 10A1              ASRS      A2, V1, #2            ; [DPU_3_PIPE] |770|  ; [ORIG 16-BIT INS]
    1909 00000052 4628              MOV       A1, V2                ; [DPU_3_PIPE] |770|  ; [ORIG 16-BIT INS]
    1910 00000054 B2CA              UXTB      A3, A2                ; [DPU_3_PIPE] |770|  ; [ORIG 16-BIT INS]
    1911 00000056 4641              MOV       A2, V5                ; [DPU_3_PIPE] |770|  ; [ORIG 16-BIT INS]
    1912                    $C$DW$126       .dwtag  DW_TAG_TI_branch
    1913                            .dwattr $C$DW$126, DW_AT_low_pc(0x00)
    1914                            .dwattr $C$DW$126, DW_AT_name("writeWord")
    1915                            .dwattr $C$DW$126, DW_AT_TI_call
    1916                    
    1917 00000058 FFFEF7FF!         BL        writeWord             ; [DPU_3_PIPE] |770|  ; [KEEP 32-BIT INS]
    1918                            ; CALL OCCURS {writeWord }       ; [] |770| 
    1919                            .dwpsn  file "../Application/Services/nvocop.c",line 776,column 3,is_stmt,isa 1
    1920 0000005c 7838              LDRB      A1, [V4, #0]          ; [DPU_3_PIPE] |776|  ; [ORIG 16-BIT INS]
    1921 0000005e 4000F440          ORR       A1, A1, #32768        ; [DPU_3_PIPE] |776|  ; [KEEP 32-BIT INS]
    1922 00000062 0000F8AD          STRH      A1, [SP, #0]          ; [DPU_3_PIPE] |776|  ; [KEEP 32-BIT INS]
    1923                            .dwpsn  file "../Application/Services/nvocop.c",line 777,column 3,is_stmt,isa 1
    1924 00000066 8878              LDRH      A1, [V4, #2]          ; [DPU_3_PIPE] |777|  ; [ORIG 16-BIT INS]
    1925 00000068 0002F8AD          STRH      A1, [SP, #2]          ; [DPU_3_PIPE] |777|  ; [KEEP 32-BIT INS]
TI ARM Assembler PC v16.9.4 Sat Nov 18 18:46:31 2017

Tools Copyright (c) 1996-2017 Texas Instruments Incorporated
C:\Users\Kevin\AppData\Local\Temp\{6C42DDD5-7C92-479C-8F05-55537E4479EC} PAGE   36

    1926                            .dwpsn  file "../Application/Services/nvocop.c",line 778,column 3,is_stmt,isa 1
    1927 0000006c 88B8              LDRH      A1, [V4, #4]          ; [DPU_3_PIPE] |778|  ; [ORIG 16-BIT INS]
    1928                            .dwpsn  file "../Application/Services/nvocop.c",line 780,column 3,is_stmt,isa 1
    1929 0000006e 2202              MOVS      A3, #2                ; [DPU_3_PIPE] |780|  ; [ORIG 16-BIT INS]
    1930 00000070 4669              MOV       A2, SP                ; [DPU_3_PIPE] |780|  ; [ORIG 16-BIT INS]
    1931                            .dwpsn  file "../Application/Services/nvocop.c",line 778,column 3,is_stmt,isa 1
    1932 00000072 0004F8AD          STRH      A1, [SP, #4]          ; [DPU_3_PIPE] |778|  ; [KEEP 32-BIT INS]
    1933                            .dwpsn  file "../Application/Services/nvocop.c",line 780,column 3,is_stmt,isa 1
    1934 00000076 4630              MOV       A1, V3                ; [DPU_3_PIPE] |780|  ; [ORIG 16-BIT INS]
    1935                    $C$DW$127       .dwtag  DW_TAG_TI_branch
    1936                            .dwattr $C$DW$127, DW_AT_low_pc(0x00)
    1937                            .dwattr $C$DW$127, DW_AT_name("writeWord")
    1938                            .dwattr $C$DW$127, DW_AT_TI_call
    1939                    
    1940 00000078 FFFEF7FF!         BL        writeWord             ; [DPU_3_PIPE] |780|  ; [KEEP 32-BIT INS]
    1941                            ; CALL OCCURS {writeWord }       ; [] |780| 
    1942                            .dwpsn  file "../Application/Services/nvocop.c",line 786,column 3,is_stmt,isa 1
    1943 0000007c 0000F8BD          LDRH      A1, [SP, #0]          ; [DPU_3_PIPE] |786|  ; [KEEP 32-BIT INS]
    1944                            .dwpsn  file "../Application/Services/nvocop.c",line 788,column 3,is_stmt,isa 1
    1945 00000080 2202              MOVS      A3, #2                ; [DPU_3_PIPE] |788|  ; [ORIG 16-BIT INS]
    1946 00000082 4669              MOV       A2, SP                ; [DPU_3_PIPE] |788|  ; [ORIG 16-BIT INS]
    1947                            .dwpsn  file "../Application/Services/nvocop.c",line 786,column 3,is_stmt,isa 1
    1948 00000084 30DFF36F          BFC       A1, #15, #17          ; [DPU_3_PIPE] |786|  ; [KEEP 32-BIT INS]
    1949 00000088 0000F8AD          STRH      A1, [SP, #0]          ; [DPU_3_PIPE] |786|  ; [KEEP 32-BIT INS]
    1950                            .dwpsn  file "../Application/Services/nvocop.c",line 788,column 3,is_stmt,isa 1
    1951 0000008c 4630              MOV       A1, V3                ; [DPU_3_PIPE] |788|  ; [ORIG 16-BIT INS]
    1952                    $C$DW$128       .dwtag  DW_TAG_TI_branch
    1953                            .dwattr $C$DW$128, DW_AT_low_pc(0x00)
    1954                            .dwattr $C$DW$128, DW_AT_name("writeWord")
    1955                            .dwattr $C$DW$128, DW_AT_TI_call
    1956                    
    1957 0000008e FFFEF7FF!         BL        writeWord             ; [DPU_3_PIPE] |788|  ; [KEEP 32-BIT INS]
    1958                            ; CALL OCCURS {writeWord }       ; [] |788| 
    1959 00000092 B002              ADD       SP, SP, #8            ; [DPU_3_PIPE]  ; [ORIG 16-BIT INS]
    1960                            .dwcfi  cfa_offset, 32
    1961 00000094 41F0E8BD          POP       {V1, V2, V3, V4, V5, LR} ; [DPU_3_PIPE]  ; [KEEP 32-BIT INS]
    1962                            .dwcfi  cfa_offset, 8
    1963                            .dwcfi  restore_reg, 14
    1964                            .dwcfi  restore_reg, 8
    1965                            .dwcfi  restore_reg, 7
    1966                            .dwcfi  restore_reg, 6
    1967                            .dwcfi  restore_reg, 5
    1968                            .dwcfi  restore_reg, 4
    1969 00000098 B002              ADD       SP, SP, #8            ; [DPU_3_PIPE]  ; [ORIG 16-BIT INS]
    1970                            .dwcfi  cfa_offset, 0
    1971                    $C$DW$129       .dwtag  DW_TAG_TI_branch
    1972                            .dwattr $C$DW$129, DW_AT_low_pc(0x00)
    1973                            .dwattr $C$DW$129, DW_AT_TI_return
    1974                    
    1975 0000009a 4770              BX        LR                    ; [DPU_3_PIPE]  ; [ORIG 16-BIT INS]
    1976                            ; BRANCH OCCURS                  ; [] 
    1977                            .dwattr $C$DW$116, DW_AT_TI_end_file("../Application/Services/nvocop.c")
    1978                            .dwattr $C$DW$116, DW_AT_TI_end_line(0x315)
    1979                            .dwattr $C$DW$116, DW_AT_TI_end_column(0x01)
    1980                            .dwendentry
TI ARM Assembler PC v16.9.4 Sat Nov 18 18:46:31 2017

Tools Copyright (c) 1996-2017 Texas Instruments Incorporated
C:\Users\Kevin\AppData\Local\Temp\{6C42DDD5-7C92-479C-8F05-55537E4479EC} PAGE   37

    1981                            .dwendtag $C$DW$116
    1982                    
    1983 00000000                   .sect   ".text:NVOCOP_writeItem"
    1984                            .clink
    1985                            .thumbfunc NVOCOP_writeItem
    1986 00000000                   .thumb
    1987                            .global NVOCOP_writeItem
    1988                    
    1989                    $C$DW$130       .dwtag  DW_TAG_subprogram
    1990                            .dwattr $C$DW$130, DW_AT_name("NVOCOP_writeItem")
    1991                            .dwattr $C$DW$130, DW_AT_low_pc(NVOCOP_writeItem)
    1992                            .dwattr $C$DW$130, DW_AT_high_pc(0x00)
    1993                            .dwattr $C$DW$130, DW_AT_TI_symbol_name("NVOCOP_writeItem")
    1994                            .dwattr $C$DW$130, DW_AT_external
    1995                            .dwattr $C$DW$130, DW_AT_type(*$C$DW$T$73)
    1996                            .dwattr $C$DW$130, DW_AT_TI_begin_file("../Application/Services/nvocop.c")
    1997                            .dwattr $C$DW$130, DW_AT_TI_begin_line(0x192)
    1998                            .dwattr $C$DW$130, DW_AT_TI_begin_column(0x07)
    1999                            .dwattr $C$DW$130, DW_AT_decl_file("../Application/Services/nvocop.c")
    2000                            .dwattr $C$DW$130, DW_AT_decl_line(0x192)
    2001                            .dwattr $C$DW$130, DW_AT_decl_column(0x07)
    2002                            .dwattr $C$DW$130, DW_AT_TI_max_frame_size(0x40)
    2003                            .dwpsn  file "../Application/Services/nvocop.c",line 403,column 1,is_stmt,address NVOCOP_write
    2004                    
    2005                            .dwfde $C$DW$CIE, NVOCOP_writeItem
    2006                    $C$DW$131       .dwtag  DW_TAG_formal_parameter
    2007                            .dwattr $C$DW$131, DW_AT_name("nv_id")
    2008                            .dwattr $C$DW$131, DW_AT_TI_symbol_name("nv_id")
    2009                            .dwattr $C$DW$131, DW_AT_type(*$C$DW$T$166)
    2010                            .dwattr $C$DW$131, DW_AT_location[DW_OP_breg13 56]
    2011                    
    2012                    $C$DW$132       .dwtag  DW_TAG_formal_parameter
    2013                            .dwattr $C$DW$132, DW_AT_name("len")
    2014                            .dwattr $C$DW$132, DW_AT_TI_symbol_name("len")
    2015                            .dwattr $C$DW$132, DW_AT_type(*$C$DW$T$19)
    2016                            .dwattr $C$DW$132, DW_AT_location[DW_OP_reg2]
    2017                    
    2018                    $C$DW$133       .dwtag  DW_TAG_formal_parameter
    2019                            .dwattr $C$DW$133, DW_AT_name("pBuf")
    2020                            .dwattr $C$DW$133, DW_AT_TI_symbol_name("pBuf")
    2021                            .dwattr $C$DW$133, DW_AT_type(*$C$DW$T$3)
    2022                            .dwattr $C$DW$133, DW_AT_location[DW_OP_reg3]
    2023                    
    2024                    
    2025                    ;*****************************************************************************
    2026                    ;* FUNCTION NAME: NVOCOP_writeItem                                           *
    2027                    ;*                                                                           *
    2028                    ;*   Regs Modified     : A1,A2,A3,A4,V1,V2,V3,V4,V5,V6,V7,V8,V9,SP,LR,SR     *
    2029                    ;*   Regs Used         : A1,A2,A3,A4,V1,V2,V3,V4,V5,V6,V7,V8,V9,SP,LR,SR     *
    2030                    ;*   Local Frame Size  : 0 Args + 16 Auto + 36 Save = 52 byte                *
    2031                    ;*****************************************************************************
    2032                    NVOCOP_writeItem:
    2033                    ;* --------------------------------------------------------------------------*
    2034                    $C$DW$134       .dwtag  DW_TAG_variable
    2035                            .dwattr $C$DW$134, DW_AT_name("tmp")
TI ARM Assembler PC v16.9.4 Sat Nov 18 18:46:31 2017

Tools Copyright (c) 1996-2017 Texas Instruments Incorporated
C:\Users\Kevin\AppData\Local\Temp\{6C42DDD5-7C92-479C-8F05-55537E4479EC} PAGE   38

    2036                            .dwattr $C$DW$134, DW_AT_TI_symbol_name("tmp")
    2037                            .dwattr $C$DW$134, DW_AT_type(*$C$DW$T$73)
    2038                            .dwattr $C$DW$134, DW_AT_location[DW_OP_breg13 0]
    2039                    
    2040                    ;* A1    assigned to $O$C16
    2041                    ;* V1    assigned to $O$C17
    2042                    ;* V6    assigned to $O$K25
    2043                    ;* V5    assigned to $O$K8
    2044                    ;* V1    assigned to $O$K39
    2045                    ;* A2    assigned to $O$v2
    2046                    ;* V2    assigned to len
    2047                    $C$DW$135       .dwtag  DW_TAG_variable
    2048                            .dwattr $C$DW$135, DW_AT_name("len")
    2049                            .dwattr $C$DW$135, DW_AT_TI_symbol_name("len")
    2050                            .dwattr $C$DW$135, DW_AT_type(*$C$DW$T$277)
    2051                            .dwattr $C$DW$135, DW_AT_location[DW_OP_reg5]
    2052                    
    2053                    ;* V8    assigned to pBuf
    2054                    $C$DW$136       .dwtag  DW_TAG_variable
    2055                            .dwattr $C$DW$136, DW_AT_name("pBuf")
    2056                            .dwattr $C$DW$136, DW_AT_TI_symbol_name("pBuf")
    2057                            .dwattr $C$DW$136, DW_AT_type(*$C$DW$T$200)
    2058                            .dwattr $C$DW$136, DW_AT_location[DW_OP_reg11]
    2059                    
    2060                    ;* V1    assigned to alignedLen
    2061                    $C$DW$137       .dwtag  DW_TAG_variable
    2062                            .dwattr $C$DW$137, DW_AT_name("alignedLen")
    2063                            .dwattr $C$DW$137, DW_AT_TI_symbol_name("alignedLen")
    2064                            .dwattr $C$DW$137, DW_AT_type(*$C$DW$T$10)
    2065                            .dwattr $C$DW$137, DW_AT_location[DW_OP_reg4]
    2066                    
    2067                    ;* V3    assigned to offset
    2068                    $C$DW$138       .dwtag  DW_TAG_variable
    2069                            .dwattr $C$DW$138, DW_AT_name("offset")
    2070                            .dwattr $C$DW$138, DW_AT_TI_symbol_name("offset")
    2071                            .dwattr $C$DW$138, DW_AT_type(*$C$DW$T$19)
    2072                            .dwattr $C$DW$138, DW_AT_location[DW_OP_reg6]
    2073                    
    2074                    ;* V1    assigned to i
    2075                    $C$DW$139       .dwtag  DW_TAG_variable
    2076                            .dwattr $C$DW$139, DW_AT_name("i")
    2077                            .dwattr $C$DW$139, DW_AT_TI_symbol_name("i")
    2078                            .dwattr $C$DW$139, DW_AT_type(*$C$DW$T$215)
    2079                            .dwattr $C$DW$139, DW_AT_location[DW_OP_reg4]
    2080                    
    2081                            .dwcfi  cfa_offset, 0
    2082 00000000 B403              PUSH      {A1, A2}              ; [DPU_3_PIPE]  ; [ORIG 16-BIT INS]
    2083                            .dwcfi  cfa_offset, 8
    2084                            .dwcfi  save_reg_to_mem, 1, -4
    2085                            .dwcfi  save_reg_to_mem, 0, -8
    2086 00000002 4FF0E92D          PUSH      {V1, V2, V3, V4, V5, V6, V7, V8, LR} ; [DPU_3_PIPE]  ; [KEEP 32-BIT INS]
    2087                            .dwcfi  cfa_offset, 44
    2088                            .dwcfi  save_reg_to_mem, 14, -12
    2089                            .dwcfi  save_reg_to_mem, 11, -16
    2090                            .dwcfi  save_reg_to_mem, 10, -20
TI ARM Assembler PC v16.9.4 Sat Nov 18 18:46:31 2017

Tools Copyright (c) 1996-2017 Texas Instruments Incorporated
C:\Users\Kevin\AppData\Local\Temp\{6C42DDD5-7C92-479C-8F05-55537E4479EC} PAGE   39

    2091                            .dwcfi  save_reg_to_mem, 9, -24
    2092                            .dwcfi  save_reg_to_mem, 8, -28
    2093                            .dwcfi  save_reg_to_mem, 7, -32
    2094                            .dwcfi  save_reg_to_mem, 6, -36
    2095                            .dwcfi  save_reg_to_mem, 5, -40
    2096                            .dwcfi  save_reg_to_mem, 4, -44
    2097                            .dwpsn  file "../Application/Services/nvocop.c",line 411,column 3,is_stmt,isa 1
    2098 00000006 4C34              LDR       V1, $C$CON28          ; [DPU_3_PIPE] |411|  ; [ORIG 16-BIT INS]
    2099 00000008 0A00F04F          MOV       V7, #0                ; [DPU_3_PIPE] |411|  ; [KEEP 32-BIT INS]
    2100 0000000c AF09              ADD       V4, SP, #36           ; [DPU_3_PIPE]  ; [ORIG 16-BIT INS]
    2101 0000000e 1EA4              SUBS      V1, V1, #2            ; [DPU_3_PIPE]  ; [ORIG 16-BIT INS]
    2102 00000010 A001F884          STRB      V7, [V1, #1]          ; [DPU_3_PIPE] |411|  ; [KEEP 32-BIT INS]
    2103                            .dwpsn  file "../Application/Services/nvocop.c",line 417,column 19,is_stmt,isa 1
    2104 00000014 6839              LDR       A2, [V4, #0]          ; [DPU_3_PIPE] |417|  ; [ORIG 16-BIT INS]
    2105 00000016 0D14F1AD          SUB       SP, SP, #20           ; [DPU_3_PIPE]  ; [KEEP 32-BIT INS]
    2106                            .dwcfi  cfa_offset, 64
    2107 0000001a A802              ADD       A1, SP, #8            ; [DPU_3_PIPE] |417|  ; [ORIG 16-BIT INS]
    2108 0000001c 6001              STR       A2, [A1, #0]          ; [DPU_3_PIPE] |417|  ; [ORIG 16-BIT INS]
    2109 0000001e 88B9              LDRH      A2, [V4, #4]          ; [DPU_3_PIPE] |417|  ; [ORIG 16-BIT INS]
    2110 00000020 8081              STRH      A2, [A1, #4]          ; [DPU_3_PIPE] |417|  ; [ORIG 16-BIT INS]
    2111 00000022 A802              ADD       A1, SP, #8            ; [DPU_3_PIPE] |417|  ; [ORIG 16-BIT INS]
    2112 00000024 C803              LDMIA     A1, {A1,A2}           ; [DPU_3_PIPE] |417|  ; [ORIG 16-BIT INS]
    2113                            .dwpsn  file "../Application/Services/nvocop.c",line 403,column 1,is_stmt,isa 1
    2114 00000026 469B              MOV       V8, A4                ; [DPU_3_PIPE] |403|  ; [ORIG 16-BIT INS]
    2115 00000028 4615              MOV       V2, A3                ; [DPU_3_PIPE] |403|  ; [ORIG 16-BIT INS]
    2116                            .dwpsn  file "../Application/Services/nvocop.c",line 417,column 19,is_stmt,isa 1
    2117                    $C$DW$140       .dwtag  DW_TAG_TI_branch
    2118                            .dwattr $C$DW$140, DW_AT_low_pc(0x00)
    2119                            .dwattr $C$DW$140, DW_AT_name("findItem")
    2120                            .dwattr $C$DW$140, DW_AT_TI_call
    2121                    
    2122 0000002a FFFEF7FF!         BL        findItem              ; [DPU_3_PIPE] |417|  ; [KEEP 32-BIT INS]
    2123                            ; CALL OCCURS {findItem }        ; [] |417| 
    2124                            .dwpsn  file "../Application/Services/nvocop.c",line 411,column 3,is_stmt,isa 1
    2125 0000002e 46A0              MOV       V5, V1                ; [DPU_3_PIPE] |411|  ; [ORIG 16-BIT INS]
    2126                            .dwpsn  file "../Application/Services/nvocop.c",line 420,column 5,is_stmt,isa 1
    2127 00000030 1C06              MOVS      V3, A1                ; [DPU_3_PIPE] |420|  ; [ORIG 16-BIT INS]
    2128 00000032 D019              BEQ       ||$C$L36||            ; [DPU_3_PIPE] |420|  ; [ORIG 16-BIT INS]
    2129                            ; BRANCHCC OCCURS {||$C$L36||}   ; [] |420| 
    2130                    ;* --------------------------------------------------------------------------*
    2131 00000034 4654              MOV       V1, V7                ; [DPU_3_PIPE]  ; [ORIG 16-BIT INS]
    2132 00000036 B1AD              CBZ       V2, ||$C$L35||        ; []  ; [ORIG 16-BIT INS]
    2133                            .dwpsn  file "../Application/Services/nvocop.c",line 425,column 19,is_stmt,isa 1
    2134                            ; BRANCHCC OCCURS {||$C$L35||}   ; [] |425| 
    2135                    ;* --------------------------------------------------------------------------*
    2136 00000038 4826              LDR       A1, $C$CON27          ; [DPU_3_PIPE]  ; [ORIG 16-BIT INS]
    2137 0000003a 0B00              LSRS      A1, A1, #12           ; [DPU_3_PIPE]  ; [ORIG 16-BIT INS]
    2138 0000003c F980FA5F          UXTB      V6, A1                ; [DPU_3_PIPE]  ; [KEEP 32-BIT INS]
    2139                    ;* --------------------------------------------------------------------------*
    2140                    ;*   BEGIN LOOP ||$C$L34||
    2141                    ;*
    2142                    ;*   Loop source line                : 425
    2143                    ;*   Loop closing brace source line  : 433
    2144                    ;*   Known Minimum Trip Count        : 1
    2145                    ;*   Known Maximum Trip Count        : 256
TI ARM Assembler PC v16.9.4 Sat Nov 18 18:46:31 2017

Tools Copyright (c) 1996-2017 Texas Instruments Incorporated
C:\Users\Kevin\AppData\Local\Temp\{6C42DDD5-7C92-479C-8F05-55537E4479EC} PAGE   40

    2146                    ;*   Known Max Trip Count Factor     : 1
    2147                    ;* --------------------------------------------------------------------------*
    2148 00000040           ||$C$L34||:    
    2149                            .dwpsn  file "../Application/Services/nvocop.c",line 427,column 9,is_stmt,isa 1
    2150 00000040 4648              MOV       A1, V6                ; [DPU_3_PIPE] |427|  ; [ORIG 16-BIT INS]
    2151 00000042 4631              MOV       A2, V3                ; [DPU_3_PIPE] |427|  ; [ORIG 16-BIT INS]
    2152 00000044 466A              MOV       A3, SP                ; [DPU_3_PIPE] |427|  ; [ORIG 16-BIT INS]
    2153 00000046 2301              MOVS      A4, #1                ; [DPU_3_PIPE] |427|  ; [ORIG 16-BIT INS]
    2154                    $C$DW$141       .dwtag  DW_TAG_TI_branch
    2155                            .dwattr $C$DW$141, DW_AT_low_pc(0x00)
    2156                            .dwattr $C$DW$141, DW_AT_name("HalFlashRead")
    2157                            .dwattr $C$DW$141, DW_AT_TI_call
    2158                    
    2159 00000048 FFFEF7FF!         BL        HalFlashRead          ; [DPU_3_PIPE] |427|  ; [KEEP 32-BIT INS]
    2160                            ; CALL OCCURS {HalFlashRead }    ; [] |427| 
    2161                            .dwpsn  file "../Application/Services/nvocop.c",line 430,column 11,is_stmt,isa 1
    2162 0000004c 0004F81B          LDRB      A1, [V8, +V1]         ; [DPU_3_PIPE] |430|  ; [KEEP 32-BIT INS]
    2163 00000050 1000F89D          LDRB      A2, [SP, #0]          ; [DPU_3_PIPE] |430|  ; [KEEP 32-BIT INS]
    2164 00000054 4288              CMP       A1, A2                ; [DPU_3_PIPE] |430|  ; [ORIG 16-BIT INS]
    2165 00000056 D105              BNE       ||$C$L35||            ; [DPU_3_PIPE] |430|  ; [ORIG 16-BIT INS]
    2166                            ; BRANCHCC OCCURS {||$C$L35||}   ; [] |430| 
    2167                    ;* --------------------------------------------------------------------------*
    2168                            .dwpsn  file "../Application/Services/nvocop.c",line 425,column 28,is_stmt,isa 1
    2169 00000058 1C64              ADDS      V1, V1, #1            ; [DPU_3_PIPE] |425|  ; [ORIG 16-BIT INS]
    2170                            .dwpsn  file "../Application/Services/nvocop.c",line 432,column 9,is_stmt,isa 1
    2171 0000005a 1C76              ADDS      V3, V3, #1            ; [DPU_3_PIPE] |432|  ; [ORIG 16-BIT INS]
    2172                            .dwpsn  file "../Application/Services/nvocop.c",line 425,column 28,is_stmt,isa 1
    2173 0000005c B2E4              UXTB      V1, V1                ; [DPU_3_PIPE] |425|  ; [ORIG 16-BIT INS]
    2174                            .dwpsn  file "../Application/Services/nvocop.c",line 432,column 9,is_stmt,isa 1
    2175 0000005e B2B6              UXTH      V3, V3                ; [DPU_3_PIPE] |432|  ; [ORIG 16-BIT INS]
    2176                            .dwpsn  file "../Application/Services/nvocop.c",line 425,column 28,is_stmt,isa 1
    2177 00000060 42A5              CMP       V2, V1                ; [DPU_3_PIPE] |425|  ; [ORIG 16-BIT INS]
    2178 00000062 DCED              BGT       ||$C$L34||            ; [DPU_3_PIPE] |425|  ; [ORIG 16-BIT INS]
    2179                            ; BRANCHCC OCCURS {||$C$L34||}   ; [] |425| 
    2180                    ;* --------------------------------------------------------------------------*
    2181 00000064           ||$C$L35||:    
    2182                            .dwpsn  file "../Application/Services/nvocop.c",line 435,column 7,is_stmt,isa 1
    2183 00000064 42A5              CMP       V2, V1                ; [DPU_3_PIPE] |435|  ; [ORIG 16-BIT INS]
    2184 00000066 D02E              BEQ       ||$C$L38||            ; [DPU_3_PIPE] |435|  ; [ORIG 16-BIT INS]
    2185                            ; BRANCHCC OCCURS {||$C$L38||}   ; [] |435| 
    2186                    ;* --------------------------------------------------------------------------*
    2187 00000068           ||$C$L36||:    
    2188                            .dwpsn  file "../Application/Services/nvocop.c",line 446,column 3,is_stmt,isa 1
    2189 00000068 0002F8B8          LDRH      A1, [V5, #2]          ; [DPU_3_PIPE] |446|  ; [KEEP 32-BIT INS]
    2190                            .dwpsn  file "../Application/Services/nvocop.c",line 444,column 3,is_stmt,isa 1
    2191 0000006c 1CED              ADDS      V2, V2, #3            ; [DPU_3_PIPE] |444|  ; [ORIG 16-BIT INS]
    2192 0000006e 74FCF64F          MOV       V1, #65532            ; [DPU_3_PIPE] |444|  ; [KEEP 32-BIT INS]
    2193 00000072 402C              ANDS      V1, V1, V2            ; [DPU_3_PIPE] |444|  ; [ORIG 16-BIT INS]
    2194                            .dwpsn  file "../Application/Services/nvocop.c",line 446,column 3,is_stmt,isa 1
    2195 00000074 75F8F640          MOV       V2, #4088             ; [DPU_3_PIPE] |446|  ; [KEEP 32-BIT INS]
    2196 00000078 1820              ADDS      A1, V1, A1            ; [DPU_3_PIPE] |446|  ; [ORIG 16-BIT INS]
    2197 0000007a 4285              CMP       V2, A1                ; [DPU_3_PIPE] |446|  ; [ORIG 16-BIT INS]
    2198 0000007c DA0A              BGE       ||$C$L37||            ; [DPU_3_PIPE] |446|  ; [ORIG 16-BIT INS]
    2199                            ; BRANCHCC OCCURS {||$C$L37||}   ; [] |446| 
    2200                    ;* --------------------------------------------------------------------------*
TI ARM Assembler PC v16.9.4 Sat Nov 18 18:46:31 2017

Tools Copyright (c) 1996-2017 Texas Instruments Incorporated
C:\Users\Kevin\AppData\Local\Temp\{6C42DDD5-7C92-479C-8F05-55537E4479EC} PAGE   41

    2201                            .dwpsn  file "../Application/Services/nvocop.c",line 448,column 5,is_stmt,isa 1
    2202                    $C$DW$142       .dwtag  DW_TAG_TI_branch
    2203                            .dwattr $C$DW$142, DW_AT_low_pc(0x00)
    2204                            .dwattr $C$DW$142, DW_AT_name("setXferPage")
    2205                            .dwattr $C$DW$142, DW_AT_TI_call
    2206                    
    2207 0000007e FFFEF7FF!         BL        setXferPage           ; [DPU_3_PIPE] |448|  ; [KEEP 32-BIT INS]
    2208                            ; CALL OCCURS {setXferPage }     ; [] |448| 
    2209                            .dwpsn  file "../Application/Services/nvocop.c",line 449,column 5,is_stmt,isa 1
    2210                    $C$DW$143       .dwtag  DW_TAG_TI_branch
    2211                            .dwattr $C$DW$143, DW_AT_low_pc(0x00)
    2212                            .dwattr $C$DW$143, DW_AT_name("compactPage")
    2213                            .dwattr $C$DW$143, DW_AT_TI_call
    2214                    
    2215 00000082 FFFEF7FF!         BL        compactPage           ; [DPU_3_PIPE] |449|  ; [KEEP 32-BIT INS]
    2216                            ; CALL OCCURS {compactPage }     ; [] |449| 
    2217                            .dwpsn  file "../Application/Services/nvocop.c",line 452,column 5,is_stmt,isa 1
    2218 00000086 0002F8B8          LDRH      A1, [V5, #2]          ; [DPU_3_PIPE] |452|  ; [KEEP 32-BIT INS]
    2219 0000008a 1820              ADDS      A1, V1, A1            ; [DPU_3_PIPE] |452|  ; [ORIG 16-BIT INS]
    2220 0000008c 4285              CMP       V2, A1                ; [DPU_3_PIPE] |452|  ; [ORIG 16-BIT INS]
    2221 0000008e BFB8              IT        LT                    ; [DPU_3_PIPE]  ; [ORIG 16-BIT INS]
    2222                            .dwpsn  file "../Application/Services/nvocop.c",line 454,column 9,is_stmt,isa 1
    2223 00000090 2001              MOVLT     A1, #1                ; [DPU_3_PIPE] |454|  ; [ORIG 16-BIT INS]
    2224 00000092 DB19              BLT       ||$C$L39||            ; [DPU_3_PIPE] |454|  ; [ORIG 16-BIT INS]
    2225                            ; BRANCHCC OCCURS {||$C$L39||}   ; [] |454| 
    2226                    ;* --------------------------------------------------------------------------*
    2227 00000094           ||$C$L37||:    
    2228                            .dwpsn  file "../Application/Services/nvocop.c",line 463,column 3,is_stmt,isa 1
    2229 00000094 6839              LDR       A2, [V4, #0]          ; [DPU_3_PIPE] |463|  ; [ORIG 16-BIT INS]
    2230 00000096 A802              ADD       A1, SP, #8            ; [DPU_3_PIPE] |463|  ; [ORIG 16-BIT INS]
    2231 00000098 88BE              LDRH      V3, [V4, #4]          ; [DPU_3_PIPE] |463|  ; [ORIG 16-BIT INS]
    2232 0000009a 6001              STR       A2, [A1, #0]          ; [DPU_3_PIPE] |463|  ; [ORIG 16-BIT INS]
    2233 0000009c AD02              ADD       V2, SP, #8            ; [DPU_3_PIPE] |463|  ; [ORIG 16-BIT INS]
    2234 0000009e 8086              STRH      V3, [A1, #4]          ; [DPU_3_PIPE] |463|  ; [ORIG 16-BIT INS]
    2235 000000a0 0003E895          LDMIA     V2, {A1,A2}           ; [DPU_3_PIPE] |463|  ; [KEEP 32-BIT INS]
    2236 000000a4 4622              MOV       A3, V1                ; [DPU_3_PIPE] |463|  ; [ORIG 16-BIT INS]
    2237 000000a6 465B              MOV       A4, V8                ; [DPU_3_PIPE] |463|  ; [ORIG 16-BIT INS]
    2238                    $C$DW$144       .dwtag  DW_TAG_TI_branch
    2239                            .dwattr $C$DW$144, DW_AT_low_pc(0x00)
    2240                            .dwattr $C$DW$144, DW_AT_name("writeItem")
    2241                            .dwattr $C$DW$144, DW_AT_TI_call
    2242                    
    2243 000000a8 FFFEF7FF!         BL        writeItem             ; [DPU_3_PIPE] |463|  ; [KEEP 32-BIT INS]
    2244                            ; CALL OCCURS {writeItem }       ; [] |463| 
    2245                            .dwpsn  file "../Application/Services/nvocop.c",line 467,column 3,is_stmt,isa 1
    2246 000000ac 0001F898          LDRB      A1, [V5, #1]          ; [DPU_3_PIPE] |467|  ; [KEEP 32-BIT INS]
    2247 000000b0 1002F8B8          LDRH      A2, [V5, #2]          ; [DPU_3_PIPE] |467|  ; [KEEP 32-BIT INS]
    2248 000000b4 2800              CMP       A1, #0                ; [DPU_3_PIPE] |467|  ; [ORIG 16-BIT INS]
    2249 000000b6 BF18              IT        NE                    ; [DPU_3_PIPE]  ; [ORIG 16-BIT INS]
    2250 000000b8 4682              MOVNE     V7, A1                ; [DPU_3_PIPE]  ; [ORIG 16-BIT INS]
    2251                            .dwpsn  file "../Application/Services/nvocop.c",line 469,column 5,is_stmt,isa 1
    2252 000000ba D104              BNE       ||$C$L38||            ; [DPU_3_PIPE] |469|  ; [ORIG 16-BIT INS]
    2253                            ; BRANCHCC OCCURS {||$C$L38||}   ; [] |469| 
    2254                    ;* --------------------------------------------------------------------------*
    2255                            .dwpsn  file "../Application/Services/nvocop.c",line 472,column 3,is_stmt,isa 1
TI ARM Assembler PC v16.9.4 Sat Nov 18 18:46:31 2017

Tools Copyright (c) 1996-2017 Texas Instruments Incorporated
C:\Users\Kevin\AppData\Local\Temp\{6C42DDD5-7C92-479C-8F05-55537E4479EC} PAGE   42

    2256 000000bc 1909              ADDS      A2, A2, V1            ; [DPU_3_PIPE] |472|  ; [ORIG 16-BIT INS]
    2257 000000be 3108              ADDS      A2, A2, #8            ; [DPU_3_PIPE] |472|  ; [ORIG 16-BIT INS]
    2258 000000c0 B288              UXTH      A1, A2                ; [DPU_3_PIPE] |472|  ; [ORIG 16-BIT INS]
    2259 000000c2 0002F8A8          STRH      A1, [V5, #2]          ; [DPU_3_PIPE] |472|  ; [KEEP 32-BIT INS]
    2260                    ;* --------------------------------------------------------------------------*
    2261 000000c6           ||$C$L38||:    
    2262 000000c6 4650              MOV       A1, V7                ; [DPU_3_PIPE] |472|  ; [ORIG 16-BIT INS]
    2263                    ;* --------------------------------------------------------------------------*
    2264 000000c8           ||$C$L39||:    
    2265 000000c8 B005              ADD       SP, SP, #20           ; [DPU_3_PIPE]  ; [ORIG 16-BIT INS]
    2266                            .dwcfi  cfa_offset, 44
    2267 000000ca 4FF0E8BD          POP       {V1, V2, V3, V4, V5, V6, V7, V8, LR} ; [DPU_3_PIPE]  ; [KEEP 32-BIT INS]
    2268                            .dwcfi  cfa_offset, 8
    2269                            .dwcfi  restore_reg, 14
    2270                            .dwcfi  restore_reg, 11
    2271                            .dwcfi  restore_reg, 10
    2272                            .dwcfi  restore_reg, 9
    2273                            .dwcfi  restore_reg, 8
    2274                            .dwcfi  restore_reg, 7
    2275                            .dwcfi  restore_reg, 6
    2276                            .dwcfi  restore_reg, 5
    2277                            .dwcfi  restore_reg, 4
    2278 000000ce B002              ADD       SP, SP, #8            ; [DPU_3_PIPE]  ; [ORIG 16-BIT INS]
    2279                            .dwcfi  cfa_offset, 0
    2280                    $C$DW$145       .dwtag  DW_TAG_TI_branch
    2281                            .dwattr $C$DW$145, DW_AT_low_pc(0x00)
    2282                            .dwattr $C$DW$145, DW_AT_TI_return
    2283                    
    2284 000000d0 4770              BX        LR                    ; [DPU_3_PIPE]  ; [ORIG 16-BIT INS]
    2285                            ; BRANCH OCCURS                  ; [] 
    2286                            .dwattr $C$DW$130, DW_AT_TI_end_file("../Application/Services/nvocop.c")
    2287                            .dwattr $C$DW$130, DW_AT_TI_end_line(0x1df)
    2288                            .dwattr $C$DW$130, DW_AT_TI_end_column(0x01)
    2289                            .dwendentry
    2290                            .dwendtag $C$DW$130
    2291                    
    2292 00000000                   .sect   ".text:NVOCOP_readItem"
    2293                            .clink
    2294                            .thumbfunc NVOCOP_readItem
    2295 00000000                   .thumb
    2296                            .global NVOCOP_readItem
    2297                    
    2298                    $C$DW$146       .dwtag  DW_TAG_subprogram
    2299                            .dwattr $C$DW$146, DW_AT_name("NVOCOP_readItem")
    2300                            .dwattr $C$DW$146, DW_AT_low_pc(NVOCOP_readItem)
    2301                            .dwattr $C$DW$146, DW_AT_high_pc(0x00)
    2302                            .dwattr $C$DW$146, DW_AT_TI_symbol_name("NVOCOP_readItem")
    2303                            .dwattr $C$DW$146, DW_AT_external
    2304                            .dwattr $C$DW$146, DW_AT_type(*$C$DW$T$73)
    2305                            .dwattr $C$DW$146, DW_AT_TI_begin_file("../Application/Services/nvocop.c")
    2306                            .dwattr $C$DW$146, DW_AT_TI_begin_line(0x171)
    2307                            .dwattr $C$DW$146, DW_AT_TI_begin_column(0x07)
    2308                            .dwattr $C$DW$146, DW_AT_decl_file("../Application/Services/nvocop.c")
    2309                            .dwattr $C$DW$146, DW_AT_decl_line(0x171)
    2310                            .dwattr $C$DW$146, DW_AT_decl_column(0x07)
TI ARM Assembler PC v16.9.4 Sat Nov 18 18:46:31 2017

Tools Copyright (c) 1996-2017 Texas Instruments Incorporated
C:\Users\Kevin\AppData\Local\Temp\{6C42DDD5-7C92-479C-8F05-55537E4479EC} PAGE   43

    2311                            .dwattr $C$DW$146, DW_AT_TI_max_frame_size(0x20)
    2312                            .dwpsn  file "../Application/Services/nvocop.c",line 370,column 1,is_stmt,address NVOCOP_readI
    2313                    
    2314                            .dwfde $C$DW$CIE, NVOCOP_readItem
    2315                    $C$DW$147       .dwtag  DW_TAG_formal_parameter
    2316                            .dwattr $C$DW$147, DW_AT_name("nv_id")
    2317                            .dwattr $C$DW$147, DW_AT_TI_symbol_name("nv_id")
    2318                            .dwattr $C$DW$147, DW_AT_type(*$C$DW$T$166)
    2319                            .dwattr $C$DW$147, DW_AT_location[DW_OP_breg13 24]
    2320                    
    2321                    $C$DW$148       .dwtag  DW_TAG_formal_parameter
    2322                            .dwattr $C$DW$148, DW_AT_name("offset")
    2323                            .dwattr $C$DW$148, DW_AT_TI_symbol_name("offset")
    2324                            .dwattr $C$DW$148, DW_AT_type(*$C$DW$T$19)
    2325                            .dwattr $C$DW$148, DW_AT_location[DW_OP_reg2]
    2326                    
    2327                    $C$DW$149       .dwtag  DW_TAG_formal_parameter
    2328                            .dwattr $C$DW$149, DW_AT_name("len")
    2329                            .dwattr $C$DW$149, DW_AT_TI_symbol_name("len")
    2330                            .dwattr $C$DW$149, DW_AT_type(*$C$DW$T$19)
    2331                            .dwattr $C$DW$149, DW_AT_location[DW_OP_reg3]
    2332                    
    2333                    $C$DW$150       .dwtag  DW_TAG_formal_parameter
    2334                            .dwattr $C$DW$150, DW_AT_name("pBuf")
    2335                            .dwattr $C$DW$150, DW_AT_TI_symbol_name("pBuf")
    2336                            .dwattr $C$DW$150, DW_AT_type(*$C$DW$T$3)
    2337                            .dwattr $C$DW$150, DW_AT_location[DW_OP_breg13 32]
    2338                    
    2339                    
    2340                    ;*****************************************************************************
    2341                    ;* FUNCTION NAME: NVOCOP_readItem                                            *
    2342                    ;*                                                                           *
    2343                    ;*   Regs Modified     : A1,A2,A3,A4,V1,V4,V9,SP,LR,SR                       *
    2344                    ;*   Regs Used         : A1,A2,A3,A4,V1,V4,V9,SP,LR,SR                       *
    2345                    ;*   Local Frame Size  : 0 Args + 8 Auto + 12 Save = 20 byte                 *
    2346                    ;*****************************************************************************
    2347                    NVOCOP_readItem:
    2348                    ;* --------------------------------------------------------------------------*
    2349                    ;* V1    assigned to len
    2350                    $C$DW$151       .dwtag  DW_TAG_variable
    2351                            .dwattr $C$DW$151, DW_AT_name("len")
    2352                            .dwattr $C$DW$151, DW_AT_TI_symbol_name("len")
    2353                            .dwattr $C$DW$151, DW_AT_type(*$C$DW$T$277)
    2354                            .dwattr $C$DW$151, DW_AT_location[DW_OP_reg4]
    2355                    
    2356                    ;* A2    assigned to itemOffset
    2357                    $C$DW$152       .dwtag  DW_TAG_variable
    2358                            .dwattr $C$DW$152, DW_AT_name("itemOffset")
    2359                            .dwattr $C$DW$152, DW_AT_TI_symbol_name("itemOffset")
    2360                            .dwattr $C$DW$152, DW_AT_type(*$C$DW$T$10)
    2361                            .dwattr $C$DW$152, DW_AT_location[DW_OP_reg1]
    2362                    
    2363                            .dwcfi  cfa_offset, 0
    2364 00000000 B403              PUSH      {A1, A2}              ; [DPU_3_PIPE]  ; [ORIG 16-BIT INS]
    2365                            .dwcfi  cfa_offset, 8
TI ARM Assembler PC v16.9.4 Sat Nov 18 18:46:31 2017

Tools Copyright (c) 1996-2017 Texas Instruments Incorporated
C:\Users\Kevin\AppData\Local\Temp\{6C42DDD5-7C92-479C-8F05-55537E4479EC} PAGE   44

    2366                            .dwcfi  save_reg_to_mem, 1, -4
    2367                            .dwcfi  save_reg_to_mem, 0, -8
    2368 00000002 B590              PUSH      {V1, V4, LR}          ; [DPU_3_PIPE]  ; [ORIG 16-BIT INS]
    2369                            .dwcfi  cfa_offset, 20
    2370                            .dwcfi  save_reg_to_mem, 14, -12
    2371                            .dwcfi  save_reg_to_mem, 7, -16
    2372                            .dwcfi  save_reg_to_mem, 4, -20
    2373 00000004 AF03              ADD       V4, SP, #12           ; [DPU_3_PIPE]  ; [ORIG 16-BIT INS]
    2374                            .dwpsn  file "../Application/Services/nvocop.c",line 377,column 21,is_stmt,isa 1
    2375 00000006 6839              LDR       A2, [V4, #0]          ; [DPU_3_PIPE] |377|  ; [ORIG 16-BIT INS]
    2376 00000008 0D0CF1AD          SUB       SP, SP, #12           ; [DPU_3_PIPE]  ; [KEEP 32-BIT INS]
    2377                            .dwcfi  cfa_offset, 32
    2378 0000000c 4668              MOV       A1, SP                ; [DPU_3_PIPE] |377|  ; [ORIG 16-BIT INS]
    2379 0000000e 6001              STR       A2, [A1, #0]          ; [DPU_3_PIPE] |377|  ; [ORIG 16-BIT INS]
    2380 00000010 88B9              LDRH      A2, [V4, #4]          ; [DPU_3_PIPE] |377|  ; [ORIG 16-BIT INS]
    2381 00000012 8081              STRH      A2, [A1, #4]          ; [DPU_3_PIPE] |377|  ; [ORIG 16-BIT INS]
    2382 00000014 0003E89D          LDMIA     SP, {A1,A2}           ; [DPU_3_PIPE] |377|  ; [KEEP 32-BIT INS]
    2383                            .dwpsn  file "../Application/Services/nvocop.c",line 370,column 1,is_stmt,isa 1
    2384 00000018 461C              MOV       V1, A4                ; [DPU_3_PIPE] |370|  ; [ORIG 16-BIT INS]
    2385                            .dwpsn  file "../Application/Services/nvocop.c",line 377,column 21,is_stmt,isa 1
    2386                    $C$DW$153       .dwtag  DW_TAG_TI_branch
    2387                            .dwattr $C$DW$153, DW_AT_low_pc(0x00)
    2388                            .dwattr $C$DW$153, DW_AT_name("findItem")
    2389                            .dwattr $C$DW$153, DW_AT_TI_call
    2390                    
    2391 0000001a FFFEF7FF!         BL        findItem              ; [DPU_3_PIPE] |377|  ; [KEEP 32-BIT INS]
    2392                            ; CALL OCCURS {findItem }        ; [] |377| 
    2393 0000001e 1C01              MOVS      A2, A1                ; [DPU_3_PIPE] |377|  ; [ORIG 16-BIT INS]
    2394 00000020 D008              BEQ       ||$C$L40||            ; [DPU_3_PIPE] |377|  ; [ORIG 16-BIT INS]
    2395                            ; BRANCHCC OCCURS {||$C$L40||}   ; [] |377| 
    2396                    ;* --------------------------------------------------------------------------*
    2397                            .dwpsn  file "../Application/Services/nvocop.c",line 382,column 5,is_stmt,isa 1
    2398 00000022 4807              LDR       A1, $C$CON30          ; [DPU_3_PIPE] |382|  ; [ORIG 16-BIT INS]
    2399 00000024 68BA              LDR       A3, [V4, #8]          ; [DPU_3_PIPE] |382|  ; [ORIG 16-BIT INS]
    2400 00000026 4623              MOV       A4, V1                ; [DPU_3_PIPE] |382|  ; [ORIG 16-BIT INS]
    2401 00000028 0B00              LSRS      A1, A1, #12           ; [DPU_3_PIPE] |382|  ; [ORIG 16-BIT INS]
    2402 0000002a B2C0              UXTB      A1, A1                ; [DPU_3_PIPE] |382|  ; [ORIG 16-BIT INS]
    2403                    $C$DW$154       .dwtag  DW_TAG_TI_branch
    2404                            .dwattr $C$DW$154, DW_AT_low_pc(0x00)
    2405                            .dwattr $C$DW$154, DW_AT_name("HalFlashRead")
    2406                            .dwattr $C$DW$154, DW_AT_TI_call
    2407                    
    2408 0000002c FFFEF7FF!         BL        HalFlashRead          ; [DPU_3_PIPE] |382|  ; [KEEP 32-BIT INS]
    2409                            ; CALL OCCURS {HalFlashRead }    ; [] |382| 
    2410                            .dwpsn  file "../Application/Services/nvocop.c",line 384,column 5,is_stmt,isa 1
    2411 00000030 2000              MOVS      A1, #0                ; [DPU_3_PIPE] |384|  ; [ORIG 16-BIT INS]
    2412 00000032 E000              B         ||$C$L41||            ; [DPU_3_PIPE] |384|  ; [ORIG 16-BIT INS]
    2413                            ; BRANCH OCCURS {||$C$L41||}     ; [] |384| 
    2414                    ;* --------------------------------------------------------------------------*
    2415 00000034           ||$C$L40||:    
    2416                            .dwpsn  file "../Application/Services/nvocop.c",line 388,column 3,is_stmt,isa 1
    2417 00000034 2001              MOVS      A1, #1                ; [DPU_3_PIPE] |388|  ; [ORIG 16-BIT INS]
    2418                    ;* --------------------------------------------------------------------------*
    2419 00000036           ||$C$L41||:    
    2420 00000036 B003              ADD       SP, SP, #12           ; [DPU_3_PIPE]  ; [ORIG 16-BIT INS]
TI ARM Assembler PC v16.9.4 Sat Nov 18 18:46:31 2017

Tools Copyright (c) 1996-2017 Texas Instruments Incorporated
C:\Users\Kevin\AppData\Local\Temp\{6C42DDD5-7C92-479C-8F05-55537E4479EC} PAGE   45

    2421                            .dwcfi  cfa_offset, 20
    2422 00000038 4090E8BD          POP       {V1, V4, LR}          ; [DPU_3_PIPE]  ; [KEEP 32-BIT INS]
    2423                            .dwcfi  cfa_offset, 8
    2424                            .dwcfi  restore_reg, 14
    2425                            .dwcfi  restore_reg, 7
    2426                            .dwcfi  restore_reg, 4
    2427 0000003c B002              ADD       SP, SP, #8            ; [DPU_3_PIPE]  ; [ORIG 16-BIT INS]
    2428                            .dwcfi  cfa_offset, 0
    2429                    $C$DW$155       .dwtag  DW_TAG_TI_branch
    2430                            .dwattr $C$DW$155, DW_AT_low_pc(0x00)
    2431                            .dwattr $C$DW$155, DW_AT_TI_return
    2432                    
    2433 0000003e 4770              BX        LR                    ; [DPU_3_PIPE]  ; [ORIG 16-BIT INS]
    2434                            ; BRANCH OCCURS                  ; [] 
    2435                            .dwattr $C$DW$146, DW_AT_TI_end_file("../Application/Services/nvocop.c")
    2436                            .dwattr $C$DW$146, DW_AT_TI_end_line(0x185)
    2437                            .dwattr $C$DW$146, DW_AT_TI_end_column(0x01)
    2438                            .dwendentry
    2439                            .dwendtag $C$DW$146
    2440                    
    2441 00000000                   .sect   ".text:findOffset"
    2442                            .clink
    2443                            .thumbfunc findOffset
    2444 00000000                   .thumb
    2445                    
    2446                    $C$DW$156       .dwtag  DW_TAG_subprogram
    2447                            .dwattr $C$DW$156, DW_AT_name("findOffset")
    2448                            .dwattr $C$DW$156, DW_AT_low_pc(findOffset)
    2449                            .dwattr $C$DW$156, DW_AT_high_pc(0x00)
    2450                            .dwattr $C$DW$156, DW_AT_TI_symbol_name("findOffset")
    2451                            .dwattr $C$DW$156, DW_AT_TI_begin_file("../Application/Services/nvocop.c")
    2452                            .dwattr $C$DW$156, DW_AT_TI_begin_line(0x25a)
    2453                            .dwattr $C$DW$156, DW_AT_TI_begin_column(0x0d)
    2454                            .dwattr $C$DW$156, DW_AT_decl_file("../Application/Services/nvocop.c")
    2455                            .dwattr $C$DW$156, DW_AT_decl_line(0x25a)
    2456                            .dwattr $C$DW$156, DW_AT_decl_column(0x0d)
    2457                            .dwattr $C$DW$156, DW_AT_TI_max_frame_size(0x10)
    2458                            .dwpsn  file "../Application/Services/nvocop.c",line 603,column 1,is_stmt,address findOffset,i
    2459                    
    2460                            .dwfde $C$DW$CIE, findOffset
    2461                    
    2462                    ;*****************************************************************************
    2463                    ;* FUNCTION NAME: findOffset                                                 *
    2464                    ;*                                                                           *
    2465                    ;*   Regs Modified     : A1,A2,A3,A4,V1,V2,V9,SP,LR,SR                       *
    2466                    ;*   Regs Used         : A1,A2,A3,A4,V1,V2,V9,SP,LR,SR                       *
    2467                    ;*   Local Frame Size  : 0 Args + 4 Auto + 12 Save = 16 byte                 *
    2468                    ;*****************************************************************************
    2469                    findOffset:
    2470                    ;* --------------------------------------------------------------------------*
    2471                    $C$DW$157       .dwtag  DW_TAG_variable
    2472                            .dwattr $C$DW$157, DW_AT_name("tmp")
    2473                            .dwattr $C$DW$157, DW_AT_TI_symbol_name("tmp")
    2474                            .dwattr $C$DW$157, DW_AT_type(*$C$DW$T$210)
    2475                            .dwattr $C$DW$157, DW_AT_location[DW_OP_breg13 0]
TI ARM Assembler PC v16.9.4 Sat Nov 18 18:46:31 2017

Tools Copyright (c) 1996-2017 Texas Instruments Incorporated
C:\Users\Kevin\AppData\Local\Temp\{6C42DDD5-7C92-479C-8F05-55537E4479EC} PAGE   46

    2476                    
    2477                    ;* V2    assigned to $O$K10
    2478                    ;* V1    assigned to offset
    2479                    $C$DW$158       .dwtag  DW_TAG_variable
    2480                            .dwattr $C$DW$158, DW_AT_name("offset")
    2481                            .dwattr $C$DW$158, DW_AT_TI_symbol_name("offset")
    2482                            .dwattr $C$DW$158, DW_AT_type(*$C$DW$T$19)
    2483                            .dwattr $C$DW$158, DW_AT_location[DW_OP_reg4]
    2484                    
    2485                            .dwcfi  cfa_offset, 0
    2486 00000000 480C              LDR       A1, $C$CON33          ; [DPU_3_PIPE]  ; [ORIG 16-BIT INS]
    2487 00000002 B538              PUSH      {A4, V1, V2, LR}      ; [DPU_3_PIPE]  ; [ORIG 16-BIT INS]
    2488                            .dwcfi  cfa_offset, 16
    2489                            .dwcfi  save_reg_to_mem, 14, -4
    2490                            .dwcfi  save_reg_to_mem, 5, -8
    2491                            .dwcfi  save_reg_to_mem, 4, -12
    2492                            .dwcfi  save_reg_to_mem, 3, -16
    2493                            .dwpsn  file "../Application/Services/nvocop.c",line 605,column 8,is_stmt,isa 1
    2494 00000004 74FCF640          MOV       V1, #4092             ; [DPU_3_PIPE] |605|  ; [KEEP 32-BIT INS]
    2495 00000008 0B00              LSRS      A1, A1, #12           ; [DPU_3_PIPE]  ; [ORIG 16-BIT INS]
    2496 0000000a B2C5              UXTB      V2, A1                ; [DPU_3_PIPE]  ; [ORIG 16-BIT INS]
    2497                    ;* --------------------------------------------------------------------------*
    2498                    ;*   BEGIN LOOP ||$C$L42||
    2499                    ;*
    2500                    ;*   Loop source line                : 605
    2501                    ;*   Loop closing brace source line  : 616
    2502                    ;*   Known Minimum Trip Count        : 1
    2503                    ;*   Known Maximum Trip Count        : 1023
    2504                    ;*   Known Max Trip Count Factor     : 1
    2505                    ;* --------------------------------------------------------------------------*
    2506 0000000c           ||$C$L42||:    
    2507                            .dwpsn  file "../Application/Services/nvocop.c",line 611,column 5,is_stmt,isa 1
    2508 0000000c 4628              MOV       A1, V2                ; [DPU_3_PIPE] |611|  ; [ORIG 16-BIT INS]
    2509 0000000e 4621              MOV       A2, V1                ; [DPU_3_PIPE] |611|  ; [ORIG 16-BIT INS]
    2510 00000010 466A              MOV       A3, SP                ; [DPU_3_PIPE] |611|  ; [ORIG 16-BIT INS]
    2511 00000012 2304              MOVS      A4, #4                ; [DPU_3_PIPE] |611|  ; [ORIG 16-BIT INS]
    2512                    $C$DW$159       .dwtag  DW_TAG_TI_branch
    2513                            .dwattr $C$DW$159, DW_AT_low_pc(0x00)
    2514                            .dwattr $C$DW$159, DW_AT_name("HalFlashRead")
    2515                            .dwattr $C$DW$159, DW_AT_TI_call
    2516                    
    2517 00000014 FFFEF7FF!         BL        HalFlashRead          ; [DPU_3_PIPE] |611|  ; [KEEP 32-BIT INS]
    2518                            ; CALL OCCURS {HalFlashRead }    ; [] |611| 
    2519                            .dwpsn  file "../Application/Services/nvocop.c",line 614,column 7,is_stmt,isa 1
    2520 00000018 9800              LDR       A1, [SP, #0]          ; [DPU_3_PIPE] |614|  ; [ORIG 16-BIT INS]
    2521 0000001a 3FFFF1B0          CMP       A1, #-1               ; [DPU_3_PIPE] |614|  ; [KEEP 32-BIT INS]
    2522 0000001e D103              BNE       ||$C$L43||            ; [DPU_3_PIPE] |614|  ; [ORIG 16-BIT INS]
    2523                            ; BRANCHCC OCCURS {||$C$L43||}   ; [] |614| 
    2524                    ;* --------------------------------------------------------------------------*
    2525                            .dwpsn  file "../Application/Services/nvocop.c",line 606,column 8,is_stmt,isa 1
    2526 00000020 1F24              SUBS      V1, V1, #4            ; [DPU_3_PIPE] |606|  ; [ORIG 16-BIT INS]
    2527 00000022 B2A4              UXTH      V1, V1                ; [DPU_3_PIPE] |606|  ; [ORIG 16-BIT INS]
    2528 00000024 2C04              CMP       V1, #4                ; [DPU_3_PIPE] |606|  ; [ORIG 16-BIT INS]
    2529 00000026 DAF1              BGE       ||$C$L42||            ; [DPU_3_PIPE] |606|  ; [ORIG 16-BIT INS]
    2530                            ; BRANCHCC OCCURS {||$C$L42||}   ; [] |606| 
TI ARM Assembler PC v16.9.4 Sat Nov 18 18:46:31 2017

Tools Copyright (c) 1996-2017 Texas Instruments Incorporated
C:\Users\Kevin\AppData\Local\Temp\{6C42DDD5-7C92-479C-8F05-55537E4479EC} PAGE   47

    2531                    ;* --------------------------------------------------------------------------*
    2532 00000028           ||$C$L43||:    
    2533                            .dwpsn  file "../Application/Services/nvocop.c",line 617,column 3,is_stmt,isa 1
    2534 00000028 4801              LDR       A1, $C$CON32          ; [DPU_3_PIPE] |617|  ; [ORIG 16-BIT INS]
    2535 0000002a 1D24              ADDS      V1, V1, #4            ; [DPU_3_PIPE] |617|  ; [ORIG 16-BIT INS]
    2536 0000002c 8004              STRH      V1, [A1, #0]          ; [DPU_3_PIPE] |617|  ; [ORIG 16-BIT INS]
    2537                    $C$DW$160       .dwtag  DW_TAG_TI_branch
    2538                            .dwattr $C$DW$160, DW_AT_low_pc(0x00)
    2539                            .dwattr $C$DW$160, DW_AT_TI_return
    2540                    
    2541 0000002e BD38              POP       {A4, V1, V2, PC}      ; [DPU_3_PIPE]  ; [ORIG 16-BIT INS]
    2542                            .dwcfi  cfa_offset, 0
    2543                            ; BRANCH OCCURS                  ; [] 
    2544                            .dwattr $C$DW$156, DW_AT_TI_end_file("../Application/Services/nvocop.c")
    2545                            .dwattr $C$DW$156, DW_AT_TI_end_line(0x26a)
    2546                            .dwattr $C$DW$156, DW_AT_TI_end_column(0x01)
    2547                            .dwendentry
    2548                            .dwendtag $C$DW$156
    2549                    
    2550 00000000                   .sect   ".text:NVOCOP_initNV"
    2551                            .clink
    2552                            .thumbfunc NVOCOP_initNV
    2553 00000000                   .thumb
    2554                            .global NVOCOP_initNV
    2555                    
    2556                    $C$DW$161       .dwtag  DW_TAG_subprogram
    2557                            .dwattr $C$DW$161, DW_AT_name("NVOCOP_initNV")
    2558                            .dwattr $C$DW$161, DW_AT_low_pc(NVOCOP_initNV)
    2559                            .dwattr $C$DW$161, DW_AT_high_pc(0x00)
    2560                            .dwattr $C$DW$161, DW_AT_TI_symbol_name("NVOCOP_initNV")
    2561                            .dwattr $C$DW$161, DW_AT_external
    2562                            .dwattr $C$DW$161, DW_AT_type(*$C$DW$T$73)
    2563                            .dwattr $C$DW$161, DW_AT_TI_begin_file("../Application/Services/nvocop.c")
    2564                            .dwattr $C$DW$161, DW_AT_TI_begin_line(0x108)
    2565                            .dwattr $C$DW$161, DW_AT_TI_begin_column(0x07)
    2566                            .dwattr $C$DW$161, DW_AT_decl_file("../Application/Services/nvocop.c")
    2567                            .dwattr $C$DW$161, DW_AT_decl_line(0x108)
    2568                            .dwattr $C$DW$161, DW_AT_decl_column(0x07)
    2569                            .dwattr $C$DW$161, DW_AT_TI_max_frame_size(0x10)
    2570                            .dwpsn  file "../Application/Services/nvocop.c",line 265,column 1,is_stmt,address NVOCOP_initN
    2571                    
    2572                            .dwfde $C$DW$CIE, NVOCOP_initNV
    2573                    $C$DW$162       .dwtag  DW_TAG_formal_parameter
    2574                            .dwattr $C$DW$162, DW_AT_name("param")
    2575                            .dwattr $C$DW$162, DW_AT_TI_symbol_name("param")
    2576                            .dwattr $C$DW$162, DW_AT_type(*$C$DW$T$3)
    2577                            .dwattr $C$DW$162, DW_AT_location[DW_OP_reg0]
    2578                    
    2579                    
    2580                    ;*****************************************************************************
    2581                    ;* FUNCTION NAME: NVOCOP_initNV                                              *
    2582                    ;*                                                                           *
    2583                    ;*   Regs Modified     : A1,A2,A3,A4,V1,V9,SP,LR,SR                          *
    2584                    ;*   Regs Used         : A1,A2,A3,A4,V1,V9,SP,LR,SR                          *
    2585                    ;*   Local Frame Size  : 0 Args + 4 Auto + 8 Save = 12 byte                  *
TI ARM Assembler PC v16.9.4 Sat Nov 18 18:46:31 2017

Tools Copyright (c) 1996-2017 Texas Instruments Incorporated
C:\Users\Kevin\AppData\Local\Temp\{6C42DDD5-7C92-479C-8F05-55537E4479EC} PAGE   48

    2586                    ;*****************************************************************************
    2587                    NVOCOP_initNV:
    2588                    ;* --------------------------------------------------------------------------*
    2589                    $C$DW$163       .dwtag  DW_TAG_variable
    2590                            .dwattr $C$DW$163, DW_AT_name("pgHdr")
    2591                            .dwattr $C$DW$163, DW_AT_TI_symbol_name("pgHdr")
    2592                            .dwattr $C$DW$163, DW_AT_type(*$C$DW$T$210)
    2593                            .dwattr $C$DW$163, DW_AT_location[DW_OP_breg13 0]
    2594                    
    2595                    ;* V1    assigned to $O$C16
    2596                    ;* A2    assigned to $O$C17
    2597                    ;* V1    assigned to $O$K4
    2598                            .dwcfi  cfa_offset, 0
    2599 00000000 B51C              PUSH      {A3, A4, V1, LR}      ; [DPU_3_PIPE]  ; [ORIG 16-BIT INS]
    2600                            .dwcfi  cfa_offset, 16
    2601                            .dwcfi  save_reg_to_mem, 14, -4
    2602                            .dwcfi  save_reg_to_mem, 4, -8
    2603                            .dwcfi  save_reg_to_mem, 3, -12
    2604                            .dwcfi  save_reg_to_mem, 2, -16
    2605                            .dwpsn  file "../Application/Services/nvocop.c",line 266,column 3,is_stmt,isa 1
    2606 00000002 4C10              LDR       V1, $C$CON36          ; [DPU_3_PIPE] |266|  ; [ORIG 16-BIT INS]
    2607                            .dwpsn  file "../Application/Services/nvocop.c",line 273,column 3,is_stmt,isa 1
    2608 00000004 4810              LDR       A1, $C$CON37          ; [DPU_3_PIPE] |273|  ; [ORIG 16-BIT INS]
    2609                            .dwpsn  file "../Application/Services/nvocop.c",line 266,column 3,is_stmt,isa 1
    2610 00000006 2100              MOVS      A2, #0                ; [DPU_3_PIPE] |266|  ; [ORIG 16-BIT INS]
    2611                            .dwpsn  file "../Application/Services/nvocop.c",line 273,column 3,is_stmt,isa 1
    2612 00000008 2304              MOVS      A4, #4                ; [DPU_3_PIPE] |273|  ; [ORIG 16-BIT INS]
    2613 0000000a 1EA4              SUBS      V1, V1, #2            ; [DPU_3_PIPE]  ; [ORIG 16-BIT INS]
    2614 0000000c 0B00              LSRS      A1, A1, #12           ; [DPU_3_PIPE] |273|  ; [ORIG 16-BIT INS]
    2615 0000000e 466A              MOV       A3, SP                ; [DPU_3_PIPE] |273|  ; [ORIG 16-BIT INS]
    2616                            .dwpsn  file "../Application/Services/nvocop.c",line 266,column 3,is_stmt,isa 1
    2617 00000010 7061              STRB      A2, [V1, #1]          ; [DPU_3_PIPE] |266|  ; [ORIG 16-BIT INS]
    2618                            .dwpsn  file "../Application/Services/nvocop.c",line 273,column 3,is_stmt,isa 1
    2619 00000012 B2C0              UXTB      A1, A1                ; [DPU_3_PIPE] |273|  ; [ORIG 16-BIT INS]
    2620                            .dwpsn  file "../Application/Services/nvocop.c",line 270,column 3,is_stmt,isa 1
    2621 00000014 7021              STRB      A2, [V1, #0]          ; [DPU_3_PIPE] |270|  ; [ORIG 16-BIT INS]
    2622                            .dwpsn  file "../Application/Services/nvocop.c",line 273,column 3,is_stmt,isa 1
    2623                    $C$DW$164       .dwtag  DW_TAG_TI_branch
    2624                            .dwattr $C$DW$164, DW_AT_low_pc(0x00)
    2625                            .dwattr $C$DW$164, DW_AT_name("HalFlashRead")
    2626                            .dwattr $C$DW$164, DW_AT_TI_call
    2627                    
    2628 00000016 FFFEF7FF!         BL        HalFlashRead          ; [DPU_3_PIPE] |273|  ; [KEEP 32-BIT INS]
    2629                            ; CALL OCCURS {HalFlashRead }    ; [] |273| 
    2630                            .dwpsn  file "../Application/Services/nvocop.c",line 275,column 3,is_stmt,isa 1
    2631 0000001a 9800              LDR       A1, [SP, #0]          ; [DPU_3_PIPE] |275|  ; [ORIG 16-BIT INS]
    2632 0000001c 1F80F5B0          CMP       A1, #1048576          ; [DPU_3_PIPE] |275|  ; [KEEP 32-BIT INS]
    2633 00000020 D00C              BEQ       ||$C$L45||            ; [DPU_3_PIPE] |275|  ; [ORIG 16-BIT INS]
    2634                            ; BRANCHCC OCCURS {||$C$L45||}   ; [] |275| 
    2635                    ;* --------------------------------------------------------------------------*
    2636 00000022 B920              CBNZ      A1, ||$C$L44||        ; []  ; [ORIG 16-BIT INS]
    2637                            .dwpsn  file "../Application/Services/nvocop.c",line 279,column 8,is_stmt,isa 1
    2638                            ; BRANCHCC OCCURS {||$C$L44||}   ; [] |279| 
    2639                    ;* --------------------------------------------------------------------------*
    2640                            .dwpsn  file "../Application/Services/nvocop.c",line 281,column 5,is_stmt,isa 1
TI ARM Assembler PC v16.9.4 Sat Nov 18 18:46:31 2017

Tools Copyright (c) 1996-2017 Texas Instruments Incorporated
C:\Users\Kevin\AppData\Local\Temp\{6C42DDD5-7C92-479C-8F05-55537E4479EC} PAGE   49

    2641                    $C$DW$165       .dwtag  DW_TAG_TI_branch
    2642                            .dwattr $C$DW$165, DW_AT_low_pc(0x00)
    2643                            .dwattr $C$DW$165, DW_AT_name("findOffset")
    2644                            .dwattr $C$DW$165, DW_AT_TI_call
    2645                    
    2646 00000024 FFFEF7FF!         BL        findOffset            ; [DPU_3_PIPE] |281|  ; [KEEP 32-BIT INS]
    2647                            ; CALL OCCURS {findOffset }      ; [] |281| 
    2648                            .dwpsn  file "../Application/Services/nvocop.c",line 283,column 5,is_stmt,isa 1
    2649                    $C$DW$166       .dwtag  DW_TAG_TI_branch
    2650                            .dwattr $C$DW$166, DW_AT_low_pc(0x00)
    2651                            .dwattr $C$DW$166, DW_AT_name("compactPage")
    2652                            .dwattr $C$DW$166, DW_AT_TI_call
    2653                    
    2654 00000028 FFFEF7FF!         BL        compactPage           ; [DPU_3_PIPE] |283|  ; [KEEP 32-BIT INS]
    2655                            ; CALL OCCURS {compactPage }     ; [] |283| 
    2656                            .dwpsn  file "../Application/Services/nvocop.c",line 284,column 3,is_stmt,isa 1
    2657 0000002c E008              B         ||$C$L46||            ; [DPU_3_PIPE] |284|  ; [ORIG 16-BIT INS]
    2658                            ; BRANCH OCCURS {||$C$L46||}     ; [] |284| 
    2659                    ;* --------------------------------------------------------------------------*
    2660 0000002e           ||$C$L44||:    
    2661                            .dwpsn  file "../Application/Services/nvocop.c",line 290,column 5,is_stmt,isa 1
    2662                    $C$DW$167       .dwtag  DW_TAG_TI_branch
    2663                            .dwattr $C$DW$167, DW_AT_low_pc(0x00)
    2664                            .dwattr $C$DW$167, DW_AT_name("erasePage")
    2665                            .dwattr $C$DW$167, DW_AT_TI_call
    2666                    
    2667 0000002e FFFEF7FF!         BL        erasePage             ; [DPU_3_PIPE] |290|  ; [KEEP 32-BIT INS]
    2668                            ; CALL OCCURS {erasePage }       ; [] |290| 
    2669                            .dwpsn  file "../Application/Services/nvocop.c",line 292,column 5,is_stmt,isa 1
    2670                    $C$DW$168       .dwtag  DW_TAG_TI_branch
    2671                            .dwattr $C$DW$168, DW_AT_low_pc(0x00)
    2672                            .dwattr $C$DW$168, DW_AT_name("setActivePage")
    2673                            .dwattr $C$DW$168, DW_AT_TI_call
    2674                    
    2675 00000032 FFFEF7FF!         BL        setActivePage         ; [DPU_3_PIPE] |292|  ; [KEEP 32-BIT INS]
    2676                            ; CALL OCCURS {setActivePage }   ; [] |292| 
    2677                            .dwpsn  file "../Application/Services/nvocop.c",line 294,column 5,is_stmt,isa 1
    2678 00000036 2004              MOVS      A1, #4                ; [DPU_3_PIPE] |294|  ; [ORIG 16-BIT INS]
    2679 00000038 8060              STRH      A1, [V1, #2]          ; [DPU_3_PIPE] |294|  ; [ORIG 16-BIT INS]
    2680 0000003a E001              B         ||$C$L46||            ; [DPU_3_PIPE] |294|  ; [ORIG 16-BIT INS]
    2681                            ; BRANCH OCCURS {||$C$L46||}     ; [] |294| 
    2682                    ;* --------------------------------------------------------------------------*
    2683 0000003c           ||$C$L45||:    
    2684                            .dwpsn  file "../Application/Services/nvocop.c",line 277,column 5,is_stmt,isa 1
    2685                    $C$DW$169       .dwtag  DW_TAG_TI_branch
    2686                            .dwattr $C$DW$169, DW_AT_low_pc(0x00)
    2687                            .dwattr $C$DW$169, DW_AT_name("findOffset")
    2688                            .dwattr $C$DW$169, DW_AT_TI_call
    2689                    
    2690 0000003c FFFEF7FF!         BL        findOffset            ; [DPU_3_PIPE] |277|  ; [KEEP 32-BIT INS]
    2691                            ; CALL OCCURS {findOffset }      ; [] |277| 
    2692                    ;* --------------------------------------------------------------------------*
    2693 00000040           ||$C$L46||:    
    2694                            .dwpsn  file "../Application/Services/nvocop.c",line 297,column 3,is_stmt,isa 1
    2695 00000040 7860              LDRB      A1, [V1, #1]          ; [DPU_3_PIPE] |297|  ; [ORIG 16-BIT INS]
TI ARM Assembler PC v16.9.4 Sat Nov 18 18:46:31 2017

Tools Copyright (c) 1996-2017 Texas Instruments Incorporated
C:\Users\Kevin\AppData\Local\Temp\{6C42DDD5-7C92-479C-8F05-55537E4479EC} PAGE   50

    2696                    $C$DW$170       .dwtag  DW_TAG_TI_branch
    2697                            .dwattr $C$DW$170, DW_AT_low_pc(0x00)
    2698                            .dwattr $C$DW$170, DW_AT_TI_return
    2699                    
    2700 00000042 BD1C              POP       {A3, A4, V1, PC}      ; [DPU_3_PIPE]  ; [ORIG 16-BIT INS]
    2701                            .dwcfi  cfa_offset, 0
    2702                            ; BRANCH OCCURS                  ; [] 
    2703                            .dwattr $C$DW$161, DW_AT_TI_end_file("../Application/Services/nvocop.c")
    2704                            .dwattr $C$DW$161, DW_AT_TI_end_line(0x12e)
    2705                            .dwattr $C$DW$161, DW_AT_TI_end_column(0x01)
    2706                            .dwendentry
    2707                            .dwendtag $C$DW$161
    2708                    
    2709 00000000                   .sect   ".text:NVOCOP_deleteItem"
    2710                            .clink
    2711                            .thumbfunc NVOCOP_deleteItem
    2712 00000000                   .thumb
    2713                            .global NVOCOP_deleteItem
    2714                    
    2715                    $C$DW$171       .dwtag  DW_TAG_subprogram
    2716                            .dwattr $C$DW$171, DW_AT_name("NVOCOP_deleteItem")
    2717                            .dwattr $C$DW$171, DW_AT_low_pc(NVOCOP_deleteItem)
    2718                            .dwattr $C$DW$171, DW_AT_high_pc(0x00)
    2719                            .dwattr $C$DW$171, DW_AT_TI_symbol_name("NVOCOP_deleteItem")
    2720                            .dwattr $C$DW$171, DW_AT_external
    2721                            .dwattr $C$DW$171, DW_AT_type(*$C$DW$T$73)
    2722                            .dwattr $C$DW$171, DW_AT_TI_begin_file("../Application/Services/nvocop.c")
    2723                            .dwattr $C$DW$171, DW_AT_TI_begin_line(0x1ea)
    2724                            .dwattr $C$DW$171, DW_AT_TI_begin_column(0x07)
    2725                            .dwattr $C$DW$171, DW_AT_decl_file("../Application/Services/nvocop.c")
    2726                            .dwattr $C$DW$171, DW_AT_decl_line(0x1ea)
    2727                            .dwattr $C$DW$171, DW_AT_decl_column(0x07)
    2728                            .dwattr $C$DW$171, DW_AT_TI_max_frame_size(0x10)
    2729                            .dwpsn  file "../Application/Services/nvocop.c",line 491,column 1,is_stmt,address NVOCOP_delet
    2730                    
    2731                            .dwfde $C$DW$CIE, NVOCOP_deleteItem
    2732                    $C$DW$172       .dwtag  DW_TAG_formal_parameter
    2733                            .dwattr $C$DW$172, DW_AT_name("id")
    2734                            .dwattr $C$DW$172, DW_AT_TI_symbol_name("id")
    2735                            .dwattr $C$DW$172, DW_AT_type(*$C$DW$T$166)
    2736                            .dwattr $C$DW$172, DW_AT_location[DW_OP_breg13 8]
    2737                    
    2738                    
    2739                    ;*****************************************************************************
    2740                    ;* FUNCTION NAME: NVOCOP_deleteItem                                          *
    2741                    ;*                                                                           *
    2742                    ;*   Regs Modified     : A1,A2,A3,A4,V4,V9,SP,LR,SR                          *
    2743                    ;*   Regs Used         : A1,A2,A3,A4,V4,V9,SP,LR,SR                          *
    2744                    ;*   Local Frame Size  : 0 Args + 0 Auto + 8 Save = 8 byte                   *
    2745                    ;*****************************************************************************
    2746 00000000           NVOCOP_deleteItem:
    2747                    ;* --------------------------------------------------------------------------*
    2748                            .dwcfi  cfa_offset, 0
    2749 00000000 B403              PUSH      {A1, A2}              ; [DPU_3_PIPE]  ; [ORIG 16-BIT INS]
    2750                            .dwcfi  cfa_offset, 8
TI ARM Assembler PC v16.9.4 Sat Nov 18 18:46:31 2017

Tools Copyright (c) 1996-2017 Texas Instruments Incorporated
C:\Users\Kevin\AppData\Local\Temp\{6C42DDD5-7C92-479C-8F05-55537E4479EC} PAGE   51

    2751                            .dwcfi  save_reg_to_mem, 1, -4
    2752                            .dwcfi  save_reg_to_mem, 0, -8
    2753 00000002 B580              PUSH      {V4, LR}              ; [DPU_3_PIPE]  ; [ORIG 16-BIT INS]
    2754                            .dwcfi  cfa_offset, 16
    2755                            .dwcfi  save_reg_to_mem, 14, -12
    2756                            .dwcfi  save_reg_to_mem, 7, -16
    2757 00000004 AF02              ADD       V4, SP, #8            ; [DPU_3_PIPE]  ; [ORIG 16-BIT INS]
    2758                            .dwpsn  file "../Application/Services/nvocop.c",line 492,column 5,is_stmt,isa 1
    2759 00000006 7838              LDRB      A1, [V4, #0]          ; [DPU_3_PIPE] |492|  ; [ORIG 16-BIT INS]
    2760 00000008 28FF              CMP       A1, #255              ; [DPU_3_PIPE] |492|  ; [ORIG 16-BIT INS]
    2761 0000000a D10E              BNE       ||$C$L47||            ; [DPU_3_PIPE] |492|  ; [ORIG 16-BIT INS]
    2762                            ; BRANCHCC OCCURS {||$C$L47||}   ; [] |492| 
    2763                    ;* --------------------------------------------------------------------------*
    2764 0000000c 8879              LDRH      A2, [V4, #2]          ; [DPU_3_PIPE] |492|  ; [ORIG 16-BIT INS]
    2765 0000000e 70FFF64F          MOV       A1, #65535            ; [DPU_3_PIPE] |492|  ; [KEEP 32-BIT INS]
    2766 00000012 4288              CMP       A1, A2                ; [DPU_3_PIPE] |492|  ; [ORIG 16-BIT INS]
    2767 00000014 D109              BNE       ||$C$L47||            ; [DPU_3_PIPE] |492|  ; [ORIG 16-BIT INS]
    2768                            ; BRANCHCC OCCURS {||$C$L47||}   ; [] |492| 
    2769                    ;* --------------------------------------------------------------------------*
    2770 00000016 88B9              LDRH      A2, [V4, #4]          ; [DPU_3_PIPE] |492|  ; [ORIG 16-BIT INS]
    2771 00000018 4288              CMP       A1, A2                ; [DPU_3_PIPE] |492|  ; [ORIG 16-BIT INS]
    2772 0000001a D106              BNE       ||$C$L47||            ; [DPU_3_PIPE] |492|  ; [ORIG 16-BIT INS]
    2773                            ; BRANCHCC OCCURS {||$C$L47||}   ; [] |492| 
    2774                    ;* --------------------------------------------------------------------------*
    2775                            .dwpsn  file "../Application/Services/nvocop.c",line 494,column 9,is_stmt,isa 1
    2776                    $C$DW$173       .dwtag  DW_TAG_TI_branch
    2777                            .dwattr $C$DW$173, DW_AT_low_pc(0x00)
    2778                            .dwattr $C$DW$173, DW_AT_name("erasePage")
    2779                            .dwattr $C$DW$173, DW_AT_TI_call
    2780                    
    2781 0000001c FFFEF7FF!         BL        erasePage             ; [DPU_3_PIPE] |494|  ; [KEEP 32-BIT INS]
    2782                            ; CALL OCCURS {erasePage }       ; [] |494| 
    2783                            .dwpsn  file "../Application/Services/nvocop.c",line 496,column 9,is_stmt,isa 1
    2784                    $C$DW$174       .dwtag  DW_TAG_TI_branch
    2785                            .dwattr $C$DW$174, DW_AT_low_pc(0x00)
    2786                            .dwattr $C$DW$174, DW_AT_name("setActivePage")
    2787                            .dwattr $C$DW$174, DW_AT_TI_call
    2788                    
    2789 00000020 FFFEF7FF!         BL        setActivePage         ; [DPU_3_PIPE] |496|  ; [KEEP 32-BIT INS]
    2790                            ; CALL OCCURS {setActivePage }   ; [] |496| 
    2791                            .dwpsn  file "../Application/Services/nvocop.c",line 498,column 9,is_stmt,isa 1
    2792 00000024 4803              LDR       A1, $C$CON39          ; [DPU_3_PIPE] |498|  ; [ORIG 16-BIT INS]
    2793 00000026 2104              MOVS      A2, #4                ; [DPU_3_PIPE] |498|  ; [ORIG 16-BIT INS]
    2794 00000028 8001              STRH      A2, [A1, #0]          ; [DPU_3_PIPE] |498|  ; [ORIG 16-BIT INS]
    2795                    ;* --------------------------------------------------------------------------*
    2796 0000002a           ||$C$L47||:    
    2797 0000002a 4080E8BD          POP       {V4, LR}              ; [DPU_3_PIPE]  ; [KEEP 32-BIT INS]
    2798                            .dwcfi  cfa_offset, 8
    2799                            .dwcfi  restore_reg, 14
    2800                            .dwcfi  restore_reg, 7
    2801                            .dwpsn  file "../Application/Services/nvocop.c",line 501,column 5,is_stmt,isa 1
    2802 0000002e 2000              MOVS      A1, #0                ; [DPU_3_PIPE] |501|  ; [ORIG 16-BIT INS]
    2803 00000030 B002              ADD       SP, SP, #8            ; [DPU_3_PIPE]  ; [ORIG 16-BIT INS]
    2804                            .dwcfi  cfa_offset, 0
    2805                    $C$DW$175       .dwtag  DW_TAG_TI_branch
TI ARM Assembler PC v16.9.4 Sat Nov 18 18:46:31 2017

Tools Copyright (c) 1996-2017 Texas Instruments Incorporated
C:\Users\Kevin\AppData\Local\Temp\{6C42DDD5-7C92-479C-8F05-55537E4479EC} PAGE   52

    2806                            .dwattr $C$DW$175, DW_AT_low_pc(0x00)
    2807                            .dwattr $C$DW$175, DW_AT_TI_return
    2808                    
    2809 00000032 4770              BX        LR                    ; [DPU_3_PIPE]  ; [ORIG 16-BIT INS]
    2810                            ; BRANCH OCCURS                  ; [] 
    2811                            .dwattr $C$DW$171, DW_AT_TI_end_file("../Application/Services/nvocop.c")
    2812                            .dwattr $C$DW$171, DW_AT_TI_end_line(0x1f6)
    2813                            .dwattr $C$DW$171, DW_AT_TI_end_column(0x01)
    2814                            .dwendentry
    2815                            .dwendtag $C$DW$171
    2816                    
    2817 00000000                   .sect   ".text:NVOCOP_compactNV"
    2818                            .clink
    2819                            .thumbfunc NVOCOP_compactNV
    2820 00000000                   .thumb
    2821                            .global NVOCOP_compactNV
    2822                    
    2823                    $C$DW$176       .dwtag  DW_TAG_subprogram
    2824                            .dwattr $C$DW$176, DW_AT_name("NVOCOP_compactNV")
    2825                            .dwattr $C$DW$176, DW_AT_low_pc(NVOCOP_compactNV)
    2826                            .dwattr $C$DW$176, DW_AT_high_pc(0x00)
    2827                            .dwattr $C$DW$176, DW_AT_TI_symbol_name("NVOCOP_compactNV")
    2828                            .dwattr $C$DW$176, DW_AT_external
    2829                            .dwattr $C$DW$176, DW_AT_type(*$C$DW$T$73)
    2830                            .dwattr $C$DW$176, DW_AT_TI_begin_file("../Application/Services/nvocop.c")
    2831                            .dwattr $C$DW$176, DW_AT_TI_begin_line(0x13c)
    2832                            .dwattr $C$DW$176, DW_AT_TI_begin_column(0x07)
    2833                            .dwattr $C$DW$176, DW_AT_decl_file("../Application/Services/nvocop.c")
    2834                            .dwattr $C$DW$176, DW_AT_decl_line(0x13c)
    2835                            .dwattr $C$DW$176, DW_AT_decl_column(0x07)
    2836                            .dwattr $C$DW$176, DW_AT_TI_max_frame_size(0x10)
    2837                            .dwpsn  file "../Application/Services/nvocop.c",line 317,column 1,is_stmt,address NVOCOP_compa
    2838                    
    2839                            .dwfde $C$DW$CIE, NVOCOP_compactNV
    2840                    $C$DW$177       .dwtag  DW_TAG_formal_parameter
    2841                            .dwattr $C$DW$177, DW_AT_name("minAvail")
    2842                            .dwattr $C$DW$177, DW_AT_TI_symbol_name("minAvail")
    2843                            .dwattr $C$DW$177, DW_AT_type(*$C$DW$T$19)
    2844                            .dwattr $C$DW$177, DW_AT_location[DW_OP_reg0]
    2845                    
    2846                    
    2847                    ;*****************************************************************************
    2848                    ;* FUNCTION NAME: NVOCOP_compactNV                                           *
    2849                    ;*                                                                           *
    2850                    ;*   Regs Modified     : A1,A2,A3,A4,V1,V4,V9,SP,LR,SR                       *
    2851                    ;*   Regs Used         : A1,A2,A3,A4,V1,V4,V9,SP,LR,SR                       *
    2852                    ;*   Local Frame Size  : 0 Args + 0 Auto + 12 Save = 12 byte                 *
    2853                    ;*****************************************************************************
    2854                    NVOCOP_compactNV:
    2855                    ;* --------------------------------------------------------------------------*
    2856                    ;* V1    assigned to $O$C16
    2857                    ;* V1    assigned to $O$K3
    2858                    ;* A1    assigned to $O$v2
    2859                    ;* A1    assigned to minAvail
    2860                    $C$DW$178       .dwtag  DW_TAG_variable
TI ARM Assembler PC v16.9.4 Sat Nov 18 18:46:31 2017

Tools Copyright (c) 1996-2017 Texas Instruments Incorporated
C:\Users\Kevin\AppData\Local\Temp\{6C42DDD5-7C92-479C-8F05-55537E4479EC} PAGE   53

    2861                            .dwattr $C$DW$178, DW_AT_name("minAvail")
    2862                            .dwattr $C$DW$178, DW_AT_TI_symbol_name("minAvail")
    2863                            .dwattr $C$DW$178, DW_AT_type(*$C$DW$T$277)
    2864                            .dwattr $C$DW$178, DW_AT_location[DW_OP_reg0]
    2865                    
    2866                    ;* V4    assigned to ret
    2867                    $C$DW$179       .dwtag  DW_TAG_variable
    2868                            .dwattr $C$DW$179, DW_AT_name("ret")
    2869                            .dwattr $C$DW$179, DW_AT_TI_symbol_name("ret")
    2870                            .dwattr $C$DW$179, DW_AT_type(*$C$DW$T$10)
    2871                            .dwattr $C$DW$179, DW_AT_location[DW_OP_reg7]
    2872                    
    2873                            .dwcfi  cfa_offset, 0
    2874 00000000 B598              PUSH      {A4, V1, V4, LR}      ; [DPU_3_PIPE]  ; [ORIG 16-BIT INS]
    2875                            .dwcfi  cfa_offset, 16
    2876                            .dwcfi  save_reg_to_mem, 14, -4
    2877                            .dwcfi  save_reg_to_mem, 7, -8
    2878                            .dwcfi  save_reg_to_mem, 4, -12
    2879                            .dwcfi  save_reg_to_mem, 3, -16
    2880                            .dwpsn  file "../Application/Services/nvocop.c",line 318,column 13,is_stmt,isa 1
    2881 00000002 4C0E              LDR       V1, $C$CON41          ; [DPU_3_PIPE] |318|  ; [ORIG 16-BIT INS]
    2882 00000004 1EA4              SUBS      V1, V1, #2            ; [DPU_3_PIPE]  ; [ORIG 16-BIT INS]
    2883 00000006 7827              LDRB      V4, [V1, #0]          ; [DPU_3_PIPE] |318|  ; [ORIG 16-BIT INS]
    2884 00000008 2F00              CMP       V4, #0                ; [DPU_3_PIPE] |318|  ; [ORIG 16-BIT INS]
    2885 0000000a BF18              IT        NE                    ; [DPU_3_PIPE]  ; [ORIG 16-BIT INS]
    2886                            .dwpsn  file "../Application/Services/nvocop.c",line 325,column 5,is_stmt,isa 1
    2887 0000000c 2001              MOVNE     A1, #1                ; [DPU_3_PIPE] |325|  ; [ORIG 16-BIT INS]
    2888 0000000e D113              BNE       ||$C$L50||            ; [DPU_3_PIPE] |325|  ; [ORIG 16-BIT INS]
    2889                            ; BRANCHCC OCCURS {||$C$L50||}   ; [] |325| 
    2890                    ;* --------------------------------------------------------------------------*
    2891                            .dwpsn  file "../Application/Services/nvocop.c",line 332,column 3,is_stmt,isa 1
    2892 00000010 8861              LDRH      A2, [V1, #2]          ; [DPU_3_PIPE] |332|  ; [ORIG 16-BIT INS]
    2893 00000012 5180F5C1          RSB       A2, A2, #4096         ; [DPU_3_PIPE] |332|  ; [KEEP 32-BIT INS]
    2894 00000016 B289              UXTH      A2, A2                ; [DPU_3_PIPE] |332|  ; [ORIG 16-BIT INS]
    2895 00000018 4288              CMP       A1, A2                ; [DPU_3_PIPE] |332|  ; [ORIG 16-BIT INS]
    2896 0000001a DC00              BGT       ||$C$L48||            ; [DPU_3_PIPE] |332|  ; [ORIG 16-BIT INS]
    2897                            ; BRANCHCC OCCURS {||$C$L48||}   ; [] |332| 
    2898                    ;* --------------------------------------------------------------------------*
    2899 0000001c B958              CBNZ      A1, ||$C$L49||        ; []  ; [ORIG 16-BIT INS]
    2900                            ; BRANCHCC OCCURS {||$C$L49||}   ; [] |332| 
    2901                    ;* --------------------------------------------------------------------------*
    2902 0000001e           ||$C$L48||:    
    2903                            .dwpsn  file "../Application/Services/nvocop.c",line 335,column 5,is_stmt,isa 1
    2904                    $C$DW$180       .dwtag  DW_TAG_TI_branch
    2905                            .dwattr $C$DW$180, DW_AT_low_pc(0x00)
    2906                            .dwattr $C$DW$180, DW_AT_name("setXferPage")
    2907                            .dwattr $C$DW$180, DW_AT_TI_call
    2908                    
    2909 0000001e FFFEF7FF!         BL        setXferPage           ; [DPU_3_PIPE] |335|  ; [KEEP 32-BIT INS]
    2910                            ; CALL OCCURS {setXferPage }     ; [] |335| 
    2911                            .dwpsn  file "../Application/Services/nvocop.c",line 338,column 5,is_stmt,isa 1
