TI ARM Assembler PC v16.9.4 Sat Nov 18 18:46:31 2017

Tools Copyright (c) 1996-2017 Texas Instruments Incorporated
C:\Users\Kevin\AppData\Local\Temp\{6C42DDD5-7C92-479C-8F05-55537E4479EC} PAGE    1

       1                    ;******************************************************************************
       2                    ;* TI ARM C/C++ Codegen                                        PC v16.9.4.LTS *
       3                    ;* Date/Time created: Sat Nov 18 18:46:30 2017                                *
       4                    ;******************************************************************************
       5                            .compiler_opts --abi=eabi --arm_vmrs_si_workaround=off --code_state=16 --diag_wrap=off --embed
       6 00000000                   .thumb
       7                    
       8                    $C$DW$CU        .dwtag  DW_TAG_compile_unit
       9                            .dwattr $C$DW$CU, DW_AT_name("../Application/Services/nvocop.c")
      10                            .dwattr $C$DW$CU, DW_AT_producer("TI TI ARM C/C++ Codegen PC v16.9.4.LTS Copyright (c) 1996-20
      11                            .dwattr $C$DW$CU, DW_AT_TI_version(0x01)
      12                            .dwattr $C$DW$CU, DW_AT_comp_dir("C:\Users\Kevin\workspace_v7\sensor_cc1310lp\sensor_cc1310lp"
      13                            .bound  ".TI.bound:NV_FLASH", 122880, 0
      14                    
      15                    $C$DW$1 .dwtag  DW_TAG_subprogram
      16                            .dwattr $C$DW$1, DW_AT_name("memcpy")
      17                            .dwattr $C$DW$1, DW_AT_TI_symbol_name("memcpy")
      18                            .dwattr $C$DW$1, DW_AT_type(*$C$DW$T$3)
      19                            .dwattr $C$DW$1, DW_AT_declaration
      20                            .dwattr $C$DW$1, DW_AT_external
      21                            .dwattr $C$DW$1, DW_AT_decl_file("C:/ti/ccsv7/tools/compiler/ti-cgt-arm_16.9.4.LTS/include/str
      22                            .dwattr $C$DW$1, DW_AT_decl_line(0x6b)
      23                            .dwattr $C$DW$1, DW_AT_decl_column(0x16)
      24                    $C$DW$2 .dwtag  DW_TAG_formal_parameter
      25                            .dwattr $C$DW$2, DW_AT_type(*$C$DW$T$3)
      26                    
      27                    $C$DW$3 .dwtag  DW_TAG_formal_parameter
      28                            .dwattr $C$DW$3, DW_AT_type(*$C$DW$T$152)
      29                    
      30                    $C$DW$4 .dwtag  DW_TAG_formal_parameter
      31                            .dwattr $C$DW$4, DW_AT_type(*$C$DW$T$84)
      32                    
      33                            .dwendtag $C$DW$1
      34                    
      35                    
      36                    $C$DW$5 .dwtag  DW_TAG_subprogram
      37                            .dwattr $C$DW$5, DW_AT_name("memcmp")
      38                            .dwattr $C$DW$5, DW_AT_TI_symbol_name("memcmp")
      39                            .dwattr $C$DW$5, DW_AT_type(*$C$DW$T$10)
      40                            .dwattr $C$DW$5, DW_AT_declaration
      41                            .dwattr $C$DW$5, DW_AT_external
      42                            .dwattr $C$DW$5, DW_AT_decl_file("C:/ti/ccsv7/tools/compiler/ti-cgt-arm_16.9.4.LTS/include/str
      43                            .dwattr $C$DW$5, DW_AT_decl_line(0x6e)
      44                            .dwattr $C$DW$5, DW_AT_decl_column(0x14)
      45                    $C$DW$6 .dwtag  DW_TAG_formal_parameter
      46                            .dwattr $C$DW$6, DW_AT_type(*$C$DW$T$152)
      47                    
      48                    $C$DW$7 .dwtag  DW_TAG_formal_parameter
      49                            .dwattr $C$DW$7, DW_AT_type(*$C$DW$T$152)
      50                    
      51                    $C$DW$8 .dwtag  DW_TAG_formal_parameter
      52                            .dwattr $C$DW$8, DW_AT_type(*$C$DW$T$84)
      53                    
      54                            .dwendtag $C$DW$5
      55                    
TI ARM Assembler PC v16.9.4 Sat Nov 18 18:46:31 2017

Tools Copyright (c) 1996-2017 Texas Instruments Incorporated
C:\Users\Kevin\AppData\Local\Temp\{6C42DDD5-7C92-479C-8F05-55537E4479EC} PAGE    2

      56                    
      57                    $C$DW$9 .dwtag  DW_TAG_subprogram
      58                            .dwattr $C$DW$9, DW_AT_name("NOROM_FlashSectorErase")
      59                            .dwattr $C$DW$9, DW_AT_TI_symbol_name("NOROM_FlashSectorErase")
      60                            .dwattr $C$DW$9, DW_AT_type(*$C$DW$T$21)
      61                            .dwattr $C$DW$9, DW_AT_declaration
      62                            .dwattr $C$DW$9, DW_AT_external
      63                            .dwattr $C$DW$9, DW_AT_decl_file("C:/ti/simplelink_cc13x0_sdk_1_50_00_08/source/ti/devices/cc1
      64                            .dwattr $C$DW$9, DW_AT_decl_line(0x29f)
      65                            .dwattr $C$DW$9, DW_AT_decl_column(0x11)
      66                    $C$DW$10        .dwtag  DW_TAG_formal_parameter
      67                            .dwattr $C$DW$10, DW_AT_type(*$C$DW$T$21)
      68                    
      69                            .dwendtag $C$DW$9
      70                    
      71                    
      72                    $C$DW$11        .dwtag  DW_TAG_subprogram
      73                            .dwattr $C$DW$11, DW_AT_name("HAL_APPASRT_callAssrtHanlder")
      74                            .dwattr $C$DW$11, DW_AT_TI_symbol_name("HAL_APPASRT_callAssrtHanlder")
      75                            .dwattr $C$DW$11, DW_AT_declaration
      76                            .dwattr $C$DW$11, DW_AT_external
      77                            .dwattr $C$DW$11, DW_AT_decl_file("C:\ti\simplelink_cc13x0_sdk_1_50_00_08\source\ti\ti154stack
      78                            .dwattr $C$DW$11, DW_AT_decl_line(0x51)
      79                            .dwattr $C$DW$11, DW_AT_decl_column(0x0d)
      80                            .dwendtag $C$DW$11
      81                    
      82                    
      83                    $C$DW$12        .dwtag  DW_TAG_subprogram
      84                            .dwattr $C$DW$12, DW_AT_name("HalFlashRead")
      85                            .dwattr $C$DW$12, DW_AT_TI_symbol_name("HalFlashRead")
      86                            .dwattr $C$DW$12, DW_AT_declaration
      87                            .dwattr $C$DW$12, DW_AT_external
      88                            .dwattr $C$DW$12, DW_AT_decl_file("C:/ti/simplelink_cc13x0_sdk_1_50_00_08/source/ti/ti154stack
      89                            .dwattr $C$DW$12, DW_AT_decl_line(0x52)
      90                            .dwattr $C$DW$12, DW_AT_decl_column(0x06)
      91                    $C$DW$13        .dwtag  DW_TAG_formal_parameter
      92                            .dwattr $C$DW$13, DW_AT_type(*$C$DW$T$73)
      93                    
      94                    $C$DW$14        .dwtag  DW_TAG_formal_parameter
      95                            .dwattr $C$DW$14, DW_AT_type(*$C$DW$T$19)
      96                    
      97                    $C$DW$15        .dwtag  DW_TAG_formal_parameter
      98                            .dwattr $C$DW$15, DW_AT_type(*$C$DW$T$207)
      99                    
     100                    $C$DW$16        .dwtag  DW_TAG_formal_parameter
     101                            .dwattr $C$DW$16, DW_AT_type(*$C$DW$T$19)
     102                    
     103                            .dwendtag $C$DW$12
     104                    
     105                    
     106                    $C$DW$17        .dwtag  DW_TAG_subprogram
     107                            .dwattr $C$DW$17, DW_AT_name("HalFlashWrite")
     108                            .dwattr $C$DW$17, DW_AT_TI_symbol_name("HalFlashWrite")
     109                            .dwattr $C$DW$17, DW_AT_declaration
     110                            .dwattr $C$DW$17, DW_AT_external
TI ARM Assembler PC v16.9.4 Sat Nov 18 18:46:31 2017

Tools Copyright (c) 1996-2017 Texas Instruments Incorporated
C:\Users\Kevin\AppData\Local\Temp\{6C42DDD5-7C92-479C-8F05-55537E4479EC} PAGE    3

     111                            .dwattr $C$DW$17, DW_AT_decl_file("C:/ti/simplelink_cc13x0_sdk_1_50_00_08/source/ti/ti154stack
     112                            .dwattr $C$DW$17, DW_AT_decl_line(0x66)
     113                            .dwattr $C$DW$17, DW_AT_decl_column(0x06)
     114                    $C$DW$18        .dwtag  DW_TAG_formal_parameter
     115                            .dwattr $C$DW$18, DW_AT_type(*$C$DW$T$210)
     116                    
     117                    $C$DW$19        .dwtag  DW_TAG_formal_parameter
     118                            .dwattr $C$DW$19, DW_AT_type(*$C$DW$T$207)
     119                    
     120                    $C$DW$20        .dwtag  DW_TAG_formal_parameter
     121                            .dwattr $C$DW$20, DW_AT_type(*$C$DW$T$19)
     122                    
     123                            .dwendtag $C$DW$17
     124                    
     125                    
     126                    $C$DW$21        .dwtag  DW_TAG_subprogram
     127                            .dwattr $C$DW$21, DW_AT_name("NOROM_VIMSModeGet")
     128                            .dwattr $C$DW$21, DW_AT_TI_symbol_name("NOROM_VIMSModeGet")
     129                            .dwattr $C$DW$21, DW_AT_type(*$C$DW$T$21)
     130                            .dwattr $C$DW$21, DW_AT_declaration
     131                            .dwattr $C$DW$21, DW_AT_external
     132                            .dwattr $C$DW$21, DW_AT_decl_file("C:/ti/simplelink_cc13x0_sdk_1_50_00_08/source/ti/devices/cc
     133                            .dwattr $C$DW$21, DW_AT_decl_line(0xe2)
     134                            .dwattr $C$DW$21, DW_AT_decl_column(0x11)
     135                    $C$DW$22        .dwtag  DW_TAG_formal_parameter
     136                            .dwattr $C$DW$22, DW_AT_type(*$C$DW$T$21)
     137                    
     138                            .dwendtag $C$DW$21
     139                    
     140                    
     141                    $C$DW$23        .dwtag  DW_TAG_subprogram
     142                            .dwattr $C$DW$23, DW_AT_name("HalFlashGetAddress")
     143                            .dwattr $C$DW$23, DW_AT_TI_symbol_name("HalFlashGetAddress")
     144                            .dwattr $C$DW$23, DW_AT_type(*$C$DW$T$207)
     145                            .dwattr $C$DW$23, DW_AT_declaration
     146                            .dwattr $C$DW$23, DW_AT_external
     147                            .dwattr $C$DW$23, DW_AT_decl_file("../Application/Services/nvocop.c")
     148                            .dwattr $C$DW$23, DW_AT_decl_line(0xb4)
     149                            .dwattr $C$DW$23, DW_AT_decl_column(0x0f)
     150                    $C$DW$24        .dwtag  DW_TAG_formal_parameter
     151                            .dwattr $C$DW$24, DW_AT_type(*$C$DW$T$73)
     152                    
     153                    $C$DW$25        .dwtag  DW_TAG_formal_parameter
     154                            .dwattr $C$DW$25, DW_AT_type(*$C$DW$T$19)
     155                    
     156                            .dwendtag $C$DW$23
     157                    
     158                    $C$DW$26        .dwtag  DW_TAG_variable
     159                            .dwattr $C$DW$26, DW_AT_name("ICall_enterCriticalSection")
     160                            .dwattr $C$DW$26, DW_AT_TI_symbol_name("ICall_enterCriticalSection")
     161                            .dwattr $C$DW$26, DW_AT_type(*$C$DW$T$134)
     162                            .dwattr $C$DW$26, DW_AT_declaration
     163                            .dwattr $C$DW$26, DW_AT_external
     164                            .dwattr $C$DW$26, DW_AT_decl_file("C:/ti/simplelink_cc13x0_sdk_1_50_00_08/source/ti/ti154stack
     165                            .dwattr $C$DW$26, DW_AT_decl_line(0x384)
TI ARM Assembler PC v16.9.4 Sat Nov 18 18:46:31 2017

Tools Copyright (c) 1996-2017 Texas Instruments Incorporated
C:\Users\Kevin\AppData\Local\Temp\{6C42DDD5-7C92-479C-8F05-55537E4479EC} PAGE    4

     166                            .dwattr $C$DW$26, DW_AT_decl_column(0x16)
     167                    
     168                    $C$DW$27        .dwtag  DW_TAG_variable
     169                            .dwattr $C$DW$27, DW_AT_name("ICall_leaveCriticalSection")
     170                            .dwattr $C$DW$27, DW_AT_TI_symbol_name("ICall_leaveCriticalSection")
     171                            .dwattr $C$DW$27, DW_AT_type(*$C$DW$T$137)
     172                            .dwattr $C$DW$27, DW_AT_declaration
     173                            .dwattr $C$DW$27, DW_AT_external
     174                            .dwattr $C$DW$27, DW_AT_decl_file("C:/ti/simplelink_cc13x0_sdk_1_50_00_08/source/ti/ti154stack
     175                            .dwattr $C$DW$27, DW_AT_decl_line(0x387)
     176                            .dwattr $C$DW$27, DW_AT_decl_column(0x16)
     177                    
     178                            .global NV_FLASH
     179 00000000                   .sect   ".TI.bound:NV_FLASH"
     180                            .clink
     181                            .align  1
     182                            .elfsym NV_FLASH,SYM_SIZE(4096)
     183 00000000           NV_FLASH:
     184 00000000 000000FF          .bits   255,8                   ; NV_FLASH[0] @ 0
     185 00000001                   .space  4095
     186                    
     187                    $C$DW$28        .dwtag  DW_TAG_variable
     188                            .dwattr $C$DW$28, DW_AT_name("NV_FLASH")
     189                            .dwattr $C$DW$28, DW_AT_TI_symbol_name("NV_FLASH")
     190                            .dwattr $C$DW$28, DW_AT_location[DW_OP_addr NV_FLASH]
     191                            .dwattr $C$DW$28, DW_AT_type(*$C$DW$T$263)
     192                            .dwattr $C$DW$28, DW_AT_external
     193                            .dwattr $C$DW$28, DW_AT_decl_file("../Application/Services/nvocop.c")
     194                            .dwattr $C$DW$28, DW_AT_decl_line(0xc4)
     195                            .dwattr $C$DW$28, DW_AT_decl_column(0x0d)
     196                    
     197 00000000                   .sect   ".data:$O1$$", RW
     198                            .clink
     199                            .align  4
     200                            .elfsym ||$O1$$||,SYM_SIZE(8)
     201 00000000           ||$O1$$||:
     202 00000000 00000001          .bits   1,8                     ; $O1$$.failF @ 0
     203 00000001                   .space  7
     204                    
     205                    
     206                    ;*********************************************************************
     207                    ;* GROUPED GLOBALS FOR $O1$$                                         *
     208                    ;*********************************************************************
     209          00000000! failF:  .set    ||$O1$$||+0
     210                    $C$DW$29        .dwtag  DW_TAG_variable
     211                            .dwattr $C$DW$29, DW_AT_name("failF")
     212                            .dwattr $C$DW$29, DW_AT_TI_symbol_name("failF")
     213                            .dwattr $C$DW$29, DW_AT_type(*$C$DW$T$73)
     214                            .dwattr $C$DW$29, DW_AT_location[DW_OP_addr failF]
     215                            .dwattr $C$DW$29, DW_AT_decl_file("../Application/Services/nvocop.c")
     216                            .dwattr $C$DW$29, DW_AT_decl_line(0xda)
     217                            .dwattr $C$DW$29, DW_AT_decl_column(0x0e)
     218                    
     219          00000001! failW:  .set    ||$O1$$||+1
     220                    $C$DW$30        .dwtag  DW_TAG_variable
TI ARM Assembler PC v16.9.4 Sat Nov 18 18:46:31 2017

Tools Copyright (c) 1996-2017 Texas Instruments Incorporated
C:\Users\Kevin\AppData\Local\Temp\{6C42DDD5-7C92-479C-8F05-55537E4479EC} PAGE    5

     221                            .dwattr $C$DW$30, DW_AT_name("failW")
     222                            .dwattr $C$DW$30, DW_AT_TI_symbol_name("failW")
     223                            .dwattr $C$DW$30, DW_AT_type(*$C$DW$T$73)
     224                            .dwattr $C$DW$30, DW_AT_location[DW_OP_addr failW]
     225                            .dwattr $C$DW$30, DW_AT_decl_file("../Application/Services/nvocop.c")
     226                            .dwattr $C$DW$30, DW_AT_decl_line(0xdf)
     227                            .dwattr $C$DW$30, DW_AT_decl_column(0x0e)
     228                    
     229          00000002! pgOff:  .set    ||$O1$$||+2
     230                    $C$DW$31        .dwtag  DW_TAG_variable
     231                            .dwattr $C$DW$31, DW_AT_name("pgOff")
     232                            .dwattr $C$DW$31, DW_AT_TI_symbol_name("pgOff")
     233                            .dwattr $C$DW$31, DW_AT_type(*$C$DW$T$19)
     234                            .dwattr $C$DW$31, DW_AT_location[DW_OP_addr pgOff]
     235                            .dwattr $C$DW$31, DW_AT_decl_file("../Application/Services/nvocop.c")
     236                            .dwattr $C$DW$31, DW_AT_decl_line(0xd5)
     237                            .dwattr $C$DW$31, DW_AT_decl_column(0x0f)
     238                    
     239          00000004! sector_addr:    .set    ||$O1$$||+4
     240                            .global sector_addr
     241                    $C$DW$32        .dwtag  DW_TAG_variable
     242                            .dwattr $C$DW$32, DW_AT_name("sector_addr")
     243                            .dwattr $C$DW$32, DW_AT_TI_symbol_name("sector_addr")
     244                            .dwattr $C$DW$32, DW_AT_location[DW_OP_addr sector_addr]
     245                            .dwattr $C$DW$32, DW_AT_type(*$C$DW$T$21)
     246                            .dwattr $C$DW$32, DW_AT_external
     247                            .dwattr $C$DW$32, DW_AT_decl_file("../Application/Services/nvocop.c")
     248                            .dwattr $C$DW$32, DW_AT_decl_line(0x221)
     249                            .dwattr $C$DW$32, DW_AT_decl_column(0x0a)
     250                    
     251                    ;       C:\ti\ccsv7\tools\compiler\ti-cgt-arm_16.9.4.LTS\bin\armopt.exe C:/Users/Kevin/workspace_v7/se
     252                    ;**     Parameter deleted: offset == pgOff;
     253 00000000                   .sect   ".text:findItem"
     254                            .clink
     255                            .thumbfunc findItem
     256 00000000                   .thumb
     257                    
     258                    $C$DW$33        .dwtag  DW_TAG_subprogram
     259                            .dwattr $C$DW$33, DW_AT_name("findItem")
     260                            .dwattr $C$DW$33, DW_AT_low_pc(findItem)
     261                            .dwattr $C$DW$33, DW_AT_high_pc(0x00)
     262                            .dwattr $C$DW$33, DW_AT_TI_symbol_name("findItem")
     263                            .dwattr $C$DW$33, DW_AT_type(*$C$DW$T$19)
     264                            .dwattr $C$DW$33, DW_AT_TI_begin_file("../Application/Services/nvocop.c")
     265                            .dwattr $C$DW$33, DW_AT_TI_begin_line(0x27a)
     266                            .dwattr $C$DW$33, DW_AT_TI_begin_column(0x0f)
     267                            .dwattr $C$DW$33, DW_AT_decl_file("../Application/Services/nvocop.c")
     268                            .dwattr $C$DW$33, DW_AT_decl_line(0x27a)
     269                            .dwattr $C$DW$33, DW_AT_decl_column(0x0f)
     270                            .dwattr $C$DW$33, DW_AT_TI_max_frame_size(0x28)
     271                            .dwpsn  file "../Application/Services/nvocop.c",line 636,column 1,is_stmt,address findItem,isa
     272                    
     273                            .dwfde $C$DW$CIE, findItem
     274                    $C$DW$34        .dwtag  DW_TAG_formal_parameter
     275                            .dwattr $C$DW$34, DW_AT_name("nv_id")
TI ARM Assembler PC v16.9.4 Sat Nov 18 18:46:31 2017

Tools Copyright (c) 1996-2017 Texas Instruments Incorporated
C:\Users\Kevin\AppData\Local\Temp\{6C42DDD5-7C92-479C-8F05-55537E4479EC} PAGE    6

     276                            .dwattr $C$DW$34, DW_AT_TI_symbol_name("nv_id")
     277                            .dwattr $C$DW$34, DW_AT_type(*$C$DW$T$166)
     278                            .dwattr $C$DW$34, DW_AT_location[DW_OP_breg13 32]
     279                    
     280                    
     281                    ;*****************************************************************************
     282                    ;* FUNCTION NAME: findItem                                                   *
     283                    ;*                                                                           *
     284                    ;*   Regs Modified     : A1,A2,A3,A4,V1,V2,V3,V4,V5,V9,SP,LR,SR              *
     285                    ;*   Regs Used         : A1,A2,A3,A4,V1,V2,V3,V4,V5,V9,SP,LR,SR              *
     286                    ;*   Local Frame Size  : 0 Args + 8 Auto + 24 Save = 32 byte                 *
     287                    ;*****************************************************************************
     288                    findItem:
     289                    ;* --------------------------------------------------------------------------*
     290                    $C$DW$35        .dwtag  DW_TAG_variable
     291                            .dwattr $C$DW$35, DW_AT_name("hdr")
     292                            .dwattr $C$DW$35, DW_AT_TI_symbol_name("hdr")
     293                            .dwattr $C$DW$35, DW_AT_type(*$C$DW$T$188)
     294                            .dwattr $C$DW$35, DW_AT_location[DW_OP_breg13 0]
     295                    
     296                    ;* V5    assigned to $O$K35
     297                    ;* A1    assigned to $O$v1
     298                    ;* V3    assigned to $O$CSU$nv_id$systemID
     299                    ;* V2    assigned to $O$CSU$nv_id$itemID
     300                    ;* V4    assigned to $O$CSU$nv_id$subID
     301                    ;* V1    assigned to offset
     302                    $C$DW$36        .dwtag  DW_TAG_variable
     303                            .dwattr $C$DW$36, DW_AT_name("offset")
     304                            .dwattr $C$DW$36, DW_AT_TI_symbol_name("offset")
     305                            .dwattr $C$DW$36, DW_AT_type(*$C$DW$T$19)
     306                            .dwattr $C$DW$36, DW_AT_location[DW_OP_reg4]
     307                    
     308                            .dwcfi  cfa_offset, 0
     309 00000000 B403              PUSH      {A1, A2}              ; [DPU_3_PIPE]  ; [ORIG 16-BIT INS]
     310                            .dwcfi  cfa_offset, 8
     311                            .dwcfi  save_reg_to_mem, 1, -4
     312                            .dwcfi  save_reg_to_mem, 0, -8
     313 00000002 4823              LDR       A1, $C$CON1           ; [DPU_3_PIPE] |636|  ; [ORIG 16-BIT INS]
     314 00000004 41F0E92D          PUSH      {V1, V2, V3, V4, V5, LR} ; [DPU_3_PIPE]  ; [KEEP 32-BIT INS]
     315                            .dwcfi  cfa_offset, 32
     316                            .dwcfi  save_reg_to_mem, 14, -12
     317                            .dwcfi  save_reg_to_mem, 8, -16
     318                            .dwcfi  save_reg_to_mem, 7, -20
     319                            .dwcfi  save_reg_to_mem, 6, -24
     320                            .dwcfi  save_reg_to_mem, 5, -28
     321                            .dwcfi  save_reg_to_mem, 4, -32
     322 00000008 AF06              ADD       V4, SP, #24           ; [DPU_3_PIPE]  ; [ORIG 16-BIT INS]
     323 0000000a 783E              LDRB      V3, [V4, #0]          ; [DPU_3_PIPE] |636|  ; [ORIG 16-BIT INS]
     324 0000000c 887D              LDRH      V2, [V4, #2]          ; [DPU_3_PIPE] |636|  ; [ORIG 16-BIT INS]
     325 0000000e 8800              LDRH      A1, [A1, #0]          ; [DPU_3_PIPE] |636|  ; [ORIG 16-BIT INS]
     326 00000010 88BF              LDRH      V4, [V4, #4]          ; [DPU_3_PIPE] |636|  ; [ORIG 16-BIT INS]
     327 00000012 0D08F1AD          SUB       SP, SP, #8            ; [DPU_3_PIPE]  ; [KEEP 32-BIT INS]
     328                            .dwcfi  cfa_offset, 40
     329 00000016 1F00              SUBS      A1, A1, #4            ; [DPU_3_PIPE] |636|  ; [ORIG 16-BIT INS]
     330 00000018 B284              UXTH      V1, A1                ; [DPU_3_PIPE] |636|  ; [ORIG 16-BIT INS]
TI ARM Assembler PC v16.9.4 Sat Nov 18 18:46:31 2017

Tools Copyright (c) 1996-2017 Texas Instruments Incorporated
C:\Users\Kevin\AppData\Local\Temp\{6C42DDD5-7C92-479C-8F05-55537E4479EC} PAGE    7

     331 0000001a 2C08              CMP       V1, #8                ; [DPU_3_PIPE] |636|  ; [ORIG 16-BIT INS]
     332 0000001c DB31              BLT       ||$C$L6||             ; [DPU_3_PIPE] |636|  ; [ORIG 16-BIT INS]
     333                            ; BRANCHCC OCCURS {||$C$L6||}    ; [] |636| 
     334                    ;* --------------------------------------------------------------------------*
     335 0000001e 481D              LDR       A1, $C$CON2           ; [DPU_3_PIPE]  ; [ORIG 16-BIT INS]
     336 00000020 0B00              LSRS      A1, A1, #12           ; [DPU_3_PIPE]  ; [ORIG 16-BIT INS]
     337 00000022 F880FA5F          UXTB      V5, A1                ; [DPU_3_PIPE]  ; [KEEP 32-BIT INS]
     338                    ;* --------------------------------------------------------------------------*
     339                    ;*   BEGIN LOOP ||$C$L1||
     340                    ;*
     341                    ;*   Loop source line                : 639
     342                    ;*   Loop closing brace source line  : 680
     343                    ;*   Known Minimum Trip Count        : 1
     344                    ;*   Known Maximum Trip Count        : 4294967295
     345                    ;*   Known Max Trip Count Factor     : 1
     346                    ;* --------------------------------------------------------------------------*
     347 00000026           ||$C$L1||:    
     348                            .dwpsn  file "../Application/Services/nvocop.c",line 643,column 5,is_stmt,isa 1
     349 00000026 1F21              SUBS      A2, V1, #4            ; [DPU_3_PIPE] |643|  ; [ORIG 16-BIT INS]
     350 00000028 4640              MOV       A1, V5                ; [DPU_3_PIPE] |643|  ; [ORIG 16-BIT INS]
     351 0000002a 466A              MOV       A3, SP                ; [DPU_3_PIPE] |643|  ; [ORIG 16-BIT INS]
     352 0000002c 2308              MOVS      A4, #8                ; [DPU_3_PIPE] |643|  ; [ORIG 16-BIT INS]
     353 0000002e B289              UXTH      A2, A2                ; [DPU_3_PIPE] |643|  ; [ORIG 16-BIT INS]
     354                    $C$DW$37        .dwtag  DW_TAG_TI_branch
     355                            .dwattr $C$DW$37, DW_AT_low_pc(0x00)
     356                            .dwattr $C$DW$37, DW_AT_name("HalFlashRead")
     357                            .dwattr $C$DW$37, DW_AT_TI_call
     358                    
     359 00000030 FFFEF7FF!         BL        HalFlashRead          ; [DPU_3_PIPE] |643|  ; [KEEP 32-BIT INS]
     360                            ; CALL OCCURS {HalFlashRead }    ; [] |643| 
     361                            .dwpsn  file "../Application/Services/nvocop.c",line 649,column 5,is_stmt,isa 1
     362 00000034 0000F8BD          LDRH      A1, [SP, #0]          ; [DPU_3_PIPE] |649|  ; [KEEP 32-BIT INS]
     363 00000038 4286              CMP       V3, A1                ; [DPU_3_PIPE] |649|  ; [ORIG 16-BIT INS]
     364 0000003a D10F              BNE       ||$C$L2||             ; [DPU_3_PIPE] |649|  ; [ORIG 16-BIT INS]
     365                            ; BRANCHCC OCCURS {||$C$L2||}    ; [] |649| 
     366                    ;* --------------------------------------------------------------------------*
     367 0000003c 0002F8BD          LDRH      A1, [SP, #2]          ; [DPU_3_PIPE] |649|  ; [KEEP 32-BIT INS]
     368 00000040 4285              CMP       V2, A1                ; [DPU_3_PIPE] |649|  ; [ORIG 16-BIT INS]
     369 00000042 D10B              BNE       ||$C$L2||             ; [DPU_3_PIPE] |649|  ; [ORIG 16-BIT INS]
     370                            ; BRANCHCC OCCURS {||$C$L2||}    ; [] |649| 
     371                    ;* --------------------------------------------------------------------------*
     372 00000044 0004F8BD          LDRH      A1, [SP, #4]          ; [DPU_3_PIPE] |649|  ; [KEEP 32-BIT INS]
     373 00000048 4287              CMP       V4, A1                ; [DPU_3_PIPE] |649|  ; [ORIG 16-BIT INS]
     374 0000004a D107              BNE       ||$C$L2||             ; [DPU_3_PIPE] |649|  ; [ORIG 16-BIT INS]
     375                            ; BRANCHCC OCCURS {||$C$L2||}    ; [] |649| 
     376                    ;* --------------------------------------------------------------------------*
     377                            .dwpsn  file "../Application/Services/nvocop.c",line 657,column 7,is_stmt,isa 1
     378 0000004c 0006F8BD          LDRH      A1, [SP, #6]          ; [DPU_3_PIPE] |657|  ; [KEEP 32-BIT INS]
     379 00000050 30DFF36F          BFC       A1, #15, #17          ; [DPU_3_PIPE] |657|  ; [KEEP 32-BIT INS]
     380 00000054 1A24              SUBS      V1, V1, A1            ; [DPU_3_PIPE] |657|  ; [ORIG 16-BIT INS]
     381 00000056 1F24              SUBS      V1, V1, #4            ; [DPU_3_PIPE] |657|  ; [ORIG 16-BIT INS]
     382 00000058 B2A0              UXTH      A1, V1                ; [DPU_3_PIPE] |657|  ; [ORIG 16-BIT INS]
     383 0000005a E013              B         ||$C$L7||             ; [DPU_3_PIPE] |657|  ; [ORIG 16-BIT INS]
     384                            ; BRANCH OCCURS {||$C$L7||}      ; [] |657| 
     385                    ;* --------------------------------------------------------------------------*
TI ARM Assembler PC v16.9.4 Sat Nov 18 18:46:31 2017

Tools Copyright (c) 1996-2017 Texas Instruments Incorporated
C:\Users\Kevin\AppData\Local\Temp\{6C42DDD5-7C92-479C-8F05-55537E4479EC} PAGE    8

     386 0000005c           ||$C$L2||:    
     387                            .dwpsn  file "../Application/Services/nvocop.c",line 659,column 10,is_stmt,isa 1
     388 0000005c 0006F8BD          LDRH      A1, [SP, #6]          ; [DPU_3_PIPE] |659|  ; [KEEP 32-BIT INS]
     389 00000060 0BC1              LSRS      A2, A1, #15           ; [DPU_3_PIPE] |659|  ; [ORIG 16-BIT INS]
     390 00000062 03CB              LSLS      A4, A2, #15           ; [DPU_3_PIPE] |659|  ; [ORIG 16-BIT INS]
     391 00000064 D109              BNE       ||$C$L4||             ; [DPU_3_PIPE] |659|  ; [ORIG 16-BIT INS]
     392                            ; BRANCHCC OCCURS {||$C$L4||}    ; [] |659| 
     393                    ;* --------------------------------------------------------------------------*
     394                            .dwpsn  file "../Application/Services/nvocop.c",line 666,column 7,is_stmt,isa 1
     395 00000066 0108F100          ADD       A2, A1, #8            ; [DPU_3_PIPE] |666|  ; [KEEP 32-BIT INS]
     396 0000006a 428C              CMP       V1, A2                ; [DPU_3_PIPE] |666|  ; [ORIG 16-BIT INS]
     397 0000006c DA02              BGE       ||$C$L3||             ; [DPU_3_PIPE] |666|  ; [ORIG 16-BIT INS]
     398                            ; BRANCHCC OCCURS {||$C$L3||}    ; [] |666| 
     399                    ;* --------------------------------------------------------------------------*
     400                            .dwpsn  file "../Application/Services/nvocop.c",line 676,column 9,is_stmt,isa 1
     401                    $C$DW$38        .dwtag  DW_TAG_TI_branch
     402                            .dwattr $C$DW$38, DW_AT_low_pc(0x00)
     403                            .dwattr $C$DW$38, DW_AT_name("HAL_APPASRT_callAssrtHanlder")
     404                            .dwattr $C$DW$38, DW_AT_TI_call
     405                    
     406 0000006e FFFEF7FF!         BL        HAL_APPASRT_callAssrtHanlder ; [DPU_3_PIPE] |676|  ; [KEEP 32-BIT INS]
     407                            ; CALL OCCURS {HAL_APPASRT_callAssrtHanlder }  ; [] |676| 
     408                            .dwpsn  file "../Application/Services/nvocop.c",line 677,column 9,is_stmt,isa 1
     409 00000072 E006              B         ||$C$L6||             ; [DPU_3_PIPE] |677|  ; [ORIG 16-BIT INS]
     410                            ; BRANCH OCCURS {||$C$L6||}      ; [] |677| 
     411                    ;* --------------------------------------------------------------------------*
     412 00000074           ||$C$L3||:    
     413                            .dwpsn  file "../Application/Services/nvocop.c",line 669,column 9,is_stmt,isa 1
     414 00000074 1A24              SUBS      V1, V1, A1            ; [DPU_3_PIPE] |669|  ; [ORIG 16-BIT INS]
     415 00000076 3C08              SUBS      V1, V1, #8            ; [DPU_3_PIPE] |669|  ; [ORIG 16-BIT INS]
     416                            .dwpsn  file "../Application/Services/nvocop.c",line 670,column 7,is_stmt,isa 1
     417 00000078 E000              B         ||$C$L5||             ; [DPU_3_PIPE] |670|  ; [ORIG 16-BIT INS]
     418                            ; BRANCH OCCURS {||$C$L5||}      ; [] |670| 
     419                    ;* --------------------------------------------------------------------------*
     420 0000007a           ||$C$L4||:    
     421                            .dwpsn  file "../Application/Services/nvocop.c",line 661,column 7,is_stmt,isa 1
     422 0000007a 1F24              SUBS      V1, V1, #4            ; [DPU_3_PIPE] |661|  ; [ORIG 16-BIT INS]
     423                    ;* --------------------------------------------------------------------------*
     424 0000007c           ||$C$L5||:    
     425 0000007c B2A4              UXTH      V1, V1                ; [DPU_3_PIPE] |661|  ; [ORIG 16-BIT INS]
     426                            .dwpsn  file "../Application/Services/nvocop.c",line 639,column 10,is_stmt,isa 1
     427 0000007e 2C08              CMP       V1, #8                ; [DPU_3_PIPE] |639|  ; [ORIG 16-BIT INS]
     428 00000080 DAD1              BGE       ||$C$L1||             ; [DPU_3_PIPE] |639|  ; [ORIG 16-BIT INS]
     429                            ; BRANCHCC OCCURS {||$C$L1||}    ; [] |639| 
     430                    ;* --------------------------------------------------------------------------*
     431 00000082           ||$C$L6||:    
     432                            .dwpsn  file "../Application/Services/nvocop.c",line 681,column 3,is_stmt,isa 1
     433 00000082 2000              MOVS      A1, #0                ; [DPU_3_PIPE] |681|  ; [ORIG 16-BIT INS]
     434                    ;* --------------------------------------------------------------------------*
     435 00000084           ||$C$L7||:    
     436 00000084 B002              ADD       SP, SP, #8            ; [DPU_3_PIPE]  ; [ORIG 16-BIT INS]
     437                            .dwcfi  cfa_offset, 32
     438 00000086 41F0E8BD          POP       {V1, V2, V3, V4, V5, LR} ; [DPU_3_PIPE]  ; [KEEP 32-BIT INS]
     439                            .dwcfi  cfa_offset, 8
     440                            .dwcfi  restore_reg, 14
TI ARM Assembler PC v16.9.4 Sat Nov 18 18:46:31 2017

Tools Copyright (c) 1996-2017 Texas Instruments Incorporated
C:\Users\Kevin\AppData\Local\Temp\{6C42DDD5-7C92-479C-8F05-55537E4479EC} PAGE    9

     441                            .dwcfi  restore_reg, 8
     442                            .dwcfi  restore_reg, 7
     443                            .dwcfi  restore_reg, 6
     444                            .dwcfi  restore_reg, 5
     445                            .dwcfi  restore_reg, 4
     446 0000008a B002              ADD       SP, SP, #8            ; [DPU_3_PIPE]  ; [ORIG 16-BIT INS]
     447                            .dwcfi  cfa_offset, 0
     448                    $C$DW$39        .dwtag  DW_TAG_TI_branch
     449                            .dwattr $C$DW$39, DW_AT_low_pc(0x00)
     450                            .dwattr $C$DW$39, DW_AT_TI_return
     451                    
     452 0000008c 4770              BX        LR                    ; [DPU_3_PIPE]  ; [ORIG 16-BIT INS]
     453                            ; BRANCH OCCURS                  ; [] 
     454                            .dwattr $C$DW$33, DW_AT_TI_end_file("../Application/Services/nvocop.c")
     455                            .dwattr $C$DW$33, DW_AT_TI_end_line(0x2aa)
     456                            .dwattr $C$DW$33, DW_AT_TI_end_column(0x01)
     457                            .dwendentry
     458                            .dwendtag $C$DW$33
     459                    
     460 00000000                   .sect   ".text:disableCache"
     461                            .clink
     462                            .thumbfunc disableCache
     463 00000000                   .thumb
     464                    
     465                    $C$DW$40        .dwtag  DW_TAG_subprogram
     466                            .dwattr $C$DW$40, DW_AT_name("disableCache")
     467                            .dwattr $C$DW$40, DW_AT_low_pc(disableCache)
     468                            .dwattr $C$DW$40, DW_AT_high_pc(0x00)
     469                            .dwattr $C$DW$40, DW_AT_TI_symbol_name("disableCache")
     470                            .dwattr $C$DW$40, DW_AT_type(*$C$DW$T$73)
     471                            .dwattr $C$DW$40, DW_AT_TI_begin_file("../Application/Services/nvocop.c")
     472                            .dwattr $C$DW$40, DW_AT_TI_begin_line(0x417)
     473                            .dwattr $C$DW$40, DW_AT_TI_begin_column(0x0e)
     474                            .dwattr $C$DW$40, DW_AT_decl_file("../Application/Services/nvocop.c")
     475                            .dwattr $C$DW$40, DW_AT_decl_line(0x417)
     476                            .dwattr $C$DW$40, DW_AT_decl_column(0x0e)
     477                            .dwattr $C$DW$40, DW_AT_TI_max_frame_size(0x10)
     478                            .dwpsn  file "../Application/Services/nvocop.c",line 1048,column 1,is_stmt,address disableCach
     479                    
     480                            .dwfde $C$DW$CIE, disableCache
     481                    
     482                    ;*****************************************************************************
     483                    ;* FUNCTION NAME: disableCache                                               *
     484                    ;*                                                                           *
     485                    ;*   Regs Modified     : A1,A2,A3,A4,V1,V4,V9,SP,LR,SR                       *
     486                    ;*   Regs Used         : A1,A2,A3,A4,V1,V4,V9,SP,LR,SR                       *
     487                    ;*   Local Frame Size  : 0 Args + 0 Auto + 12 Save = 12 byte                 *
     488                    ;*****************************************************************************
     489                    disableCache:
     490                    ;* --------------------------------------------------------------------------*
     491                    ;* V4    assigned to state
     492                    $C$DW$41        .dwtag  DW_TAG_variable
     493                            .dwattr $C$DW$41, DW_AT_name("state")
     494                            .dwattr $C$DW$41, DW_AT_TI_symbol_name("state")
     495                            .dwattr $C$DW$41, DW_AT_type(*$C$DW$T$73)
TI ARM Assembler PC v16.9.4 Sat Nov 18 18:46:31 2017

Tools Copyright (c) 1996-2017 Texas Instruments Incorporated
C:\Users\Kevin\AppData\Local\Temp\{6C42DDD5-7C92-479C-8F05-55537E4479EC} PAGE   10

     496                            .dwattr $C$DW$41, DW_AT_location[DW_OP_reg7]
     497                    
     498                            .dwcfi  cfa_offset, 0
     499 00000000 B598              PUSH      {A4, V1, V4, LR}      ; [DPU_3_PIPE]  ; [ORIG 16-BIT INS]
     500                            .dwcfi  cfa_offset, 16
     501                            .dwcfi  save_reg_to_mem, 14, -4
     502                            .dwcfi  save_reg_to_mem, 7, -8
     503                            .dwcfi  save_reg_to_mem, 4, -12
     504                            .dwcfi  save_reg_to_mem, 3, -16
     505                            .dwpsn  file "../Application/Services/nvocop.c",line 1058,column 13,is_stmt,isa 1
     506 00000002 4C09              LDR       V1, $C$CON3           ; [DPU_3_PIPE] |1058|  ; [ORIG 16-BIT INS]
     507                            .dwpsn  file "../Application/Services/nvocop.c",line 1049,column 15,is_stmt,isa 1
     508 00000004 4620              MOV       A1, V1                ; [DPU_3_PIPE] |1049|  ; [ORIG 16-BIT INS]
     509                    $C$DW$42        .dwtag  DW_TAG_TI_branch
     510                            .dwattr $C$DW$42, DW_AT_low_pc(0x00)
     511                            .dwattr $C$DW$42, DW_AT_name("NOROM_VIMSModeGet")
     512                            .dwattr $C$DW$42, DW_AT_TI_call
     513                    
     514 00000006 FFFEF7FF!         BL        NOROM_VIMSModeGet     ; [DPU_3_PIPE] |1049|  ; [KEEP 32-BIT INS]
     515                            ; CALL OCCURS {NOROM_VIMSModeGet }  ; [] |1049| 
     516 0000000a B2C7              UXTB      V4, A1                ; [DPU_3_PIPE] |1049|  ; [ORIG 16-BIT INS]
     517 0000000c B157              CBZ       V4, ||$C$L9||         ; []  ; [ORIG 16-BIT INS]
     518                            ; BRANCHCC OCCURS {||$C$L9||}    ; [] |1049| 
     519                    ;* --------------------------------------------------------------------------*
     520                            .dwpsn  file "../Application/Services/nvocop.c",line 1055,column 5,is_stmt,isa 1
     521 0000000e 4807              LDR       A1, $C$CON4           ; [DPU_3_PIPE] |1055|  ; [ORIG 16-BIT INS]
     522 00000010 6800              LDR       A1, [A1, #0]          ; [DPU_3_PIPE] |1055|  ; [ORIG 16-BIT INS]
     523 00000012 6842              LDR       A3, [A1, #4]          ; [DPU_3_PIPE] |1055|  ; [ORIG 16-BIT INS]
     524 00000014 2100              MOVS      A2, #0                ; [DPU_3_PIPE] |1055|  ; [ORIG 16-BIT INS]
     525 00000016 4620              MOV       A1, V1                ; [DPU_3_PIPE] |1055|  ; [ORIG 16-BIT INS]
     526                    $C$DW$43        .dwtag  DW_TAG_TI_branch
     527                            .dwattr $C$DW$43, DW_AT_low_pc(0x00)
     528                            .dwattr $C$DW$43, DW_AT_TI_call
     529                            .dwattr $C$DW$43, DW_AT_TI_indirect
     530                    
     531 00000018 4790              BLX       A3                    ; [DPU_3_PIPE] |1055|  ; [ORIG 16-BIT INS]
     532                            ; CALL OCCURS {}                 ; [] |1055| 
     533                    ;* --------------------------------------------------------------------------*
     534                    ;*   BEGIN LOOP ||$C$L8||
     535                    ;*
     536                    ;*   Loop source line                : 1058
     537                    ;*   Loop closing brace source line  : 1058
     538                    ;*   Known Minimum Trip Count        : 1
     539                    ;*   Known Maximum Trip Count        : 4294967295
     540                    ;*   Known Max Trip Count Factor     : 1
     541                    ;* --------------------------------------------------------------------------*
     542 0000001a           ||$C$L8||:    
     543                            .dwpsn  file "../Application/Services/nvocop.c",line 1058,column 13,is_stmt,isa 1
     544 0000001a 4620              MOV       A1, V1                ; [DPU_3_PIPE] |1058|  ; [ORIG 16-BIT INS]
     545                    $C$DW$44        .dwtag  DW_TAG_TI_branch
     546                            .dwattr $C$DW$44, DW_AT_low_pc(0x00)
     547                            .dwattr $C$DW$44, DW_AT_name("NOROM_VIMSModeGet")
     548                            .dwattr $C$DW$44, DW_AT_TI_call
     549                    
     550 0000001c FFFEF7FF!         BL        NOROM_VIMSModeGet     ; [DPU_3_PIPE] |1058|  ; [KEEP 32-BIT INS]
TI ARM Assembler PC v16.9.4 Sat Nov 18 18:46:31 2017

Tools Copyright (c) 1996-2017 Texas Instruments Incorporated
C:\Users\Kevin\AppData\Local\Temp\{6C42DDD5-7C92-479C-8F05-55537E4479EC} PAGE   11

     551                            ; CALL OCCURS {NOROM_VIMSModeGet }  ; [] |1058| 
     552 00000020 2800              CMP       A1, #0                ; [DPU_3_PIPE] |1058|  ; [ORIG 16-BIT INS]
     553 00000022 D1FA              BNE       ||$C$L8||             ; [DPU_3_PIPE] |1058|  ; [ORIG 16-BIT INS]
     554                            ; BRANCHCC OCCURS {||$C$L8||}    ; [] |1058| 
     555                    ;* --------------------------------------------------------------------------*
     556 00000024           ||$C$L9||:    
     557                            .dwpsn  file "../Application/Services/nvocop.c",line 1062,column 3,is_stmt,isa 1
     558 00000024 4638              MOV       A1, V4                ; [DPU_3_PIPE] |1062|  ; [ORIG 16-BIT INS]
     559                    $C$DW$45        .dwtag  DW_TAG_TI_branch
     560                            .dwattr $C$DW$45, DW_AT_low_pc(0x00)
     561                            .dwattr $C$DW$45, DW_AT_TI_return
     562                    
     563 00000026 BD98              POP       {A4, V1, V4, PC}      ; [DPU_3_PIPE]  ; [ORIG 16-BIT INS]
     564                            .dwcfi  cfa_offset, 0
     565                            ; BRANCH OCCURS                  ; [] 
     566                            .dwattr $C$DW$40, DW_AT_TI_end_file("../Application/Services/nvocop.c")
     567                            .dwattr $C$DW$40, DW_AT_TI_end_line(0x427)
     568                            .dwattr $C$DW$40, DW_AT_TI_end_column(0x01)
     569                            .dwendentry
     570                            .dwendtag $C$DW$40
     571                    
     572 00000000                   .sect   ".text:enableCache"
     573                            .clink
     574                            .thumbfunc enableCache
     575 00000000                   .thumb
     576                    
     577                    $C$DW$46        .dwtag  DW_TAG_subprogram
     578                            .dwattr $C$DW$46, DW_AT_name("enableCache")
     579                            .dwattr $C$DW$46, DW_AT_low_pc(enableCache)
     580                            .dwattr $C$DW$46, DW_AT_high_pc(0x00)
     581                            .dwattr $C$DW$46, DW_AT_TI_symbol_name("enableCache")
     582                            .dwattr $C$DW$46, DW_AT_TI_begin_file("../Application/Services/nvocop.c")
     583                            .dwattr $C$DW$46, DW_AT_TI_begin_line(0x405)
     584                            .dwattr $C$DW$46, DW_AT_TI_begin_column(0x0d)
     585                            .dwattr $C$DW$46, DW_AT_decl_file("../Application/Services/nvocop.c")
     586                            .dwattr $C$DW$46, DW_AT_decl_line(0x405)
     587                            .dwattr $C$DW$46, DW_AT_decl_column(0x0d)
     588                            .dwattr $C$DW$46, DW_AT_TI_max_frame_size(0x08)
     589                            .dwpsn  file "../Application/Services/nvocop.c",line 1030,column 1,is_stmt,address enableCache
     590                    
     591                            .dwfde $C$DW$CIE, enableCache
     592                    $C$DW$47        .dwtag  DW_TAG_formal_parameter
     593                            .dwattr $C$DW$47, DW_AT_name("state")
     594                            .dwattr $C$DW$47, DW_AT_TI_symbol_name("state")
     595                            .dwattr $C$DW$47, DW_AT_type(*$C$DW$T$73)
     596                            .dwattr $C$DW$47, DW_AT_location[DW_OP_reg0]
     597                    
     598                    
     599                    ;*****************************************************************************
     600                    ;* FUNCTION NAME: enableCache                                                *
     601                    ;*                                                                           *
     602                    ;*   Regs Modified     : A1,A2,A3,A4,V9,SP,LR,SR                             *
     603                    ;*   Regs Used         : A1,A2,A3,A4,V9,SP,LR,SR                             *
     604                    ;*   Local Frame Size  : 0 Args + 0 Auto + 4 Save = 4 byte                   *
     605                    ;*****************************************************************************
TI ARM Assembler PC v16.9.4 Sat Nov 18 18:46:31 2017

Tools Copyright (c) 1996-2017 Texas Instruments Incorporated
C:\Users\Kevin\AppData\Local\Temp\{6C42DDD5-7C92-479C-8F05-55537E4479EC} PAGE   12

     606                    enableCache:
     607                    ;* --------------------------------------------------------------------------*
     608                    ;* A1    assigned to state
     609                    $C$DW$48        .dwtag  DW_TAG_variable
     610                            .dwattr $C$DW$48, DW_AT_name("state")
     611                            .dwattr $C$DW$48, DW_AT_TI_symbol_name("state")
     612                            .dwattr $C$DW$48, DW_AT_type(*$C$DW$T$262)
     613                            .dwattr $C$DW$48, DW_AT_location[DW_OP_reg0]
     614                    
     615                            .dwcfi  cfa_offset, 0
     616 00000000 B508              PUSH      {A4, LR}              ; [DPU_3_PIPE]  ; [ORIG 16-BIT INS]
     617                            .dwcfi  cfa_offset, 8
     618                            .dwcfi  save_reg_to_mem, 14, -4
     619                            .dwcfi  save_reg_to_mem, 3, -8
     620 00000002 B128              CBZ       A1, ||$C$L10||        ; []  ; [ORIG 16-BIT INS]
     621                            .dwpsn  file "../Application/Services/nvocop.c",line 1031,column 3,is_stmt,isa 1
     622                            ; BRANCHCC OCCURS {||$C$L10||}   ; [] |1031| 
     623                    ;* --------------------------------------------------------------------------*
     624                            .dwpsn  file "../Application/Services/nvocop.c",line 1034,column 5,is_stmt,isa 1
     625 00000004 4803              LDR       A1, $C$CON5           ; [DPU_3_PIPE] |1034|  ; [ORIG 16-BIT INS]
     626 00000006 6800              LDR       A1, [A1, #0]          ; [DPU_3_PIPE] |1034|  ; [ORIG 16-BIT INS]
     627 00000008 6842              LDR       A3, [A1, #4]          ; [DPU_3_PIPE] |1034|  ; [ORIG 16-BIT INS]
     628 0000000a 4803              LDR       A1, $C$CON6           ; [DPU_3_PIPE] |1034|  ; [ORIG 16-BIT INS]
     629 0000000c 2101              MOVS      A2, #1                ; [DPU_3_PIPE] |1034|  ; [ORIG 16-BIT INS]
     630                    $C$DW$49        .dwtag  DW_TAG_TI_branch
     631                            .dwattr $C$DW$49, DW_AT_low_pc(0x00)
     632                            .dwattr $C$DW$49, DW_AT_TI_call
     633                            .dwattr $C$DW$49, DW_AT_TI_indirect
     634                    
     635 0000000e 4790              BLX       A3                    ; [DPU_3_PIPE] |1034|  ; [ORIG 16-BIT INS]
     636                            ; CALL OCCURS {}                 ; [] |1034| 
     637                    ;* --------------------------------------------------------------------------*
     638                    ||$C$L10||:    
     639                    $C$DW$50        .dwtag  DW_TAG_TI_branch
     640                            .dwattr $C$DW$50, DW_AT_low_pc(0x00)
     641                            .dwattr $C$DW$50, DW_AT_TI_return
     642                    
     643 00000010 BD08              POP       {A4, PC}              ; [DPU_3_PIPE]  ; [ORIG 16-BIT INS]
     644                            .dwcfi  cfa_offset, 0
     645                            ; BRANCH OCCURS                  ; [] 
     646                            .dwattr $C$DW$46, DW_AT_TI_end_file("../Application/Services/nvocop.c")
     647                            .dwattr $C$DW$46, DW_AT_TI_end_line(0x40c)
     648                            .dwattr $C$DW$46, DW_AT_TI_end_column(0x01)
     649                            .dwendentry
     650                            .dwendtag $C$DW$46
     651                    
     652 00000000                   .sect   ".text:writeWord"
     653                            .clink
     654                            .thumbfunc writeWord
     655 00000000                   .thumb
     656                    
     657                    $C$DW$51        .dwtag  DW_TAG_subprogram
     658                            .dwattr $C$DW$51, DW_AT_name("writeWord")
     659                            .dwattr $C$DW$51, DW_AT_low_pc(writeWord)
     660                            .dwattr $C$DW$51, DW_AT_high_pc(0x00)
TI ARM Assembler PC v16.9.4 Sat Nov 18 18:46:31 2017

Tools Copyright (c) 1996-2017 Texas Instruments Incorporated
C:\Users\Kevin\AppData\Local\Temp\{6C42DDD5-7C92-479C-8F05-55537E4479EC} PAGE   13

     661                            .dwattr $C$DW$51, DW_AT_TI_symbol_name("writeWord")
     662                            .dwattr $C$DW$51, DW_AT_TI_begin_file("../Application/Services/nvocop.c")
     663                            .dwattr $C$DW$51, DW_AT_TI_begin_line(0x3de)
     664                            .dwattr $C$DW$51, DW_AT_TI_begin_column(0x0d)
     665                            .dwattr $C$DW$51, DW_AT_decl_file("../Application/Services/nvocop.c")
     666                            .dwattr $C$DW$51, DW_AT_decl_line(0x3de)
     667                            .dwattr $C$DW$51, DW_AT_decl_column(0x0d)
     668                            .dwattr $C$DW$51, DW_AT_TI_max_frame_size(0x28)
     669                            .dwpsn  file "../Application/Services/nvocop.c",line 991,column 1,is_stmt,address writeWord,is
     670                    
     671                            .dwfde $C$DW$CIE, writeWord
     672                    $C$DW$52        .dwtag  DW_TAG_formal_parameter
     673                            .dwattr $C$DW$52, DW_AT_name("offset")
     674                            .dwattr $C$DW$52, DW_AT_TI_symbol_name("offset")
     675                            .dwattr $C$DW$52, DW_AT_type(*$C$DW$T$19)
     676                            .dwattr $C$DW$52, DW_AT_location[DW_OP_reg0]
     677                    
     678                    $C$DW$53        .dwtag  DW_TAG_formal_parameter
     679                            .dwattr $C$DW$53, DW_AT_name("pBuf")
     680                            .dwattr $C$DW$53, DW_AT_TI_symbol_name("pBuf")
     681                            .dwattr $C$DW$53, DW_AT_type(*$C$DW$T$207)
     682                            .dwattr $C$DW$53, DW_AT_location[DW_OP_reg1]
     683                    
     684                    $C$DW$54        .dwtag  DW_TAG_formal_parameter
     685                            .dwattr $C$DW$54, DW_AT_name("cnt")
     686                            .dwattr $C$DW$54, DW_AT_TI_symbol_name("cnt")
     687                            .dwattr $C$DW$54, DW_AT_type(*$C$DW$T$215)
     688                            .dwattr $C$DW$54, DW_AT_location[DW_OP_reg2]
     689                    
     690                    
     691                    ;*****************************************************************************
     692                    ;* FUNCTION NAME: writeWord                                                  *
     693                    ;*                                                                           *
     694                    ;*   Regs Modified     : A1,A2,A3,A4,V1,V2,V3,V4,V5,V6,V7,V9,SP,LR,SR        *
     695                    ;*   Regs Used         : A1,A2,A3,A4,V1,V2,V3,V4,V5,V6,V7,V9,SP,LR,SR        *
     696                    ;*   Local Frame Size  : 0 Args + 4 Auto + 32 Save = 36 byte                 *
     697                    ;*****************************************************************************
     698                    writeWord:
     699                    ;* --------------------------------------------------------------------------*
     700                    $C$DW$55        .dwtag  DW_TAG_variable
     701                            .dwattr $C$DW$55, DW_AT_name("tmp")
     702                            .dwattr $C$DW$55, DW_AT_TI_symbol_name("tmp")
     703                            .dwattr $C$DW$55, DW_AT_type(*$C$DW$T$259)
     704                            .dwattr $C$DW$55, DW_AT_location[DW_OP_breg13 0]
     705                    
     706                    ;* A1    assigned to $O$C1
     707                    ;* A2    assigned to $O$C2
     708                    ;* A1    assigned to $O$C3
     709                    ;* V4    assigned to $O$K8
     710                    ;* V1    assigned to offset
     711                    $C$DW$56        .dwtag  DW_TAG_variable
     712                            .dwattr $C$DW$56, DW_AT_name("offset")
     713                            .dwattr $C$DW$56, DW_AT_TI_symbol_name("offset")
     714                            .dwattr $C$DW$56, DW_AT_type(*$C$DW$T$277)
     715                            .dwattr $C$DW$56, DW_AT_location[DW_OP_reg4]
TI ARM Assembler PC v16.9.4 Sat Nov 18 18:46:31 2017

Tools Copyright (c) 1996-2017 Texas Instruments Incorporated
C:\Users\Kevin\AppData\Local\Temp\{6C42DDD5-7C92-479C-8F05-55537E4479EC} PAGE   14

     716                    
     717                    ;* V2    assigned to pBuf
     718                    $C$DW$57        .dwtag  DW_TAG_variable
     719                            .dwattr $C$DW$57, DW_AT_name("pBuf")
     720                            .dwattr $C$DW$57, DW_AT_TI_symbol_name("pBuf")
     721                            .dwattr $C$DW$57, DW_AT_type(*$C$DW$T$252)
     722                            .dwattr $C$DW$57, DW_AT_location[DW_OP_reg5]
     723                    
     724                    ;* V3    assigned to cnt
     725                    $C$DW$58        .dwtag  DW_TAG_variable
     726                            .dwattr $C$DW$58, DW_AT_name("cnt")
     727                            .dwattr $C$DW$58, DW_AT_TI_symbol_name("cnt")
     728                            .dwattr $C$DW$58, DW_AT_type(*$C$DW$T$261)
     729                            .dwattr $C$DW$58, DW_AT_location[DW_OP_reg6]
     730                    
     731                    ;* V6    assigned to addr
     732                    $C$DW$59        .dwtag  DW_TAG_variable
     733                            .dwattr $C$DW$59, DW_AT_name("addr")
     734                            .dwattr $C$DW$59, DW_AT_TI_symbol_name("addr")
     735                            .dwattr $C$DW$59, DW_AT_type(*$C$DW$T$210)
     736                            .dwattr $C$DW$59, DW_AT_location[DW_OP_reg9]
     737                    
     738                    ;* V5    assigned to cs
     739                    $C$DW$60        .dwtag  DW_TAG_variable
     740                            .dwattr $C$DW$60, DW_AT_name("cs")
     741                            .dwattr $C$DW$60, DW_AT_TI_symbol_name("cs")
     742                            .dwattr $C$DW$60, DW_AT_type(*$C$DW$T$294)
     743                            .dwattr $C$DW$60, DW_AT_location[DW_OP_reg8]
     744                    
     745                    ;* V7    assigned to state
     746                    $C$DW$61        .dwtag  DW_TAG_variable
     747                            .dwattr $C$DW$61, DW_AT_name("state")
     748                            .dwattr $C$DW$61, DW_AT_TI_symbol_name("state")
     749                            .dwattr $C$DW$61, DW_AT_type(*$C$DW$T$10)
     750                            .dwattr $C$DW$61, DW_AT_location[DW_OP_reg10]
     751                    
     752                    ;* V1    assigned to offset
     753                    $C$DW$62        .dwtag  DW_TAG_variable
     754                            .dwattr $C$DW$62, DW_AT_name("offset")
     755                            .dwattr $C$DW$62, DW_AT_TI_symbol_name("offset")
     756                            .dwattr $C$DW$62, DW_AT_type(*$C$DW$T$19)
     757                            .dwattr $C$DW$62, DW_AT_location[DW_OP_reg4]
     758                    
     759                    ;* V2    assigned to pBuf
     760                    $C$DW$63        .dwtag  DW_TAG_variable
     761                            .dwattr $C$DW$63, DW_AT_name("pBuf")
     762                            .dwattr $C$DW$63, DW_AT_TI_symbol_name("pBuf")
     763                            .dwattr $C$DW$63, DW_AT_type(*$C$DW$T$207)
     764                            .dwattr $C$DW$63, DW_AT_location[DW_OP_reg5]
     765                    
     766                    ;* V3    assigned to cnt
     767                    $C$DW$64        .dwtag  DW_TAG_variable
     768                            .dwattr $C$DW$64, DW_AT_name("cnt")
     769                            .dwattr $C$DW$64, DW_AT_TI_symbol_name("cnt")
     770                            .dwattr $C$DW$64, DW_AT_type(*$C$DW$T$215)
TI ARM Assembler PC v16.9.4 Sat Nov 18 18:46:31 2017

Tools Copyright (c) 1996-2017 Texas Instruments Incorporated
C:\Users\Kevin\AppData\Local\Temp\{6C42DDD5-7C92-479C-8F05-55537E4479EC} PAGE   15

     771                            .dwattr $C$DW$64, DW_AT_location[DW_OP_reg6]
     772                    
     773                            .dwcfi  cfa_offset, 0
     774 00000000 47FCE92D          PUSH      {A3, A4, V1, V2, V3, V4, V5, V6, V7, LR} ; [DPU_3_PIPE]  ; [KEEP 32-BIT INS]
     775                            .dwcfi  cfa_offset, 40
     776                            .dwcfi  save_reg_to_mem, 14, -4
     777                            .dwcfi  save_reg_to_mem, 10, -8
     778                            .dwcfi  save_reg_to_mem, 9, -12
     779                            .dwcfi  save_reg_to_mem, 8, -16
     780                            .dwcfi  save_reg_to_mem, 7, -20
     781                            .dwcfi  save_reg_to_mem, 6, -24
     782                            .dwcfi  save_reg_to_mem, 5, -28
     783                            .dwcfi  save_reg_to_mem, 4, -32
     784                            .dwcfi  save_reg_to_mem, 3, -36
     785                            .dwcfi  save_reg_to_mem, 2, -40
     786 00000004 4604              MOV       V1, A1                ; [DPU_3_PIPE] |991|  ; [ORIG 16-BIT INS]
     787                            .dwpsn  file "../Application/Services/nvocop.c",line 992,column 15,is_stmt,isa 1
     788 00000006 481E              LDR       A1, $C$CON11          ; [DPU_3_PIPE] |992|  ; [ORIG 16-BIT INS]
     789                            .dwpsn  file "../Application/Services/nvocop.c",line 991,column 1,is_stmt,isa 1
     790 00000008 460D              MOV       V2, A2                ; [DPU_3_PIPE] |991|  ; [ORIG 16-BIT INS]
     791 0000000a 4616              MOV       V3, A3                ; [DPU_3_PIPE] |991|  ; [ORIG 16-BIT INS]
     792                            .dwpsn  file "../Application/Services/nvocop.c",line 992,column 15,is_stmt,isa 1
     793 0000000c 4621              MOV       A2, V1                ; [DPU_3_PIPE] |992|  ; [ORIG 16-BIT INS]
     794 0000000e 0B00              LSRS      A1, A1, #12           ; [DPU_3_PIPE] |992|  ; [ORIG 16-BIT INS]
     795 00000010 B2C0              UXTB      A1, A1                ; [DPU_3_PIPE] |992|  ; [ORIG 16-BIT INS]
     796 00000012 4607              MOV       V4, A1                ; [DPU_3_PIPE] |992|  ; [ORIG 16-BIT INS]
     797                    $C$DW$65        .dwtag  DW_TAG_TI_branch
     798                            .dwattr $C$DW$65, DW_AT_low_pc(0x00)
     799                            .dwattr $C$DW$65, DW_AT_name("HalFlashGetAddress")
     800                            .dwattr $C$DW$65, DW_AT_TI_call
     801                    
     802 00000014 FFFEF7FF!         BL        HalFlashGetAddress    ; [DPU_3_PIPE] |992|  ; [KEEP 32-BIT INS]
     803                            ; CALL OCCURS {HalFlashGetAddress }  ; [] |992| 
     804 00000018 4681              MOV       V6, A1                ; [DPU_3_PIPE] |992|  ; [ORIG 16-BIT INS]
     805                            .dwpsn  file "../Application/Services/nvocop.c",line 998,column 5,is_stmt,isa 1
     806 0000001a 4817              LDR       A1, $C$CON8           ; [DPU_3_PIPE] |998|  ; [ORIG 16-BIT INS]
     807 0000001c 6800              LDR       A1, [A1, #0]          ; [DPU_3_PIPE] |998|  ; [ORIG 16-BIT INS]
     808                    $C$DW$66        .dwtag  DW_TAG_TI_branch
     809                            .dwattr $C$DW$66, DW_AT_low_pc(0x00)
     810                            .dwattr $C$DW$66, DW_AT_TI_call
     811                            .dwattr $C$DW$66, DW_AT_TI_indirect
     812                    
     813 0000001e 4780              BLX       A1                    ; [DPU_3_PIPE] |998|  ; [ORIG 16-BIT INS]
     814                            ; CALL OCCURS {}                 ; [] |998| 
     815 00000020 4680              MOV       V5, A1                ; [DPU_3_PIPE] |998|  ; [ORIG 16-BIT INS]
     816                            .dwpsn  file "../Application/Services/nvocop.c",line 1002,column 5,is_stmt,isa 1
     817                    $C$DW$67        .dwtag  DW_TAG_TI_branch
     818                            .dwattr $C$DW$67, DW_AT_low_pc(0x00)
     819                            .dwattr $C$DW$67, DW_AT_name("disableCache")
     820                            .dwattr $C$DW$67, DW_AT_TI_call
     821                    
     822 00000022 FFFEF7FF!         BL        disableCache          ; [DPU_3_PIPE] |1002|  ; [KEEP 32-BIT INS]
     823                            ; CALL OCCURS {disableCache }    ; [] |1002| 
     824 00000026 4682              MOV       V7, A1                ; [DPU_3_PIPE] |1002|  ; [ORIG 16-BIT INS]
     825                            .dwpsn  file "../Application/Services/nvocop.c",line 1005,column 5,is_stmt,isa 1
TI ARM Assembler PC v16.9.4 Sat Nov 18 18:46:31 2017

Tools Copyright (c) 1996-2017 Texas Instruments Incorporated
C:\Users\Kevin\AppData\Local\Temp\{6C42DDD5-7C92-479C-8F05-55537E4479EC} PAGE   16

     826 00000028 00B2              LSLS      A3, V3, #2            ; [DPU_3_PIPE] |1005|  ; [ORIG 16-BIT INS]
     827 0000002a 4629              MOV       A2, V2                ; [DPU_3_PIPE] |1005|  ; [ORIG 16-BIT INS]
     828 0000002c 4648              MOV       A1, V6                ; [DPU_3_PIPE] |1005|  ; [ORIG 16-BIT INS]
     829                    $C$DW$68        .dwtag  DW_TAG_TI_branch
     830                            .dwattr $C$DW$68, DW_AT_low_pc(0x00)
     831                            .dwattr $C$DW$68, DW_AT_name("HalFlashWrite")
     832                            .dwattr $C$DW$68, DW_AT_TI_call
     833                    
     834 0000002e FFFEF7FF!         BL        HalFlashWrite         ; [DPU_3_PIPE] |1005|  ; [KEEP 32-BIT INS]
     835                            ; CALL OCCURS {HalFlashWrite }   ; [] |1005| 
     836                            .dwpsn  file "../Application/Services/nvocop.c",line 1008,column 5,is_stmt,isa 1
     837 00000032 4650              MOV       A1, V7                ; [DPU_3_PIPE] |1008|  ; [ORIG 16-BIT INS]
     838                    $C$DW$69        .dwtag  DW_TAG_TI_branch
     839                            .dwattr $C$DW$69, DW_AT_low_pc(0x00)
     840                            .dwattr $C$DW$69, DW_AT_name("enableCache")
     841                            .dwattr $C$DW$69, DW_AT_TI_call
     842                    
     843 00000034 FFFEF7FF!         BL        enableCache           ; [DPU_3_PIPE] |1008|  ; [KEEP 32-BIT INS]
     844                            ; CALL OCCURS {enableCache }     ; [] |1008| 
     845                            .dwpsn  file "../Application/Services/nvocop.c",line 964,column 3,is_stmt,isa 1
     846 00000038 E002              B         ||$C$L12||            ; [DPU_3_PIPE] |964|  ; [ORIG 16-BIT INS]
     847                            ; BRANCH OCCURS {||$C$L12||}     ; [] |964| 
     848                    ;* --------------------------------------------------------------------------*
     849 0000003a           ||$C$L11||:    
     850                            .dwpsn  file "../Application/Services/nvocop.c",line 974,column 5,is_stmt,isa 1
     851 0000003a 1D24              ADDS      V1, V1, #4            ; [DPU_3_PIPE] |974|  ; [ORIG 16-BIT INS]
     852                            .dwpsn  file "../Application/Services/nvocop.c",line 975,column 5,is_stmt,isa 1
     853 0000003c 1D2D              ADDS      V2, V2, #4            ; [DPU_3_PIPE] |975|  ; [ORIG 16-BIT INS]
     854                            .dwpsn  file "../Application/Services/nvocop.c",line 974,column 5,is_stmt,isa 1
     855 0000003e B2A4              UXTH      V1, V1                ; [DPU_3_PIPE] |974|  ; [ORIG 16-BIT INS]
     856                    ;* --------------------------------------------------------------------------*
     857                    ;*   BEGIN LOOP ||$C$L12||
     858                    ;* --------------------------------------------------------------------------*
     859 00000040           ||$C$L12||:    
     860                            .dwpsn  file "../Application/Services/nvocop.c",line 964,column 3,is_stmt,isa 1
     861 00000040 4630              MOV       A1, V3                ; [DPU_3_PIPE] |964|  ; [ORIG 16-BIT INS]
     862 00000042 1E41              SUBS      A2, A1, #1            ; [DPU_3_PIPE] |964|  ; [ORIG 16-BIT INS]
     863 00000044 B2CE              UXTB      V3, A2                ; [DPU_3_PIPE] |964|  ; [ORIG 16-BIT INS]
     864 00000046 B188              CBZ       A1, ||$C$L13||        ; []  ; [ORIG 16-BIT INS]
     865                            ; BRANCHCC OCCURS {||$C$L13||}   ; [] |964| 
     866                    ;* --------------------------------------------------------------------------*
     867                            .dwpsn  file "../Application/Services/nvocop.c",line 968,column 5,is_stmt,isa 1
     868 00000048 4638              MOV       A1, V4                ; [DPU_3_PIPE] |968|  ; [ORIG 16-BIT INS]
     869 0000004a 4621              MOV       A2, V1                ; [DPU_3_PIPE] |968|  ; [ORIG 16-BIT INS]
     870 0000004c 466A              MOV       A3, SP                ; [DPU_3_PIPE] |968|  ; [ORIG 16-BIT INS]
     871 0000004e 2304              MOVS      A4, #4                ; [DPU_3_PIPE] |968|  ; [ORIG 16-BIT INS]
     872                    $C$DW$70        .dwtag  DW_TAG_TI_branch
     873                            .dwattr $C$DW$70, DW_AT_low_pc(0x00)
     874                            .dwattr $C$DW$70, DW_AT_name("HalFlashRead")
     875                            .dwattr $C$DW$70, DW_AT_TI_call
     876                    
     877 00000050 FFFEF7FF!         BL        HalFlashRead          ; [DPU_3_PIPE] |968|  ; [KEEP 32-BIT INS]
     878                            ; CALL OCCURS {HalFlashRead }    ; [] |968| 
     879                            .dwpsn  file "../Application/Services/nvocop.c",line 969,column 5,is_stmt,isa 1
     880 00000054 4668              MOV       A1, SP                ; [DPU_3_PIPE] |969|  ; [ORIG 16-BIT INS]
TI ARM Assembler PC v16.9.4 Sat Nov 18 18:46:31 2017

Tools Copyright (c) 1996-2017 Texas Instruments Incorporated
C:\Users\Kevin\AppData\Local\Temp\{6C42DDD5-7C92-479C-8F05-55537E4479EC} PAGE   17

     881 00000056 4629              MOV       A2, V2                ; [DPU_3_PIPE] |969|  ; [ORIG 16-BIT INS]
     882 00000058 2204              MOVS      A3, #4                ; [DPU_3_PIPE] |969|  ; [ORIG 16-BIT INS]
     883                    $C$DW$71        .dwtag  DW_TAG_TI_branch
     884                            .dwattr $C$DW$71, DW_AT_low_pc(0x00)
     885                            .dwattr $C$DW$71, DW_AT_name("memcmp")
     886                            .dwattr $C$DW$71, DW_AT_TI_call
     887                    
     888 0000005a FFFEF7FF!         BL        memcmp                ; [DPU_3_PIPE] |969|  ; [KEEP 32-BIT INS]
     889                            ; CALL OCCURS {memcmp }          ; [] |969| 
     890 0000005e 2800              CMP       A1, #0                ; [DPU_3_PIPE] |969|  ; [ORIG 16-BIT INS]
     891 00000060 D0EB              BEQ       ||$C$L11||            ; [DPU_3_PIPE] |969|  ; [ORIG 16-BIT INS]
     892                            ; BRANCHCC OCCURS {||$C$L11||}   ; [] |969| 
     893                    ;* --------------------------------------------------------------------------*
     894                            .dwpsn  file "../Application/Services/nvocop.c",line 971,column 7,is_stmt,isa 1
     895 00000062 4808              LDR       A1, $C$CON12          ; [DPU_3_PIPE] |971|  ; [ORIG 16-BIT INS]
     896 00000064 2101              MOVS      A2, #1                ; [DPU_3_PIPE] |971|  ; [ORIG 16-BIT INS]
     897 00000066 1E80              SUBS      A1, A1, #2            ; [DPU_3_PIPE]  ; [ORIG 16-BIT INS]
     898 00000068 7041              STRB      A2, [A1, #1]          ; [DPU_3_PIPE] |971|  ; [ORIG 16-BIT INS]
     899 0000006a 7001              STRB      A2, [A1, #0]          ; [DPU_3_PIPE] |971|  ; [ORIG 16-BIT INS]
     900                    ;* --------------------------------------------------------------------------*
     901 0000006c           ||$C$L13||:    
     902                            .dwpsn  file "../Application/Services/nvocop.c",line 1012,column 5,is_stmt,isa 1
     903 0000006c 4803              LDR       A1, $C$CON10          ; [DPU_3_PIPE] |1012|  ; [ORIG 16-BIT INS]
     904 0000006e 6801              LDR       A2, [A1, #0]          ; [DPU_3_PIPE] |1012|  ; [ORIG 16-BIT INS]
     905 00000070 4640              MOV       A1, V5                ; [DPU_3_PIPE] |1012|  ; [ORIG 16-BIT INS]
     906                    $C$DW$72        .dwtag  DW_TAG_TI_branch
     907                            .dwattr $C$DW$72, DW_AT_low_pc(0x00)
     908                            .dwattr $C$DW$72, DW_AT_TI_call
     909                            .dwattr $C$DW$72, DW_AT_TI_indirect
     910                    
     911 00000072 4788              BLX       A2                    ; [DPU_3_PIPE] |1012|  ; [ORIG 16-BIT INS]
     912                            ; CALL OCCURS {}                 ; [] |1012| 
     913                    $C$DW$73        .dwtag  DW_TAG_TI_branch
     914                            .dwattr $C$DW$73, DW_AT_low_pc(0x00)
     915                            .dwattr $C$DW$73, DW_AT_TI_return
     916                    
     917 00000074 87FCE8BD          POP       {A3, A4, V1, V2, V3, V4, V5, V6, V7, PC} ; [DPU_3_PIPE]  ; [KEEP 32-BIT INS]
     918                            .dwcfi  cfa_offset, 0
     919                            ; BRANCH OCCURS                  ; [] 
     920                            .dwattr $C$DW$51, DW_AT_TI_end_file("../Application/Services/nvocop.c")
     921                            .dwattr $C$DW$51, DW_AT_TI_end_line(0x3fa)
     922                            .dwattr $C$DW$51, DW_AT_TI_end_column(0x01)
     923                            .dwendentry
     924                            .dwendtag $C$DW$51
     925                    
     926 00000000                   .sect   ".text:setXferPage"
     927                            .clink
     928                            .thumbfunc setXferPage
     929 00000000                   .thumb
     930                    
     931                    $C$DW$74        .dwtag  DW_TAG_subprogram
     932                            .dwattr $C$DW$74, DW_AT_name("setXferPage")
     933                            .dwattr $C$DW$74, DW_AT_low_pc(setXferPage)
     934                            .dwattr $C$DW$74, DW_AT_high_pc(0x00)
     935                            .dwattr $C$DW$74, DW_AT_TI_symbol_name("setXferPage")
TI ARM Assembler PC v16.9.4 Sat Nov 18 18:46:31 2017

Tools Copyright (c) 1996-2017 Texas Instruments Incorporated
C:\Users\Kevin\AppData\Local\Temp\{6C42DDD5-7C92-479C-8F05-55537E4479EC} PAGE   18

     936                            .dwattr $C$DW$74, DW_AT_TI_begin_file("../Application/Services/nvocop.c")
     937                            .dwattr $C$DW$74, DW_AT_TI_begin_line(0x217)
     938                            .dwattr $C$DW$74, DW_AT_TI_begin_column(0x0d)
     939                            .dwattr $C$DW$74, DW_AT_decl_file("../Application/Services/nvocop.c")
     940                            .dwattr $C$DW$74, DW_AT_decl_line(0x217)
     941                            .dwattr $C$DW$74, DW_AT_decl_column(0x0d)
     942                            .dwattr $C$DW$74, DW_AT_TI_max_frame_size(0x08)
     943                            .dwpsn  file "../Application/Services/nvocop.c",line 536,column 1,is_stmt,address setXferPage,
     944                    
     945                            .dwfde $C$DW$CIE, setXferPage
     946                    
     947                    ;*****************************************************************************
     948                    ;* FUNCTION NAME: setXferPage                                                *
     949                    ;*                                                                           *
     950                    ;*   Regs Modified     : A1,A2,A3,A4,V9,SP,LR,SR                             *
     951                    ;*   Regs Used         : A1,A2,A3,A4,V9,SP,LR,SR                             *
     952                    ;*   Local Frame Size  : 0 Args + 4 Auto + 4 Save = 8 byte                   *
     953                    ;*****************************************************************************
     954                    setXferPage:
     955                    ;* --------------------------------------------------------------------------*
     956                    $C$DW$75        .dwtag  DW_TAG_variable
     957                            .dwattr $C$DW$75, DW_AT_name("pgHdr")
     958                            .dwattr $C$DW$75, DW_AT_TI_symbol_name("pgHdr")
     959                            .dwattr $C$DW$75, DW_AT_type(*$C$DW$T$210)
     960                            .dwattr $C$DW$75, DW_AT_location[DW_OP_breg13 0]
     961                    
     962                            .dwcfi  cfa_offset, 0
     963 00000000 B508              PUSH      {A4, LR}              ; [DPU_3_PIPE]  ; [ORIG 16-BIT INS]
     964                            .dwcfi  cfa_offset, 8
     965                            .dwcfi  save_reg_to_mem, 14, -4
     966                            .dwcfi  save_reg_to_mem, 3, -8
     967                            .dwpsn  file "../Application/Services/nvocop.c",line 540,column 3,is_stmt,isa 1
     968 00000002 2000              MOVS      A1, #0                ; [DPU_3_PIPE] |540|  ; [ORIG 16-BIT INS]
     969                            .dwpsn  file "../Application/Services/nvocop.c",line 542,column 3,is_stmt,isa 1
     970 00000004 2201              MOVS      A3, #1                ; [DPU_3_PIPE] |542|  ; [ORIG 16-BIT INS]
     971 00000006 4669              MOV       A2, SP                ; [DPU_3_PIPE] |542|  ; [ORIG 16-BIT INS]
     972                            .dwpsn  file "../Application/Services/nvocop.c",line 540,column 3,is_stmt,isa 1
     973 00000008 9000              STR       A1, [SP, #0]          ; [DPU_3_PIPE] |540|  ; [ORIG 16-BIT INS]
     974                            .dwpsn  file "../Application/Services/nvocop.c",line 542,column 3,is_stmt,isa 1
     975                    $C$DW$76        .dwtag  DW_TAG_TI_branch
     976                            .dwattr $C$DW$76, DW_AT_low_pc(0x00)
     977                            .dwattr $C$DW$76, DW_AT_name("writeWord")
     978                            .dwattr $C$DW$76, DW_AT_TI_call
     979                    
     980 0000000a FFFEF7FF!         BL        writeWord             ; [DPU_3_PIPE] |542|  ; [KEEP 32-BIT INS]
     981                            ; CALL OCCURS {writeWord }       ; [] |542| 
     982                    $C$DW$77        .dwtag  DW_TAG_TI_branch
     983                            .dwattr $C$DW$77, DW_AT_low_pc(0x00)
     984                            .dwattr $C$DW$77, DW_AT_TI_return
     985                    
     986 0000000e BD08              POP       {A4, PC}              ; [DPU_3_PIPE]  ; [ORIG 16-BIT INS]
     987                            .dwcfi  cfa_offset, 0
     988                            ; BRANCH OCCURS                  ; [] 
     989                            .dwattr $C$DW$74, DW_AT_TI_end_file("../Application/Services/nvocop.c")
     990                            .dwattr $C$DW$74, DW_AT_TI_end_line(0x21f)
TI ARM Assembler PC v16.9.4 Sat Nov 18 18:46:31 2017

Tools Copyright (c) 1996-2017 Texas Instruments Incorporated
C:\Users\Kevin\AppData\Local\Temp\{6C42DDD5-7C92-479C-8F05-55537E4479EC} PAGE   19

     991                            .dwattr $C$DW$74, DW_AT_TI_end_column(0x01)
     992                            .dwendentry
     993                            .dwendtag $C$DW$74
     994                    
     995 00000000                   .sect   ".text:findItemInCache"
     996                            .clink
     997                            .thumbfunc findItemInCache
     998 00000000                   .thumb
     999                    
    1000                    $C$DW$78        .dwtag  DW_TAG_subprogram
    1001                            .dwattr $C$DW$78, DW_AT_name("findItemInCache")
    1002                            .dwattr $C$DW$78, DW_AT_low_pc(findItemInCache)
    1003                            .dwattr $C$DW$78, DW_AT_high_pc(0x00)
    1004                            .dwattr $C$DW$78, DW_AT_TI_symbol_name("findItemInCache")
    1005                            .dwattr $C$DW$78, DW_AT_type(*$C$DW$T$19)
    1006                            .dwattr $C$DW$78, DW_AT_TI_begin_file("../Application/Services/nvocop.c")
    1007                            .dwattr $C$DW$78, DW_AT_TI_begin_line(0x2ba)
    1008                            .dwattr $C$DW$78, DW_AT_TI_begin_column(0x0f)
    1009                            .dwattr $C$DW$78, DW_AT_decl_file("../Application/Services/nvocop.c")
    1010                            .dwattr $C$DW$78, DW_AT_decl_line(0x2ba)
    1011                            .dwattr $C$DW$78, DW_AT_decl_column(0x0f)
    1012                            .dwattr $C$DW$78, DW_AT_TI_max_frame_size(0x20)
    1013                            .dwpsn  file "../Application/Services/nvocop.c",line 700,column 1,is_stmt,address findItemInCa
    1014                    
    1015                            .dwfde $C$DW$CIE, findItemInCache
    1016                    $C$DW$79        .dwtag  DW_TAG_formal_parameter
    1017                            .dwattr $C$DW$79, DW_AT_name("offset")
    1018                            .dwattr $C$DW$79, DW_AT_TI_symbol_name("offset")
    1019                            .dwattr $C$DW$79, DW_AT_type(*$C$DW$T$19)
    1020                            .dwattr $C$DW$79, DW_AT_location[DW_OP_reg0]
    1021                    
    1022                    $C$DW$80        .dwtag  DW_TAG_formal_parameter
    1023                            .dwattr $C$DW$80, DW_AT_name("nv_id")
    1024                            .dwattr $C$DW$80, DW_AT_TI_symbol_name("nv_id")
    1025                            .dwattr $C$DW$80, DW_AT_type(*$C$DW$T$166)
    1026                            .dwattr $C$DW$80, DW_AT_location[DW_OP_breg13 24]
    1027                    
    1028                    
    1029                    ;*****************************************************************************
    1030                    ;* FUNCTION NAME: findItemInCache                                            *
    1031                    ;*                                                                           *
    1032                    ;*   Regs Modified     : A1,A2,A3,A4,V1,V4,SP,LR,SR                          *
    1033                    ;*   Regs Used         : A1,A2,A3,A4,V1,V4,SP,LR,SR                          *
    1034                    ;*   Local Frame Size  : 0 Args + 8 Auto + 12 Save = 20 byte                 *
    1035                    ;*****************************************************************************
    1036                    findItemInCache:
    1037                    ;* --------------------------------------------------------------------------*
    1038                    $C$DW$81        .dwtag  DW_TAG_variable
    1039                            .dwattr $C$DW$81, DW_AT_name("hdr")
    1040                            .dwattr $C$DW$81, DW_AT_TI_symbol_name("hdr")
    1041                            .dwattr $C$DW$81, DW_AT_type(*$C$DW$T$188)
    1042                            .dwattr $C$DW$81, DW_AT_location[DW_OP_breg13 0]
    1043                    
    1044                    ;* A3    assigned to $O$v2
    1045                    ;* A1    assigned to offset
TI ARM Assembler PC v16.9.4 Sat Nov 18 18:46:31 2017

Tools Copyright (c) 1996-2017 Texas Instruments Incorporated
C:\Users\Kevin\AppData\Local\Temp\{6C42DDD5-7C92-479C-8F05-55537E4479EC} PAGE   20

    1046                    $C$DW$82        .dwtag  DW_TAG_variable
    1047                            .dwattr $C$DW$82, DW_AT_name("offset")
    1048                            .dwattr $C$DW$82, DW_AT_TI_symbol_name("offset")
    1049                            .dwattr $C$DW$82, DW_AT_type(*$C$DW$T$19)
    1050                            .dwattr $C$DW$82, DW_AT_location[DW_OP_reg0]
    1051                    
    1052                            .dwcfi  cfa_offset, 0
    1053                            .dwpsn  file "../Application/Services/nvocop.c",line 703,column 10,is_stmt,isa 1
    1054 00000000 1F00              SUBS      A1, A1, #4            ; [DPU_3_PIPE] |703|  ; [ORIG 16-BIT INS]
    1055 00000002 B406              PUSH      {A2, A3}              ; [DPU_3_PIPE]  ; [ORIG 16-BIT INS]
    1056                            .dwcfi  cfa_offset, 8
    1057                            .dwcfi  save_reg_to_mem, 2, -4
    1058                            .dwcfi  save_reg_to_mem, 1, -8
    1059 00000004 B280              UXTH      A1, A1                ; [DPU_3_PIPE] |703|  ; [ORIG 16-BIT INS]
    1060 00000006 B590              PUSH      {V1, V4, LR}          ; [DPU_3_PIPE]  ; [ORIG 16-BIT INS]
    1061                            .dwcfi  cfa_offset, 20
    1062                            .dwcfi  save_reg_to_mem, 14, -12
    1063                            .dwcfi  save_reg_to_mem, 7, -16
    1064                            .dwcfi  save_reg_to_mem, 4, -20
    1065 00000008 2808              CMP       A1, #8                ; [DPU_3_PIPE] |703|  ; [ORIG 16-BIT INS]
    1066 0000000a AF03              ADD       V4, SP, #12           ; [DPU_3_PIPE]  ; [ORIG 16-BIT INS]
    1067 0000000c 0D0CF1AD          SUB       SP, SP, #12           ; [DPU_3_PIPE]  ; [KEEP 32-BIT INS]
    1068                            .dwcfi  cfa_offset, 32
    1069 00000010 DB22              BLT       ||$C$L16||            ; [DPU_3_PIPE] |703|  ; [ORIG 16-BIT INS]
    1070                            ; BRANCHCC OCCURS {||$C$L16||}   ; [] |703| 
    1071                    ;* --------------------------------------------------------------------------*
    1072 00000012 783A              LDRB      A3, [V4, #0]          ; [DPU_3_PIPE] |703|  ; [ORIG 16-BIT INS]
    1073                    ;* --------------------------------------------------------------------------*
    1074                    ;*   BEGIN LOOP ||$C$L14||
    1075                    ;*
    1076                    ;*   Loop source line                : 703
    1077                    ;*   Loop closing brace source line  : 727
    1078                    ;*   Known Minimum Trip Count        : 1
    1079                    ;*   Known Maximum Trip Count        : 4294967295
    1080                    ;*   Known Max Trip Count Factor     : 1
    1081                    ;* --------------------------------------------------------------------------*
    1082 00000014           ||$C$L14||:    
    1083 00000014 5F80F5B0          CMP       A1, #4096             ; [DPU_3_PIPE] |703|  ; [KEEP 32-BIT INS]
    1084 00000018 DA1E              BGE       ||$C$L16||            ; [DPU_3_PIPE] |703|  ; [ORIG 16-BIT INS]
    1085                            ; BRANCHCC OCCURS {||$C$L16||}   ; [] |703| 
    1086                    ;* --------------------------------------------------------------------------*
    1087                            .dwpsn  file "../Application/Services/nvocop.c",line 709,column 5,is_stmt,isa 1
    1088 0000001a 5188F100          ADD       A2, A1, #285212672    ; [DPU_3_PIPE] |709|  ; [KEEP 32-BIT INS]
    1089 0000001e 1F09              SUBS      A2, A2, #4            ; [DPU_3_PIPE] |709|  ; [ORIG 16-BIT INS]
    1090 00000020 680C              LDR       V1, [A2, #0]          ; [DPU_3_PIPE] |709|  ; [ORIG 16-BIT INS]
    1091 00000022 466B              MOV       A4, SP                ; [DPU_3_PIPE] |709|  ; [ORIG 16-BIT INS]
    1092 00000024 601C              STR       V1, [A4, #0]          ; [DPU_3_PIPE] |709|  ; [ORIG 16-BIT INS]
    1093 00000026 6849              LDR       A2, [A2, #4]          ; [DPU_3_PIPE] |709|  ; [ORIG 16-BIT INS]
    1094 00000028 6059              STR       A2, [A4, #4]          ; [DPU_3_PIPE] |709|  ; [ORIG 16-BIT INS]
    1095                            .dwpsn  file "../Application/Services/nvocop.c",line 716,column 5,is_stmt,isa 1
    1096 0000002a 1000F8BD          LDRH      A2, [SP, #0]          ; [DPU_3_PIPE] |716|  ; [KEEP 32-BIT INS]
    1097 0000002e 428A              CMP       A3, A2                ; [DPU_3_PIPE] |716|  ; [ORIG 16-BIT INS]
    1098 00000030 D10B              BNE       ||$C$L15||            ; [DPU_3_PIPE] |716|  ; [ORIG 16-BIT INS]
    1099                            ; BRANCHCC OCCURS {||$C$L15||}   ; [] |716| 
    1100                    ;* --------------------------------------------------------------------------*
TI ARM Assembler PC v16.9.4 Sat Nov 18 18:46:31 2017

Tools Copyright (c) 1996-2017 Texas Instruments Incorporated
C:\Users\Kevin\AppData\Local\Temp\{6C42DDD5-7C92-479C-8F05-55537E4479EC} PAGE   21

    1101 00000032 8879              LDRH      A2, [V4, #2]          ; [DPU_3_PIPE] |716|  ; [ORIG 16-BIT INS]
    1102 00000034 3002F8BD          LDRH      A4, [SP, #2]          ; [DPU_3_PIPE] |716|  ; [KEEP 32-BIT INS]
    1103 00000038 4299              CMP       A2, A4                ; [DPU_3_PIPE] |716|  ; [ORIG 16-BIT INS]
    1104 0000003a D106              BNE       ||$C$L15||            ; [DPU_3_PIPE] |716|  ; [ORIG 16-BIT INS]
    1105                            ; BRANCHCC OCCURS {||$C$L15||}   ; [] |716| 
    1106                    ;* --------------------------------------------------------------------------*
    1107 0000003c 88B9              LDRH      A2, [V4, #4]          ; [DPU_3_PIPE] |716|  ; [ORIG 16-BIT INS]
    1108 0000003e 3004F8BD          LDRH      A4, [SP, #4]          ; [DPU_3_PIPE] |716|  ; [KEEP 32-BIT INS]
    1109 00000042 4299              CMP       A2, A4                ; [DPU_3_PIPE] |716|  ; [ORIG 16-BIT INS]
    1110 00000044 BF08              IT        EQ                    ; [DPU_3_PIPE]  ; [ORIG 16-BIT INS]
    1111                            .dwpsn  file "../Application/Services/nvocop.c",line 721,column 7,is_stmt,isa 1
    1112 00000046 2001              MOVEQ     A1, #1                ; [DPU_3_PIPE] |721|  ; [ORIG 16-BIT INS]
    1113 00000048 D007              BEQ       ||$C$L17||            ; [DPU_3_PIPE] |721|  ; [ORIG 16-BIT INS]
    1114                            ; BRANCHCC OCCURS {||$C$L17||}   ; [] |721| 
    1115                    ;* --------------------------------------------------------------------------*
    1116 0000004a           ||$C$L15||:    
    1117                            .dwpsn  file "../Application/Services/nvocop.c",line 725,column 7,is_stmt,isa 1
    1118 0000004a 1006F8BD          LDRH      A2, [SP, #6]          ; [DPU_3_PIPE] |725|  ; [KEEP 32-BIT INS]
    1119 0000004e 1A40              SUBS      A1, A1, A2            ; [DPU_3_PIPE] |725|  ; [ORIG 16-BIT INS]
    1120 00000050 3808              SUBS      A1, A1, #8            ; [DPU_3_PIPE] |725|  ; [ORIG 16-BIT INS]
    1121 00000052 B280              UXTH      A1, A1                ; [DPU_3_PIPE] |725|  ; [ORIG 16-BIT INS]
    1122 00000054 2808              CMP       A1, #8                ; [DPU_3_PIPE] |725|  ; [ORIG 16-BIT INS]
    1123 00000056 DADD              BGE       ||$C$L14||            ; [DPU_3_PIPE] |725|  ; [ORIG 16-BIT INS]
    1124                            ; BRANCHCC OCCURS {||$C$L14||}   ; [] |725| 
    1125                    ;* --------------------------------------------------------------------------*
    1126 00000058           ||$C$L16||:    
    1127                            .dwpsn  file "../Application/Services/nvocop.c",line 729,column 3,is_stmt,isa 1
    1128 00000058 2000              MOVS      A1, #0                ; [DPU_3_PIPE] |729|  ; [ORIG 16-BIT INS]
    1129                    ;* --------------------------------------------------------------------------*
    1130 0000005a           ||$C$L17||:    
    1131 0000005a B003              ADD       SP, SP, #12           ; [DPU_3_PIPE]  ; [ORIG 16-BIT INS]
    1132                            .dwcfi  cfa_offset, 20
    1133 0000005c 4090E8BD          POP       {V1, V4, LR}          ; [DPU_3_PIPE]  ; [KEEP 32-BIT INS]
    1134                            .dwcfi  cfa_offset, 8
    1135                            .dwcfi  restore_reg, 14
    1136                            .dwcfi  restore_reg, 7
    1137                            .dwcfi  restore_reg, 4
    1138 00000060 B002              ADD       SP, SP, #8            ; [DPU_3_PIPE]  ; [ORIG 16-BIT INS]
    1139                            .dwcfi  cfa_offset, 0
    1140                    $C$DW$83        .dwtag  DW_TAG_TI_branch
    1141                            .dwattr $C$DW$83, DW_AT_low_pc(0x00)
    1142                            .dwattr $C$DW$83, DW_AT_TI_return
    1143                    
    1144 00000062 4770              BX        LR                    ; [DPU_3_PIPE]  ; [ORIG 16-BIT INS]
    1145                            ; BRANCH OCCURS                  ; [] 
    1146                            .dwattr $C$DW$78, DW_AT_TI_end_file("../Application/Services/nvocop.c")
    1147                            .dwattr $C$DW$78, DW_AT_TI_end_line(0x2da)
    1148                            .dwattr $C$DW$78, DW_AT_TI_end_column(0x01)
    1149                            .dwendentry
    1150                            .dwendtag $C$DW$78
    1151                    
    1152 00000000                   .sect   ".text:erasePage"
    1153                            .clink
    1154                            .thumbfunc erasePage
    1155 00000000                   .thumb
TI ARM Assembler PC v16.9.4 Sat Nov 18 18:46:31 2017

Tools Copyright (c) 1996-2017 Texas Instruments Incorporated
C:\Users\Kevin\AppData\Local\Temp\{6C42DDD5-7C92-479C-8F05-55537E4479EC} PAGE   22

    1156                    
    1157                    $C$DW$84        .dwtag  DW_TAG_subprogram
    1158                            .dwattr $C$DW$84, DW_AT_name("erasePage")
    1159                            .dwattr $C$DW$84, DW_AT_low_pc(erasePage)
    1160                            .dwattr $C$DW$84, DW_AT_high_pc(0x00)
    1161                            .dwattr $C$DW$84, DW_AT_TI_symbol_name("erasePage")
    1162                            .dwattr $C$DW$84, DW_AT_TI_begin_file("../Application/Services/nvocop.c")
    1163                            .dwattr $C$DW$84, DW_AT_TI_begin_line(0x22b)
    1164                            .dwattr $C$DW$84, DW_AT_TI_begin_column(0x0d)
    1165                            .dwattr $C$DW$84, DW_AT_decl_file("../Application/Services/nvocop.c")
    1166                            .dwattr $C$DW$84, DW_AT_decl_line(0x22b)
    1167                            .dwattr $C$DW$84, DW_AT_decl_column(0x0d)
    1168                            .dwattr $C$DW$84, DW_AT_TI_max_frame_size(0x18)
    1169                            .dwpsn  file "../Application/Services/nvocop.c",line 556,column 1,is_stmt,address erasePage,is
    1170                    
    1171                            .dwfde $C$DW$CIE, erasePage
    1172                    
    1173                    ;*****************************************************************************
    1174                    ;* FUNCTION NAME: erasePage                                                  *
    1175                    ;*                                                                           *
    1176                    ;*   Regs Modified     : A1,A2,A3,A4,V1,V2,V3,V4,V9,SP,LR,SR                 *
    1177                    ;*   Regs Used         : A1,A2,A3,A4,V1,V2,V3,V4,V9,SP,LR,SR                 *
    1178                    ;*   Local Frame Size  : 0 Args + 0 Auto + 20 Save = 20 byte                 *
    1179                    ;*****************************************************************************
    1180                    erasePage:
    1181                    ;* --------------------------------------------------------------------------*
    1182                    ;* A1    assigned to $O$C1
    1183                    ;* V1    assigned to $O$C2
    1184                    ;* V1    assigned to $O$K15
    1185                    ;* A1    assigned to $O$v1
    1186                    ;* V2    assigned to cs
    1187                    $C$DW$85        .dwtag  DW_TAG_variable
    1188                            .dwattr $C$DW$85, DW_AT_name("cs")
    1189                            .dwattr $C$DW$85, DW_AT_TI_symbol_name("cs")
    1190                            .dwattr $C$DW$85, DW_AT_type(*$C$DW$T$294)
    1191                            .dwattr $C$DW$85, DW_AT_location[DW_OP_reg5]
    1192                    
    1193                    ;* V3    assigned to state
    1194                    $C$DW$86        .dwtag  DW_TAG_variable
    1195                            .dwattr $C$DW$86, DW_AT_name("state")
    1196                            .dwattr $C$DW$86, DW_AT_TI_symbol_name("state")
    1197                            .dwattr $C$DW$86, DW_AT_type(*$C$DW$T$10)
    1198                            .dwattr $C$DW$86, DW_AT_location[DW_OP_reg6]
    1199                    
    1200                    ;* V4    assigned to err
    1201                    $C$DW$87        .dwtag  DW_TAG_variable
    1202                            .dwattr $C$DW$87, DW_AT_name("err")
    1203                            .dwattr $C$DW$87, DW_AT_TI_symbol_name("err")
    1204                            .dwattr $C$DW$87, DW_AT_type(*$C$DW$T$21)
    1205                            .dwattr $C$DW$87, DW_AT_location[DW_OP_reg7]
    1206                    
    1207                            .dwcfi  cfa_offset, 0
    1208                            .dwpsn  file "../Application/Services/nvocop.c",line 569,column 5,is_stmt,isa 1
    1209 00000000 4811              LDR       A1, $C$CON17          ; [DPU_3_PIPE] |569|  ; [ORIG 16-BIT INS]
    1210 00000002 B5F8              PUSH      {A4, V1, V2, V3, V4, LR} ; [DPU_3_PIPE]  ; [ORIG 16-BIT INS]
TI ARM Assembler PC v16.9.4 Sat Nov 18 18:46:31 2017

Tools Copyright (c) 1996-2017 Texas Instruments Incorporated
C:\Users\Kevin\AppData\Local\Temp\{6C42DDD5-7C92-479C-8F05-55537E4479EC} PAGE   23

    1211                            .dwcfi  cfa_offset, 24
    1212                            .dwcfi  save_reg_to_mem, 14, -4
    1213                            .dwcfi  save_reg_to_mem, 7, -8
    1214                            .dwcfi  save_reg_to_mem, 6, -12
    1215                            .dwcfi  save_reg_to_mem, 5, -16
    1216                            .dwcfi  save_reg_to_mem, 4, -20
    1217                            .dwcfi  save_reg_to_mem, 3, -24
    1218 00000004 6800              LDR       A1, [A1, #0]          ; [DPU_3_PIPE] |569|  ; [ORIG 16-BIT INS]
    1219                    $C$DW$88        .dwtag  DW_TAG_TI_branch
    1220                            .dwattr $C$DW$88, DW_AT_low_pc(0x00)
    1221                            .dwattr $C$DW$88, DW_AT_TI_call
    1222                            .dwattr $C$DW$88, DW_AT_TI_indirect
    1223                    
    1224 00000006 4780              BLX       A1                    ; [DPU_3_PIPE] |569|  ; [ORIG 16-BIT INS]
    1225                            ; CALL OCCURS {}                 ; [] |569| 
    1226 00000008 4605              MOV       V2, A1                ; [DPU_3_PIPE] |569|  ; [ORIG 16-BIT INS]
    1227                            .dwpsn  file "../Application/Services/nvocop.c",line 572,column 5,is_stmt,isa 1
    1228                    $C$DW$89        .dwtag  DW_TAG_TI_branch
    1229                            .dwattr $C$DW$89, DW_AT_low_pc(0x00)
    1230                            .dwattr $C$DW$89, DW_AT_name("disableCache")
    1231                            .dwattr $C$DW$89, DW_AT_TI_call
    1232                    
    1233 0000000a FFFEF7FF!         BL        disableCache          ; [DPU_3_PIPE] |572|  ; [KEEP 32-BIT INS]
    1234                            ; CALL OCCURS {disableCache }    ; [] |572| 
    1235 0000000e 4606              MOV       V3, A1                ; [DPU_3_PIPE] |572|  ; [ORIG 16-BIT INS]
    1236                            .dwpsn  file "../Application/Services/nvocop.c",line 574,column 5,is_stmt,isa 1
    1237 00000010 480B              LDR       A1, $C$CON14          ; [DPU_3_PIPE] |574|  ; [ORIG 16-BIT INS]
    1238 00000012 2100              MOVS      A2, #0                ; [DPU_3_PIPE] |574|  ; [ORIG 16-BIT INS]
    1239 00000014 0B00              LSRS      A1, A1, #12           ; [DPU_3_PIPE] |574|  ; [ORIG 16-BIT INS]
    1240 00000016 B2C0              UXTB      A1, A1                ; [DPU_3_PIPE] |574|  ; [ORIG 16-BIT INS]
    1241                    $C$DW$90        .dwtag  DW_TAG_TI_branch
    1242                            .dwattr $C$DW$90, DW_AT_low_pc(0x00)
    1243                            .dwattr $C$DW$90, DW_AT_name("HalFlashGetAddress")
    1244                            .dwattr $C$DW$90, DW_AT_TI_call
    1245                    
    1246 00000018 FFFEF7FF!         BL        HalFlashGetAddress    ; [DPU_3_PIPE] |574|  ; [KEEP 32-BIT INS]
    1247                            ; CALL OCCURS {HalFlashGetAddress }  ; [] |574| 
    1248 0000001c 4C09              LDR       V1, $C$CON15          ; [DPU_3_PIPE] |574|  ; [ORIG 16-BIT INS]
    1249 0000001e 6060              STR       A1, [V1, #4]          ; [DPU_3_PIPE] |574|  ; [ORIG 16-BIT INS]
    1250                            .dwpsn  file "../Application/Services/nvocop.c",line 577,column 5,is_stmt,isa 1
    1251                    $C$DW$91        .dwtag  DW_TAG_TI_branch
    1252                            .dwattr $C$DW$91, DW_AT_low_pc(0x00)
    1253                            .dwattr $C$DW$91, DW_AT_name("NOROM_FlashSectorErase")
    1254                            .dwattr $C$DW$91, DW_AT_TI_call
    1255                    
    1256 00000020 FFFEF7FF!         BL        NOROM_FlashSectorErase ; [DPU_3_PIPE] |577|  ; [KEEP 32-BIT INS]
    1257                            ; CALL OCCURS {NOROM_FlashSectorErase }  ; [] |577| 
    1258 00000024 4607              MOV       V4, A1                ; [DPU_3_PIPE] |577|  ; [ORIG 16-BIT INS]
    1259                            .dwpsn  file "../Application/Services/nvocop.c",line 580,column 5,is_stmt,isa 1
    1260 00000026 4630              MOV       A1, V3                ; [DPU_3_PIPE] |580|  ; [ORIG 16-BIT INS]
    1261                    $C$DW$92        .dwtag  DW_TAG_TI_branch
    1262                            .dwattr $C$DW$92, DW_AT_low_pc(0x00)
    1263                            .dwattr $C$DW$92, DW_AT_name("enableCache")
    1264                            .dwattr $C$DW$92, DW_AT_TI_call
    1265                    
TI ARM Assembler PC v16.9.4 Sat Nov 18 18:46:31 2017

Tools Copyright (c) 1996-2017 Texas Instruments Incorporated
C:\Users\Kevin\AppData\Local\Temp\{6C42DDD5-7C92-479C-8F05-55537E4479EC} PAGE   24

    1266 00000028 FFFEF7FF!         BL        enableCache           ; [DPU_3_PIPE] |580|  ; [KEEP 32-BIT INS]
    1267                            ; CALL OCCURS {enableCache }     ; [] |580| 
    1268 0000002c B117              CBZ       V4, ||$C$L18||        ; []  ; [ORIG 16-BIT INS]
    1269                            .dwpsn  file "../Application/Services/nvocop.c",line 583,column 5,is_stmt,isa 1
    1270                            ; BRANCHCC OCCURS {||$C$L18||}   ; [] |583| 
    1271                    ;* --------------------------------------------------------------------------*
    1272                            .dwpsn  file "../Application/Services/nvocop.c",line 585,column 7,is_stmt,isa 1
    1273 0000002e 2001              MOVS      A1, #1                ; [DPU_3_PIPE] |585|  ; [ORIG 16-BIT INS]
    1274 00000030 7060              STRB      A1, [V1, #1]          ; [DPU_3_PIPE] |585|  ; [ORIG 16-BIT INS]
    1275 00000032 7020              STRB      A1, [V1, #0]          ; [DPU_3_PIPE] |585|  ; [ORIG 16-BIT INS]
    1276                    ;* --------------------------------------------------------------------------*
    1277 00000034           ||$C$L18||:    
    1278                            .dwpsn  file "../Application/Services/nvocop.c",line 588,column 5,is_stmt,isa 1
    1279 00000034 4805              LDR       A1, $C$CON18          ; [DPU_3_PIPE] |588|  ; [ORIG 16-BIT INS]
    1280 00000036 6801              LDR       A2, [A1, #0]          ; [DPU_3_PIPE] |588|  ; [ORIG 16-BIT INS]
    1281 00000038 4628              MOV       A1, V2                ; [DPU_3_PIPE] |588|  ; [ORIG 16-BIT INS]
    1282                    $C$DW$93        .dwtag  DW_TAG_TI_branch
    1283                            .dwattr $C$DW$93, DW_AT_low_pc(0x00)
    1284                            .dwattr $C$DW$93, DW_AT_TI_call
    1285                            .dwattr $C$DW$93, DW_AT_TI_indirect
    1286                    
    1287 0000003a 4788              BLX       A2                    ; [DPU_3_PIPE] |588|  ; [ORIG 16-BIT INS]
    1288                            ; CALL OCCURS {}                 ; [] |588| 
    1289                    $C$DW$94        .dwtag  DW_TAG_TI_branch
    1290                            .dwattr $C$DW$94, DW_AT_low_pc(0x00)
    1291                            .dwattr $C$DW$94, DW_AT_TI_return
    1292                    
    1293 0000003c BDF8              POP       {A4, V1, V2, V3, V4, PC} ; [DPU_3_PIPE]  ; [ORIG 16-BIT INS]
    1294                            .dwcfi  cfa_offset, 0
    1295                            ; BRANCH OCCURS                  ; [] 
    1296                            .dwattr $C$DW$84, DW_AT_TI_end_file("../Application/Services/nvocop.c")
    1297                            .dwattr $C$DW$84, DW_AT_TI_end_line(0x24e)
    1298                            .dwattr $C$DW$84, DW_AT_TI_end_column(0x01)
    1299                            .dwendentry
    1300                            .dwendtag $C$DW$84
    1301                    
    1302 00000000                   .sect   ".text:setActivePage"
    1303                            .clink
    1304                            .thumbfunc setActivePage
    1305 00000000                   .thumb
    1306                    
    1307                    $C$DW$95        .dwtag  DW_TAG_subprogram
    1308                            .dwattr $C$DW$95, DW_AT_name("setActivePage")
    1309                            .dwattr $C$DW$95, DW_AT_low_pc(setActivePage)
    1310                            .dwattr $C$DW$95, DW_AT_high_pc(0x00)
    1311                            .dwattr $C$DW$95, DW_AT_TI_symbol_name("setActivePage")
    1312                            .dwattr $C$DW$95, DW_AT_TI_begin_file("../Application/Services/nvocop.c")
    1313                            .dwattr $C$DW$95, DW_AT_TI_begin_line(0x205)
    1314                            .dwattr $C$DW$95, DW_AT_TI_begin_column(0x0d)
    1315                            .dwattr $C$DW$95, DW_AT_decl_file("../Application/Services/nvocop.c")
    1316                            .dwattr $C$DW$95, DW_AT_decl_line(0x205)
    1317                            .dwattr $C$DW$95, DW_AT_decl_column(0x0d)
    1318                            .dwattr $C$DW$95, DW_AT_TI_max_frame_size(0x08)
    1319                            .dwpsn  file "../Application/Services/nvocop.c",line 518,column 1,is_stmt,address setActivePag
    1320                    
TI ARM Assembler PC v16.9.4 Sat Nov 18 18:46:31 2017

Tools Copyright (c) 1996-2017 Texas Instruments Incorporated
C:\Users\Kevin\AppData\Local\Temp\{6C42DDD5-7C92-479C-8F05-55537E4479EC} PAGE   25

    1321                            .dwfde $C$DW$CIE, setActivePage
    1322                    
    1323                    ;*****************************************************************************
    1324                    ;* FUNCTION NAME: setActivePage                                              *
    1325                    ;*                                                                           *
    1326                    ;*   Regs Modified     : A1,A2,A3,A4,V9,SP,LR,SR                             *
    1327                    ;*   Regs Used         : A1,A2,A3,A4,V9,SP,LR,SR                             *
    1328                    ;*   Local Frame Size  : 0 Args + 4 Auto + 4 Save = 8 byte                   *
    1329                    ;*****************************************************************************
    1330                    setActivePage:
    1331                    ;* --------------------------------------------------------------------------*
    1332                    $C$DW$96        .dwtag  DW_TAG_variable
    1333                            .dwattr $C$DW$96, DW_AT_name("pgHdr")
    1334                            .dwattr $C$DW$96, DW_AT_TI_symbol_name("pgHdr")
    1335                            .dwattr $C$DW$96, DW_AT_type(*$C$DW$T$210)
    1336                            .dwattr $C$DW$96, DW_AT_location[DW_OP_breg13 0]
    1337                    
    1338                            .dwcfi  cfa_offset, 0
    1339 00000000 B508              PUSH      {A4, LR}              ; [DPU_3_PIPE]  ; [ORIG 16-BIT INS]
    1340                            .dwcfi  cfa_offset, 8
    1341                            .dwcfi  save_reg_to_mem, 14, -4
    1342                            .dwcfi  save_reg_to_mem, 3, -8
    1343                            .dwpsn  file "../Application/Services/nvocop.c",line 521,column 3,is_stmt,isa 1
    1344 00000002 1080F44F          MOV       A1, #1048576          ; [DPU_3_PIPE] |521|  ; [KEEP 32-BIT INS]
    1345                            .dwpsn  file "../Application/Services/nvocop.c",line 523,column 3,is_stmt,isa 1
    1346 00000006 2201              MOVS      A3, #1                ; [DPU_3_PIPE] |523|  ; [ORIG 16-BIT INS]
    1347 00000008 4669              MOV       A2, SP                ; [DPU_3_PIPE] |523|  ; [ORIG 16-BIT INS]
    1348                            .dwpsn  file "../Application/Services/nvocop.c",line 521,column 3,is_stmt,isa 1
    1349 0000000a 9000              STR       A1, [SP, #0]          ; [DPU_3_PIPE] |521|  ; [ORIG 16-BIT INS]
    1350                            .dwpsn  file "../Application/Services/nvocop.c",line 523,column 3,is_stmt,isa 1
    1351 0000000c 2000              MOVS      A1, #0                ; [DPU_3_PIPE] |523|  ; [ORIG 16-BIT INS]
    1352                    $C$DW$97        .dwtag  DW_TAG_TI_branch
    1353                            .dwattr $C$DW$97, DW_AT_low_pc(0x00)
    1354                            .dwattr $C$DW$97, DW_AT_name("writeWord")
    1355                            .dwattr $C$DW$97, DW_AT_TI_call
    1356                    
    1357 0000000e FFFEF7FF!         BL        writeWord             ; [DPU_3_PIPE] |523|  ; [KEEP 32-BIT INS]
    1358                            ; CALL OCCURS {writeWord }       ; [] |523| 
    1359                    $C$DW$98        .dwtag  DW_TAG_TI_branch
    1360                            .dwattr $C$DW$98, DW_AT_low_pc(0x00)
    1361                            .dwattr $C$DW$98, DW_AT_TI_return
    1362                    
    1363 00000012 BD08              POP       {A4, PC}              ; [DPU_3_PIPE]  ; [ORIG 16-BIT INS]
    1364                            .dwcfi  cfa_offset, 0
    1365                            ; BRANCH OCCURS                  ; [] 
    1366                            .dwattr $C$DW$95, DW_AT_TI_end_file("../Application/Services/nvocop.c")
    1367                            .dwattr $C$DW$95, DW_AT_TI_end_line(0x20c)
    1368                            .dwattr $C$DW$95, DW_AT_TI_end_column(0x01)
    1369                            .dwendentry
    1370                            .dwendtag $C$DW$95
    1371                    
    1372 00000000                   .sect   ".text:compactPage"
    1373                            .clink
    1374                            .thumbfunc compactPage
    1375 00000000                   .thumb
TI ARM Assembler PC v16.9.4 Sat Nov 18 18:46:31 2017

Tools Copyright (c) 1996-2017 Texas Instruments Incorporated
C:\Users\Kevin\AppData\Local\Temp\{6C42DDD5-7C92-479C-8F05-55537E4479EC} PAGE   26

    1376                    
    1377                    $C$DW$99        .dwtag  DW_TAG_subprogram
    1378                            .dwattr $C$DW$99, DW_AT_name("compactPage")
    1379                            .dwattr $C$DW$99, DW_AT_low_pc(compactPage)
    1380                            .dwattr $C$DW$99, DW_AT_high_pc(0x00)
    1381                            .dwattr $C$DW$99, DW_AT_TI_symbol_name("compactPage")
    1382                            .dwattr $C$DW$99, DW_AT_type(*$C$DW$T$19)
    1383                            .dwattr $C$DW$99, DW_AT_TI_begin_file("../Application/Services/nvocop.c")
    1384                            .dwattr $C$DW$99, DW_AT_TI_begin_line(0x320)
    1385                            .dwattr $C$DW$99, DW_AT_TI_begin_column(0x0f)
    1386                            .dwattr $C$DW$99, DW_AT_decl_file("../Application/Services/nvocop.c")
    1387                            .dwattr $C$DW$99, DW_AT_decl_line(0x320)
    1388                            .dwattr $C$DW$99, DW_AT_decl_column(0x0f)
    1389                            .dwattr $C$DW$99, DW_AT_TI_max_frame_size(0x38)
    1390                            .dwpsn  file "../Application/Services/nvocop.c",line 801,column 1,is_stmt,address compactPage,
    1391                    
    1392                            .dwfde $C$DW$CIE, compactPage
    1393                    
    1394                    ;*****************************************************************************
    1395                    ;* FUNCTION NAME: compactPage                                                *
    1396                    ;*                                                                           *
    1397                    ;*   Regs Modified     : A1,A2,A3,A4,V1,V2,V3,V4,V5,V6,V7,V8,V9,SP,LR,SR     *
    1398                    ;*   Regs Used         : A1,A2,A3,A4,V1,V2,V3,V4,V5,V6,V7,V8,V9,SP,LR,SR     *
    1399                    ;*   Local Frame Size  : 0 Args + 20 Auto + 36 Save = 56 byte                *
    1400                    ;*****************************************************************************
    1401                    compactPage:
    1402                    ;* --------------------------------------------------------------------------*
    1403                    $C$DW$100       .dwtag  DW_TAG_variable
    1404                            .dwattr $C$DW$100, DW_AT_name("lastId")
    1405                            .dwattr $C$DW$100, DW_AT_TI_symbol_name("lastId")
    1406                            .dwattr $C$DW$100, DW_AT_type(*$C$DW$T$166)
    1407                            .dwattr $C$DW$100, DW_AT_location[DW_OP_breg13 0]
    1408                    
    1409                    $C$DW$101       .dwtag  DW_TAG_variable
    1410                            .dwattr $C$DW$101, DW_AT_name("hdr")
    1411                            .dwattr $C$DW$101, DW_AT_TI_symbol_name("hdr")
    1412                            .dwattr $C$DW$101, DW_AT_type(*$C$DW$T$188)
    1413                            .dwattr $C$DW$101, DW_AT_location[DW_OP_breg13 8]
    1414                    
    1415                    ;* A4    assigned to $O$C16
    1416                    ;* V7    assigned to $O$C17
    1417                    ;* A1    assigned to $O$v1
    1418                    ;* A2    assigned to $O$v1
    1419                    ;* V6    assigned to $O$K38
    1420                    ;* A3    assigned to $O$K14
    1421                    ;* A3    assigned to $O$v7
    1422                    ;* V5    assigned to $O$v6
    1423                    ;* V3    assigned to $O$v5
    1424                    ;* V2    assigned to $O$v4
    1425                    ;* A1    assigned to $O$v3
    1426                    ;* A2    assigned to $O$v2
    1427                    $C$DW$102       .dwtag  DW_TAG_variable
    1428                            .dwattr $C$DW$102, DW_AT_name("state")
    1429                            .dwattr $C$DW$102, DW_AT_TI_symbol_name("state")
    1430                            .dwattr $C$DW$102, DW_AT_type(*$C$DW$T$10)
TI ARM Assembler PC v16.9.4 Sat Nov 18 18:46:31 2017

Tools Copyright (c) 1996-2017 Texas Instruments Incorporated
C:\Users\Kevin\AppData\Local\Temp\{6C42DDD5-7C92-479C-8F05-55537E4479EC} PAGE   27

    1431                            .dwattr $C$DW$102, DW_AT_location[DW_OP_breg13 16]
    1432                    
    1433                    ;* V1    assigned to srcOff
    1434                    $C$DW$103       .dwtag  DW_TAG_variable
    1435                            .dwattr $C$DW$103, DW_AT_name("srcOff")
    1436                            .dwattr $C$DW$103, DW_AT_TI_symbol_name("srcOff")
    1437                            .dwattr $C$DW$103, DW_AT_type(*$C$DW$T$19)
    1438                            .dwattr $C$DW$103, DW_AT_location[DW_OP_reg4]
    1439                    
    1440                    ;* V4    assigned to dstOff
    1441                    $C$DW$104       .dwtag  DW_TAG_variable
    1442                            .dwattr $C$DW$104, DW_AT_name("dstOff")
    1443                            .dwattr $C$DW$104, DW_AT_TI_symbol_name("dstOff")
    1444                            .dwattr $C$DW$104, DW_AT_type(*$C$DW$T$10)
    1445                            .dwattr $C$DW$104, DW_AT_location[DW_OP_reg7]
    1446                    
    1447                            .dwcfi  cfa_offset, 0
    1448 00000000 4FF0E92D          PUSH      {V1, V2, V3, V4, V5, V6, V7, V8, LR} ; [DPU_3_PIPE]  ; [KEEP 32-BIT INS]
    1449                            .dwcfi  cfa_offset, 36
    1450                            .dwcfi  save_reg_to_mem, 14, -4
    1451                            .dwcfi  save_reg_to_mem, 11, -8
    1452                            .dwcfi  save_reg_to_mem, 10, -12
    1453                            .dwcfi  save_reg_to_mem, 9, -16
    1454                            .dwcfi  save_reg_to_mem, 8, -20
    1455                            .dwcfi  save_reg_to_mem, 7, -24
    1456                            .dwcfi  save_reg_to_mem, 6, -28
    1457                            .dwcfi  save_reg_to_mem, 5, -32
    1458                            .dwcfi  save_reg_to_mem, 4, -36
    1459                            .dwpsn  file "../Application/Services/nvocop.c",line 809,column 3,is_stmt,isa 1
    1460 00000004 25FF              MOVS      V2, #255              ; [DPU_3_PIPE] |809|  ; [ORIG 16-BIT INS]
    1461 00000006 0D14F1AD          SUB       SP, SP, #20           ; [DPU_3_PIPE]  ; [KEEP 32-BIT INS]
    1462                            .dwcfi  cfa_offset, 56
    1463 0000000a 5000F88D          STRB      V2, [SP, #0]          ; [DPU_3_PIPE] |809|  ; [KEEP 32-BIT INS]
    1464                            .dwpsn  file "../Application/Services/nvocop.c",line 810,column 3,is_stmt,isa 1
    1465 0000000e 7AFFF64F          MOV       V7, #65535            ; [DPU_3_PIPE] |810|  ; [KEEP 32-BIT INS]
    1466 00000012 A002F8AD          STRH      V7, [SP, #2]          ; [DPU_3_PIPE] |810|  ; [KEEP 32-BIT INS]
    1467                            .dwpsn  file "../Application/Services/nvocop.c",line 811,column 3,is_stmt,isa 1
    1468 00000016 A004F8AD          STRH      V7, [SP, #4]          ; [DPU_3_PIPE] |811|  ; [KEEP 32-BIT INS]
    1469                            .dwpsn  file "../Application/Services/nvocop.c",line 818,column 3,is_stmt,isa 1
    1470                    $C$DW$105       .dwtag  DW_TAG_TI_branch
    1471                            .dwattr $C$DW$105, DW_AT_low_pc(0x00)
    1472                            .dwattr $C$DW$105, DW_AT_name("disableCache")
    1473                            .dwattr $C$DW$105, DW_AT_TI_call
    1474                    
    1475 0000001a FFFEF7FF!         BL        disableCache          ; [DPU_3_PIPE] |818|  ; [KEEP 32-BIT INS]
    1476                            ; CALL OCCURS {disableCache }    ; [] |818| 
    1477 0000001e 9004              STR       A1, [SP, #16]         ; [DPU_3_PIPE] |818|  ; [ORIG 16-BIT INS]
    1478                            .dwpsn  file "../Application/Services/nvocop.c",line 821,column 3,is_stmt,isa 1
    1479 00000020 4848              LDR       A1, $C$CON23          ; [DPU_3_PIPE] |821|  ; [ORIG 16-BIT INS]
    1480 00000022 1C80              ADDS      A1, A1, #2            ; [DPU_3_PIPE]  ; [ORIG 16-BIT INS]
    1481 00000024 8800              LDRH      A1, [A1, #0]          ; [DPU_3_PIPE] |821|  ; [ORIG 16-BIT INS]
    1482                            .dwpsn  file "../Application/Services/nvocop.c",line 815,column 3,is_stmt,isa 1
    1483 00000026 2700              MOVS      V4, #0                ; [DPU_3_PIPE] |815|  ; [ORIG 16-BIT INS]
    1484                            .dwpsn  file "../Application/Services/nvocop.c",line 821,column 3,is_stmt,isa 1
    1485 00000028 1F00              SUBS      A1, A1, #4            ; [DPU_3_PIPE] |821|  ; [ORIG 16-BIT INS]
TI ARM Assembler PC v16.9.4 Sat Nov 18 18:46:31 2017

Tools Copyright (c) 1996-2017 Texas Instruments Incorporated
C:\Users\Kevin\AppData\Local\Temp\{6C42DDD5-7C92-479C-8F05-55537E4479EC} PAGE   28

    1486 0000002a B284              UXTH      V1, A1                ; [DPU_3_PIPE] |821|  ; [ORIG 16-BIT INS]
    1487                            .dwpsn  file "../Application/Services/nvocop.c",line 823,column 10,is_stmt,isa 1
    1488 0000002c 2C08              CMP       V1, #8                ; [DPU_3_PIPE] |823|  ; [ORIG 16-BIT INS]
    1489 0000002e DB6A              BLT       ||$C$L30||            ; [DPU_3_PIPE] |823|  ; [ORIG 16-BIT INS]
    1490                            ; BRANCHCC OCCURS {||$C$L30||}   ; [] |823| 
    1491                    ;* --------------------------------------------------------------------------*
    1492                            .dwpsn  file "../Application/Services/nvocop.c",line 920,column 7,is_stmt,isa 1
    1493 00000030 4845              LDR       A1, $C$CON24          ; [DPU_3_PIPE] |920|  ; [ORIG 16-BIT INS]
    1494 00000032 4656              MOV       V3, V7                ; [DPU_3_PIPE]  ; [ORIG 16-BIT INS]
    1495 00000034 46B0              MOV       V5, V3                ; [DPU_3_PIPE]  ; [ORIG 16-BIT INS]
    1496 00000036 46C3              MOV       V8, V5                ; [DPU_3_PIPE]  ; [ORIG 16-BIT INS]
    1497 00000038 0B00              LSRS      A1, A1, #12           ; [DPU_3_PIPE]  ; [ORIG 16-BIT INS]
    1498 0000003a F980FA5F          UXTB      V6, A1                ; [DPU_3_PIPE]  ; [KEEP 32-BIT INS]
    1499                    ;* --------------------------------------------------------------------------*
    1500                    ;*   BEGIN LOOP ||$C$L19||
    1501                    ;*
    1502                    ;*   Loop source line                : 823
    1503                    ;*   Loop closing brace source line  : 910
    1504                    ;*   Known Minimum Trip Count        : 1
    1505                    ;*   Known Maximum Trip Count        : 4294967295
    1506                    ;*   Known Max Trip Count Factor     : 1
    1507                    ;* --------------------------------------------------------------------------*
    1508 0000003e           ||$C$L19||:    
    1509                            .dwpsn  file "../Application/Services/nvocop.c",line 827,column 5,is_stmt,isa 1
    1510 0000003e 1F21              SUBS      A2, V1, #4            ; [DPU_3_PIPE] |827|  ; [ORIG 16-BIT INS]
    1511 00000040 4648              MOV       A1, V6                ; [DPU_3_PIPE] |827|  ; [ORIG 16-BIT INS]
    1512 00000042 AA02              ADD       A3, SP, #8            ; [DPU_3_PIPE] |827|  ; [ORIG 16-BIT INS]
    1513 00000044 2308              MOVS      A4, #8                ; [DPU_3_PIPE] |827|  ; [ORIG 16-BIT INS]
    1514 00000046 B289              UXTH      A2, A2                ; [DPU_3_PIPE] |827|  ; [ORIG 16-BIT INS]
    1515                    $C$DW$106       .dwtag  DW_TAG_TI_branch
    1516                            .dwattr $C$DW$106, DW_AT_low_pc(0x00)
    1517                            .dwattr $C$DW$106, DW_AT_name("HalFlashRead")
    1518                            .dwattr $C$DW$106, DW_AT_TI_call
    1519                    
    1520 00000048 FFFEF7FF!         BL        HalFlashRead          ; [DPU_3_PIPE] |827|  ; [KEEP 32-BIT INS]
    1521                            ; CALL OCCURS {HalFlashRead }    ; [] |827| 
    1522                            .dwpsn  file "../Application/Services/nvocop.c",line 833,column 5,is_stmt,isa 1
    1523 0000004c 0008F8BD          LDRH      A1, [SP, #8]          ; [DPU_3_PIPE] |833|  ; [KEEP 32-BIT INS]
    1524 00000050 4582              CMP       V7, A1                ; [DPU_3_PIPE] |833|  ; [ORIG 16-BIT INS]
    1525 00000052 D108              BNE       ||$C$L20||            ; [DPU_3_PIPE] |833|  ; [ORIG 16-BIT INS]
    1526                            ; BRANCHCC OCCURS {||$C$L20||}   ; [] |833| 
    1527                    ;* --------------------------------------------------------------------------*
    1528 00000054 100AF8BD          LDRH      A2, [SP, #10]         ; [DPU_3_PIPE] |833|  ; [KEEP 32-BIT INS]
    1529 00000058 458A              CMP       V7, A2                ; [DPU_3_PIPE] |833|  ; [ORIG 16-BIT INS]
    1530 0000005a D106              BNE       ||$C$L21||            ; [DPU_3_PIPE] |833|  ; [ORIG 16-BIT INS]
    1531                            ; BRANCHCC OCCURS {||$C$L21||}   ; [] |833| 
    1532                    ;* --------------------------------------------------------------------------*
    1533 0000005c 200CF8BD          LDRH      A3, [SP, #12]         ; [DPU_3_PIPE] |833|  ; [KEEP 32-BIT INS]
    1534 00000060 4593              CMP       V8, A3                ; [DPU_3_PIPE] |833|  ; [ORIG 16-BIT INS]
    1535 00000062 D102              BNE       ||$C$L21||            ; [DPU_3_PIPE] |833|  ; [ORIG 16-BIT INS]
    1536                            ; BRANCHCC OCCURS {||$C$L21||}   ; [] |833| 
    1537                    ;* --------------------------------------------------------------------------*
    1538 00000064 E007              B         ||$C$L22||            ; [DPU_3_PIPE] |833|  ; [ORIG 16-BIT INS]
    1539                            ; BRANCH OCCURS {||$C$L22||}     ; [] |833| 
    1540                    ;* --------------------------------------------------------------------------*
TI ARM Assembler PC v16.9.4 Sat Nov 18 18:46:31 2017

Tools Copyright (c) 1996-2017 Texas Instruments Incorporated
C:\Users\Kevin\AppData\Local\Temp\{6C42DDD5-7C92-479C-8F05-55537E4479EC} PAGE   29

    1541 00000066           ||$C$L20||:    
    1542 00000066 100AF8BD          LDRH      A2, [SP, #10]         ; [DPU_3_PIPE]  ; [KEEP 32-BIT INS]
    1543                    ;* --------------------------------------------------------------------------*
    1544 0000006a           ||$C$L21||:    
    1545 0000006a 0300EA51          ORRS      A4, A2, A1            ; [DPU_3_PIPE] |833|  ; [KEEP 32-BIT INS]
    1546 0000006e D117              BNE       ||$C$L25||            ; [DPU_3_PIPE] |833|  ; [ORIG 16-BIT INS]
    1547                            ; BRANCHCC OCCURS {||$C$L25||}   ; [] |833| 
    1548                    ;* --------------------------------------------------------------------------*
    1549 00000070 300CF8BD          LDRH      A4, [SP, #12]         ; [DPU_3_PIPE] |833|  ; [KEEP 32-BIT INS]
    1550 00000074 B9A3              CBNZ      A4, ||$C$L25||        ; []  ; [ORIG 16-BIT INS]
    1551                            ; BRANCHCC OCCURS {||$C$L25||}   ; [] |833| 
    1552                    ;* --------------------------------------------------------------------------*
    1553 00000076           ||$C$L22||:    
    1554                            .dwpsn  file "../Application/Services/nvocop.c",line 839,column 7,is_stmt,isa 1
    1555 00000076 100EF8BD          LDRH      A2, [SP, #14]         ; [DPU_3_PIPE] |839|  ; [KEEP 32-BIT INS]
    1556 0000007a 4608              MOV       A1, A2                ; [DPU_3_PIPE] |839|  ; [ORIG 16-BIT INS]
    1557 0000007c 000EF36F          BFC       A1, #0, #15           ; [DPU_3_PIPE] |839|  ; [KEEP 32-BIT INS]
    1558 00000080 B960              CBNZ      A1, ||$C$L24||        ; []  ; [ORIG 16-BIT INS]
    1559                            ; BRANCHCC OCCURS {||$C$L24||}   ; [] |839| 
    1560                    ;* --------------------------------------------------------------------------*
    1561                            .dwpsn  file "../Application/Services/nvocop.c",line 845,column 9,is_stmt,isa 1
    1562 00000082 4608              MOV       A1, A2                ; [DPU_3_PIPE] |845|  ; [ORIG 16-BIT INS]
    1563 00000084 3008              ADDS      A1, A1, #8            ; [DPU_3_PIPE] |845|  ; [ORIG 16-BIT INS]
    1564 00000086 4284              CMP       V1, A1                ; [DPU_3_PIPE] |845|  ; [ORIG 16-BIT INS]
    1565 00000088 DA06              BGE       ||$C$L23||            ; [DPU_3_PIPE] |845|  ; [ORIG 16-BIT INS]
    1566                            ; BRANCHCC OCCURS {||$C$L23||}   ; [] |845| 
    1567                    ;* --------------------------------------------------------------------------*
    1568                            .dwpsn  file "../Application/Services/nvocop.c",line 865,column 11,is_stmt,isa 1
    1569                    $C$DW$107       .dwtag  DW_TAG_TI_branch
    1570                            .dwattr $C$DW$107, DW_AT_low_pc(0x00)
    1571                            .dwattr $C$DW$107, DW_AT_name("HAL_APPASRT_callAssrtHanlder")
    1572                            .dwattr $C$DW$107, DW_AT_TI_call
    1573                    
    1574 0000008a FFFEF7FF!         BL        HAL_APPASRT_callAssrtHanlder ; [DPU_3_PIPE] |865|  ; [KEEP 32-BIT INS]
    1575                            ; CALL OCCURS {HAL_APPASRT_callAssrtHanlder }  ; [] |865| 
    1576 0000008e 9804              LDR       A1, [SP, #16]         ; [DPU_3_PIPE] |865|  ; [ORIG 16-BIT INS]
    1577                            .dwpsn  file "../Application/Services/nvocop.c",line 868,column 11,is_stmt,isa 1
    1578                    $C$DW$108       .dwtag  DW_TAG_TI_branch
    1579                            .dwattr $C$DW$108, DW_AT_low_pc(0x00)
    1580                            .dwattr $C$DW$108, DW_AT_name("enableCache")
    1581                            .dwattr $C$DW$108, DW_AT_TI_call
    1582                    
    1583 00000090 FFFEF7FF!         BL        enableCache           ; [DPU_3_PIPE] |868|  ; [KEEP 32-BIT INS]
    1584                            ; CALL OCCURS {enableCache }     ; [] |868| 
    1585                            .dwpsn  file "../Application/Services/nvocop.c",line 870,column 11,is_stmt,isa 1
    1586 00000094 2000              MOVS      A1, #0                ; [DPU_3_PIPE] |870|  ; [ORIG 16-BIT INS]
    1587 00000096 E051              B         ||$C$L33||            ; [DPU_3_PIPE] |870|  ; [ORIG 16-BIT INS]
    1588                            ; BRANCH OCCURS {||$C$L33||}     ; [] |870| 
    1589                    ;* --------------------------------------------------------------------------*
    1590 00000098           ||$C$L23||:    
    1591 00000098 4608              MOV       A1, A2                ; [DPU_3_PIPE]  ; [ORIG 16-BIT INS]
    1592                            .dwpsn  file "../Application/Services/nvocop.c",line 848,column 9,is_stmt,isa 1
    1593 0000009a E02F              B         ||$C$L28||            ; [DPU_3_PIPE] |848|  ; [ORIG 16-BIT INS]
    1594                            ; BRANCH OCCURS {||$C$L28||}     ; [] |848| 
    1595                    ;* --------------------------------------------------------------------------*
TI ARM Assembler PC v16.9.4 Sat Nov 18 18:46:31 2017

Tools Copyright (c) 1996-2017 Texas Instruments Incorporated
C:\Users\Kevin\AppData\Local\Temp\{6C42DDD5-7C92-479C-8F05-55537E4479EC} PAGE   30

    1596 0000009c           ||$C$L24||:    
    1597                            .dwpsn  file "../Application/Services/nvocop.c",line 841,column 9,is_stmt,isa 1
    1598 0000009c 1F24              SUBS      V1, V1, #4            ; [DPU_3_PIPE] |841|  ; [ORIG 16-BIT INS]
    1599                            .dwpsn  file "../Application/Services/nvocop.c",line 842,column 7,is_stmt,isa 1
    1600 0000009e E02F              B         ||$C$L29||            ; [DPU_3_PIPE] |842|  ; [ORIG 16-BIT INS]
    1601                            ; BRANCH OCCURS {||$C$L29||}     ; [] |842| 
    1602                    ;* --------------------------------------------------------------------------*
    1603 000000a0           ||$C$L25||:    
    1604                            .dwpsn  file "../Application/Services/nvocop.c",line 881,column 5,is_stmt,isa 1
    1605 000000a0 0BC2              LSRS      A3, A1, #15           ; [DPU_3_PIPE] |881|  ; [ORIG 16-BIT INS]
    1606 000000a2 03D3              LSLS      A4, A3, #15           ; [DPU_3_PIPE] |881|  ; [ORIG 16-BIT INS]
    1607 000000a4 D128              BNE       ||$C$L27||            ; [DPU_3_PIPE] |881|  ; [ORIG 16-BIT INS]
    1608                            ; BRANCHCC OCCURS {||$C$L27||}   ; [] |881| 
    1609                    ;* --------------------------------------------------------------------------*
    1610 000000a6 200CF8BD          LDRH      A3, [SP, #12]         ; [DPU_3_PIPE] |881|  ; [KEEP 32-BIT INS]
    1611 000000aa 4285              CMP       V2, A1                ; [DPU_3_PIPE] |881|  ; [ORIG 16-BIT INS]
    1612 000000ac D103              BNE       ||$C$L26||            ; [DPU_3_PIPE] |881|  ; [ORIG 16-BIT INS]
    1613                            ; BRANCHCC OCCURS {||$C$L26||}   ; [] |881| 
    1614                    ;* --------------------------------------------------------------------------*
    1615 000000ae 428E              CMP       V3, A2                ; [DPU_3_PIPE] |881|  ; [ORIG 16-BIT INS]
    1616 000000b0 BF08              IT        EQ                    ; [DPU_3_PIPE]  ; [ORIG 16-BIT INS]
    1617 000000b2 4590              CMPEQ     V5, A3                ; [DPU_3_PIPE] |881|  ; [ORIG 16-BIT INS]
    1618 000000b4 D020              BEQ       ||$C$L27||            ; [DPU_3_PIPE] |881|  ; [ORIG 16-BIT INS]
    1619                            ; BRANCHCC OCCURS {||$C$L27||}   ; [] |881| 
    1620                    ;* --------------------------------------------------------------------------*
    1621 000000b6           ||$C$L26||:    
    1622                            .dwpsn  file "../Application/Services/nvocop.c",line 891,column 7,is_stmt,isa 1
    1623 000000b6 B2C5              UXTB      V2, A1                ; [DPU_3_PIPE] |891|  ; [ORIG 16-BIT INS]
    1624 000000b8 5000F88D          STRB      V2, [SP, #0]          ; [DPU_3_PIPE] |891|  ; [KEEP 32-BIT INS]
    1625                            .dwpsn  file "../Application/Services/nvocop.c",line 892,column 7,is_stmt,isa 1
    1626 000000bc 460E              MOV       V3, A2                ; [DPU_3_PIPE] |892|  ; [ORIG 16-BIT INS]
    1627 000000be 6002F8AD          STRH      V3, [SP, #2]          ; [DPU_3_PIPE] |892|  ; [KEEP 32-BIT INS]
    1628                            .dwpsn  file "../Application/Services/nvocop.c",line 893,column 7,is_stmt,isa 1
    1629 000000c2 4690              MOV       V5, A3                ; [DPU_3_PIPE] |893|  ; [ORIG 16-BIT INS]
    1630 000000c4 8004F8AD          STRH      V5, [SP, #4]          ; [DPU_3_PIPE] |893|  ; [KEEP 32-BIT INS]
    1631                            .dwpsn  file "../Application/Services/nvocop.c",line 897,column 7,is_stmt,isa 1
    1632 000000c8 0006E89D          LDMIA     SP, {A2,A3}           ; [DPU_3_PIPE] |897|  ; [KEEP 32-BIT INS]
    1633 000000cc 4638              MOV       A1, V4                ; [DPU_3_PIPE] |897|  ; [ORIG 16-BIT INS]
    1634                    $C$DW$109       .dwtag  DW_TAG_TI_branch
    1635                            .dwattr $C$DW$109, DW_AT_low_pc(0x00)
    1636                            .dwattr $C$DW$109, DW_AT_name("findItemInCache")
    1637                            .dwattr $C$DW$109, DW_AT_TI_call
    1638                    
    1639 000000ce FFFEF7FF!         BL        findItemInCache       ; [DPU_3_PIPE] |897|  ; [KEEP 32-BIT INS]
    1640                            ; CALL OCCURS {findItemInCache }  ; [] |897| 
    1641 000000d2 B988              CBNZ      A1, ||$C$L27||        ; []  ; [ORIG 16-BIT INS]
    1642                            ; BRANCHCC OCCURS {||$C$L27||}   ; [] |897| 
    1643                    ;* --------------------------------------------------------------------------*
    1644                            .dwpsn  file "../Application/Services/nvocop.c",line 902,column 9,is_stmt,isa 1
    1645 000000d4 300EF8BD          LDRH      A4, [SP, #14]         ; [DPU_3_PIPE] |902|  ; [KEEP 32-BIT INS]
    1646 000000d8 1AE1              SUBS      A2, V1, A4            ; [DPU_3_PIPE] |902|  ; [ORIG 16-BIT INS]
    1647 000000da 5288F107          ADD       A3, V4, #285212672    ; [DPU_3_PIPE] |902|  ; [KEEP 32-BIT INS]
    1648 000000de 4648              MOV       A1, V6                ; [DPU_3_PIPE] |902|  ; [ORIG 16-BIT INS]
    1649 000000e0 1F09              SUBS      A2, A2, #4            ; [DPU_3_PIPE] |902|  ; [ORIG 16-BIT INS]
    1650 000000e2 3308              ADDS      A4, A4, #8            ; [DPU_3_PIPE] |902|  ; [ORIG 16-BIT INS]
TI ARM Assembler PC v16.9.4 Sat Nov 18 18:46:31 2017

Tools Copyright (c) 1996-2017 Texas Instruments Incorporated
C:\Users\Kevin\AppData\Local\Temp\{6C42DDD5-7C92-479C-8F05-55537E4479EC} PAGE   31

    1651 000000e4 B289              UXTH      A2, A2                ; [DPU_3_PIPE] |902|  ; [ORIG 16-BIT INS]
    1652 000000e6 B29B              UXTH      A4, A4                ; [DPU_3_PIPE] |902|  ; [ORIG 16-BIT INS]
    1653                    $C$DW$110       .dwtag  DW_TAG_TI_branch
    1654                            .dwattr $C$DW$110, DW_AT_low_pc(0x00)
    1655                            .dwattr $C$DW$110, DW_AT_name("HalFlashRead")
    1656                            .dwattr $C$DW$110, DW_AT_TI_call
    1657                    
    1658 000000e8 FFFEF7FF!         BL        HalFlashRead          ; [DPU_3_PIPE] |902|  ; [KEEP 32-BIT INS]
    1659                            ; CALL OCCURS {HalFlashRead }    ; [] |902| 
    1660                            .dwpsn  file "../Application/Services/nvocop.c",line 906,column 9,is_stmt,isa 1
    1661 000000ec 000EF8BD          LDRH      A1, [SP, #14]         ; [DPU_3_PIPE] |906|  ; [KEEP 32-BIT INS]
    1662 000000f0 183F              ADDS      V4, V4, A1            ; [DPU_3_PIPE] |906|  ; [ORIG 16-BIT INS]
    1663 000000f2 3708              ADDS      V4, V4, #8            ; [DPU_3_PIPE] |906|  ; [ORIG 16-BIT INS]
    1664 000000f4 B2BF              UXTH      V4, V4                ; [DPU_3_PIPE] |906|  ; [ORIG 16-BIT INS]
    1665 000000f6 E001              B         ||$C$L28||            ; [DPU_3_PIPE] |906|  ; [ORIG 16-BIT INS]
    1666                            ; BRANCH OCCURS {||$C$L28||}     ; [] |906| 
    1667                    ;* --------------------------------------------------------------------------*
    1668 000000f8           ||$C$L27||:    
    1669 000000f8 000EF8BD          LDRH      A1, [SP, #14]         ; [DPU_3_PIPE]  ; [KEEP 32-BIT INS]
    1670                    ;* --------------------------------------------------------------------------*
    1671 000000fc           ||$C$L28||:    
    1672                            .dwpsn  file "../Application/Services/nvocop.c",line 909,column 5,is_stmt,isa 1
    1673 000000fc 1A24              SUBS      V1, V1, A1            ; [DPU_3_PIPE] |909|  ; [ORIG 16-BIT INS]
    1674 000000fe 3C08              SUBS      V1, V1, #8            ; [DPU_3_PIPE] |909|  ; [ORIG 16-BIT INS]
    1675                    ;* --------------------------------------------------------------------------*
    1676 00000100           ||$C$L29||:    
    1677 00000100 B2A4              UXTH      V1, V1                ; [DPU_3_PIPE] |909|  ; [ORIG 16-BIT INS]
    1678                            .dwpsn  file "../Application/Services/nvocop.c",line 823,column 10,is_stmt,isa 1
    1679 00000102 2C08              CMP       V1, #8                ; [DPU_3_PIPE] |823|  ; [ORIG 16-BIT INS]
    1680 00000104 DA9B              BGE       ||$C$L19||            ; [DPU_3_PIPE] |823|  ; [ORIG 16-BIT INS]
    1681                            ; BRANCHCC OCCURS {||$C$L19||}   ; [] |823| 
    1682                    ;* --------------------------------------------------------------------------*
    1683 00000106           ||$C$L30||:    
    1684                            .dwpsn  file "../Application/Services/nvocop.c",line 913,column 3,is_stmt,isa 1
    1685                    $C$DW$111       .dwtag  DW_TAG_TI_branch
    1686                            .dwattr $C$DW$111, DW_AT_low_pc(0x00)
    1687                            .dwattr $C$DW$111, DW_AT_name("erasePage")
    1688                            .dwattr $C$DW$111, DW_AT_TI_call
    1689                    
    1690 00000106 FFFEF7FF!         BL        erasePage             ; [DPU_3_PIPE] |913|  ; [KEEP 32-BIT INS]
    1691                            ; CALL OCCURS {erasePage }       ; [] |913| 
    1692 0000010a B147              CBZ       V4, ||$C$L31||        ; []  ; [ORIG 16-BIT INS]
    1693                            .dwpsn  file "../Application/Services/nvocop.c",line 916,column 3,is_stmt,isa 1
    1694                            ; BRANCHCC OCCURS {||$C$L31||}   ; [] |916| 
    1695                    ;* --------------------------------------------------------------------------*
    1696                            .dwpsn  file "../Application/Services/nvocop.c",line 920,column 7,is_stmt,isa 1
    1697 0000010c 480E              LDR       A1, $C$CON24          ; [DPU_3_PIPE] |920|  ; [ORIG 16-BIT INS]
    1698 0000010e 5188F04F          MOV       A2, #285212672        ; [DPU_3_PIPE] |920|  ; [KEEP 32-BIT INS]
    1699 00000112 463A              MOV       A3, V4                ; [DPU_3_PIPE] |920|  ; [ORIG 16-BIT INS]
    1700 00000114 1D00              ADDS      A1, A1, #4            ; [DPU_3_PIPE]  ; [ORIG 16-BIT INS]
    1701                    $C$DW$112       .dwtag  DW_TAG_TI_branch
    1702                            .dwattr $C$DW$112, DW_AT_low_pc(0x00)
    1703                            .dwattr $C$DW$112, DW_AT_name("HalFlashWrite")
    1704                            .dwattr $C$DW$112, DW_AT_TI_call
    1705                    
TI ARM Assembler PC v16.9.4 Sat Nov 18 18:46:31 2017

Tools Copyright (c) 1996-2017 Texas Instruments Incorporated
C:\Users\Kevin\AppData\Local\Temp\{6C42DDD5-7C92-479C-8F05-55537E4479EC} PAGE   32

    1706 00000116 FFFEF7FF!         BL        HalFlashWrite         ; [DPU_3_PIPE] |920|  ; [KEEP 32-BIT INS]
    1707                            ; CALL OCCURS {HalFlashWrite }   ; [] |920| 
    1708                            .dwpsn  file "../Application/Services/nvocop.c",line 924,column 7,is_stmt,isa 1
    1709                    $C$DW$113       .dwtag  DW_TAG_TI_branch
    1710                            .dwattr $C$DW$113, DW_AT_low_pc(0x00)
    1711                            .dwattr $C$DW$113, DW_AT_name("setActivePage")
    1712                            .dwattr $C$DW$113, DW_AT_TI_call
    1713                    
    1714 0000011a FFFEF7FF!         BL        setActivePage         ; [DPU_3_PIPE] |924|  ; [KEEP 32-BIT INS]
    1715                            ; CALL OCCURS {setActivePage }   ; [] |924| 
    1716                    ;* --------------------------------------------------------------------------*
    1717 0000011e           ||$C$L31||:    
    1718 0000011e 9804              LDR       A1, [SP, #16]         ; [DPU_3_PIPE]  ; [ORIG 16-BIT INS]
    1719                            .dwpsn  file "../Application/Services/nvocop.c",line 933,column 3,is_stmt,isa 1
    1720                    $C$DW$114       .dwtag  DW_TAG_TI_branch
    1721                            .dwattr $C$DW$114, DW_AT_low_pc(0x00)
    1722                            .dwattr $C$DW$114, DW_AT_name("enableCache")
    1723                            .dwattr $C$DW$114, DW_AT_TI_call
    1724                    
    1725 00000120 FFFEF7FF!         BL        enableCache           ; [DPU_3_PIPE] |933|  ; [KEEP 32-BIT INS]
    1726                            ; CALL OCCURS {enableCache }     ; [] |933| 
    1727                            .dwpsn  file "../Application/Services/nvocop.c",line 821,column 3,is_stmt,isa 1
    1728 00000124 4A07              LDR       A3, $C$CON23          ; [DPU_3_PIPE] |821|  ; [ORIG 16-BIT INS]
    1729                            .dwpsn  file "../Application/Services/nvocop.c",line 935,column 3,is_stmt,isa 1
    1730 00000126 7850              LDRB      A1, [A3, #1]          ; [DPU_3_PIPE] |935|  ; [ORIG 16-BIT INS]
    1731 00000128 2800              CMP       A1, #0                ; [DPU_3_PIPE] |935|  ; [ORIG 16-BIT INS]
    1732 0000012a BF1C              ITT       NE                    ; [DPU_3_PIPE]  ; [ORIG 16-BIT INS]
    1733                            .dwpsn  file "../Application/Services/nvocop.c",line 943,column 5,is_stmt,isa 1
    1734 0000012c 2000              MOVNE     A1, #0                ; [DPU_3_PIPE] |943|  ; [ORIG 16-BIT INS]
    1735 0000012e 1C01              MOVNE     A2, A1                ; [DPU_3_PIPE] |943|  ; [ORIG 16-BIT INS]
    1736                            .dwpsn  file "../Application/Services/nvocop.c",line 945,column 5,is_stmt,isa 1
    1737 00000130 D103              BNE       ||$C$L32||            ; [DPU_3_PIPE] |945|  ; [ORIG 16-BIT INS]
    1738                            ; BRANCHCC OCCURS {||$C$L32||}   ; [] |945| 
    1739                    ;* --------------------------------------------------------------------------*
    1740                            .dwpsn  file "../Application/Services/nvocop.c",line 939,column 5,is_stmt,isa 1
    1741 00000132 5480F5C7          RSB       V1, V4, #4096         ; [DPU_3_PIPE] |939|  ; [KEEP 32-BIT INS]
    1742                            .dwpsn  file "../Application/Services/nvocop.c",line 937,column 5,is_stmt,isa 1
    1743 00000136 1D39              ADDS      A2, V4, #4            ; [DPU_3_PIPE] |937|  ; [ORIG 16-BIT INS]
    1744                            .dwpsn  file "../Application/Services/nvocop.c",line 939,column 5,is_stmt,isa 1
    1745 00000138 B2A0              UXTH      A1, V1                ; [DPU_3_PIPE] |939|  ; [ORIG 16-BIT INS]
    1746                    ;* --------------------------------------------------------------------------*
    1747 0000013a           ||$C$L32||:    
    1748                            .dwpsn  file "../Application/Services/nvocop.c",line 937,column 5,is_stmt,isa 1
    1749 0000013a 8051              STRH      A2, [A3, #2]          ; [DPU_3_PIPE] |937|  ; [ORIG 16-BIT INS]
    1750                    ;* --------------------------------------------------------------------------*
    1751 0000013c           ||$C$L33||:    
    1752 0000013c B005              ADD       SP, SP, #20           ; [DPU_3_PIPE]  ; [ORIG 16-BIT INS]
    1753                            .dwcfi  cfa_offset, 36
    1754                    $C$DW$115       .dwtag  DW_TAG_TI_branch
    1755                            .dwattr $C$DW$115, DW_AT_low_pc(0x00)
    1756                            .dwattr $C$DW$115, DW_AT_TI_return
    1757                    
    1758 0000013e 8FF0E8BD          POP       {V1, V2, V3, V4, V5, V6, V7, V8, PC} ; [DPU_3_PIPE]  ; [KEEP 32-BIT INS]
    1759                            .dwcfi  cfa_offset, 0
    1760                            ; BRANCH OCCURS                  ; [] 
TI ARM Assembler PC v16.9.4 Sat Nov 18 18:46:31 2017

Tools Copyright (c) 1996-2017 Texas Instruments Incorporated
C:\Users\Kevin\AppData\Local\Temp\{6C42DDD5-7C92-479C-8F05-55537E4479EC} PAGE   33

    1761                            .dwattr $C$DW$99, DW_AT_TI_end_file("../Application/Services/nvocop.c")
    1762                            .dwattr $C$DW$99, DW_AT_TI_end_line(0x3b3)
    1763                            .dwattr $C$DW$99, DW_AT_TI_end_column(0x01)
    1764                            .dwendentry
    1765                            .dwendtag $C$DW$99
    1766                    
    1767                    ;**     Parameter deleted: offset == pgOff;
    1768 00000000                   .sect   ".text:writeItem"
    1769                            .clink
    1770                            .thumbfunc writeItem
    1771 00000000                   .thumb
    1772                    
    1773                    $C$DW$116       .dwtag  DW_TAG_subprogram
    1774                            .dwattr $C$DW$116, DW_AT_name("writeItem")
    1775                            .dwattr $C$DW$116, DW_AT_low_pc(writeItem)
    1776                            .dwattr $C$DW$116, DW_AT_high_pc(0x00)
    1777                            .dwattr $C$DW$116, DW_AT_TI_symbol_name("writeItem")
    1778                            .dwattr $C$DW$116, DW_AT_TI_begin_file("../Application/Services/nvocop.c")
    1779                            .dwattr $C$DW$116, DW_AT_TI_begin_line(0x2ec)
    1780                            .dwattr $C$DW$116, DW_AT_TI_begin_column(0x0d)
    1781                            .dwattr $C$DW$116, DW_AT_decl_file("../Application/Services/nvocop.c")
    1782                            .dwattr $C$DW$116, DW_AT_decl_line(0x2ec)
    1783                            .dwattr $C$DW$116, DW_AT_decl_column(0x0d)
    1784                            .dwattr $C$DW$116, DW_AT_TI_max_frame_size(0x28)
    1785                            .dwpsn  file "../Application/Services/nvocop.c",line 750,column 1,is_stmt,address writeItem,is
    1786                    
    1787                            .dwfde $C$DW$CIE, writeItem
    1788                    $C$DW$117       .dwtag  DW_TAG_formal_parameter
    1789                            .dwattr $C$DW$117, DW_AT_name("nv_id")
    1790                            .dwattr $C$DW$117, DW_AT_TI_symbol_name("nv_id")
    1791                            .dwattr $C$DW$117, DW_AT_type(*$C$DW$T$166)
    1792                            .dwattr $C$DW$117, DW_AT_location[DW_OP_breg13 32]
    1793                    
    1794                    $C$DW$118       .dwtag  DW_TAG_formal_parameter
    1795                            .dwattr $C$DW$118, DW_AT_name("alignedLen")
    1796                            .dwattr $C$DW$118, DW_AT_TI_symbol_name("alignedLen")
    1797                            .dwattr $C$DW$118, DW_AT_type(*$C$DW$T$19)
    1798                            .dwattr $C$DW$118, DW_AT_location[DW_OP_reg2]
    1799                    
    1800                    $C$DW$119       .dwtag  DW_TAG_formal_parameter
    1801                            .dwattr $C$DW$119, DW_AT_name("pBuf")
    1802                            .dwattr $C$DW$119, DW_AT_TI_symbol_name("pBuf")
    1803                            .dwattr $C$DW$119, DW_AT_type(*$C$DW$T$207)
    1804                            .dwattr $C$DW$119, DW_AT_location[DW_OP_reg3]
    1805                    
    1806                    
    1807                    ;*****************************************************************************
    1808                    ;* FUNCTION NAME: writeItem                                                  *
    1809                    ;*                                                                           *
    1810                    ;*   Regs Modified     : A1,A2,A3,A4,V1,V2,V3,V4,V5,V9,SP,LR,SR              *
    1811                    ;*   Regs Used         : A1,A2,A3,A4,V1,V2,V3,V4,V5,V9,SP,LR,SR              *
    1812                    ;*   Local Frame Size  : 0 Args + 8 Auto + 24 Save = 32 byte                 *
    1813                    ;*****************************************************************************
    1814                    writeItem:
    1815                    ;* --------------------------------------------------------------------------*
TI ARM Assembler PC v16.9.4 Sat Nov 18 18:46:31 2017

Tools Copyright (c) 1996-2017 Texas Instruments Incorporated
C:\Users\Kevin\AppData\Local\Temp\{6C42DDD5-7C92-479C-8F05-55537E4479EC} PAGE   34

    1816                    $C$DW$120       .dwtag  DW_TAG_variable
    1817                            .dwattr $C$DW$120, DW_AT_name("hdr")
    1818                            .dwattr $C$DW$120, DW_AT_TI_symbol_name("hdr")
    1819                            .dwattr $C$DW$120, DW_AT_type(*$C$DW$T$188)
    1820                            .dwattr $C$DW$120, DW_AT_location[DW_OP_breg13 0]
    1821                    
    1822                    ;* V3    assigned to $O$C1
    1823                    ;* A1    assigned to $O$C2
    1824                    ;* V2    assigned to offset
    1825                    $C$DW$121       .dwtag  DW_TAG_variable
    1826                            .dwattr $C$DW$121, DW_AT_name("offset")
    1827                            .dwattr $C$DW$121, DW_AT_TI_symbol_name("offset")
    1828                            .dwattr $C$DW$121, DW_AT_type(*$C$DW$T$277)
    1829                            .dwattr $C$DW$121, DW_AT_location[DW_OP_reg5]
    1830                    
    1831                    ;* V1    assigned to alignedLen
    1832                    $C$DW$122       .dwtag  DW_TAG_variable
    1833                            .dwattr $C$DW$122, DW_AT_name("alignedLen")
    1834                            .dwattr $C$DW$122, DW_AT_TI_symbol_name("alignedLen")
    1835                            .dwattr $C$DW$122, DW_AT_type(*$C$DW$T$277)
    1836                            .dwattr $C$DW$122, DW_AT_location[DW_OP_reg4]
    1837                    
    1838                    ;* V5    assigned to pBuf
    1839                    $C$DW$123       .dwtag  DW_TAG_variable
    1840                            .dwattr $C$DW$123, DW_AT_name("pBuf")
    1841                            .dwattr $C$DW$123, DW_AT_TI_symbol_name("pBuf")
    1842                            .dwattr $C$DW$123, DW_AT_type(*$C$DW$T$252)
    1843                            .dwattr $C$DW$123, DW_AT_location[DW_OP_reg8]
    1844                    
    1845                            .dwcfi  cfa_offset, 0
    1846 00000000 B403              PUSH      {A1, A2}              ; [DPU_3_PIPE]  ; [ORIG 16-BIT INS]
    1847                            .dwcfi  cfa_offset, 8
    1848                            .dwcfi  save_reg_to_mem, 1, -4
    1849                            .dwcfi  save_reg_to_mem, 0, -8
    1850 00000002 4826              LDR       A1, $C$CON25          ; [DPU_3_PIPE] |750|  ; [ORIG 16-BIT INS]
    1851 00000004 41F0E92D          PUSH      {V1, V2, V3, V4, V5, LR} ; [DPU_3_PIPE]  ; [KEEP 32-BIT INS]
    1852                            .dwcfi  cfa_offset, 32
    1853                            .dwcfi  save_reg_to_mem, 14, -12
    1854                            .dwcfi  save_reg_to_mem, 8, -16
    1855                            .dwcfi  save_reg_to_mem, 7, -20
    1856                            .dwcfi  save_reg_to_mem, 6, -24
    1857                            .dwcfi  save_reg_to_mem, 5, -28
    1858                            .dwcfi  save_reg_to_mem, 4, -32
    1859 00000008 8805              LDRH      V2, [A1, #0]          ; [DPU_3_PIPE] |750|  ; [ORIG 16-BIT INS]
    1860 0000000a AF06              ADD       V4, SP, #24           ; [DPU_3_PIPE]  ; [ORIG 16-BIT INS]
    1861 0000000c 4614              MOV       V1, A3                ; [DPU_3_PIPE] |750|  ; [ORIG 16-BIT INS]
    1862 0000000e 0D08F1AD          SUB       SP, SP, #8            ; [DPU_3_PIPE]  ; [KEEP 32-BIT INS]
    1863                            .dwcfi  cfa_offset, 40
    1864 00000012 4698              MOV       V5, A4                ; [DPU_3_PIPE] |750|  ; [ORIG 16-BIT INS]
    1865                            .dwpsn  file "../Application/Services/nvocop.c",line 756,column 3,is_stmt,isa 1
    1866 00000014 70FFF64F          MOV       A1, #65535            ; [DPU_3_PIPE] |756|  ; [KEEP 32-BIT INS]
    1867 00000018 0000F8AD          STRH      A1, [SP, #0]          ; [DPU_3_PIPE] |756|  ; [KEEP 32-BIT INS]
    1868                            .dwpsn  file "../Application/Services/nvocop.c",line 763,column 3,is_stmt,isa 1
    1869 0000001c 2202              MOVS      A3, #2                ; [DPU_3_PIPE] |763|  ; [ORIG 16-BIT INS]
    1870                            .dwpsn  file "../Application/Services/nvocop.c",line 757,column 3,is_stmt,isa 1
TI ARM Assembler PC v16.9.4 Sat Nov 18 18:46:31 2017

Tools Copyright (c) 1996-2017 Texas Instruments Incorporated
C:\Users\Kevin\AppData\Local\Temp\{6C42DDD5-7C92-479C-8F05-55537E4479EC} PAGE   35

    1871 0000001e 0002F8AD          STRH      A1, [SP, #2]          ; [DPU_3_PIPE] |757|  ; [KEEP 32-BIT INS]
    1872                            .dwpsn  file "../Application/Services/nvocop.c",line 763,column 3,is_stmt,isa 1
    1873 00000022 4669              MOV       A2, SP                ; [DPU_3_PIPE] |763|  ; [ORIG 16-BIT INS]
    1874                            .dwpsn  file "../Application/Services/nvocop.c",line 758,column 3,is_stmt,isa 1
    1875 00000024 0004F8AD          STRH      A1, [SP, #4]          ; [DPU_3_PIPE] |758|  ; [KEEP 32-BIT INS]
    1876                            .dwpsn  file "../Application/Services/nvocop.c",line 760,column 3,is_stmt,isa 1
    1877 00000028 4000F444          ORR       A1, V1, #32768        ; [DPU_3_PIPE] |760|  ; [KEEP 32-BIT INS]
    1878 0000002c 0006F8AD          STRH      A1, [SP, #6]          ; [DPU_3_PIPE] |760|  ; [KEEP 32-BIT INS]
    1879                            .dwpsn  file "../Application/Services/nvocop.c",line 763,column 3,is_stmt,isa 1
    1880 00000030 1960              ADDS      A1, V1, V2            ; [DPU_3_PIPE] |763|  ; [ORIG 16-BIT INS]
    1881 00000032 B286              UXTH      V3, A1                ; [DPU_3_PIPE] |763|  ; [ORIG 16-BIT INS]
    1882 00000034 4630              MOV       A1, V3                ; [DPU_3_PIPE] |763|  ; [ORIG 16-BIT INS]
    1883                    $C$DW$124       .dwtag  DW_TAG_TI_branch
    1884                            .dwattr $C$DW$124, DW_AT_low_pc(0x00)
    1885                            .dwattr $C$DW$124, DW_AT_name("writeWord")
    1886                            .dwattr $C$DW$124, DW_AT_TI_call
    1887                    
    1888 00000036 FFFEF7FF!         BL        writeWord             ; [DPU_3_PIPE] |763|  ; [KEEP 32-BIT INS]
    1889                            ; CALL OCCURS {writeWord }       ; [] |763| 
    1890                            .dwpsn  file "../Application/Services/nvocop.c",line 766,column 3,is_stmt,isa 1
    1891 0000003a 0006F8BD          LDRH      A1, [SP, #6]          ; [DPU_3_PIPE] |766|  ; [KEEP 32-BIT INS]
    1892                            .dwpsn  file "../Application/Services/nvocop.c",line 767,column 3,is_stmt,isa 1
    1893 0000003e 2202              MOVS      A3, #2                ; [DPU_3_PIPE] |767|  ; [ORIG 16-BIT INS]
    1894 00000040 4669              MOV       A2, SP                ; [DPU_3_PIPE] |767|  ; [ORIG 16-BIT INS]
    1895                            .dwpsn  file "../Application/Services/nvocop.c",line 766,column 3,is_stmt,isa 1
    1896 00000042 30DFF36F          BFC       A1, #15, #17          ; [DPU_3_PIPE] |766|  ; [KEEP 32-BIT INS]
    1897 00000046 0006F8AD          STRH      A1, [SP, #6]          ; [DPU_3_PIPE] |766|  ; [KEEP 32-BIT INS]
    1898                            .dwpsn  file "../Application/Services/nvocop.c",line 767,column 3,is_stmt,isa 1
    1899 0000004a 4630              MOV       A1, V3                ; [DPU_3_PIPE] |767|  ; [ORIG 16-BIT INS]
    1900                    $C$DW$125       .dwtag  DW_TAG_TI_branch
    1901                            .dwattr $C$DW$125, DW_AT_low_pc(0x00)
    1902                            .dwattr $C$DW$125, DW_AT_name("writeWord")
    1903                            .dwattr $C$DW$125, DW_AT_TI_call
    1904                    
    1905 0000004c FFFEF7FF!         BL        writeWord             ; [DPU_3_PIPE] |767|  ; [KEEP 32-BIT INS]
    1906                            ; CALL OCCURS {writeWord }       ; [] |767| 
    1907                            .dwpsn  file "../Application/Services/nvocop.c",line 770,column 3,is_stmt,isa 1
    1908 00000050 10A1              ASRS      A2, V1, #2            ; [DPU_3_PIPE] |770|  ; [ORIG 16-BIT INS]
    1909 00000052 4628              MOV       A1, V2                ; [DPU_3_PIPE] |770|  ; [ORIG 16-BIT INS]
    1910 00000054 B2CA              UXTB      A3, A2                ; [DPU_3_PIPE] |770|  ; [ORIG 16-BIT INS]
    1911 00000056 4641              MOV       A2, V5                ; [DPU_3_PIPE] |770|  ; [ORIG 16-BIT INS]
    1912                    $C$DW$126       .dwtag  DW_TAG_TI_branch
    1913                            .dwattr $C$DW$126, DW_AT_low_pc(0x00)
    1914                            .dwattr $C$DW$126, DW_AT_name("writeWord")
    1915                            .dwattr $C$DW$126, DW_AT_TI_call
    1916                    
    1917 00000058 FFFEF7FF!         BL        writeWord             ; [DPU_3_PIPE] |770|  ; [KEEP 32-BIT INS]
    1918                            ; CALL OCCURS {writeWord }       ; [] |770| 
    1919                            .dwpsn  file "../Application/Services/nvocop.c",line 776,column 3,is_stmt,isa 1
    1920 0000005c 7838              LDRB      A1, [V4, #0]          ; [DPU_3_PIPE] |776|  ; [ORIG 16-BIT INS]
    1921 0000005e 4000F440          ORR       A1, A1, #32768        ; [DPU_3_PIPE] |776|  ; [KEEP 32-BIT INS]
    1922 00000062 0000F8AD          STRH      A1, [SP, #0]          ; [DPU_3_PIPE] |776|  ; [KEEP 32-BIT INS]
    1923                            .dwpsn  file "../Application/Services/nvocop.c",line 777,column 3,is_stmt,isa 1
    1924 00000066 8878              LDRH      A1, [V4, #2]          ; [DPU_3_PIPE] |777|  ; [ORIG 16-BIT INS]
    1925 00000068 0002F8AD          STRH      A1, [SP, #2]          ; [DPU_3_PIPE] |777|  ; [KEEP 32-BIT INS]
TI ARM Assembler PC v16.9.4 Sat Nov 18 18:46:31 2017

Tools Copyright (c) 1996-2017 Texas Instruments Incorporated
C:\Users\Kevin\AppData\Local\Temp\{6C42DDD5-7C92-479C-8F05-55537E4479EC} PAGE   36

    1926                            .dwpsn  file "../Application/Services/nvocop.c",line 778,column 3,is_stmt,isa 1
    1927 0000006c 88B8              LDRH      A1, [V4, #4]          ; [DPU_3_PIPE] |778|  ; [ORIG 16-BIT INS]
    1928                            .dwpsn  file "../Application/Services/nvocop.c",line 780,column 3,is_stmt,isa 1
    1929 0000006e 2202              MOVS      A3, #2                ; [DPU_3_PIPE] |780|  ; [ORIG 16-BIT INS]
    1930 00000070 4669              MOV       A2, SP                ; [DPU_3_PIPE] |780|  ; [ORIG 16-BIT INS]
    1931                            .dwpsn  file "../Application/Services/nvocop.c",line 778,column 3,is_stmt,isa 1
    1932 00000072 0004F8AD          STRH      A1, [SP, #4]          ; [DPU_3_PIPE] |778|  ; [KEEP 32-BIT INS]
    1933                            .dwpsn  file "../Application/Services/nvocop.c",line 780,column 3,is_stmt,isa 1
    1934 00000076 4630              MOV       A1, V3                ; [DPU_3_PIPE] |780|  ; [ORIG 16-BIT INS]
    1935                    $C$DW$127       .dwtag  DW_TAG_TI_branch
    1936                            .dwattr $C$DW$127, DW_AT_low_pc(0x00)
    1937                            .dwattr $C$DW$127, DW_AT_name("writeWord")
    1938                            .dwattr $C$DW$127, DW_AT_TI_call
    1939                    
    1940 00000078 FFFEF7FF!         BL        writeWord             ; [DPU_3_PIPE] |780|  ; [KEEP 32-BIT INS]
    1941                            ; CALL OCCURS {writeWord }       ; [] |780| 
    1942                            .dwpsn  file "../Application/Services/nvocop.c",line 786,column 3,is_stmt,isa 1
    1943 0000007c 0000F8BD          LDRH      A1, [SP, #0]          ; [DPU_3_PIPE] |786|  ; [KEEP 32-BIT INS]
    1944                            .dwpsn  file "../Application/Services/nvocop.c",line 788,column 3,is_stmt,isa 1
    1945 00000080 2202              MOVS      A3, #2                ; [DPU_3_PIPE] |788|  ; [ORIG 16-BIT INS]
    1946 00000082 4669              MOV       A2, SP                ; [DPU_3_PIPE] |788|  ; [ORIG 16-BIT INS]
    1947                            .dwpsn  file "../Application/Services/nvocop.c",line 786,column 3,is_stmt,isa 1
    1948 00000084 30DFF36F          BFC       A1, #15, #17          ; [DPU_3_PIPE] |786|  ; [KEEP 32-BIT INS]
    1949 00000088 0000F8AD          STRH      A1, [SP, #0]          ; [DPU_3_PIPE] |786|  ; [KEEP 32-BIT INS]
    1950                            .dwpsn  file "../Application/Services/nvocop.c",line 788,column 3,is_stmt,isa 1
    1951 0000008c 4630              MOV       A1, V3                ; [DPU_3_PIPE] |788|  ; [ORIG 16-BIT INS]
    1952                    $C$DW$128       .dwtag  DW_TAG_TI_branch
    1953                            .dwattr $C$DW$128, DW_AT_low_pc(0x00)
    1954                            .dwattr $C$DW$128, DW_AT_name("writeWord")
    1955                            .dwattr $C$DW$128, DW_AT_TI_call
    1956                    
    1957 0000008e FFFEF7FF!         BL        writeWord             ; [DPU_3_PIPE] |788|  ; [KEEP 32-BIT INS]
    1958                            ; CALL OCCURS {writeWord }       ; [] |788| 
    1959 00000092 B002              ADD       SP, SP, #8            ; [DPU_3_PIPE]  ; [ORIG 16-BIT INS]
    1960                            .dwcfi  cfa_offset, 32
    1961 00000094 41F0E8BD          POP       {V1, V2, V3, V4, V5, LR} ; [DPU_3_PIPE]  ; [KEEP 32-BIT INS]
    1962                            .dwcfi  cfa_offset, 8
    1963                            .dwcfi  restore_reg, 14
    1964                            .dwcfi  restore_reg, 8
    1965                            .dwcfi  restore_reg, 7
    1966                            .dwcfi  restore_reg, 6
    1967                            .dwcfi  restore_reg, 5
    1968                            .dwcfi  restore_reg, 4
    1969 00000098 B002              ADD       SP, SP, #8            ; [DPU_3_PIPE]  ; [ORIG 16-BIT INS]
    1970                            .dwcfi  cfa_offset, 0
    1971                    $C$DW$129       .dwtag  DW_TAG_TI_branch
    1972                            .dwattr $C$DW$129, DW_AT_low_pc(0x00)
    1973                            .dwattr $C$DW$129, DW_AT_TI_return
    1974                    
    1975 0000009a 4770              BX        LR                    ; [DPU_3_PIPE]  ; [ORIG 16-BIT INS]
    1976                            ; BRANCH OCCURS                  ; [] 
    1977                            .dwattr $C$DW$116, DW_AT_TI_end_file("../Application/Services/nvocop.c")
    1978                            .dwattr $C$DW$116, DW_AT_TI_end_line(0x315)
    1979                            .dwattr $C$DW$116, DW_AT_TI_end_column(0x01)
    1980                            .dwendentry
TI ARM Assembler PC v16.9.4 Sat Nov 18 18:46:31 2017

Tools Copyright (c) 1996-2017 Texas Instruments Incorporated
C:\Users\Kevin\AppData\Local\Temp\{6C42DDD5-7C92-479C-8F05-55537E4479EC} PAGE   37

    1981                            .dwendtag $C$DW$116
    1982                    
    1983 00000000                   .sect   ".text:NVOCOP_writeItem"
    1984                            .clink
    1985                            .thumbfunc NVOCOP_writeItem
    1986 00000000                   .thumb
    1987                            .global NVOCOP_writeItem
    1988                    
    1989                    $C$DW$130       .dwtag  DW_TAG_subprogram
    1990                            .dwattr $C$DW$130, DW_AT_name("NVOCOP_writeItem")
    1991                            .dwattr $C$DW$130, DW_AT_low_pc(NVOCOP_writeItem)
    1992                            .dwattr $C$DW$130, DW_AT_high_pc(0x00)
    1993                            .dwattr $C$DW$130, DW_AT_TI_symbol_name("NVOCOP_writeItem")
    1994                            .dwattr $C$DW$130, DW_AT_external
    1995                            .dwattr $C$DW$130, DW_AT_type(*$C$DW$T$73)
    1996                            .dwattr $C$DW$130, DW_AT_TI_begin_file("../Application/Services/nvocop.c")
    1997                            .dwattr $C$DW$130, DW_AT_TI_begin_line(0x192)
    1998                            .dwattr $C$DW$130, DW_AT_TI_begin_column(0x07)
    1999                            .dwattr $C$DW$130, DW_AT_decl_file("../Application/Services/nvocop.c")
    2000                            .dwattr $C$DW$130, DW_AT_decl_line(0x192)
    2001                            .dwattr $C$DW$130, DW_AT_decl_column(0x07)
    2002                            .dwattr $C$DW$130, DW_AT_TI_max_frame_size(0x40)
    2003                            .dwpsn  file "../Application/Services/nvocop.c",line 403,column 1,is_stmt,address NVOCOP_write
    2004                    
    2005                            .dwfde $C$DW$CIE, NVOCOP_writeItem
    2006                    $C$DW$131       .dwtag  DW_TAG_formal_parameter
    2007                            .dwattr $C$DW$131, DW_AT_name("nv_id")
    2008                            .dwattr $C$DW$131, DW_AT_TI_symbol_name("nv_id")
    2009                            .dwattr $C$DW$131, DW_AT_type(*$C$DW$T$166)
    2010                            .dwattr $C$DW$131, DW_AT_location[DW_OP_breg13 56]
    2011                    
    2012                    $C$DW$132       .dwtag  DW_TAG_formal_parameter
    2013                            .dwattr $C$DW$132, DW_AT_name("len")
    2014                            .dwattr $C$DW$132, DW_AT_TI_symbol_name("len")
    2015                            .dwattr $C$DW$132, DW_AT_type(*$C$DW$T$19)
    2016                            .dwattr $C$DW$132, DW_AT_location[DW_OP_reg2]
    2017                    
    2018                    $C$DW$133       .dwtag  DW_TAG_formal_parameter
    2019                            .dwattr $C$DW$133, DW_AT_name("pBuf")
    2020                            .dwattr $C$DW$133, DW_AT_TI_symbol_name("pBuf")
    2021                            .dwattr $C$DW$133, DW_AT_type(*$C$DW$T$3)
    2022                            .dwattr $C$DW$133, DW_AT_location[DW_OP_reg3]
    2023                    
    2024                    
    2025                    ;*****************************************************************************
    2026                    ;* FUNCTION NAME: NVOCOP_writeItem                                           *
    2027                    ;*                                                                           *
    2028                    ;*   Regs Modified     : A1,A2,A3,A4,V1,V2,V3,V4,V5,V6,V7,V8,V9,SP,LR,SR     *
    2029                    ;*   Regs Used         : A1,A2,A3,A4,V1,V2,V3,V4,V5,V6,V7,V8,V9,SP,LR,SR     *
    2030                    ;*   Local Frame Size  : 0 Args + 16 Auto + 36 Save = 52 byte                *
    2031                    ;*****************************************************************************
    2032                    NVOCOP_writeItem:
    2033                    ;* --------------------------------------------------------------------------*
    2034                    $C$DW$134       .dwtag  DW_TAG_variable
    2035                            .dwattr $C$DW$134, DW_AT_name("tmp")
TI ARM Assembler PC v16.9.4 Sat Nov 18 18:46:31 2017

Tools Copyright (c) 1996-2017 Texas Instruments Incorporated
C:\Users\Kevin\AppData\Local\Temp\{6C42DDD5-7C92-479C-8F05-55537E4479EC} PAGE   38

    2036                            .dwattr $C$DW$134, DW_AT_TI_symbol_name("tmp")
    2037                            .dwattr $C$DW$134, DW_AT_type(*$C$DW$T$73)
    2038                            .dwattr $C$DW$134, DW_AT_location[DW_OP_breg13 0]
    2039                    
    2040                    ;* A1    assigned to $O$C16
    2041                    ;* V1    assigned to $O$C17
    2042                    ;* V6    assigned to $O$K25
    2043                    ;* V5    assigned to $O$K8
    2044                    ;* V1    assigned to $O$K39
    2045                    ;* A2    assigned to $O$v2
    2046                    ;* V2    assigned to len
    2047                    $C$DW$135       .dwtag  DW_TAG_variable
    2048                            .dwattr $C$DW$135, DW_AT_name("len")
    2049                            .dwattr $C$DW$135, DW_AT_TI_symbol_name("len")
    2050                            .dwattr $C$DW$135, DW_AT_type(*$C$DW$T$277)
    2051                            .dwattr $C$DW$135, DW_AT_location[DW_OP_reg5]
    2052                    
    2053                    ;* V8    assigned to pBuf
    2054                    $C$DW$136       .dwtag  DW_TAG_variable
    2055                            .dwattr $C$DW$136, DW_AT_name("pBuf")
    2056                            .dwattr $C$DW$136, DW_AT_TI_symbol_name("pBuf")
    2057                            .dwattr $C$DW$136, DW_AT_type(*$C$DW$T$200)
    2058                            .dwattr $C$DW$136, DW_AT_location[DW_OP_reg11]
    2059                    
    2060                    ;* V1    assigned to alignedLen
    2061                    $C$DW$137       .dwtag  DW_TAG_variable
    2062                            .dwattr $C$DW$137, DW_AT_name("alignedLen")
    2063                            .dwattr $C$DW$137, DW_AT_TI_symbol_name("alignedLen")
    2064                            .dwattr $C$DW$137, DW_AT_type(*$C$DW$T$10)
    2065                            .dwattr $C$DW$137, DW_AT_location[DW_OP_reg4]
    2066                    
    2067                    ;* V3    assigned to offset
    2068                    $C$DW$138       .dwtag  DW_TAG_variable
    2069                            .dwattr $C$DW$138, DW_AT_name("offset")
    2070                            .dwattr $C$DW$138, DW_AT_TI_symbol_name("offset")
    2071                            .dwattr $C$DW$138, DW_AT_type(*$C$DW$T$19)
    2072                            .dwattr $C$DW$138, DW_AT_location[DW_OP_reg6]
    2073                    
    2074                    ;* V1    assigned to i
    2075                    $C$DW$139       .dwtag  DW_TAG_variable
    2076                            .dwattr $C$DW$139, DW_AT_name("i")
    2077                            .dwattr $C$DW$139, DW_AT_TI_symbol_name("i")
    2078                            .dwattr $C$DW$139, DW_AT_type(*$C$DW$T$215)
    2079                            .dwattr $C$DW$139, DW_AT_location[DW_OP_reg4]
    2080                    
    2081                            .dwcfi  cfa_offset, 0
    2082 00000000 B403              PUSH      {A1, A2}              ; [DPU_3_PIPE]  ; [ORIG 16-BIT INS]
    2083                            .dwcfi  cfa_offset, 8
    2084                            .dwcfi  save_reg_to_mem, 1, -4
    2085                            .dwcfi  save_reg_to_mem, 0, -8
    2086 00000002 4FF0E92D          PUSH      {V1, V2, V3, V4, V5, V6, V7, V8, LR} ; [DPU_3_PIPE]  ; [KEEP 32-BIT INS]
    2087                            .dwcfi  cfa_offset, 44
    2088                            .dwcfi  save_reg_to_mem, 14, -12
    2089                            .dwcfi  save_reg_to_mem, 11, -16
    2090                            .dwcfi  save_reg_to_mem, 10, -20
TI ARM Assembler PC v16.9.4 Sat Nov 18 18:46:31 2017

Tools Copyright (c) 1996-2017 Texas Instruments Incorporated
C:\Users\Kevin\AppData\Local\Temp\{6C42DDD5-7C92-479C-8F05-55537E4479EC} PAGE   39

    2091                            .dwcfi  save_reg_to_mem, 9, -24
    2092                            .dwcfi  save_reg_to_mem, 8, -28
    2093                            .dwcfi  save_reg_to_mem, 7, -32
    2094                            .dwcfi  save_reg_to_mem, 6, -36
    2095                            .dwcfi  save_reg_to_mem, 5, -40
    2096                            .dwcfi  save_reg_to_mem, 4, -44
    2097                            .dwpsn  file "../Application/Services/nvocop.c",line 411,column 3,is_stmt,isa 1
    2098 00000006 4C34              LDR       V1, $C$CON28          ; [DPU_3_PIPE] |411|  ; [ORIG 16-BIT INS]
    2099 00000008 0A00F04F          MOV       V7, #0                ; [DPU_3_PIPE] |411|  ; [KEEP 32-BIT INS]
    2100 0000000c AF09              ADD       V4, SP, #36           ; [DPU_3_PIPE]  ; [ORIG 16-BIT INS]
    2101 0000000e 1EA4              SUBS      V1, V1, #2            ; [DPU_3_PIPE]  ; [ORIG 16-BIT INS]
    2102 00000010 A001F884          STRB      V7, [V1, #1]          ; [DPU_3_PIPE] |411|  ; [KEEP 32-BIT INS]
    2103                            .dwpsn  file "../Application/Services/nvocop.c",line 417,column 19,is_stmt,isa 1
    2104 00000014 6839              LDR       A2, [V4, #0]          ; [DPU_3_PIPE] |417|  ; [ORIG 16-BIT INS]
    2105 00000016 0D14F1AD          SUB       SP, SP, #20           ; [DPU_3_PIPE]  ; [KEEP 32-BIT INS]
    2106                            .dwcfi  cfa_offset, 64
    2107 0000001a A802              ADD       A1, SP, #8            ; [DPU_3_PIPE] |417|  ; [ORIG 16-BIT INS]
    2108 0000001c 6001              STR       A2, [A1, #0]          ; [DPU_3_PIPE] |417|  ; [ORIG 16-BIT INS]
    2109 0000001e 88B9              LDRH      A2, [V4, #4]          ; [DPU_3_PIPE] |417|  ; [ORIG 16-BIT INS]
    2110 00000020 8081              STRH      A2, [A1, #4]          ; [DPU_3_PIPE] |417|  ; [ORIG 16-BIT INS]
    2111 00000022 A802              ADD       A1, SP, #8            ; [DPU_3_PIPE] |417|  ; [ORIG 16-BIT INS]
    2112 00000024 C803              LDMIA     A1, {A1,A2}           ; [DPU_3_PIPE] |417|  ; [ORIG 16-BIT INS]
    2113                            .dwpsn  file "../Application/Services/nvocop.c",line 403,column 1,is_stmt,isa 1
    2114 00000026 469B              MOV       V8, A4                ; [DPU_3_PIPE] |403|  ; [ORIG 16-BIT INS]
    2115 00000028 4615              MOV       V2, A3                ; [DPU_3_PIPE] |403|  ; [ORIG 16-BIT INS]
    2116                            .dwpsn  file "../Application/Services/nvocop.c",line 417,column 19,is_stmt,isa 1
    2117                    $C$DW$140       .dwtag  DW_TAG_TI_branch
    2118                            .dwattr $C$DW$140, DW_AT_low_pc(0x00)
    2119                            .dwattr $C$DW$140, DW_AT_name("findItem")
    2120                            .dwattr $C$DW$140, DW_AT_TI_call
    2121                    
    2122 0000002a FFFEF7FF!         BL        findItem              ; [DPU_3_PIPE] |417|  ; [KEEP 32-BIT INS]
    2123                            ; CALL OCCURS {findItem }        ; [] |417| 
    2124                            .dwpsn  file "../Application/Services/nvocop.c",line 411,column 3,is_stmt,isa 1
    2125 0000002e 46A0              MOV       V5, V1                ; [DPU_3_PIPE] |411|  ; [ORIG 16-BIT INS]
    2126                            .dwpsn  file "../Application/Services/nvocop.c",line 420,column 5,is_stmt,isa 1
    2127 00000030 1C06              MOVS      V3, A1                ; [DPU_3_PIPE] |420|  ; [ORIG 16-BIT INS]
    2128 00000032 D019              BEQ       ||$C$L36||            ; [DPU_3_PIPE] |420|  ; [ORIG 16-BIT INS]
    2129                            ; BRANCHCC OCCURS {||$C$L36||}   ; [] |420| 
    2130                    ;* --------------------------------------------------------------------------*
    2131 00000034 4654              MOV       V1, V7                ; [DPU_3_PIPE]  ; [ORIG 16-BIT INS]
    2132 00000036 B1AD              CBZ       V2, ||$C$L35||        ; []  ; [ORIG 16-BIT INS]
    2133                            .dwpsn  file "../Application/Services/nvocop.c",line 425,column 19,is_stmt,isa 1
    2134                            ; BRANCHCC OCCURS {||$C$L35||}   ; [] |425| 
    2135                    ;* --------------------------------------------------------------------------*
    2136 00000038 4826              LDR       A1, $C$CON27          ; [DPU_3_PIPE]  ; [ORIG 16-BIT INS]
    2137 0000003a 0B00              LSRS      A1, A1, #12           ; [DPU_3_PIPE]  ; [ORIG 16-BIT INS]
    2138 0000003c F980FA5F          UXTB      V6, A1                ; [DPU_3_PIPE]  ; [KEEP 32-BIT INS]
    2139                    ;* --------------------------------------------------------------------------*
    2140                    ;*   BEGIN LOOP ||$C$L34||
    2141                    ;*
    2142                    ;*   Loop source line                : 425
    2143                    ;*   Loop closing brace source line  : 433
    2144                    ;*   Known Minimum Trip Count        : 1
    2145                    ;*   Known Maximum Trip Count        : 256
TI ARM Assembler PC v16.9.4 Sat Nov 18 18:46:31 2017

Tools Copyright (c) 1996-2017 Texas Instruments Incorporated
C:\Users\Kevin\AppData\Local\Temp\{6C42DDD5-7C92-479C-8F05-55537E4479EC} PAGE   40

    2146                    ;*   Known Max Trip Count Factor     : 1
    2147                    ;* --------------------------------------------------------------------------*
    2148 00000040           ||$C$L34||:    
    2149                            .dwpsn  file "../Application/Services/nvocop.c",line 427,column 9,is_stmt,isa 1
    2150 00000040 4648              MOV       A1, V6                ; [DPU_3_PIPE] |427|  ; [ORIG 16-BIT INS]
    2151 00000042 4631              MOV       A2, V3                ; [DPU_3_PIPE] |427|  ; [ORIG 16-BIT INS]
    2152 00000044 466A              MOV       A3, SP                ; [DPU_3_PIPE] |427|  ; [ORIG 16-BIT INS]
    2153 00000046 2301              MOVS      A4, #1                ; [DPU_3_PIPE] |427|  ; [ORIG 16-BIT INS]
    2154                    $C$DW$141       .dwtag  DW_TAG_TI_branch
    2155                            .dwattr $C$DW$141, DW_AT_low_pc(0x00)
    2156                            .dwattr $C$DW$141, DW_AT_name("HalFlashRead")
    2157                            .dwattr $C$DW$141, DW_AT_TI_call
    2158                    
    2159 00000048 FFFEF7FF!         BL        HalFlashRead          ; [DPU_3_PIPE] |427|  ; [KEEP 32-BIT INS]
    2160                            ; CALL OCCURS {HalFlashRead }    ; [] |427| 
    2161                            .dwpsn  file "../Application/Services/nvocop.c",line 430,column 11,is_stmt,isa 1
    2162 0000004c 0004F81B          LDRB      A1, [V8, +V1]         ; [DPU_3_PIPE] |430|  ; [KEEP 32-BIT INS]
    2163 00000050 1000F89D          LDRB      A2, [SP, #0]          ; [DPU_3_PIPE] |430|  ; [KEEP 32-BIT INS]
    2164 00000054 4288              CMP       A1, A2                ; [DPU_3_PIPE] |430|  ; [ORIG 16-BIT INS]
    2165 00000056 D105              BNE       ||$C$L35||            ; [DPU_3_PIPE] |430|  ; [ORIG 16-BIT INS]
    2166                            ; BRANCHCC OCCURS {||$C$L35||}   ; [] |430| 
    2167                    ;* --------------------------------------------------------------------------*
    2168                            .dwpsn  file "../Application/Services/nvocop.c",line 425,column 28,is_stmt,isa 1
    2169 00000058 1C64              ADDS      V1, V1, #1            ; [DPU_3_PIPE] |425|  ; [ORIG 16-BIT INS]
    2170                            .dwpsn  file "../Application/Services/nvocop.c",line 432,column 9,is_stmt,isa 1
    2171 0000005a 1C76              ADDS      V3, V3, #1            ; [DPU_3_PIPE] |432|  ; [ORIG 16-BIT INS]
    2172                            .dwpsn  file "../Application/Services/nvocop.c",line 425,column 28,is_stmt,isa 1
    2173 0000005c B2E4              UXTB      V1, V1                ; [DPU_3_PIPE] |425|  ; [ORIG 16-BIT INS]
    2174                            .dwpsn  file "../Application/Services/nvocop.c",line 432,column 9,is_stmt,isa 1
    2175 0000005e B2B6              UXTH      V3, V3                ; [DPU_3_PIPE] |432|  ; [ORIG 16-BIT INS]
    2176                            .dwpsn  file "../Application/Services/nvocop.c",line 425,column 28,is_stmt,isa 1
    2177 00000060 42A5              CMP       V2, V1                ; [DPU_3_PIPE] |425|  ; [ORIG 16-BIT INS]
    2178 00000062 DCED              BGT       ||$C$L34||            ; [DPU_3_PIPE] |425|  ; [ORIG 16-BIT INS]
    2179                            ; BRANCHCC OCCURS {||$C$L34||}   ; [] |425| 
    2180                    ;* --------------------------------------------------------------------------*
    2181 00000064           ||$C$L35||:    
    2182                            .dwpsn  file "../Application/Services/nvocop.c",line 435,column 7,is_stmt,isa 1
    2183 00000064 42A5              CMP       V2, V1                ; [DPU_3_PIPE] |435|  ; [ORIG 16-BIT INS]
    2184 00000066 D02E              BEQ       ||$C$L38||            ; [DPU_3_PIPE] |435|  ; [ORIG 16-BIT INS]
    2185                            ; BRANCHCC OCCURS {||$C$L38||}   ; [] |435| 
    2186                    ;* --------------------------------------------------------------------------*
    2187 00000068           ||$C$L36||:    
    2188                            .dwpsn  file "../Application/Services/nvocop.c",line 446,column 3,is_stmt,isa 1
    2189 00000068 0002F8B8          LDRH      A1, [V5, #2]          ; [DPU_3_PIPE] |446|  ; [KEEP 32-BIT INS]
    2190                            .dwpsn  file "../Application/Services/nvocop.c",line 444,column 3,is_stmt,isa 1
    2191 0000006c 1CED              ADDS      V2, V2, #3            ; [DPU_3_PIPE] |444|  ; [ORIG 16-BIT INS]
    2192 0000006e 74FCF64F          MOV       V1, #65532            ; [DPU_3_PIPE] |444|  ; [KEEP 32-BIT INS]
    2193 00000072 402C              ANDS      V1, V1, V2            ; [DPU_3_PIPE] |444|  ; [ORIG 16-BIT INS]
    2194                            .dwpsn  file "../Application/Services/nvocop.c",line 446,column 3,is_stmt,isa 1
    2195 00000074 75F8F640          MOV       V2, #4088             ; [DPU_3_PIPE] |446|  ; [KEEP 32-BIT INS]
    2196 00000078 1820              ADDS      A1, V1, A1            ; [DPU_3_PIPE] |446|  ; [ORIG 16-BIT INS]
    2197 0000007a 4285              CMP       V2, A1                ; [DPU_3_PIPE] |446|  ; [ORIG 16-BIT INS]
    2198 0000007c DA0A              BGE       ||$C$L37||            ; [DPU_3_PIPE] |446|  ; [ORIG 16-BIT INS]
    2199                            ; BRANCHCC OCCURS {||$C$L37||}   ; [] |446| 
    2200                    ;* --------------------------------------------------------------------------*
TI ARM Assembler PC v16.9.4 Sat Nov 18 18:46:31 2017

Tools Copyright (c) 1996-2017 Texas Instruments Incorporated
C:\Users\Kevin\AppData\Local\Temp\{6C42DDD5-7C92-479C-8F05-55537E4479EC} PAGE   41

    2201                            .dwpsn  file "../Application/Services/nvocop.c",line 448,column 5,is_stmt,isa 1
    2202                    $C$DW$142       .dwtag  DW_TAG_TI_branch
    2203                            .dwattr $C$DW$142, DW_AT_low_pc(0x00)
    2204                            .dwattr $C$DW$142, DW_AT_name("setXferPage")
    2205                            .dwattr $C$DW$142, DW_AT_TI_call
    2206                    
    2207 0000007e FFFEF7FF!         BL        setXferPage           ; [DPU_3_PIPE] |448|  ; [KEEP 32-BIT INS]
    2208                            ; CALL OCCURS {setXferPage }     ; [] |448| 
    2209                            .dwpsn  file "../Application/Services/nvocop.c",line 449,column 5,is_stmt,isa 1
    2210                    $C$DW$143       .dwtag  DW_TAG_TI_branch
    2211                            .dwattr $C$DW$143, DW_AT_low_pc(0x00)
    2212                            .dwattr $C$DW$143, DW_AT_name("compactPage")
    2213                            .dwattr $C$DW$143, DW_AT_TI_call
    2214                    
    2215 00000082 FFFEF7FF!         BL        compactPage           ; [DPU_3_PIPE] |449|  ; [KEEP 32-BIT INS]
    2216                            ; CALL OCCURS {compactPage }     ; [] |449| 
    2217                            .dwpsn  file "../Application/Services/nvocop.c",line 452,column 5,is_stmt,isa 1
    2218 00000086 0002F8B8          LDRH      A1, [V5, #2]          ; [DPU_3_PIPE] |452|  ; [KEEP 32-BIT INS]
    2219 0000008a 1820              ADDS      A1, V1, A1            ; [DPU_3_PIPE] |452|  ; [ORIG 16-BIT INS]
    2220 0000008c 4285              CMP       V2, A1                ; [DPU_3_PIPE] |452|  ; [ORIG 16-BIT INS]
    2221 0000008e BFB8              IT        LT                    ; [DPU_3_PIPE]  ; [ORIG 16-BIT INS]
    2222                            .dwpsn  file "../Application/Services/nvocop.c",line 454,column 9,is_stmt,isa 1
    2223 00000090 2001              MOVLT     A1, #1                ; [DPU_3_PIPE] |454|  ; [ORIG 16-BIT INS]
    2224 00000092 DB19              BLT       ||$C$L39||            ; [DPU_3_PIPE] |454|  ; [ORIG 16-BIT INS]
    2225                            ; BRANCHCC OCCURS {||$C$L39||}   ; [] |454| 
    2226                    ;* --------------------------------------------------------------------------*
    2227 00000094           ||$C$L37||:    
    2228                            .dwpsn  file "../Application/Services/nvocop.c",line 463,column 3,is_stmt,isa 1
    2229 00000094 6839              LDR       A2, [V4, #0]          ; [DPU_3_PIPE] |463|  ; [ORIG 16-BIT INS]
    2230 00000096 A802              ADD       A1, SP, #8            ; [DPU_3_PIPE] |463|  ; [ORIG 16-BIT INS]
    2231 00000098 88BE              LDRH      V3, [V4, #4]          ; [DPU_3_PIPE] |463|  ; [ORIG 16-BIT INS]
    2232 0000009a 6001              STR       A2, [A1, #0]          ; [DPU_3_PIPE] |463|  ; [ORIG 16-BIT INS]
    2233 0000009c AD02              ADD       V2, SP, #8            ; [DPU_3_PIPE] |463|  ; [ORIG 16-BIT INS]
    2234 0000009e 8086              STRH      V3, [A1, #4]          ; [DPU_3_PIPE] |463|  ; [ORIG 16-BIT INS]
    2235 000000a0 0003E895          LDMIA     V2, {A1,A2}           ; [DPU_3_PIPE] |463|  ; [KEEP 32-BIT INS]
    2236 000000a4 4622              MOV       A3, V1                ; [DPU_3_PIPE] |463|  ; [ORIG 16-BIT INS]
    2237 000000a6 465B              MOV       A4, V8                ; [DPU_3_PIPE] |463|  ; [ORIG 16-BIT INS]
    2238                    $C$DW$144       .dwtag  DW_TAG_TI_branch
    2239                            .dwattr $C$DW$144, DW_AT_low_pc(0x00)
    2240                            .dwattr $C$DW$144, DW_AT_name("writeItem")
    2241                            .dwattr $C$DW$144, DW_AT_TI_call
    2242                    
    2243 000000a8 FFFEF7FF!         BL        writeItem             ; [DPU_3_PIPE] |463|  ; [KEEP 32-BIT INS]
    2244                            ; CALL OCCURS {writeItem }       ; [] |463| 
    2245                            .dwpsn  file "../Application/Services/nvocop.c",line 467,column 3,is_stmt,isa 1
    2246 000000ac 0001F898          LDRB      A1, [V5, #1]          ; [DPU_3_PIPE] |467|  ; [KEEP 32-BIT INS]
    2247 000000b0 1002F8B8          LDRH      A2, [V5, #2]          ; [DPU_3_PIPE] |467|  ; [KEEP 32-BIT INS]
    2248 000000b4 2800              CMP       A1, #0                ; [DPU_3_PIPE] |467|  ; [ORIG 16-BIT INS]
    2249 000000b6 BF18              IT        NE                    ; [DPU_3_PIPE]  ; [ORIG 16-BIT INS]
    2250 000000b8 4682              MOVNE     V7, A1                ; [DPU_3_PIPE]  ; [ORIG 16-BIT INS]
    2251                            .dwpsn  file "../Application/Services/nvocop.c",line 469,column 5,is_stmt,isa 1
    2252 000000ba D104              BNE       ||$C$L38||            ; [DPU_3_PIPE] |469|  ; [ORIG 16-BIT INS]
    2253                            ; BRANCHCC OCCURS {||$C$L38||}   ; [] |469| 
    2254                    ;* --------------------------------------------------------------------------*
    2255                            .dwpsn  file "../Application/Services/nvocop.c",line 472,column 3,is_stmt,isa 1
TI ARM Assembler PC v16.9.4 Sat Nov 18 18:46:31 2017

Tools Copyright (c) 1996-2017 Texas Instruments Incorporated
C:\Users\Kevin\AppData\Local\Temp\{6C42DDD5-7C92-479C-8F05-55537E4479EC} PAGE   42

    2256 000000bc 1909              ADDS      A2, A2, V1            ; [DPU_3_PIPE] |472|  ; [ORIG 16-BIT INS]
    2257 000000be 3108              ADDS      A2, A2, #8            ; [DPU_3_PIPE] |472|  ; [ORIG 16-BIT INS]
    2258 000000c0 B288              UXTH      A1, A2                ; [DPU_3_PIPE] |472|  ; [ORIG 16-BIT INS]
    2259 000000c2 0002F8A8          STRH      A1, [V5, #2]          ; [DPU_3_PIPE] |472|  ; [KEEP 32-BIT INS]
    2260                    ;* --------------------------------------------------------------------------*
    2261 000000c6           ||$C$L38||:    
    2262 000000c6 4650              MOV       A1, V7                ; [DPU_3_PIPE] |472|  ; [ORIG 16-BIT INS]
    2263                    ;* --------------------------------------------------------------------------*
    2264 000000c8           ||$C$L39||:    
    2265 000000c8 B005              ADD       SP, SP, #20           ; [DPU_3_PIPE]  ; [ORIG 16-BIT INS]
    2266                            .dwcfi  cfa_offset, 44
    2267 000000ca 4FF0E8BD          POP       {V1, V2, V3, V4, V5, V6, V7, V8, LR} ; [DPU_3_PIPE]  ; [KEEP 32-BIT INS]
    2268                            .dwcfi  cfa_offset, 8
    2269                            .dwcfi  restore_reg, 14
    2270                            .dwcfi  restore_reg, 11
    2271                            .dwcfi  restore_reg, 10
    2272                            .dwcfi  restore_reg, 9
    2273                            .dwcfi  restore_reg, 8
    2274                            .dwcfi  restore_reg, 7
    2275                            .dwcfi  restore_reg, 6
    2276                            .dwcfi  restore_reg, 5
    2277                            .dwcfi  restore_reg, 4
    2278 000000ce B002              ADD       SP, SP, #8            ; [DPU_3_PIPE]  ; [ORIG 16-BIT INS]
    2279                            .dwcfi  cfa_offset, 0
    2280                    $C$DW$145       .dwtag  DW_TAG_TI_branch
    2281                            .dwattr $C$DW$145, DW_AT_low_pc(0x00)
    2282                            .dwattr $C$DW$145, DW_AT_TI_return
    2283                    
    2284 000000d0 4770              BX        LR                    ; [DPU_3_PIPE]  ; [ORIG 16-BIT INS]
    2285                            ; BRANCH OCCURS                  ; [] 
    2286                            .dwattr $C$DW$130, DW_AT_TI_end_file("../Application/Services/nvocop.c")
    2287                            .dwattr $C$DW$130, DW_AT_TI_end_line(0x1df)
    2288                            .dwattr $C$DW$130, DW_AT_TI_end_column(0x01)
    2289                            .dwendentry
    2290                            .dwendtag $C$DW$130
    2291                    
    2292 00000000                   .sect   ".text:NVOCOP_readItem"
    2293                            .clink
    2294                            .thumbfunc NVOCOP_readItem
    2295 00000000                   .thumb
    2296                            .global NVOCOP_readItem
    2297                    
    2298                    $C$DW$146       .dwtag  DW_TAG_subprogram
    2299                            .dwattr $C$DW$146, DW_AT_name("NVOCOP_readItem")
    2300                            .dwattr $C$DW$146, DW_AT_low_pc(NVOCOP_readItem)
    2301                            .dwattr $C$DW$146, DW_AT_high_pc(0x00)
    2302                            .dwattr $C$DW$146, DW_AT_TI_symbol_name("NVOCOP_readItem")
    2303                            .dwattr $C$DW$146, DW_AT_external
    2304                            .dwattr $C$DW$146, DW_AT_type(*$C$DW$T$73)
    2305                            .dwattr $C$DW$146, DW_AT_TI_begin_file("../Application/Services/nvocop.c")
    2306                            .dwattr $C$DW$146, DW_AT_TI_begin_line(0x171)
    2307                            .dwattr $C$DW$146, DW_AT_TI_begin_column(0x07)
    2308                            .dwattr $C$DW$146, DW_AT_decl_file("../Application/Services/nvocop.c")
    2309                            .dwattr $C$DW$146, DW_AT_decl_line(0x171)
    2310                            .dwattr $C$DW$146, DW_AT_decl_column(0x07)
TI ARM Assembler PC v16.9.4 Sat Nov 18 18:46:31 2017

Tools Copyright (c) 1996-2017 Texas Instruments Incorporated
C:\Users\Kevin\AppData\Local\Temp\{6C42DDD5-7C92-479C-8F05-55537E4479EC} PAGE   43

    2311                            .dwattr $C$DW$146, DW_AT_TI_max_frame_size(0x20)
    2312                            .dwpsn  file "../Application/Services/nvocop.c",line 370,column 1,is_stmt,address NVOCOP_readI
    2313                    
    2314                            .dwfde $C$DW$CIE, NVOCOP_readItem
    2315                    $C$DW$147       .dwtag  DW_TAG_formal_parameter
    2316                            .dwattr $C$DW$147, DW_AT_name("nv_id")
    2317                            .dwattr $C$DW$147, DW_AT_TI_symbol_name("nv_id")
    2318                            .dwattr $C$DW$147, DW_AT_type(*$C$DW$T$166)
    2319                            .dwattr $C$DW$147, DW_AT_location[DW_OP_breg13 24]
    2320                    
    2321                    $C$DW$148       .dwtag  DW_TAG_formal_parameter
    2322                            .dwattr $C$DW$148, DW_AT_name("offset")
    2323                            .dwattr $C$DW$148, DW_AT_TI_symbol_name("offset")
    2324                            .dwattr $C$DW$148, DW_AT_type(*$C$DW$T$19)
    2325                            .dwattr $C$DW$148, DW_AT_location[DW_OP_reg2]
    2326                    
    2327                    $C$DW$149       .dwtag  DW_TAG_formal_parameter
    2328                            .dwattr $C$DW$149, DW_AT_name("len")
    2329                            .dwattr $C$DW$149, DW_AT_TI_symbol_name("len")
    2330                            .dwattr $C$DW$149, DW_AT_type(*$C$DW$T$19)
    2331                            .dwattr $C$DW$149, DW_AT_location[DW_OP_reg3]
    2332                    
    2333                    $C$DW$150       .dwtag  DW_TAG_formal_parameter
    2334                            .dwattr $C$DW$150, DW_AT_name("pBuf")
    2335                            .dwattr $C$DW$150, DW_AT_TI_symbol_name("pBuf")
    2336                            .dwattr $C$DW$150, DW_AT_type(*$C$DW$T$3)
    2337                            .dwattr $C$DW$150, DW_AT_location[DW_OP_breg13 32]
    2338                    
    2339                    
    2340                    ;*****************************************************************************
    2341                    ;* FUNCTION NAME: NVOCOP_readItem                                            *
    2342                    ;*                                                                           *
    2343                    ;*   Regs Modified     : A1,A2,A3,A4,V1,V4,V9,SP,LR,SR                       *
    2344                    ;*   Regs Used         : A1,A2,A3,A4,V1,V4,V9,SP,LR,SR                       *
    2345                    ;*   Local Frame Size  : 0 Args + 8 Auto + 12 Save = 20 byte                 *
    2346                    ;*****************************************************************************
    2347                    NVOCOP_readItem:
    2348                    ;* --------------------------------------------------------------------------*
    2349                    ;* V1    assigned to len
    2350                    $C$DW$151       .dwtag  DW_TAG_variable
    2351                            .dwattr $C$DW$151, DW_AT_name("len")
    2352                            .dwattr $C$DW$151, DW_AT_TI_symbol_name("len")
    2353                            .dwattr $C$DW$151, DW_AT_type(*$C$DW$T$277)
    2354                            .dwattr $C$DW$151, DW_AT_location[DW_OP_reg4]
    2355                    
    2356                    ;* A2    assigned to itemOffset
    2357                    $C$DW$152       .dwtag  DW_TAG_variable
    2358                            .dwattr $C$DW$152, DW_AT_name("itemOffset")
    2359                            .dwattr $C$DW$152, DW_AT_TI_symbol_name("itemOffset")
    2360                            .dwattr $C$DW$152, DW_AT_type(*$C$DW$T$10)
    2361                            .dwattr $C$DW$152, DW_AT_location[DW_OP_reg1]
    2362                    
    2363                            .dwcfi  cfa_offset, 0
    2364 00000000 B403              PUSH      {A1, A2}              ; [DPU_3_PIPE]  ; [ORIG 16-BIT INS]
    2365                            .dwcfi  cfa_offset, 8
TI ARM Assembler PC v16.9.4 Sat Nov 18 18:46:31 2017

Tools Copyright (c) 1996-2017 Texas Instruments Incorporated
C:\Users\Kevin\AppData\Local\Temp\{6C42DDD5-7C92-479C-8F05-55537E4479EC} PAGE   44

    2366                            .dwcfi  save_reg_to_mem, 1, -4
    2367                            .dwcfi  save_reg_to_mem, 0, -8
    2368 00000002 B590              PUSH      {V1, V4, LR}          ; [DPU_3_PIPE]  ; [ORIG 16-BIT INS]
    2369                            .dwcfi  cfa_offset, 20
    2370                            .dwcfi  save_reg_to_mem, 14, -12
    2371                            .dwcfi  save_reg_to_mem, 7, -16
    2372                            .dwcfi  save_reg_to_mem, 4, -20
    2373 00000004 AF03              ADD       V4, SP, #12           ; [DPU_3_PIPE]  ; [ORIG 16-BIT INS]
    2374                            .dwpsn  file "../Application/Services/nvocop.c",line 377,column 21,is_stmt,isa 1
    2375 00000006 6839              LDR       A2, [V4, #0]          ; [DPU_3_PIPE] |377|  ; [ORIG 16-BIT INS]
    2376 00000008 0D0CF1AD          SUB       SP, SP, #12           ; [DPU_3_PIPE]  ; [KEEP 32-BIT INS]
    2377                            .dwcfi  cfa_offset, 32
    2378 0000000c 4668              MOV       A1, SP                ; [DPU_3_PIPE] |377|  ; [ORIG 16-BIT INS]
    2379 0000000e 6001              STR       A2, [A1, #0]          ; [DPU_3_PIPE] |377|  ; [ORIG 16-BIT INS]
    2380 00000010 88B9              LDRH      A2, [V4, #4]          ; [DPU_3_PIPE] |377|  ; [ORIG 16-BIT INS]
    2381 00000012 8081              STRH      A2, [A1, #4]          ; [DPU_3_PIPE] |377|  ; [ORIG 16-BIT INS]
    2382 00000014 0003E89D          LDMIA     SP, {A1,A2}           ; [DPU_3_PIPE] |377|  ; [KEEP 32-BIT INS]
    2383                            .dwpsn  file "../Application/Services/nvocop.c",line 370,column 1,is_stmt,isa 1
    2384 00000018 461C              MOV       V1, A4                ; [DPU_3_PIPE] |370|  ; [ORIG 16-BIT INS]
    2385                            .dwpsn  file "../Application/Services/nvocop.c",line 377,column 21,is_stmt,isa 1
    2386                    $C$DW$153       .dwtag  DW_TAG_TI_branch
    2387                            .dwattr $C$DW$153, DW_AT_low_pc(0x00)
    2388                            .dwattr $C$DW$153, DW_AT_name("findItem")
    2389                            .dwattr $C$DW$153, DW_AT_TI_call
    2390                    
    2391 0000001a FFFEF7FF!         BL        findItem              ; [DPU_3_PIPE] |377|  ; [KEEP 32-BIT INS]
    2392                            ; CALL OCCURS {findItem }        ; [] |377| 
    2393 0000001e 1C01              MOVS      A2, A1                ; [DPU_3_PIPE] |377|  ; [ORIG 16-BIT INS]
    2394 00000020 D008              BEQ       ||$C$L40||            ; [DPU_3_PIPE] |377|  ; [ORIG 16-BIT INS]
    2395                            ; BRANCHCC OCCURS {||$C$L40||}   ; [] |377| 
    2396                    ;* --------------------------------------------------------------------------*
    2397                            .dwpsn  file "../Application/Services/nvocop.c",line 382,column 5,is_stmt,isa 1
    2398 00000022 4807              LDR       A1, $C$CON30          ; [DPU_3_PIPE] |382|  ; [ORIG 16-BIT INS]
    2399 00000024 68BA              LDR       A3, [V4, #8]          ; [DPU_3_PIPE] |382|  ; [ORIG 16-BIT INS]
    2400 00000026 4623              MOV       A4, V1                ; [DPU_3_PIPE] |382|  ; [ORIG 16-BIT INS]
    2401 00000028 0B00              LSRS      A1, A1, #12           ; [DPU_3_PIPE] |382|  ; [ORIG 16-BIT INS]
    2402 0000002a B2C0              UXTB      A1, A1                ; [DPU_3_PIPE] |382|  ; [ORIG 16-BIT INS]
    2403                    $C$DW$154       .dwtag  DW_TAG_TI_branch
    2404                            .dwattr $C$DW$154, DW_AT_low_pc(0x00)
    2405                            .dwattr $C$DW$154, DW_AT_name("HalFlashRead")
    2406                            .dwattr $C$DW$154, DW_AT_TI_call
    2407                    
    2408 0000002c FFFEF7FF!         BL        HalFlashRead          ; [DPU_3_PIPE] |382|  ; [KEEP 32-BIT INS]
    2409                            ; CALL OCCURS {HalFlashRead }    ; [] |382| 
    2410                            .dwpsn  file "../Application/Services/nvocop.c",line 384,column 5,is_stmt,isa 1
    2411 00000030 2000              MOVS      A1, #0                ; [DPU_3_PIPE] |384|  ; [ORIG 16-BIT INS]
    2412 00000032 E000              B         ||$C$L41||            ; [DPU_3_PIPE] |384|  ; [ORIG 16-BIT INS]
    2413                            ; BRANCH OCCURS {||$C$L41||}     ; [] |384| 
    2414                    ;* --------------------------------------------------------------------------*
    2415 00000034           ||$C$L40||:    
    2416                            .dwpsn  file "../Application/Services/nvocop.c",line 388,column 3,is_stmt,isa 1
    2417 00000034 2001              MOVS      A1, #1                ; [DPU_3_PIPE] |388|  ; [ORIG 16-BIT INS]
    2418                    ;* --------------------------------------------------------------------------*
    2419 00000036           ||$C$L41||:    
    2420 00000036 B003              ADD       SP, SP, #12           ; [DPU_3_PIPE]  ; [ORIG 16-BIT INS]
TI ARM Assembler PC v16.9.4 Sat Nov 18 18:46:31 2017

Tools Copyright (c) 1996-2017 Texas Instruments Incorporated
C:\Users\Kevin\AppData\Local\Temp\{6C42DDD5-7C92-479C-8F05-55537E4479EC} PAGE   45

    2421                            .dwcfi  cfa_offset, 20
    2422 00000038 4090E8BD          POP       {V1, V4, LR}          ; [DPU_3_PIPE]  ; [KEEP 32-BIT INS]
    2423                            .dwcfi  cfa_offset, 8
    2424                            .dwcfi  restore_reg, 14
    2425                            .dwcfi  restore_reg, 7
    2426                            .dwcfi  restore_reg, 4
    2427 0000003c B002              ADD       SP, SP, #8            ; [DPU_3_PIPE]  ; [ORIG 16-BIT INS]
    2428                            .dwcfi  cfa_offset, 0
    2429                    $C$DW$155       .dwtag  DW_TAG_TI_branch
    2430                            .dwattr $C$DW$155, DW_AT_low_pc(0x00)
    2431                            .dwattr $C$DW$155, DW_AT_TI_return
    2432                    
    2433 0000003e 4770              BX        LR                    ; [DPU_3_PIPE]  ; [ORIG 16-BIT INS]
    2434                            ; BRANCH OCCURS                  ; [] 
    2435                            .dwattr $C$DW$146, DW_AT_TI_end_file("../Application/Services/nvocop.c")
    2436                            .dwattr $C$DW$146, DW_AT_TI_end_line(0x185)
    2437                            .dwattr $C$DW$146, DW_AT_TI_end_column(0x01)
    2438                            .dwendentry
    2439                            .dwendtag $C$DW$146
    2440                    
    2441 00000000                   .sect   ".text:findOffset"
    2442                            .clink
    2443                            .thumbfunc findOffset
    2444 00000000                   .thumb
    2445                    
    2446                    $C$DW$156       .dwtag  DW_TAG_subprogram
    2447                            .dwattr $C$DW$156, DW_AT_name("findOffset")
    2448                            .dwattr $C$DW$156, DW_AT_low_pc(findOffset)
    2449                            .dwattr $C$DW$156, DW_AT_high_pc(0x00)
    2450                            .dwattr $C$DW$156, DW_AT_TI_symbol_name("findOffset")
    2451                            .dwattr $C$DW$156, DW_AT_TI_begin_file("../Application/Services/nvocop.c")
    2452                            .dwattr $C$DW$156, DW_AT_TI_begin_line(0x25a)
    2453                            .dwattr $C$DW$156, DW_AT_TI_begin_column(0x0d)
    2454                            .dwattr $C$DW$156, DW_AT_decl_file("../Application/Services/nvocop.c")
    2455                            .dwattr $C$DW$156, DW_AT_decl_line(0x25a)
    2456                            .dwattr $C$DW$156, DW_AT_decl_column(0x0d)
    2457                            .dwattr $C$DW$156, DW_AT_TI_max_frame_size(0x10)
    2458                            .dwpsn  file "../Application/Services/nvocop.c",line 603,column 1,is_stmt,address findOffset,i
    2459                    
    2460                            .dwfde $C$DW$CIE, findOffset
    2461                    
    2462                    ;*****************************************************************************
    2463                    ;* FUNCTION NAME: findOffset                                                 *
    2464                    ;*                                                                           *
    2465                    ;*   Regs Modified     : A1,A2,A3,A4,V1,V2,V9,SP,LR,SR                       *
    2466                    ;*   Regs Used         : A1,A2,A3,A4,V1,V2,V9,SP,LR,SR                       *
    2467                    ;*   Local Frame Size  : 0 Args + 4 Auto + 12 Save = 16 byte                 *
    2468                    ;*****************************************************************************
    2469                    findOffset:
    2470                    ;* --------------------------------------------------------------------------*
    2471                    $C$DW$157       .dwtag  DW_TAG_variable
    2472                            .dwattr $C$DW$157, DW_AT_name("tmp")
    2473                            .dwattr $C$DW$157, DW_AT_TI_symbol_name("tmp")
    2474                            .dwattr $C$DW$157, DW_AT_type(*$C$DW$T$210)
    2475                            .dwattr $C$DW$157, DW_AT_location[DW_OP_breg13 0]
TI ARM Assembler PC v16.9.4 Sat Nov 18 18:46:31 2017

Tools Copyright (c) 1996-2017 Texas Instruments Incorporated
C:\Users\Kevin\AppData\Local\Temp\{6C42DDD5-7C92-479C-8F05-55537E4479EC} PAGE   46

    2476                    
    2477                    ;* V2    assigned to $O$K10
    2478                    ;* V1    assigned to offset
    2479                    $C$DW$158       .dwtag  DW_TAG_variable
    2480                            .dwattr $C$DW$158, DW_AT_name("offset")
    2481                            .dwattr $C$DW$158, DW_AT_TI_symbol_name("offset")
    2482                            .dwattr $C$DW$158, DW_AT_type(*$C$DW$T$19)
    2483                            .dwattr $C$DW$158, DW_AT_location[DW_OP_reg4]
    2484                    
    2485                            .dwcfi  cfa_offset, 0
    2486 00000000 480C              LDR       A1, $C$CON33          ; [DPU_3_PIPE]  ; [ORIG 16-BIT INS]
    2487 00000002 B538              PUSH      {A4, V1, V2, LR}      ; [DPU_3_PIPE]  ; [ORIG 16-BIT INS]
    2488                            .dwcfi  cfa_offset, 16
    2489                            .dwcfi  save_reg_to_mem, 14, -4
    2490                            .dwcfi  save_reg_to_mem, 5, -8
    2491                            .dwcfi  save_reg_to_mem, 4, -12
    2492                            .dwcfi  save_reg_to_mem, 3, -16
    2493                            .dwpsn  file "../Application/Services/nvocop.c",line 605,column 8,is_stmt,isa 1
    2494 00000004 74FCF640          MOV       V1, #4092             ; [DPU_3_PIPE] |605|  ; [KEEP 32-BIT INS]
    2495 00000008 0B00              LSRS      A1, A1, #12           ; [DPU_3_PIPE]  ; [ORIG 16-BIT INS]
    2496 0000000a B2C5              UXTB      V2, A1                ; [DPU_3_PIPE]  ; [ORIG 16-BIT INS]
    2497                    ;* --------------------------------------------------------------------------*
    2498                    ;*   BEGIN LOOP ||$C$L42||
    2499                    ;*
    2500                    ;*   Loop source line                : 605
    2501                    ;*   Loop closing brace source line  : 616
    2502                    ;*   Known Minimum Trip Count        : 1
    2503                    ;*   Known Maximum Trip Count        : 1023
    2504                    ;*   Known Max Trip Count Factor     : 1
    2505                    ;* --------------------------------------------------------------------------*
    2506 0000000c           ||$C$L42||:    
    2507                            .dwpsn  file "../Application/Services/nvocop.c",line 611,column 5,is_stmt,isa 1
    2508 0000000c 4628              MOV       A1, V2                ; [DPU_3_PIPE] |611|  ; [ORIG 16-BIT INS]
    2509 0000000e 4621              MOV       A2, V1                ; [DPU_3_PIPE] |611|  ; [ORIG 16-BIT INS]
    2510 00000010 466A              MOV       A3, SP                ; [DPU_3_PIPE] |611|  ; [ORIG 16-BIT INS]
    2511 00000012 2304              MOVS      A4, #4                ; [DPU_3_PIPE] |611|  ; [ORIG 16-BIT INS]
    2512                    $C$DW$159       .dwtag  DW_TAG_TI_branch
    2513                            .dwattr $C$DW$159, DW_AT_low_pc(0x00)
    2514                            .dwattr $C$DW$159, DW_AT_name("HalFlashRead")
    2515                            .dwattr $C$DW$159, DW_AT_TI_call
    2516                    
    2517 00000014 FFFEF7FF!         BL        HalFlashRead          ; [DPU_3_PIPE] |611|  ; [KEEP 32-BIT INS]
    2518                            ; CALL OCCURS {HalFlashRead }    ; [] |611| 
    2519                            .dwpsn  file "../Application/Services/nvocop.c",line 614,column 7,is_stmt,isa 1
    2520 00000018 9800              LDR       A1, [SP, #0]          ; [DPU_3_PIPE] |614|  ; [ORIG 16-BIT INS]
    2521 0000001a 3FFFF1B0          CMP       A1, #-1               ; [DPU_3_PIPE] |614|  ; [KEEP 32-BIT INS]
    2522 0000001e D103              BNE       ||$C$L43||            ; [DPU_3_PIPE] |614|  ; [ORIG 16-BIT INS]
    2523                            ; BRANCHCC OCCURS {||$C$L43||}   ; [] |614| 
    2524                    ;* --------------------------------------------------------------------------*
    2525                            .dwpsn  file "../Application/Services/nvocop.c",line 606,column 8,is_stmt,isa 1
    2526 00000020 1F24              SUBS      V1, V1, #4            ; [DPU_3_PIPE] |606|  ; [ORIG 16-BIT INS]
    2527 00000022 B2A4              UXTH      V1, V1                ; [DPU_3_PIPE] |606|  ; [ORIG 16-BIT INS]
    2528 00000024 2C04              CMP       V1, #4                ; [DPU_3_PIPE] |606|  ; [ORIG 16-BIT INS]
    2529 00000026 DAF1              BGE       ||$C$L42||            ; [DPU_3_PIPE] |606|  ; [ORIG 16-BIT INS]
    2530                            ; BRANCHCC OCCURS {||$C$L42||}   ; [] |606| 
TI ARM Assembler PC v16.9.4 Sat Nov 18 18:46:31 2017

Tools Copyright (c) 1996-2017 Texas Instruments Incorporated
C:\Users\Kevin\AppData\Local\Temp\{6C42DDD5-7C92-479C-8F05-55537E4479EC} PAGE   47

    2531                    ;* --------------------------------------------------------------------------*
    2532 00000028           ||$C$L43||:    
    2533                            .dwpsn  file "../Application/Services/nvocop.c",line 617,column 3,is_stmt,isa 1
    2534 00000028 4801              LDR       A1, $C$CON32          ; [DPU_3_PIPE] |617|  ; [ORIG 16-BIT INS]
    2535 0000002a 1D24              ADDS      V1, V1, #4            ; [DPU_3_PIPE] |617|  ; [ORIG 16-BIT INS]
    2536 0000002c 8004              STRH      V1, [A1, #0]          ; [DPU_3_PIPE] |617|  ; [ORIG 16-BIT INS]
    2537                    $C$DW$160       .dwtag  DW_TAG_TI_branch
    2538                            .dwattr $C$DW$160, DW_AT_low_pc(0x00)
    2539                            .dwattr $C$DW$160, DW_AT_TI_return
    2540                    
    2541 0000002e BD38              POP       {A4, V1, V2, PC}      ; [DPU_3_PIPE]  ; [ORIG 16-BIT INS]
    2542                            .dwcfi  cfa_offset, 0
    2543                            ; BRANCH OCCURS                  ; [] 
    2544                            .dwattr $C$DW$156, DW_AT_TI_end_file("../Application/Services/nvocop.c")
    2545                            .dwattr $C$DW$156, DW_AT_TI_end_line(0x26a)
    2546                            .dwattr $C$DW$156, DW_AT_TI_end_column(0x01)
    2547                            .dwendentry
    2548                            .dwendtag $C$DW$156
    2549                    
    2550 00000000                   .sect   ".text:NVOCOP_initNV"
    2551                            .clink
    2552                            .thumbfunc NVOCOP_initNV
    2553 00000000                   .thumb
    2554                            .global NVOCOP_initNV
    2555                    
    2556                    $C$DW$161       .dwtag  DW_TAG_subprogram
    2557                            .dwattr $C$DW$161, DW_AT_name("NVOCOP_initNV")
    2558                            .dwattr $C$DW$161, DW_AT_low_pc(NVOCOP_initNV)
    2559                            .dwattr $C$DW$161, DW_AT_high_pc(0x00)
    2560                            .dwattr $C$DW$161, DW_AT_TI_symbol_name("NVOCOP_initNV")
    2561                            .dwattr $C$DW$161, DW_AT_external
    2562                            .dwattr $C$DW$161, DW_AT_type(*$C$DW$T$73)
    2563                            .dwattr $C$DW$161, DW_AT_TI_begin_file("../Application/Services/nvocop.c")
    2564                            .dwattr $C$DW$161, DW_AT_TI_begin_line(0x108)
    2565                            .dwattr $C$DW$161, DW_AT_TI_begin_column(0x07)
    2566                            .dwattr $C$DW$161, DW_AT_decl_file("../Application/Services/nvocop.c")
    2567                            .dwattr $C$DW$161, DW_AT_decl_line(0x108)
    2568                            .dwattr $C$DW$161, DW_AT_decl_column(0x07)
    2569                            .dwattr $C$DW$161, DW_AT_TI_max_frame_size(0x10)
    2570                            .dwpsn  file "../Application/Services/nvocop.c",line 265,column 1,is_stmt,address NVOCOP_initN
    2571                    
    2572                            .dwfde $C$DW$CIE, NVOCOP_initNV
    2573                    $C$DW$162       .dwtag  DW_TAG_formal_parameter
    2574                            .dwattr $C$DW$162, DW_AT_name("param")
    2575                            .dwattr $C$DW$162, DW_AT_TI_symbol_name("param")
    2576                            .dwattr $C$DW$162, DW_AT_type(*$C$DW$T$3)
    2577                            .dwattr $C$DW$162, DW_AT_location[DW_OP_reg0]
    2578                    
    2579                    
    2580                    ;*****************************************************************************
    2581                    ;* FUNCTION NAME: NVOCOP_initNV                                              *
    2582                    ;*                                                                           *
    2583                    ;*   Regs Modified     : A1,A2,A3,A4,V1,V9,SP,LR,SR                          *
    2584                    ;*   Regs Used         : A1,A2,A3,A4,V1,V9,SP,LR,SR                          *
    2585                    ;*   Local Frame Size  : 0 Args + 4 Auto + 8 Save = 12 byte                  *
TI ARM Assembler PC v16.9.4 Sat Nov 18 18:46:31 2017

Tools Copyright (c) 1996-2017 Texas Instruments Incorporated
C:\Users\Kevin\AppData\Local\Temp\{6C42DDD5-7C92-479C-8F05-55537E4479EC} PAGE   48

    2586                    ;*****************************************************************************
    2587                    NVOCOP_initNV:
    2588                    ;* --------------------------------------------------------------------------*
    2589                    $C$DW$163       .dwtag  DW_TAG_variable
    2590                            .dwattr $C$DW$163, DW_AT_name("pgHdr")
    2591                            .dwattr $C$DW$163, DW_AT_TI_symbol_name("pgHdr")
    2592                            .dwattr $C$DW$163, DW_AT_type(*$C$DW$T$210)
    2593                            .dwattr $C$DW$163, DW_AT_location[DW_OP_breg13 0]
    2594                    
    2595                    ;* V1    assigned to $O$C16
    2596                    ;* A2    assigned to $O$C17
    2597                    ;* V1    assigned to $O$K4
    2598                            .dwcfi  cfa_offset, 0
    2599 00000000 B51C              PUSH      {A3, A4, V1, LR}      ; [DPU_3_PIPE]  ; [ORIG 16-BIT INS]
    2600                            .dwcfi  cfa_offset, 16
    2601                            .dwcfi  save_reg_to_mem, 14, -4
    2602                            .dwcfi  save_reg_to_mem, 4, -8
    2603                            .dwcfi  save_reg_to_mem, 3, -12
    2604                            .dwcfi  save_reg_to_mem, 2, -16
    2605                            .dwpsn  file "../Application/Services/nvocop.c",line 266,column 3,is_stmt,isa 1
    2606 00000002 4C10              LDR       V1, $C$CON36          ; [DPU_3_PIPE] |266|  ; [ORIG 16-BIT INS]
    2607                            .dwpsn  file "../Application/Services/nvocop.c",line 273,column 3,is_stmt,isa 1
    2608 00000004 4810              LDR       A1, $C$CON37          ; [DPU_3_PIPE] |273|  ; [ORIG 16-BIT INS]
    2609                            .dwpsn  file "../Application/Services/nvocop.c",line 266,column 3,is_stmt,isa 1
    2610 00000006 2100              MOVS      A2, #0                ; [DPU_3_PIPE] |266|  ; [ORIG 16-BIT INS]
    2611                            .dwpsn  file "../Application/Services/nvocop.c",line 273,column 3,is_stmt,isa 1
    2612 00000008 2304              MOVS      A4, #4                ; [DPU_3_PIPE] |273|  ; [ORIG 16-BIT INS]
    2613 0000000a 1EA4              SUBS      V1, V1, #2            ; [DPU_3_PIPE]  ; [ORIG 16-BIT INS]
    2614 0000000c 0B00              LSRS      A1, A1, #12           ; [DPU_3_PIPE] |273|  ; [ORIG 16-BIT INS]
    2615 0000000e 466A              MOV       A3, SP                ; [DPU_3_PIPE] |273|  ; [ORIG 16-BIT INS]
    2616                            .dwpsn  file "../Application/Services/nvocop.c",line 266,column 3,is_stmt,isa 1
    2617 00000010 7061              STRB      A2, [V1, #1]          ; [DPU_3_PIPE] |266|  ; [ORIG 16-BIT INS]
    2618                            .dwpsn  file "../Application/Services/nvocop.c",line 273,column 3,is_stmt,isa 1
    2619 00000012 B2C0              UXTB      A1, A1                ; [DPU_3_PIPE] |273|  ; [ORIG 16-BIT INS]
    2620                            .dwpsn  file "../Application/Services/nvocop.c",line 270,column 3,is_stmt,isa 1
    2621 00000014 7021              STRB      A2, [V1, #0]          ; [DPU_3_PIPE] |270|  ; [ORIG 16-BIT INS]
    2622                            .dwpsn  file "../Application/Services/nvocop.c",line 273,column 3,is_stmt,isa 1
    2623                    $C$DW$164       .dwtag  DW_TAG_TI_branch
    2624                            .dwattr $C$DW$164, DW_AT_low_pc(0x00)
    2625                            .dwattr $C$DW$164, DW_AT_name("HalFlashRead")
    2626                            .dwattr $C$DW$164, DW_AT_TI_call
    2627                    
    2628 00000016 FFFEF7FF!         BL        HalFlashRead          ; [DPU_3_PIPE] |273|  ; [KEEP 32-BIT INS]
    2629                            ; CALL OCCURS {HalFlashRead }    ; [] |273| 
    2630                            .dwpsn  file "../Application/Services/nvocop.c",line 275,column 3,is_stmt,isa 1
    2631 0000001a 9800              LDR       A1, [SP, #0]          ; [DPU_3_PIPE] |275|  ; [ORIG 16-BIT INS]
    2632 0000001c 1F80F5B0          CMP       A1, #1048576          ; [DPU_3_PIPE] |275|  ; [KEEP 32-BIT INS]
    2633 00000020 D00C              BEQ       ||$C$L45||            ; [DPU_3_PIPE] |275|  ; [ORIG 16-BIT INS]
    2634                            ; BRANCHCC OCCURS {||$C$L45||}   ; [] |275| 
    2635                    ;* --------------------------------------------------------------------------*
    2636 00000022 B920              CBNZ      A1, ||$C$L44||        ; []  ; [ORIG 16-BIT INS]
    2637                            .dwpsn  file "../Application/Services/nvocop.c",line 279,column 8,is_stmt,isa 1
    2638                            ; BRANCHCC OCCURS {||$C$L44||}   ; [] |279| 
    2639                    ;* --------------------------------------------------------------------------*
    2640                            .dwpsn  file "../Application/Services/nvocop.c",line 281,column 5,is_stmt,isa 1
TI ARM Assembler PC v16.9.4 Sat Nov 18 18:46:31 2017

Tools Copyright (c) 1996-2017 Texas Instruments Incorporated
C:\Users\Kevin\AppData\Local\Temp\{6C42DDD5-7C92-479C-8F05-55537E4479EC} PAGE   49

    2641                    $C$DW$165       .dwtag  DW_TAG_TI_branch
    2642                            .dwattr $C$DW$165, DW_AT_low_pc(0x00)
    2643                            .dwattr $C$DW$165, DW_AT_name("findOffset")
    2644                            .dwattr $C$DW$165, DW_AT_TI_call
    2645                    
    2646 00000024 FFFEF7FF!         BL        findOffset            ; [DPU_3_PIPE] |281|  ; [KEEP 32-BIT INS]
    2647                            ; CALL OCCURS {findOffset }      ; [] |281| 
    2648                            .dwpsn  file "../Application/Services/nvocop.c",line 283,column 5,is_stmt,isa 1
    2649                    $C$DW$166       .dwtag  DW_TAG_TI_branch
    2650                            .dwattr $C$DW$166, DW_AT_low_pc(0x00)
    2651                            .dwattr $C$DW$166, DW_AT_name("compactPage")
    2652                            .dwattr $C$DW$166, DW_AT_TI_call
    2653                    
    2654 00000028 FFFEF7FF!         BL        compactPage           ; [DPU_3_PIPE] |283|  ; [KEEP 32-BIT INS]
    2655                            ; CALL OCCURS {compactPage }     ; [] |283| 
    2656                            .dwpsn  file "../Application/Services/nvocop.c",line 284,column 3,is_stmt,isa 1
    2657 0000002c E008              B         ||$C$L46||            ; [DPU_3_PIPE] |284|  ; [ORIG 16-BIT INS]
    2658                            ; BRANCH OCCURS {||$C$L46||}     ; [] |284| 
    2659                    ;* --------------------------------------------------------------------------*
    2660 0000002e           ||$C$L44||:    
    2661                            .dwpsn  file "../Application/Services/nvocop.c",line 290,column 5,is_stmt,isa 1
    2662                    $C$DW$167       .dwtag  DW_TAG_TI_branch
    2663                            .dwattr $C$DW$167, DW_AT_low_pc(0x00)
    2664                            .dwattr $C$DW$167, DW_AT_name("erasePage")
    2665                            .dwattr $C$DW$167, DW_AT_TI_call
    2666                    
    2667 0000002e FFFEF7FF!         BL        erasePage             ; [DPU_3_PIPE] |290|  ; [KEEP 32-BIT INS]
    2668                            ; CALL OCCURS {erasePage }       ; [] |290| 
    2669                            .dwpsn  file "../Application/Services/nvocop.c",line 292,column 5,is_stmt,isa 1
    2670                    $C$DW$168       .dwtag  DW_TAG_TI_branch
    2671                            .dwattr $C$DW$168, DW_AT_low_pc(0x00)
    2672                            .dwattr $C$DW$168, DW_AT_name("setActivePage")
    2673                            .dwattr $C$DW$168, DW_AT_TI_call
    2674                    
    2675 00000032 FFFEF7FF!         BL        setActivePage         ; [DPU_3_PIPE] |292|  ; [KEEP 32-BIT INS]
    2676                            ; CALL OCCURS {setActivePage }   ; [] |292| 
    2677                            .dwpsn  file "../Application/Services/nvocop.c",line 294,column 5,is_stmt,isa 1
    2678 00000036 2004              MOVS      A1, #4                ; [DPU_3_PIPE] |294|  ; [ORIG 16-BIT INS]
    2679 00000038 8060              STRH      A1, [V1, #2]          ; [DPU_3_PIPE] |294|  ; [ORIG 16-BIT INS]
    2680 0000003a E001              B         ||$C$L46||            ; [DPU_3_PIPE] |294|  ; [ORIG 16-BIT INS]
    2681                            ; BRANCH OCCURS {||$C$L46||}     ; [] |294| 
    2682                    ;* --------------------------------------------------------------------------*
    2683 0000003c           ||$C$L45||:    
    2684                            .dwpsn  file "../Application/Services/nvocop.c",line 277,column 5,is_stmt,isa 1
    2685                    $C$DW$169       .dwtag  DW_TAG_TI_branch
    2686                            .dwattr $C$DW$169, DW_AT_low_pc(0x00)
    2687                            .dwattr $C$DW$169, DW_AT_name("findOffset")
    2688                            .dwattr $C$DW$169, DW_AT_TI_call
    2689                    
    2690 0000003c FFFEF7FF!         BL        findOffset            ; [DPU_3_PIPE] |277|  ; [KEEP 32-BIT INS]
    2691                            ; CALL OCCURS {findOffset }      ; [] |277| 
    2692                    ;* --------------------------------------------------------------------------*
    2693 00000040           ||$C$L46||:    
    2694                            .dwpsn  file "../Application/Services/nvocop.c",line 297,column 3,is_stmt,isa 1
    2695 00000040 7860              LDRB      A1, [V1, #1]          ; [DPU_3_PIPE] |297|  ; [ORIG 16-BIT INS]
TI ARM Assembler PC v16.9.4 Sat Nov 18 18:46:31 2017

Tools Copyright (c) 1996-2017 Texas Instruments Incorporated
C:\Users\Kevin\AppData\Local\Temp\{6C42DDD5-7C92-479C-8F05-55537E4479EC} PAGE   50

    2696                    $C$DW$170       .dwtag  DW_TAG_TI_branch
    2697                            .dwattr $C$DW$170, DW_AT_low_pc(0x00)
    2698                            .dwattr $C$DW$170, DW_AT_TI_return
    2699                    
    2700 00000042 BD1C              POP       {A3, A4, V1, PC}      ; [DPU_3_PIPE]  ; [ORIG 16-BIT INS]
    2701                            .dwcfi  cfa_offset, 0
    2702                            ; BRANCH OCCURS                  ; [] 
    2703                            .dwattr $C$DW$161, DW_AT_TI_end_file("../Application/Services/nvocop.c")
    2704                            .dwattr $C$DW$161, DW_AT_TI_end_line(0x12e)
    2705                            .dwattr $C$DW$161, DW_AT_TI_end_column(0x01)
    2706                            .dwendentry
    2707                            .dwendtag $C$DW$161
    2708                    
    2709 00000000                   .sect   ".text:NVOCOP_deleteItem"
    2710                            .clink
    2711                            .thumbfunc NVOCOP_deleteItem
    2712 00000000                   .thumb
    2713                            .global NVOCOP_deleteItem
    2714                    
    2715                    $C$DW$171       .dwtag  DW_TAG_subprogram
    2716                            .dwattr $C$DW$171, DW_AT_name("NVOCOP_deleteItem")
    2717                            .dwattr $C$DW$171, DW_AT_low_pc(NVOCOP_deleteItem)
    2718                            .dwattr $C$DW$171, DW_AT_high_pc(0x00)
    2719                            .dwattr $C$DW$171, DW_AT_TI_symbol_name("NVOCOP_deleteItem")
    2720                            .dwattr $C$DW$171, DW_AT_external
    2721                            .dwattr $C$DW$171, DW_AT_type(*$C$DW$T$73)
    2722                            .dwattr $C$DW$171, DW_AT_TI_begin_file("../Application/Services/nvocop.c")
    2723                            .dwattr $C$DW$171, DW_AT_TI_begin_line(0x1ea)
    2724                            .dwattr $C$DW$171, DW_AT_TI_begin_column(0x07)
    2725                            .dwattr $C$DW$171, DW_AT_decl_file("../Application/Services/nvocop.c")
    2726                            .dwattr $C$DW$171, DW_AT_decl_line(0x1ea)
    2727                            .dwattr $C$DW$171, DW_AT_decl_column(0x07)
    2728                            .dwattr $C$DW$171, DW_AT_TI_max_frame_size(0x10)
    2729                            .dwpsn  file "../Application/Services/nvocop.c",line 491,column 1,is_stmt,address NVOCOP_delet
    2730                    
    2731                            .dwfde $C$DW$CIE, NVOCOP_deleteItem
    2732                    $C$DW$172       .dwtag  DW_TAG_formal_parameter
    2733                            .dwattr $C$DW$172, DW_AT_name("id")
    2734                            .dwattr $C$DW$172, DW_AT_TI_symbol_name("id")
    2735                            .dwattr $C$DW$172, DW_AT_type(*$C$DW$T$166)
    2736                            .dwattr $C$DW$172, DW_AT_location[DW_OP_breg13 8]
    2737                    
    2738                    
    2739                    ;*****************************************************************************
    2740                    ;* FUNCTION NAME: NVOCOP_deleteItem                                          *
    2741                    ;*                                                                           *
    2742                    ;*   Regs Modified     : A1,A2,A3,A4,V4,V9,SP,LR,SR                          *
    2743                    ;*   Regs Used         : A1,A2,A3,A4,V4,V9,SP,LR,SR                          *
    2744                    ;*   Local Frame Size  : 0 Args + 0 Auto + 8 Save = 8 byte                   *
    2745                    ;*****************************************************************************
    2746 00000000           NVOCOP_deleteItem:
    2747                    ;* --------------------------------------------------------------------------*
    2748                            .dwcfi  cfa_offset, 0
    2749 00000000 B403              PUSH      {A1, A2}              ; [DPU_3_PIPE]  ; [ORIG 16-BIT INS]
    2750                            .dwcfi  cfa_offset, 8
TI ARM Assembler PC v16.9.4 Sat Nov 18 18:46:31 2017

Tools Copyright (c) 1996-2017 Texas Instruments Incorporated
C:\Users\Kevin\AppData\Local\Temp\{6C42DDD5-7C92-479C-8F05-55537E4479EC} PAGE   51

    2751                            .dwcfi  save_reg_to_mem, 1, -4
    2752                            .dwcfi  save_reg_to_mem, 0, -8
    2753 00000002 B580              PUSH      {V4, LR}              ; [DPU_3_PIPE]  ; [ORIG 16-BIT INS]
    2754                            .dwcfi  cfa_offset, 16
    2755                            .dwcfi  save_reg_to_mem, 14, -12
    2756                            .dwcfi  save_reg_to_mem, 7, -16
    2757 00000004 AF02              ADD       V4, SP, #8            ; [DPU_3_PIPE]  ; [ORIG 16-BIT INS]
    2758                            .dwpsn  file "../Application/Services/nvocop.c",line 492,column 5,is_stmt,isa 1
    2759 00000006 7838              LDRB      A1, [V4, #0]          ; [DPU_3_PIPE] |492|  ; [ORIG 16-BIT INS]
    2760 00000008 28FF              CMP       A1, #255              ; [DPU_3_PIPE] |492|  ; [ORIG 16-BIT INS]
    2761 0000000a D10E              BNE       ||$C$L47||            ; [DPU_3_PIPE] |492|  ; [ORIG 16-BIT INS]
    2762                            ; BRANCHCC OCCURS {||$C$L47||}   ; [] |492| 
    2763                    ;* --------------------------------------------------------------------------*
    2764 0000000c 8879              LDRH      A2, [V4, #2]          ; [DPU_3_PIPE] |492|  ; [ORIG 16-BIT INS]
    2765 0000000e 70FFF64F          MOV       A1, #65535            ; [DPU_3_PIPE] |492|  ; [KEEP 32-BIT INS]
    2766 00000012 4288              CMP       A1, A2                ; [DPU_3_PIPE] |492|  ; [ORIG 16-BIT INS]
    2767 00000014 D109              BNE       ||$C$L47||            ; [DPU_3_PIPE] |492|  ; [ORIG 16-BIT INS]
    2768                            ; BRANCHCC OCCURS {||$C$L47||}   ; [] |492| 
    2769                    ;* --------------------------------------------------------------------------*
    2770 00000016 88B9              LDRH      A2, [V4, #4]          ; [DPU_3_PIPE] |492|  ; [ORIG 16-BIT INS]
    2771 00000018 4288              CMP       A1, A2                ; [DPU_3_PIPE] |492|  ; [ORIG 16-BIT INS]
    2772 0000001a D106              BNE       ||$C$L47||            ; [DPU_3_PIPE] |492|  ; [ORIG 16-BIT INS]
    2773                            ; BRANCHCC OCCURS {||$C$L47||}   ; [] |492| 
    2774                    ;* --------------------------------------------------------------------------*
    2775                            .dwpsn  file "../Application/Services/nvocop.c",line 494,column 9,is_stmt,isa 1
    2776                    $C$DW$173       .dwtag  DW_TAG_TI_branch
    2777                            .dwattr $C$DW$173, DW_AT_low_pc(0x00)
    2778                            .dwattr $C$DW$173, DW_AT_name("erasePage")
    2779                            .dwattr $C$DW$173, DW_AT_TI_call
    2780                    
    2781 0000001c FFFEF7FF!         BL        erasePage             ; [DPU_3_PIPE] |494|  ; [KEEP 32-BIT INS]
    2782                            ; CALL OCCURS {erasePage }       ; [] |494| 
    2783                            .dwpsn  file "../Application/Services/nvocop.c",line 496,column 9,is_stmt,isa 1
    2784                    $C$DW$174       .dwtag  DW_TAG_TI_branch
    2785                            .dwattr $C$DW$174, DW_AT_low_pc(0x00)
    2786                            .dwattr $C$DW$174, DW_AT_name("setActivePage")
    2787                            .dwattr $C$DW$174, DW_AT_TI_call
    2788                    
    2789 00000020 FFFEF7FF!         BL        setActivePage         ; [DPU_3_PIPE] |496|  ; [KEEP 32-BIT INS]
    2790                            ; CALL OCCURS {setActivePage }   ; [] |496| 
    2791                            .dwpsn  file "../Application/Services/nvocop.c",line 498,column 9,is_stmt,isa 1
    2792 00000024 4803              LDR       A1, $C$CON39          ; [DPU_3_PIPE] |498|  ; [ORIG 16-BIT INS]
    2793 00000026 2104              MOVS      A2, #4                ; [DPU_3_PIPE] |498|  ; [ORIG 16-BIT INS]
    2794 00000028 8001              STRH      A2, [A1, #0]          ; [DPU_3_PIPE] |498|  ; [ORIG 16-BIT INS]
    2795                    ;* --------------------------------------------------------------------------*
    2796 0000002a           ||$C$L47||:    
    2797 0000002a 4080E8BD          POP       {V4, LR}              ; [DPU_3_PIPE]  ; [KEEP 32-BIT INS]
    2798                            .dwcfi  cfa_offset, 8
    2799                            .dwcfi  restore_reg, 14
    2800                            .dwcfi  restore_reg, 7
    2801                            .dwpsn  file "../Application/Services/nvocop.c",line 501,column 5,is_stmt,isa 1
    2802 0000002e 2000              MOVS      A1, #0                ; [DPU_3_PIPE] |501|  ; [ORIG 16-BIT INS]
    2803 00000030 B002              ADD       SP, SP, #8            ; [DPU_3_PIPE]  ; [ORIG 16-BIT INS]
    2804                            .dwcfi  cfa_offset, 0
    2805                    $C$DW$175       .dwtag  DW_TAG_TI_branch
TI ARM Assembler PC v16.9.4 Sat Nov 18 18:46:31 2017

Tools Copyright (c) 1996-2017 Texas Instruments Incorporated
C:\Users\Kevin\AppData\Local\Temp\{6C42DDD5-7C92-479C-8F05-55537E4479EC} PAGE   52

    2806                            .dwattr $C$DW$175, DW_AT_low_pc(0x00)
    2807                            .dwattr $C$DW$175, DW_AT_TI_return
    2808                    
    2809 00000032 4770              BX        LR                    ; [DPU_3_PIPE]  ; [ORIG 16-BIT INS]
    2810                            ; BRANCH OCCURS                  ; [] 
    2811                            .dwattr $C$DW$171, DW_AT_TI_end_file("../Application/Services/nvocop.c")
    2812                            .dwattr $C$DW$171, DW_AT_TI_end_line(0x1f6)
    2813                            .dwattr $C$DW$171, DW_AT_TI_end_column(0x01)
    2814                            .dwendentry
    2815                            .dwendtag $C$DW$171
    2816                    
    2817 00000000                   .sect   ".text:NVOCOP_compactNV"
    2818                            .clink
    2819                            .thumbfunc NVOCOP_compactNV
    2820 00000000                   .thumb
    2821                            .global NVOCOP_compactNV
    2822                    
    2823                    $C$DW$176       .dwtag  DW_TAG_subprogram
    2824                            .dwattr $C$DW$176, DW_AT_name("NVOCOP_compactNV")
    2825                            .dwattr $C$DW$176, DW_AT_low_pc(NVOCOP_compactNV)
    2826                            .dwattr $C$DW$176, DW_AT_high_pc(0x00)
    2827                            .dwattr $C$DW$176, DW_AT_TI_symbol_name("NVOCOP_compactNV")
    2828                            .dwattr $C$DW$176, DW_AT_external
    2829                            .dwattr $C$DW$176, DW_AT_type(*$C$DW$T$73)
    2830                            .dwattr $C$DW$176, DW_AT_TI_begin_file("../Application/Services/nvocop.c")
    2831                            .dwattr $C$DW$176, DW_AT_TI_begin_line(0x13c)
    2832                            .dwattr $C$DW$176, DW_AT_TI_begin_column(0x07)
    2833                            .dwattr $C$DW$176, DW_AT_decl_file("../Application/Services/nvocop.c")
    2834                            .dwattr $C$DW$176, DW_AT_decl_line(0x13c)
    2835                            .dwattr $C$DW$176, DW_AT_decl_column(0x07)
    2836                            .dwattr $C$DW$176, DW_AT_TI_max_frame_size(0x10)
    2837                            .dwpsn  file "../Application/Services/nvocop.c",line 317,column 1,is_stmt,address NVOCOP_compa
    2838                    
    2839                            .dwfde $C$DW$CIE, NVOCOP_compactNV
    2840                    $C$DW$177       .dwtag  DW_TAG_formal_parameter
    2841                            .dwattr $C$DW$177, DW_AT_name("minAvail")
    2842                            .dwattr $C$DW$177, DW_AT_TI_symbol_name("minAvail")
    2843                            .dwattr $C$DW$177, DW_AT_type(*$C$DW$T$19)
    2844                            .dwattr $C$DW$177, DW_AT_location[DW_OP_reg0]
    2845                    
    2846                    
    2847                    ;*****************************************************************************
    2848                    ;* FUNCTION NAME: NVOCOP_compactNV                                           *
    2849                    ;*                                                                           *
    2850                    ;*   Regs Modified     : A1,A2,A3,A4,V1,V4,V9,SP,LR,SR                       *
    2851                    ;*   Regs Used         : A1,A2,A3,A4,V1,V4,V9,SP,LR,SR                       *
    2852                    ;*   Local Frame Size  : 0 Args + 0 Auto + 12 Save = 12 byte                 *
    2853                    ;*****************************************************************************
    2854                    NVOCOP_compactNV:
    2855                    ;* --------------------------------------------------------------------------*
    2856                    ;* V1    assigned to $O$C16
    2857                    ;* V1    assigned to $O$K3
    2858                    ;* A1    assigned to $O$v2
    2859                    ;* A1    assigned to minAvail
    2860                    $C$DW$178       .dwtag  DW_TAG_variable
TI ARM Assembler PC v16.9.4 Sat Nov 18 18:46:31 2017

Tools Copyright (c) 1996-2017 Texas Instruments Incorporated
C:\Users\Kevin\AppData\Local\Temp\{6C42DDD5-7C92-479C-8F05-55537E4479EC} PAGE   53

    2861                            .dwattr $C$DW$178, DW_AT_name("minAvail")
    2862                            .dwattr $C$DW$178, DW_AT_TI_symbol_name("minAvail")
    2863                            .dwattr $C$DW$178, DW_AT_type(*$C$DW$T$277)
    2864                            .dwattr $C$DW$178, DW_AT_location[DW_OP_reg0]
    2865                    
    2866                    ;* V4    assigned to ret
    2867                    $C$DW$179       .dwtag  DW_TAG_variable
    2868                            .dwattr $C$DW$179, DW_AT_name("ret")
    2869                            .dwattr $C$DW$179, DW_AT_TI_symbol_name("ret")
    2870                            .dwattr $C$DW$179, DW_AT_type(*$C$DW$T$10)
    2871                            .dwattr $C$DW$179, DW_AT_location[DW_OP_reg7]
    2872                    
    2873                            .dwcfi  cfa_offset, 0
    2874 00000000 B598              PUSH      {A4, V1, V4, LR}      ; [DPU_3_PIPE]  ; [ORIG 16-BIT INS]
    2875                            .dwcfi  cfa_offset, 16
    2876                            .dwcfi  save_reg_to_mem, 14, -4
    2877                            .dwcfi  save_reg_to_mem, 7, -8
    2878                            .dwcfi  save_reg_to_mem, 4, -12
    2879                            .dwcfi  save_reg_to_mem, 3, -16
    2880                            .dwpsn  file "../Application/Services/nvocop.c",line 318,column 13,is_stmt,isa 1
    2881 00000002 4C0E              LDR       V1, $C$CON41          ; [DPU_3_PIPE] |318|  ; [ORIG 16-BIT INS]
    2882 00000004 1EA4              SUBS      V1, V1, #2            ; [DPU_3_PIPE]  ; [ORIG 16-BIT INS]
    2883 00000006 7827              LDRB      V4, [V1, #0]          ; [DPU_3_PIPE] |318|  ; [ORIG 16-BIT INS]
    2884 00000008 2F00              CMP       V4, #0                ; [DPU_3_PIPE] |318|  ; [ORIG 16-BIT INS]
    2885 0000000a BF18              IT        NE                    ; [DPU_3_PIPE]  ; [ORIG 16-BIT INS]
    2886                            .dwpsn  file "../Application/Services/nvocop.c",line 325,column 5,is_stmt,isa 1
    2887 0000000c 2001              MOVNE     A1, #1                ; [DPU_3_PIPE] |325|  ; [ORIG 16-BIT INS]
    2888 0000000e D113              BNE       ||$C$L50||            ; [DPU_3_PIPE] |325|  ; [ORIG 16-BIT INS]
    2889                            ; BRANCHCC OCCURS {||$C$L50||}   ; [] |325| 
    2890                    ;* --------------------------------------------------------------------------*
    2891                            .dwpsn  file "../Application/Services/nvocop.c",line 332,column 3,is_stmt,isa 1
    2892 00000010 8861              LDRH      A2, [V1, #2]          ; [DPU_3_PIPE] |332|  ; [ORIG 16-BIT INS]
    2893 00000012 5180F5C1          RSB       A2, A2, #4096         ; [DPU_3_PIPE] |332|  ; [KEEP 32-BIT INS]
    2894 00000016 B289              UXTH      A2, A2                ; [DPU_3_PIPE] |332|  ; [ORIG 16-BIT INS]
    2895 00000018 4288              CMP       A1, A2                ; [DPU_3_PIPE] |332|  ; [ORIG 16-BIT INS]
    2896 0000001a DC00              BGT       ||$C$L48||            ; [DPU_3_PIPE] |332|  ; [ORIG 16-BIT INS]
    2897                            ; BRANCHCC OCCURS {||$C$L48||}   ; [] |332| 
    2898                    ;* --------------------------------------------------------------------------*
    2899 0000001c B958              CBNZ      A1, ||$C$L49||        ; []  ; [ORIG 16-BIT INS]
    2900                            ; BRANCHCC OCCURS {||$C$L49||}   ; [] |332| 
    2901                    ;* --------------------------------------------------------------------------*
    2902 0000001e           ||$C$L48||:    
    2903                            .dwpsn  file "../Application/Services/nvocop.c",line 335,column 5,is_stmt,isa 1
    2904                    $C$DW$180       .dwtag  DW_TAG_TI_branch
    2905                            .dwattr $C$DW$180, DW_AT_low_pc(0x00)
    2906                            .dwattr $C$DW$180, DW_AT_name("setXferPage")
    2907                            .dwattr $C$DW$180, DW_AT_TI_call
    2908                    
    2909 0000001e FFFEF7FF!         BL        setXferPage           ; [DPU_3_PIPE] |335|  ; [KEEP 32-BIT INS]
    2910                            ; CALL OCCURS {setXferPage }     ; [] |335| 
    2911                            .dwpsn  file "../Application/Services/nvocop.c",line 338,column 5,is_stmt,isa 1
    2912 00000022 2000              MOVS      A1, #0                ; [DPU_3_PIPE] |338|  ; [ORIG 16-BIT INS]
    2913 00000024 7060              STRB      A1, [V1, #1]          ; [DPU_3_PIPE] |338|  ; [ORIG 16-BIT INS]
    2914                            .dwpsn  file "../Application/Services/nvocop.c",line 341,column 5,is_stmt,isa 1
    2915                    $C$DW$181       .dwtag  DW_TAG_TI_branch
TI ARM Assembler PC v16.9.4 Sat Nov 18 18:46:31 2017

Tools Copyright (c) 1996-2017 Texas Instruments Incorporated
C:\Users\Kevin\AppData\Local\Temp\{6C42DDD5-7C92-479C-8F05-55537E4479EC} PAGE   54

    2916                            .dwattr $C$DW$181, DW_AT_low_pc(0x00)
    2917                            .dwattr $C$DW$181, DW_AT_name("compactPage")
    2918                            .dwattr $C$DW$181, DW_AT_TI_call
    2919                    
    2920 00000026 FFFEF7FF!         BL        compactPage           ; [DPU_3_PIPE] |341|  ; [KEEP 32-BIT INS]
    2921                            ; CALL OCCURS {compactPage }     ; [] |341| 
    2922 0000002a B920              CBNZ      A1, ||$C$L49||        ; []  ; [ORIG 16-BIT INS]
    2923                            ; BRANCHCC OCCURS {||$C$L49||}   ; [] |341| 
    2924                    ;* --------------------------------------------------------------------------*
    2925                            .dwpsn  file "../Application/Services/nvocop.c",line 345,column 7,is_stmt,isa 1
    2926 0000002c 7860              LDRB      A1, [V1, #1]          ; [DPU_3_PIPE] |345|  ; [ORIG 16-BIT INS]
    2927 0000002e 2800              CMP       A1, #0                ; [DPU_3_PIPE] |345|  ; [ORIG 16-BIT INS]
    2928 00000030 BF0C              ITE       EQ                    ; [DPU_3_PIPE]  ; [ORIG 16-BIT INS]
    2929 00000032 2701              MOVEQ     V4, #1                ; [DPU_3_PIPE] |345|  ; [ORIG 16-BIT INS]
    2930 00000034 1C07              MOVNE     V4, A1                ; [DPU_3_PIPE] |345|  ; [ORIG 16-BIT INS]
    2931                    ;* --------------------------------------------------------------------------*
    2932 00000036           ||$C$L49||:    
    2933                            .dwpsn  file "../Application/Services/nvocop.c",line 350,column 3,is_stmt,isa 1
    2934 00000036 4638              MOV       A1, V4                ; [DPU_3_PIPE] |350|  ; [ORIG 16-BIT INS]
    2935                    ;* --------------------------------------------------------------------------*
    2936                    ||$C$L50||:    
    2937                    $C$DW$182       .dwtag  DW_TAG_TI_branch
    2938                            .dwattr $C$DW$182, DW_AT_low_pc(0x00)
    2939                            .dwattr $C$DW$182, DW_AT_TI_return
    2940                    
    2941 00000038 BD98              POP       {A4, V1, V4, PC}      ; [DPU_3_PIPE]  ; [ORIG 16-BIT INS]
    2942                            .dwcfi  cfa_offset, 0
    2943                            ; BRANCH OCCURS                  ; [] 
    2944                            .dwattr $C$DW$176, DW_AT_TI_end_file("../Application/Services/nvocop.c")
    2945                            .dwattr $C$DW$176, DW_AT_TI_end_line(0x15f)
    2946                            .dwattr $C$DW$176, DW_AT_TI_end_column(0x01)
    2947                            .dwendentry
    2948                            .dwendtag $C$DW$176
    2949                    
    2950                    ;******************************************************************************
    2951                    ;* CONSTANT TABLE                                                             *
    2952                    ;******************************************************************************
    2953 0000008e                   .sect   ".text:findItem"
    2954                            .align  4
    2955 0000008e 000246C0! ||$C$CON1||:    .bits   ||$O1$$||+2,32
         00000092 00000000 
    2956                            .align  4
    2957 00000092 00000000! ||$C$CON2||:    .bits   NV_FLASH,32
         00000096 00000000 
    2958                    ;******************************************************************************
    2959                    ;* CONSTANT TABLE                                                             *
    2960                    ;******************************************************************************
    2961 00000028                   .sect   ".text:disableCache"
    2962                            .align  4
    2963 00000028 40034000  ||$C$CON3||:    .bits   1073954816,32
    2964                            .align  4
    2965 0000002c 100001D8  ||$C$CON4||:    .bits   268435928,32
    2966                    ;******************************************************************************
    2967                    ;* CONSTANT TABLE                                                             *
    2968                    ;******************************************************************************
TI ARM Assembler PC v16.9.4 Sat Nov 18 18:46:31 2017

Tools Copyright (c) 1996-2017 Texas Instruments Incorporated
C:\Users\Kevin\AppData\Local\Temp\{6C42DDD5-7C92-479C-8F05-55537E4479EC} PAGE   55

    2969 00000012                   .sect   ".text:enableCache"
    2970                            .align  4
    2971 00000012 01D846C0  ||$C$CON5||:    .bits   268435928,32
         00000016 00001000 
    2972                            .align  4
    2973 00000016 40001000  ||$C$CON6||:    .bits   1073954816,32
         0000001a 00004003 
    2974                    ;******************************************************************************
    2975                    ;* CONSTANT TABLE                                                             *
    2976                    ;******************************************************************************
    2977 00000078                   .sect   ".text:writeWord"
    2978                            .align  4
    2979 00000078 00000000! ||$C$CON8||:    .bits   ICall_enterCriticalSection,32
    2980                            .align  4
    2981 0000007c 00000000! ||$C$CON10||:   .bits   ICall_leaveCriticalSection,32
    2982                            .align  4
    2983 00000080 00000000! ||$C$CON11||:   .bits   NV_FLASH,32
    2984                            .align  4
    2985 00000084 00000002! ||$C$CON12||:   .bits   ||$O1$$||+2,32
    2986                    ;******************************************************************************
    2987                    ;* CONSTANT TABLE                                                             *
    2988                    ;******************************************************************************
    2989 0000003e                   .sect   ".text:erasePage"
    2990                            .align  4
    2991 0000003e 000046C0! ||$C$CON14||:   .bits   NV_FLASH,32
         00000042 00000000 
    2992                            .align  4
    2993 00000042 00000000! ||$C$CON15||:   .bits   ||$O1$$||,32
         00000046 00000000 
    2994                            .align  4
    2995 00000046 00000000! ||$C$CON17||:   .bits   ICall_enterCriticalSection,32
         0000004a 00000000 
    2996                            .align  4
    2997 0000004a 00000000! ||$C$CON18||:   .bits   ICall_leaveCriticalSection,32
         0000004e 00000000 
    2998                    ;******************************************************************************
    2999                    ;* CONSTANT TABLE                                                             *
    3000                    ;******************************************************************************
    3001 00000142                   .sect   ".text:compactPage"
    3002                            .align  4
    3003 00000142 000046C0! ||$C$CON23||:   .bits   ||$O1$$||,32
         00000146 00000000 
    3004                            .align  4
    3005 00000146 00000000! ||$C$CON24||:   .bits   NV_FLASH,32
         0000014a 00000000 
    3006                    ;******************************************************************************
    3007                    ;* CONSTANT TABLE                                                             *
    3008                    ;******************************************************************************
    3009 0000009c                   .sect   ".text:writeItem"
    3010                            .align  4
    3011 0000009c 00000002! ||$C$CON25||:   .bits   ||$O1$$||+2,32
    3012                    ;******************************************************************************
    3013                    ;* CONSTANT TABLE                                                             *
    3014                    ;******************************************************************************
    3015 000000d2                   .sect   ".text:NVOCOP_writeItem"
TI ARM Assembler PC v16.9.4 Sat Nov 18 18:46:31 2017

Tools Copyright (c) 1996-2017 Texas Instruments Incorporated
C:\Users\Kevin\AppData\Local\Temp\{6C42DDD5-7C92-479C-8F05-55537E4479EC} PAGE   56

    3016                            .align  4
    3017 000000d2 000046C0! ||$C$CON27||:   .bits   NV_FLASH,32
         000000d6 00000000 
    3018                            .align  4
    3019 000000d6 00020000! ||$C$CON28||:   .bits   ||$O1$$||+2,32
         000000da 00000000 
    3020                    ;******************************************************************************
    3021                    ;* CONSTANT TABLE                                                             *
    3022                    ;******************************************************************************
    3023 00000040                   .sect   ".text:NVOCOP_readItem"
    3024                            .align  4
    3025 00000040 00000000! ||$C$CON30||:   .bits   NV_FLASH,32
    3026                    ;******************************************************************************
    3027                    ;* CONSTANT TABLE                                                             *
    3028                    ;******************************************************************************
    3029 00000030                   .sect   ".text:findOffset"
    3030                            .align  4
    3031 00000030 00000002! ||$C$CON32||:   .bits   ||$O1$$||+2,32
    3032                            .align  4
    3033 00000034 00000000! ||$C$CON33||:   .bits   NV_FLASH,32
    3034                    ;******************************************************************************
    3035                    ;* CONSTANT TABLE                                                             *
    3036                    ;******************************************************************************
    3037 00000044                   .sect   ".text:NVOCOP_initNV"
    3038                            .align  4
    3039 00000044 00000002! ||$C$CON36||:   .bits   ||$O1$$||+2,32
    3040                            .align  4
    3041 00000048 00000000! ||$C$CON37||:   .bits   NV_FLASH,32
    3042                    ;******************************************************************************
    3043                    ;* CONSTANT TABLE                                                             *
    3044                    ;******************************************************************************
    3045 00000034                   .sect   ".text:NVOCOP_deleteItem"
    3046                            .align  4
    3047 00000034 00000002! ||$C$CON39||:   .bits   ||$O1$$||+2,32
    3048                    ;******************************************************************************
    3049                    ;* CONSTANT TABLE                                                             *
    3050                    ;******************************************************************************
    3051 0000003a                   .sect   ".text:NVOCOP_compactNV"
    3052                            .align  4
    3053 0000003a 000246C0! ||$C$CON41||:   .bits   ||$O1$$||+2,32
         0000003e 00000000 
    3054                    ;*****************************************************************************
    3055                    ;* UNDEFINED EXTERNAL REFERENCES                                             *
    3056                    ;*****************************************************************************
    3057                            .global memcmp
    3058                            .global NOROM_FlashSectorErase
    3059                            .global HAL_APPASRT_callAssrtHanlder
    3060                            .global HalFlashRead
    3061                            .global HalFlashWrite
    3062                            .global NOROM_VIMSModeGet
    3063                            .global HalFlashGetAddress
    3064                            .global ICall_enterCriticalSection
    3065                            .global ICall_leaveCriticalSection
    3066                    
    3067                    ;******************************************************************************
TI ARM Assembler PC v16.9.4 Sat Nov 18 18:46:31 2017

Tools Copyright (c) 1996-2017 Texas Instruments Incorporated
C:\Users\Kevin\AppData\Local\Temp\{6C42DDD5-7C92-479C-8F05-55537E4479EC} PAGE   57

    3068                    ;* BUILD ATTRIBUTES                                                           *
    3069                    ;******************************************************************************
    3070                            .battr "aeabi", Tag_File, 1, Tag_ABI_PCS_wchar_t(2)
    3071                            .battr "aeabi", Tag_File, 1, Tag_ABI_FP_rounding(0)
    3072                            .battr "aeabi", Tag_File, 1, Tag_ABI_FP_denormal(0)
    3073                            .battr "aeabi", Tag_File, 1, Tag_ABI_FP_exceptions(0)
    3074                            .battr "aeabi", Tag_File, 1, Tag_ABI_FP_number_model(1)
    3075                            .battr "aeabi", Tag_File, 1, Tag_ABI_enum_size(1)
    3076                            .battr "aeabi", Tag_File, 1, Tag_ABI_optimization_goals(0)
    3077                            .battr "aeabi", Tag_File, 1, Tag_ABI_FP_optimization_goals(0)
    3078                            .battr "TI", Tag_File, 1, Tag_Bitfield_layout(2)
    3079                            .battr "aeabi", Tag_File, 1, Tag_ABI_VFP_args(3)
    3080                            .battr "TI", Tag_File, 1, Tag_FP_interface(1)
    3081                    
    3082                    ;******************************************************************************
    3083                    ;* TYPE INFORMATION                                                           *
    3084                    ;******************************************************************************
    3085                    
    3086                    $C$DW$T$184     .dwtag  DW_TAG_enumeration_type
    3087                            .dwattr $C$DW$T$184, DW_AT_byte_size(0x01)
    3088                    $C$DW$183       .dwtag  DW_TAG_enumerator
    3089                            .dwattr $C$DW$183, DW_AT_name("FAPI_PROGRAM_DATA")
    3090                            .dwattr $C$DW$183, DW_AT_const_value(0x02)
    3091                            .dwattr $C$DW$183, DW_AT_decl_file("C:/ti/simplelink_cc13x0_sdk_1_50_00_08/source/ti/devices/c
    3092                            .dwattr $C$DW$183, DW_AT_decl_line(0xa6)
    3093                            .dwattr $C$DW$183, DW_AT_decl_column(0x05)
    3094                    
    3095                    $C$DW$184       .dwtag  DW_TAG_enumerator
    3096                            .dwattr $C$DW$184, DW_AT_name("FAPI_ERASE_SECTOR")
    3097                            .dwattr $C$DW$184, DW_AT_const_value(0x06)
    3098                            .dwattr $C$DW$184, DW_AT_decl_file("C:/ti/simplelink_cc13x0_sdk_1_50_00_08/source/ti/devices/c
    3099                            .dwattr $C$DW$184, DW_AT_decl_line(0xa7)
    3100                            .dwattr $C$DW$184, DW_AT_decl_column(0x05)
    3101                    
    3102                    $C$DW$185       .dwtag  DW_TAG_enumerator
    3103                            .dwattr $C$DW$185, DW_AT_name("FAPI_ERASE_BANK")
    3104                            .dwattr $C$DW$185, DW_AT_const_value(0x08)
    3105                            .dwattr $C$DW$185, DW_AT_decl_file("C:/ti/simplelink_cc13x0_sdk_1_50_00_08/source/ti/devices/c
    3106                            .dwattr $C$DW$185, DW_AT_decl_line(0xa8)
    3107                            .dwattr $C$DW$185, DW_AT_decl_column(0x05)
    3108                    
    3109                    $C$DW$186       .dwtag  DW_TAG_enumerator
    3110                            .dwattr $C$DW$186, DW_AT_name("FAPI_VALIDATE_SECTOR")
    3111                            .dwattr $C$DW$186, DW_AT_const_value(0x0e)
    3112                            .dwattr $C$DW$186, DW_AT_decl_file("C:/ti/simplelink_cc13x0_sdk_1_50_00_08/source/ti/devices/c
    3113                            .dwattr $C$DW$186, DW_AT_decl_line(0xa9)
    3114                            .dwattr $C$DW$186, DW_AT_decl_column(0x05)
    3115                    
    3116                    $C$DW$187       .dwtag  DW_TAG_enumerator
    3117                            .dwattr $C$DW$187, DW_AT_name("FAPI_CLEAR_STATUS")
    3118                            .dwattr $C$DW$187, DW_AT_const_value(0x10)
    3119                            .dwattr $C$DW$187, DW_AT_decl_file("C:/ti/simplelink_cc13x0_sdk_1_50_00_08/source/ti/devices/c
    3120                            .dwattr $C$DW$187, DW_AT_decl_line(0xaa)
    3121                            .dwattr $C$DW$187, DW_AT_decl_column(0x05)
    3122                    
TI ARM Assembler PC v16.9.4 Sat Nov 18 18:46:31 2017

Tools Copyright (c) 1996-2017 Texas Instruments Incorporated
C:\Users\Kevin\AppData\Local\Temp\{6C42DDD5-7C92-479C-8F05-55537E4479EC} PAGE   58

    3123                    $C$DW$188       .dwtag  DW_TAG_enumerator
    3124                            .dwattr $C$DW$188, DW_AT_name("FAPI_PROGRAM_RESUME")
    3125                            .dwattr $C$DW$188, DW_AT_const_value(0x14)
    3126                            .dwattr $C$DW$188, DW_AT_decl_file("C:/ti/simplelink_cc13x0_sdk_1_50_00_08/source/ti/devices/c
    3127                            .dwattr $C$DW$188, DW_AT_decl_line(0xab)
    3128                            .dwattr $C$DW$188, DW_AT_decl_column(0x05)
    3129                    
    3130                    $C$DW$189       .dwtag  DW_TAG_enumerator
    3131                            .dwattr $C$DW$189, DW_AT_name("FAPI_ERASE_RESUME")
    3132                            .dwattr $C$DW$189, DW_AT_const_value(0x16)
    3133                            .dwattr $C$DW$189, DW_AT_decl_file("C:/ti/simplelink_cc13x0_sdk_1_50_00_08/source/ti/devices/c
    3134                            .dwattr $C$DW$189, DW_AT_decl_line(0xac)
    3135                            .dwattr $C$DW$189, DW_AT_decl_column(0x05)
    3136                    
    3137                    $C$DW$190       .dwtag  DW_TAG_enumerator
    3138                            .dwattr $C$DW$190, DW_AT_name("FAPI_CLEAR_MORE")
    3139                            .dwattr $C$DW$190, DW_AT_const_value(0x18)
    3140                            .dwattr $C$DW$190, DW_AT_decl_file("C:/ti/simplelink_cc13x0_sdk_1_50_00_08/source/ti/devices/c
    3141                            .dwattr $C$DW$190, DW_AT_decl_line(0xad)
    3142                            .dwattr $C$DW$190, DW_AT_decl_column(0x05)
    3143                    
    3144                    $C$DW$191       .dwtag  DW_TAG_enumerator
    3145                            .dwattr $C$DW$191, DW_AT_name("FAPI_PROGRAM_SECTOR")
    3146                            .dwattr $C$DW$191, DW_AT_const_value(0x20)
    3147                            .dwattr $C$DW$191, DW_AT_decl_file("C:/ti/simplelink_cc13x0_sdk_1_50_00_08/source/ti/devices/c
    3148                            .dwattr $C$DW$191, DW_AT_decl_line(0xae)
    3149                            .dwattr $C$DW$191, DW_AT_decl_column(0x05)
    3150                    
    3151                    $C$DW$192       .dwtag  DW_TAG_enumerator
    3152                            .dwattr $C$DW$192, DW_AT_name("FAPI_ERASE_OTP")
    3153                            .dwattr $C$DW$192, DW_AT_const_value(0x30)
    3154                            .dwattr $C$DW$192, DW_AT_decl_file("C:/ti/simplelink_cc13x0_sdk_1_50_00_08/source/ti/devices/c
    3155                            .dwattr $C$DW$192, DW_AT_decl_line(0xaf)
    3156                            .dwattr $C$DW$192, DW_AT_decl_column(0x05)
    3157                    
    3158                            .dwattr $C$DW$T$184, DW_AT_decl_file("C:/ti/simplelink_cc13x0_sdk_1_50_00_08/source/ti/devices
    3159                            .dwattr $C$DW$T$184, DW_AT_decl_line(0xa5)
    3160                            .dwattr $C$DW$T$184, DW_AT_decl_column(0x01)
    3161                            .dwendtag $C$DW$T$184
    3162                    
    3163                    $C$DW$T$185     .dwtag  DW_TAG_typedef
    3164                            .dwattr $C$DW$T$185, DW_AT_name("tFlashStateCommandsType")
    3165                            .dwattr $C$DW$T$185, DW_AT_type(*$C$DW$T$184)
    3166                            .dwattr $C$DW$T$185, DW_AT_language(DW_LANG_C)
    3167                            .dwattr $C$DW$T$185, DW_AT_decl_file("C:/ti/simplelink_cc13x0_sdk_1_50_00_08/source/ti/devices
    3168                            .dwattr $C$DW$T$185, DW_AT_decl_line(0xb0)
    3169                            .dwattr $C$DW$T$185, DW_AT_decl_column(0x03)
    3170                    
    3171                    
    3172                    $C$DW$T$186     .dwtag  DW_TAG_enumeration_type
    3173                            .dwattr $C$DW$T$186, DW_AT_byte_size(0x01)
    3174                    $C$DW$193       .dwtag  DW_TAG_enumerator
    3175                            .dwattr $C$DW$193, DW_AT_name("ICALL_RTI_APP_CMD_EVENT")
    3176                            .dwattr $C$DW$193, DW_AT_const_value(0xe0)
    3177                            .dwattr $C$DW$193, DW_AT_decl_file("C:/ti/simplelink_cc13x0_sdk_1_50_00_08/source/ti/ti154stac
TI ARM Assembler PC v16.9.4 Sat Nov 18 18:46:31 2017

Tools Copyright (c) 1996-2017 Texas Instruments Incorporated
C:\Users\Kevin\AppData\Local\Temp\{6C42DDD5-7C92-479C-8F05-55537E4479EC} PAGE   59

    3178                            .dwattr $C$DW$193, DW_AT_decl_line(0x3de)
    3179                            .dwattr $C$DW$193, DW_AT_decl_column(0x04)
    3180                    
    3181                    $C$DW$194       .dwtag  DW_TAG_enumerator
    3182                            .dwattr $C$DW$194, DW_AT_name("ICALL_RTI_STACK_CMD_EVENT")
    3183                            .dwattr $C$DW$194, DW_AT_const_value(0xe1)
    3184                            .dwattr $C$DW$194, DW_AT_decl_file("C:/ti/simplelink_cc13x0_sdk_1_50_00_08/source/ti/ti154stac
    3185                            .dwattr $C$DW$194, DW_AT_decl_line(0x3e0)
    3186                            .dwattr $C$DW$194, DW_AT_decl_column(0x04)
    3187                    
    3188                    $C$DW$195       .dwtag  DW_TAG_enumerator
    3189                            .dwattr $C$DW$195, DW_AT_name("ICALL_RTI_APP_ASYNC_CMD_EVENT")
    3190                            .dwattr $C$DW$195, DW_AT_const_value(0xe2)
    3191                            .dwattr $C$DW$195, DW_AT_decl_file("C:/ti/simplelink_cc13x0_sdk_1_50_00_08/source/ti/ti154stac
    3192                            .dwattr $C$DW$195, DW_AT_decl_line(0x3e2)
    3193                            .dwattr $C$DW$195, DW_AT_decl_column(0x04)
    3194                    
    3195                    $C$DW$196       .dwtag  DW_TAG_enumerator
    3196                            .dwattr $C$DW$196, DW_AT_name("ICALL_RTI_APP_SYNC_CMD_EVENT")
    3197                            .dwattr $C$DW$196, DW_AT_const_value(0xe3)
    3198                            .dwattr $C$DW$196, DW_AT_decl_file("C:/ti/simplelink_cc13x0_sdk_1_50_00_08/source/ti/ti154stac
    3199                            .dwattr $C$DW$196, DW_AT_decl_line(0x3e4)
    3200                            .dwattr $C$DW$196, DW_AT_decl_column(0x04)
    3201                    
    3202                    $C$DW$197       .dwtag  DW_TAG_enumerator
    3203                            .dwattr $C$DW$197, DW_AT_name("ICALL_RCN_APP_ASYNC_CMD_EVENT")
    3204                            .dwattr $C$DW$197, DW_AT_const_value(0xe4)
    3205                            .dwattr $C$DW$197, DW_AT_decl_file("C:/ti/simplelink_cc13x0_sdk_1_50_00_08/source/ti/ti154stac
    3206                            .dwattr $C$DW$197, DW_AT_decl_line(0x3e6)
    3207                            .dwattr $C$DW$197, DW_AT_decl_column(0x04)
    3208                    
    3209                    $C$DW$198       .dwtag  DW_TAG_enumerator
    3210                            .dwattr $C$DW$198, DW_AT_name("ICALL_RCN_APP_SYNC_CMD_EVENT")
    3211                            .dwattr $C$DW$198, DW_AT_const_value(0xe5)
    3212                            .dwattr $C$DW$198, DW_AT_decl_file("C:/ti/simplelink_cc13x0_sdk_1_50_00_08/source/ti/ti154stac
    3213                            .dwattr $C$DW$198, DW_AT_decl_line(0x3e8)
    3214                            .dwattr $C$DW$198, DW_AT_decl_column(0x04)
    3215                    
    3216                            .dwattr $C$DW$T$186, DW_AT_decl_file("C:/ti/simplelink_cc13x0_sdk_1_50_00_08/source/ti/ti154st
    3217                            .dwattr $C$DW$T$186, DW_AT_decl_line(0x3dc)
    3218                            .dwattr $C$DW$T$186, DW_AT_decl_column(0x01)
    3219                            .dwendtag $C$DW$T$186
    3220                    
    3221                    $C$DW$T$187     .dwtag  DW_TAG_typedef
    3222                            .dwattr $C$DW$T$187, DW_AT_name("ICall_RemotiCmdEvent_t")
    3223                            .dwattr $C$DW$T$187, DW_AT_type(*$C$DW$T$186)
    3224                            .dwattr $C$DW$T$187, DW_AT_language(DW_LANG_C)
    3225                            .dwattr $C$DW$T$187, DW_AT_decl_file("C:/ti/simplelink_cc13x0_sdk_1_50_00_08/source/ti/ti154st
    3226                            .dwattr $C$DW$T$187, DW_AT_decl_line(0x3e9)
    3227                            .dwattr $C$DW$T$187, DW_AT_decl_column(0x02)
    3228                    
    3229                    
    3230                    $C$DW$T$20      .dwtag  DW_TAG_structure_type
    3231                            .dwattr $C$DW$T$20, DW_AT_byte_size(0x08)
    3232                    $C$DW$199       .dwtag  DW_TAG_member
TI ARM Assembler PC v16.9.4 Sat Nov 18 18:46:31 2017

Tools Copyright (c) 1996-2017 Texas Instruments Incorporated
C:\Users\Kevin\AppData\Local\Temp\{6C42DDD5-7C92-479C-8F05-55537E4479EC} PAGE   60

    3233                            .dwattr $C$DW$199, DW_AT_type(*$C$DW$T$19)
    3234                            .dwattr $C$DW$199, DW_AT_name("systemId")
    3235                            .dwattr $C$DW$199, DW_AT_TI_symbol_name("systemId")
    3236                            .dwattr $C$DW$199, DW_AT_data_member_location[DW_OP_plus_uconst 0x0]
    3237                            .dwattr $C$DW$199, DW_AT_accessibility(DW_ACCESS_public)
    3238                            .dwattr $C$DW$199, DW_AT_decl_file("../Application/Services/nvocop.c")
    3239                            .dwattr $C$DW$199, DW_AT_decl_line(0xa8)
    3240                            .dwattr $C$DW$199, DW_AT_decl_column(0x0a)
    3241                    
    3242                    $C$DW$200       .dwtag  DW_TAG_member
    3243                            .dwattr $C$DW$200, DW_AT_type(*$C$DW$T$19)
    3244                            .dwattr $C$DW$200, DW_AT_name("itemId")
    3245                            .dwattr $C$DW$200, DW_AT_TI_symbol_name("itemId")
    3246                            .dwattr $C$DW$200, DW_AT_data_member_location[DW_OP_plus_uconst 0x2]
    3247                            .dwattr $C$DW$200, DW_AT_accessibility(DW_ACCESS_public)
    3248                            .dwattr $C$DW$200, DW_AT_decl_file("../Application/Services/nvocop.c")
    3249                            .dwattr $C$DW$200, DW_AT_decl_line(0xa9)
    3250                            .dwattr $C$DW$200, DW_AT_decl_column(0x0a)
    3251                    
    3252                    $C$DW$201       .dwtag  DW_TAG_member
    3253                            .dwattr $C$DW$201, DW_AT_type(*$C$DW$T$19)
    3254                            .dwattr $C$DW$201, DW_AT_name("subId")
    3255                            .dwattr $C$DW$201, DW_AT_TI_symbol_name("subId")
    3256                            .dwattr $C$DW$201, DW_AT_data_member_location[DW_OP_plus_uconst 0x4]
    3257                            .dwattr $C$DW$201, DW_AT_accessibility(DW_ACCESS_public)
    3258                            .dwattr $C$DW$201, DW_AT_decl_file("../Application/Services/nvocop.c")
    3259                            .dwattr $C$DW$201, DW_AT_decl_line(0xaa)
    3260                            .dwattr $C$DW$201, DW_AT_decl_column(0x0a)
    3261                    
    3262                    $C$DW$202       .dwtag  DW_TAG_member
    3263                            .dwattr $C$DW$202, DW_AT_type(*$C$DW$T$19)
    3264                            .dwattr $C$DW$202, DW_AT_name("len")
    3265                            .dwattr $C$DW$202, DW_AT_TI_symbol_name("len")
    3266                            .dwattr $C$DW$202, DW_AT_data_member_location[DW_OP_plus_uconst 0x6]
    3267                            .dwattr $C$DW$202, DW_AT_accessibility(DW_ACCESS_public)
    3268                            .dwattr $C$DW$202, DW_AT_decl_file("../Application/Services/nvocop.c")
    3269                            .dwattr $C$DW$202, DW_AT_decl_line(0xab)
    3270                            .dwattr $C$DW$202, DW_AT_decl_column(0x0a)
    3271                    
    3272                            .dwattr $C$DW$T$20, DW_AT_decl_file("../Application/Services/nvocop.c")
    3273                            .dwattr $C$DW$T$20, DW_AT_decl_line(0xa7)
    3274                            .dwattr $C$DW$T$20, DW_AT_decl_column(0x01)
    3275                            .dwendtag $C$DW$T$20
    3276                    
    3277                    $C$DW$T$188     .dwtag  DW_TAG_typedef
    3278                            .dwattr $C$DW$T$188, DW_AT_name("NvItemHdr_t")
    3279                            .dwattr $C$DW$T$188, DW_AT_type(*$C$DW$T$20)
    3280                            .dwattr $C$DW$T$188, DW_AT_language(DW_LANG_C)
    3281                            .dwattr $C$DW$T$188, DW_AT_decl_file("../Application/Services/nvocop.c")
    3282                            .dwattr $C$DW$T$188, DW_AT_decl_line(0xac)
    3283                            .dwattr $C$DW$T$188, DW_AT_decl_column(0x03)
    3284                    
    3285                    
    3286                    $C$DW$T$62      .dwtag  DW_TAG_structure_type
    3287                            .dwattr $C$DW$T$62, DW_AT_byte_size(0x4c)
TI ARM Assembler PC v16.9.4 Sat Nov 18 18:46:31 2017

Tools Copyright (c) 1996-2017 Texas Instruments Incorporated
C:\Users\Kevin\AppData\Local\Temp\{6C42DDD5-7C92-479C-8F05-55537E4479EC} PAGE   61

    3288                    $C$DW$203       .dwtag  DW_TAG_member
    3289                            .dwattr $C$DW$203, DW_AT_type(*$C$DW$T$26)
    3290                            .dwattr $C$DW$203, DW_AT_name("Crc32")
    3291                            .dwattr $C$DW$203, DW_AT_TI_symbol_name("Crc32")
    3292                            .dwattr $C$DW$203, DW_AT_data_member_location[DW_OP_plus_uconst 0x0]
    3293                            .dwattr $C$DW$203, DW_AT_accessibility(DW_ACCESS_public)
    3294                            .dwattr $C$DW$203, DW_AT_decl_file("C:\ti\simplelink_cc13x0_sdk_1_50_00_08\source\ti\devices\c
    3295                            .dwattr $C$DW$203, DW_AT_decl_line(0x76)
    3296                            .dwattr $C$DW$203, DW_AT_decl_column(0x25)
    3297                    
    3298                    $C$DW$204       .dwtag  DW_TAG_member
    3299                            .dwattr $C$DW$204, DW_AT_type(*$C$DW$T$29)
    3300                            .dwattr $C$DW$204, DW_AT_name("FlashGetSize")
    3301                            .dwattr $C$DW$204, DW_AT_TI_symbol_name("FlashGetSize")
    3302                            .dwattr $C$DW$204, DW_AT_data_member_location[DW_OP_plus_uconst 0x4]
    3303                            .dwattr $C$DW$204, DW_AT_accessibility(DW_ACCESS_public)
    3304                            .dwattr $C$DW$204, DW_AT_decl_file("C:\ti\simplelink_cc13x0_sdk_1_50_00_08\source\ti\devices\c
    3305                            .dwattr $C$DW$204, DW_AT_decl_line(0x77)
    3306                            .dwattr $C$DW$204, DW_AT_decl_column(0x25)
    3307                    
    3308                    $C$DW$205       .dwtag  DW_TAG_member
    3309                            .dwattr $C$DW$205, DW_AT_type(*$C$DW$T$30)
    3310                            .dwattr $C$DW$205, DW_AT_name("GetChipId")
    3311                            .dwattr $C$DW$205, DW_AT_TI_symbol_name("GetChipId")
    3312                            .dwattr $C$DW$205, DW_AT_data_member_location[DW_OP_plus_uconst 0x8]
    3313                            .dwattr $C$DW$205, DW_AT_accessibility(DW_ACCESS_public)
    3314                            .dwattr $C$DW$205, DW_AT_decl_file("C:\ti\simplelink_cc13x0_sdk_1_50_00_08\source\ti\devices\c
    3315                            .dwattr $C$DW$205, DW_AT_decl_line(0x78)
    3316                            .dwattr $C$DW$205, DW_AT_decl_column(0x25)
    3317                    
    3318                    $C$DW$206       .dwtag  DW_TAG_member
    3319                            .dwattr $C$DW$206, DW_AT_type(*$C$DW$T$33)
    3320                            .dwattr $C$DW$206, DW_AT_name("ReservedLocation1")
    3321                            .dwattr $C$DW$206, DW_AT_TI_symbol_name("ReservedLocation1")
    3322                            .dwattr $C$DW$206, DW_AT_data_member_location[DW_OP_plus_uconst 0xc]
    3323                            .dwattr $C$DW$206, DW_AT_accessibility(DW_ACCESS_public)
    3324                            .dwattr $C$DW$206, DW_AT_decl_file("C:\ti\simplelink_cc13x0_sdk_1_50_00_08\source\ti\devices\c
    3325                            .dwattr $C$DW$206, DW_AT_decl_line(0x79)
    3326                            .dwattr $C$DW$206, DW_AT_decl_column(0x25)
    3327                    
    3328                    $C$DW$207       .dwtag  DW_TAG_member
    3329                            .dwattr $C$DW$207, DW_AT_type(*$C$DW$T$34)
    3330                            .dwattr $C$DW$207, DW_AT_name("ReservedLocation2")
    3331                            .dwattr $C$DW$207, DW_AT_TI_symbol_name("ReservedLocation2")
    3332                            .dwattr $C$DW$207, DW_AT_data_member_location[DW_OP_plus_uconst 0x10]
    3333                            .dwattr $C$DW$207, DW_AT_accessibility(DW_ACCESS_public)
    3334                            .dwattr $C$DW$207, DW_AT_decl_file("C:\ti\simplelink_cc13x0_sdk_1_50_00_08\source\ti\devices\c
    3335                            .dwattr $C$DW$207, DW_AT_decl_line(0x7a)
    3336                            .dwattr $C$DW$207, DW_AT_decl_column(0x25)
    3337                    
    3338                    $C$DW$208       .dwtag  DW_TAG_member
    3339                            .dwattr $C$DW$208, DW_AT_type(*$C$DW$T$35)
    3340                            .dwattr $C$DW$208, DW_AT_name("ReservedLocation3")
    3341                            .dwattr $C$DW$208, DW_AT_TI_symbol_name("ReservedLocation3")
    3342                            .dwattr $C$DW$208, DW_AT_data_member_location[DW_OP_plus_uconst 0x14]
TI ARM Assembler PC v16.9.4 Sat Nov 18 18:46:31 2017

Tools Copyright (c) 1996-2017 Texas Instruments Incorporated
C:\Users\Kevin\AppData\Local\Temp\{6C42DDD5-7C92-479C-8F05-55537E4479EC} PAGE   62

    3343                            .dwattr $C$DW$208, DW_AT_accessibility(DW_ACCESS_public)
    3344                            .dwattr $C$DW$208, DW_AT_decl_file("C:\ti\simplelink_cc13x0_sdk_1_50_00_08\source\ti\devices\c
    3345                            .dwattr $C$DW$208, DW_AT_decl_line(0x7b)
    3346                            .dwattr $C$DW$208, DW_AT_decl_column(0x25)
    3347                    
    3348                    $C$DW$209       .dwtag  DW_TAG_member
    3349                            .dwattr $C$DW$209, DW_AT_type(*$C$DW$T$38)
    3350                            .dwattr $C$DW$209, DW_AT_name("ResetDevice")
    3351                            .dwattr $C$DW$209, DW_AT_TI_symbol_name("ResetDevice")
    3352                            .dwattr $C$DW$209, DW_AT_data_member_location[DW_OP_plus_uconst 0x18]
    3353                            .dwattr $C$DW$209, DW_AT_accessibility(DW_ACCESS_public)
    3354                            .dwattr $C$DW$209, DW_AT_decl_file("C:\ti\simplelink_cc13x0_sdk_1_50_00_08\source\ti\devices\c
    3355                            .dwattr $C$DW$209, DW_AT_decl_line(0x7c)
    3356                            .dwattr $C$DW$209, DW_AT_decl_column(0x25)
    3357                    
    3358                    $C$DW$210       .dwtag  DW_TAG_member
    3359                            .dwattr $C$DW$210, DW_AT_type(*$C$DW$T$43)
    3360                            .dwattr $C$DW$210, DW_AT_name("Fletcher32")
    3361                            .dwattr $C$DW$210, DW_AT_TI_symbol_name("Fletcher32")
    3362                            .dwattr $C$DW$210, DW_AT_data_member_location[DW_OP_plus_uconst 0x1c]
    3363                            .dwattr $C$DW$210, DW_AT_accessibility(DW_ACCESS_public)
    3364                            .dwattr $C$DW$210, DW_AT_decl_file("C:\ti\simplelink_cc13x0_sdk_1_50_00_08\source\ti\devices\c
    3365                            .dwattr $C$DW$210, DW_AT_decl_line(0x7d)
    3366                            .dwattr $C$DW$210, DW_AT_decl_column(0x25)
    3367                    
    3368                    $C$DW$211       .dwtag  DW_TAG_member
    3369                            .dwattr $C$DW$211, DW_AT_type(*$C$DW$T$47)
    3370                            .dwattr $C$DW$211, DW_AT_name("MinValue")
    3371                            .dwattr $C$DW$211, DW_AT_TI_symbol_name("MinValue")
    3372                            .dwattr $C$DW$211, DW_AT_data_member_location[DW_OP_plus_uconst 0x20]
    3373                            .dwattr $C$DW$211, DW_AT_accessibility(DW_ACCESS_public)
    3374                            .dwattr $C$DW$211, DW_AT_decl_file("C:\ti\simplelink_cc13x0_sdk_1_50_00_08\source\ti\devices\c
    3375                            .dwattr $C$DW$211, DW_AT_decl_line(0x7e)
    3376                            .dwattr $C$DW$211, DW_AT_decl_column(0x25)
    3377                    
    3378                    $C$DW$212       .dwtag  DW_TAG_member
    3379                            .dwattr $C$DW$212, DW_AT_type(*$C$DW$T$48)
    3380                            .dwattr $C$DW$212, DW_AT_name("MaxValue")
    3381                            .dwattr $C$DW$212, DW_AT_TI_symbol_name("MaxValue")
    3382                            .dwattr $C$DW$212, DW_AT_data_member_location[DW_OP_plus_uconst 0x24]
    3383                            .dwattr $C$DW$212, DW_AT_accessibility(DW_ACCESS_public)
    3384                            .dwattr $C$DW$212, DW_AT_decl_file("C:\ti\simplelink_cc13x0_sdk_1_50_00_08\source\ti\devices\c
    3385                            .dwattr $C$DW$212, DW_AT_decl_line(0x7f)
    3386                            .dwattr $C$DW$212, DW_AT_decl_column(0x25)
    3387                    
    3388                    $C$DW$213       .dwtag  DW_TAG_member
    3389                            .dwattr $C$DW$213, DW_AT_type(*$C$DW$T$49)
    3390                            .dwattr $C$DW$213, DW_AT_name("MeanValue")
    3391                            .dwattr $C$DW$213, DW_AT_TI_symbol_name("MeanValue")
    3392                            .dwattr $C$DW$213, DW_AT_data_member_location[DW_OP_plus_uconst 0x28]
    3393                            .dwattr $C$DW$213, DW_AT_accessibility(DW_ACCESS_public)
    3394                            .dwattr $C$DW$213, DW_AT_decl_file("C:\ti\simplelink_cc13x0_sdk_1_50_00_08\source\ti\devices\c
    3395                            .dwattr $C$DW$213, DW_AT_decl_line(0x80)
    3396                            .dwattr $C$DW$213, DW_AT_decl_column(0x25)
    3397                    
TI ARM Assembler PC v16.9.4 Sat Nov 18 18:46:31 2017

Tools Copyright (c) 1996-2017 Texas Instruments Incorporated
C:\Users\Kevin\AppData\Local\Temp\{6C42DDD5-7C92-479C-8F05-55537E4479EC} PAGE   63

    3398                    $C$DW$214       .dwtag  DW_TAG_member
    3399                            .dwattr $C$DW$214, DW_AT_type(*$C$DW$T$50)
    3400                            .dwattr $C$DW$214, DW_AT_name("StandDeviationValue")
    3401                            .dwattr $C$DW$214, DW_AT_TI_symbol_name("StandDeviationValue")
    3402                            .dwattr $C$DW$214, DW_AT_data_member_location[DW_OP_plus_uconst 0x2c]
    3403                            .dwattr $C$DW$214, DW_AT_accessibility(DW_ACCESS_public)
    3404                            .dwattr $C$DW$214, DW_AT_decl_file("C:\ti\simplelink_cc13x0_sdk_1_50_00_08\source\ti\devices\c
    3405                            .dwattr $C$DW$214, DW_AT_decl_line(0x81)
    3406                            .dwattr $C$DW$214, DW_AT_decl_column(0x25)
    3407                    
    3408                    $C$DW$215       .dwtag  DW_TAG_member
    3409                            .dwattr $C$DW$215, DW_AT_type(*$C$DW$T$53)
    3410                            .dwattr $C$DW$215, DW_AT_name("ReservedLocation4")
    3411                            .dwattr $C$DW$215, DW_AT_TI_symbol_name("ReservedLocation4")
    3412                            .dwattr $C$DW$215, DW_AT_data_member_location[DW_OP_plus_uconst 0x30]
    3413                            .dwattr $C$DW$215, DW_AT_accessibility(DW_ACCESS_public)
    3414                            .dwattr $C$DW$215, DW_AT_decl_file("C:\ti\simplelink_cc13x0_sdk_1_50_00_08\source\ti\devices\c
    3415                            .dwattr $C$DW$215, DW_AT_decl_line(0x82)
    3416                            .dwattr $C$DW$215, DW_AT_decl_column(0x25)
    3417                    
    3418                    $C$DW$216       .dwtag  DW_TAG_member
    3419                            .dwattr $C$DW$216, DW_AT_type(*$C$DW$T$54)
    3420                            .dwattr $C$DW$216, DW_AT_name("ReservedLocation5")
    3421                            .dwattr $C$DW$216, DW_AT_TI_symbol_name("ReservedLocation5")
    3422                            .dwattr $C$DW$216, DW_AT_data_member_location[DW_OP_plus_uconst 0x34]
    3423                            .dwattr $C$DW$216, DW_AT_accessibility(DW_ACCESS_public)
    3424                            .dwattr $C$DW$216, DW_AT_decl_file("C:\ti\simplelink_cc13x0_sdk_1_50_00_08\source\ti\devices\c
    3425                            .dwattr $C$DW$216, DW_AT_decl_line(0x83)
    3426                            .dwattr $C$DW$216, DW_AT_decl_column(0x25)
    3427                    
    3428                    $C$DW$217       .dwtag  DW_TAG_member
    3429                            .dwattr $C$DW$217, DW_AT_type(*$C$DW$T$55)
    3430                            .dwattr $C$DW$217, DW_AT_name("HFSourceSafeSwitch")
    3431                            .dwattr $C$DW$217, DW_AT_TI_symbol_name("HFSourceSafeSwitch")
    3432                            .dwattr $C$DW$217, DW_AT_data_member_location[DW_OP_plus_uconst 0x38]
    3433                            .dwattr $C$DW$217, DW_AT_accessibility(DW_ACCESS_public)
    3434                            .dwattr $C$DW$217, DW_AT_decl_file("C:\ti\simplelink_cc13x0_sdk_1_50_00_08\source\ti\devices\c
    3435                            .dwattr $C$DW$217, DW_AT_decl_line(0x84)
    3436                            .dwattr $C$DW$217, DW_AT_decl_column(0x25)
    3437                    
    3438                    $C$DW$218       .dwtag  DW_TAG_member
    3439                            .dwattr $C$DW$218, DW_AT_type(*$C$DW$T$58)
    3440                            .dwattr $C$DW$218, DW_AT_name("SelectCompAInput")
    3441                            .dwattr $C$DW$218, DW_AT_TI_symbol_name("SelectCompAInput")
    3442                            .dwattr $C$DW$218, DW_AT_data_member_location[DW_OP_plus_uconst 0x3c]
    3443                            .dwattr $C$DW$218, DW_AT_accessibility(DW_ACCESS_public)
    3444                            .dwattr $C$DW$218, DW_AT_decl_file("C:\ti\simplelink_cc13x0_sdk_1_50_00_08\source\ti\devices\c
    3445                            .dwattr $C$DW$218, DW_AT_decl_line(0x85)
    3446                            .dwattr $C$DW$218, DW_AT_decl_column(0x25)
    3447                    
    3448                    $C$DW$219       .dwtag  DW_TAG_member
    3449                            .dwattr $C$DW$219, DW_AT_type(*$C$DW$T$59)
    3450                            .dwattr $C$DW$219, DW_AT_name("SelectCompARef")
    3451                            .dwattr $C$DW$219, DW_AT_TI_symbol_name("SelectCompARef")
    3452                            .dwattr $C$DW$219, DW_AT_data_member_location[DW_OP_plus_uconst 0x40]
TI ARM Assembler PC v16.9.4 Sat Nov 18 18:46:31 2017

Tools Copyright (c) 1996-2017 Texas Instruments Incorporated
C:\Users\Kevin\AppData\Local\Temp\{6C42DDD5-7C92-479C-8F05-55537E4479EC} PAGE   64

    3453                            .dwattr $C$DW$219, DW_AT_accessibility(DW_ACCESS_public)
    3454                            .dwattr $C$DW$219, DW_AT_decl_file("C:\ti\simplelink_cc13x0_sdk_1_50_00_08\source\ti\devices\c
    3455                            .dwattr $C$DW$219, DW_AT_decl_line(0x86)
    3456                            .dwattr $C$DW$219, DW_AT_decl_column(0x25)
    3457                    
    3458                    $C$DW$220       .dwtag  DW_TAG_member
    3459                            .dwattr $C$DW$220, DW_AT_type(*$C$DW$T$60)
    3460                            .dwattr $C$DW$220, DW_AT_name("SelectADCCompBInput")
    3461                            .dwattr $C$DW$220, DW_AT_TI_symbol_name("SelectADCCompBInput")
    3462                            .dwattr $C$DW$220, DW_AT_data_member_location[DW_OP_plus_uconst 0x44]
    3463                            .dwattr $C$DW$220, DW_AT_accessibility(DW_ACCESS_public)
    3464                            .dwattr $C$DW$220, DW_AT_decl_file("C:\ti\simplelink_cc13x0_sdk_1_50_00_08\source\ti\devices\c
    3465                            .dwattr $C$DW$220, DW_AT_decl_line(0x87)
    3466                            .dwattr $C$DW$220, DW_AT_decl_column(0x25)
    3467                    
    3468                    $C$DW$221       .dwtag  DW_TAG_member
    3469                            .dwattr $C$DW$221, DW_AT_type(*$C$DW$T$61)
    3470                            .dwattr $C$DW$221, DW_AT_name("SelectCompBRef")
    3471                            .dwattr $C$DW$221, DW_AT_TI_symbol_name("SelectCompBRef")
    3472                            .dwattr $C$DW$221, DW_AT_data_member_location[DW_OP_plus_uconst 0x48]
    3473                            .dwattr $C$DW$221, DW_AT_accessibility(DW_ACCESS_public)
    3474                            .dwattr $C$DW$221, DW_AT_decl_file("C:\ti\simplelink_cc13x0_sdk_1_50_00_08\source\ti\devices\c
    3475                            .dwattr $C$DW$221, DW_AT_decl_line(0x88)
    3476                            .dwattr $C$DW$221, DW_AT_decl_column(0x25)
    3477                    
    3478                            .dwattr $C$DW$T$62, DW_AT_decl_file("C:\ti\simplelink_cc13x0_sdk_1_50_00_08\source\ti\devices\
    3479                            .dwattr $C$DW$T$62, DW_AT_decl_line(0x75)
    3480                            .dwattr $C$DW$T$62, DW_AT_decl_column(0x01)
    3481                            .dwendtag $C$DW$T$62
    3482                    
    3483                    $C$DW$T$190     .dwtag  DW_TAG_typedef
    3484                            .dwattr $C$DW$T$190, DW_AT_name("HARD_API_T")
    3485                            .dwattr $C$DW$T$190, DW_AT_type(*$C$DW$T$62)
    3486                            .dwattr $C$DW$T$190, DW_AT_language(DW_LANG_C)
    3487                            .dwattr $C$DW$T$190, DW_AT_decl_file("C:\ti\simplelink_cc13x0_sdk_1_50_00_08\source\ti\devices
    3488                            .dwattr $C$DW$T$190, DW_AT_decl_line(0x89)
    3489                            .dwattr $C$DW$T$190, DW_AT_decl_column(0x03)
    3490                    
    3491                    
    3492                    $C$DW$T$63      .dwtag  DW_TAG_structure_type
    3493                            .dwattr $C$DW$T$63, DW_AT_byte_size(0x08)
    3494                    $C$DW$222       .dwtag  DW_TAG_member
    3495                            .dwattr $C$DW$222, DW_AT_type(*$C$DW$T$10)
    3496                            .dwattr $C$DW$222, DW_AT_name("quot")
    3497                            .dwattr $C$DW$222, DW_AT_TI_symbol_name("quot")
    3498                            .dwattr $C$DW$222, DW_AT_data_member_location[DW_OP_plus_uconst 0x0]
    3499                            .dwattr $C$DW$222, DW_AT_accessibility(DW_ACCESS_public)
    3500                            .dwattr $C$DW$222, DW_AT_decl_file("C:/ti/ccsv7/tools/compiler/ti-cgt-arm_16.9.4.LTS/include/s
    3501                            .dwattr $C$DW$222, DW_AT_decl_line(0x5c)
    3502                            .dwattr $C$DW$222, DW_AT_decl_column(0x16)
    3503                    
    3504                    $C$DW$223       .dwtag  DW_TAG_member
    3505                            .dwattr $C$DW$223, DW_AT_type(*$C$DW$T$10)
    3506                            .dwattr $C$DW$223, DW_AT_name("rem")
    3507                            .dwattr $C$DW$223, DW_AT_TI_symbol_name("rem")
TI ARM Assembler PC v16.9.4 Sat Nov 18 18:46:31 2017

Tools Copyright (c) 1996-2017 Texas Instruments Incorporated
C:\Users\Kevin\AppData\Local\Temp\{6C42DDD5-7C92-479C-8F05-55537E4479EC} PAGE   65

    3508                            .dwattr $C$DW$223, DW_AT_data_member_location[DW_OP_plus_uconst 0x4]
    3509                            .dwattr $C$DW$223, DW_AT_accessibility(DW_ACCESS_public)
    3510                            .dwattr $C$DW$223, DW_AT_decl_file("C:/ti/ccsv7/tools/compiler/ti-cgt-arm_16.9.4.LTS/include/s
    3511                            .dwattr $C$DW$223, DW_AT_decl_line(0x5c)
    3512                            .dwattr $C$DW$223, DW_AT_decl_column(0x1c)
    3513                    
    3514                            .dwattr $C$DW$T$63, DW_AT_decl_file("C:/ti/ccsv7/tools/compiler/ti-cgt-arm_16.9.4.LTS/include/
    3515                            .dwattr $C$DW$T$63, DW_AT_decl_line(0x5c)
    3516                            .dwattr $C$DW$T$63, DW_AT_decl_column(0x10)
    3517                            .dwendtag $C$DW$T$63
    3518                    
    3519                    $C$DW$T$191     .dwtag  DW_TAG_typedef
    3520                            .dwattr $C$DW$T$191, DW_AT_name("div_t")
    3521                            .dwattr $C$DW$T$191, DW_AT_type(*$C$DW$T$63)
    3522                            .dwattr $C$DW$T$191, DW_AT_language(DW_LANG_C)
    3523                            .dwattr $C$DW$T$191, DW_AT_decl_file("C:/ti/ccsv7/tools/compiler/ti-cgt-arm_16.9.4.LTS/include
    3524                            .dwattr $C$DW$T$191, DW_AT_decl_line(0x5c)
    3525                            .dwattr $C$DW$T$191, DW_AT_decl_column(0x23)
    3526                    
    3527                    
    3528                    $C$DW$T$64      .dwtag  DW_TAG_structure_type
    3529                            .dwattr $C$DW$T$64, DW_AT_byte_size(0x08)
    3530                    $C$DW$224       .dwtag  DW_TAG_member
    3531                            .dwattr $C$DW$224, DW_AT_type(*$C$DW$T$10)
    3532                            .dwattr $C$DW$224, DW_AT_name("quot")
    3533                            .dwattr $C$DW$224, DW_AT_TI_symbol_name("quot")
    3534                            .dwattr $C$DW$224, DW_AT_data_member_location[DW_OP_plus_uconst 0x0]
    3535                            .dwattr $C$DW$224, DW_AT_accessibility(DW_ACCESS_public)
    3536                            .dwattr $C$DW$224, DW_AT_decl_file("C:/ti/ccsv7/tools/compiler/ti-cgt-arm_16.9.4.LTS/include/s
    3537                            .dwattr $C$DW$224, DW_AT_decl_line(0x5e)
    3538                            .dwattr $C$DW$224, DW_AT_decl_column(0x16)
    3539                    
    3540                    $C$DW$225       .dwtag  DW_TAG_member
    3541                            .dwattr $C$DW$225, DW_AT_type(*$C$DW$T$10)
    3542                            .dwattr $C$DW$225, DW_AT_name("rem")
    3543                            .dwattr $C$DW$225, DW_AT_TI_symbol_name("rem")
    3544                            .dwattr $C$DW$225, DW_AT_data_member_location[DW_OP_plus_uconst 0x4]
    3545                            .dwattr $C$DW$225, DW_AT_accessibility(DW_ACCESS_public)
    3546                            .dwattr $C$DW$225, DW_AT_decl_file("C:/ti/ccsv7/tools/compiler/ti-cgt-arm_16.9.4.LTS/include/s
    3547                            .dwattr $C$DW$225, DW_AT_decl_line(0x5e)
    3548                            .dwattr $C$DW$225, DW_AT_decl_column(0x1c)
    3549                    
    3550                            .dwattr $C$DW$T$64, DW_AT_decl_file("C:/ti/ccsv7/tools/compiler/ti-cgt-arm_16.9.4.LTS/include/
    3551                            .dwattr $C$DW$T$64, DW_AT_decl_line(0x5e)
    3552                            .dwattr $C$DW$T$64, DW_AT_decl_column(0x10)
    3553                            .dwendtag $C$DW$T$64
    3554                    
    3555                    $C$DW$T$192     .dwtag  DW_TAG_typedef
    3556                            .dwattr $C$DW$T$192, DW_AT_name("ldiv_t")
    3557                            .dwattr $C$DW$T$192, DW_AT_type(*$C$DW$T$64)
    3558                            .dwattr $C$DW$T$192, DW_AT_language(DW_LANG_C)
    3559                            .dwattr $C$DW$T$192, DW_AT_decl_file("C:/ti/ccsv7/tools/compiler/ti-cgt-arm_16.9.4.LTS/include
    3560                            .dwattr $C$DW$T$192, DW_AT_decl_line(0x5e)
    3561                            .dwattr $C$DW$T$192, DW_AT_decl_column(0x23)
    3562                    
TI ARM Assembler PC v16.9.4 Sat Nov 18 18:46:31 2017

Tools Copyright (c) 1996-2017 Texas Instruments Incorporated
C:\Users\Kevin\AppData\Local\Temp\{6C42DDD5-7C92-479C-8F05-55537E4479EC} PAGE   66

    3563                    
    3564                    $C$DW$T$65      .dwtag  DW_TAG_structure_type
    3565                            .dwattr $C$DW$T$65, DW_AT_byte_size(0x10)
    3566                    $C$DW$226       .dwtag  DW_TAG_member
    3567                            .dwattr $C$DW$226, DW_AT_type(*$C$DW$T$14)
    3568                            .dwattr $C$DW$226, DW_AT_name("quot")
    3569                            .dwattr $C$DW$226, DW_AT_TI_symbol_name("quot")
    3570                            .dwattr $C$DW$226, DW_AT_data_member_location[DW_OP_plus_uconst 0x0]
    3571                            .dwattr $C$DW$226, DW_AT_accessibility(DW_ACCESS_public)
    3572                            .dwattr $C$DW$226, DW_AT_decl_file("C:/ti/ccsv7/tools/compiler/ti-cgt-arm_16.9.4.LTS/include/s
    3573                            .dwattr $C$DW$226, DW_AT_decl_line(0x61)
    3574                            .dwattr $C$DW$226, DW_AT_decl_column(0x1c)
    3575                    
    3576                    $C$DW$227       .dwtag  DW_TAG_member
    3577                            .dwattr $C$DW$227, DW_AT_type(*$C$DW$T$14)
    3578                            .dwattr $C$DW$227, DW_AT_name("rem")
    3579                            .dwattr $C$DW$227, DW_AT_TI_symbol_name("rem")
    3580                            .dwattr $C$DW$227, DW_AT_data_member_location[DW_OP_plus_uconst 0x8]
    3581                            .dwattr $C$DW$227, DW_AT_accessibility(DW_ACCESS_public)
    3582                            .dwattr $C$DW$227, DW_AT_decl_file("C:/ti/ccsv7/tools/compiler/ti-cgt-arm_16.9.4.LTS/include/s
    3583                            .dwattr $C$DW$227, DW_AT_decl_line(0x61)
    3584                            .dwattr $C$DW$227, DW_AT_decl_column(0x22)
    3585                    
    3586                            .dwattr $C$DW$T$65, DW_AT_decl_file("C:/ti/ccsv7/tools/compiler/ti-cgt-arm_16.9.4.LTS/include/
    3587                            .dwattr $C$DW$T$65, DW_AT_decl_line(0x61)
    3588                            .dwattr $C$DW$T$65, DW_AT_decl_column(0x10)
    3589                            .dwendtag $C$DW$T$65
    3590                    
    3591                    $C$DW$T$193     .dwtag  DW_TAG_typedef
    3592                            .dwattr $C$DW$T$193, DW_AT_name("lldiv_t")
    3593                            .dwattr $C$DW$T$193, DW_AT_type(*$C$DW$T$65)
    3594                            .dwattr $C$DW$T$193, DW_AT_language(DW_LANG_C)
    3595                            .dwattr $C$DW$T$193, DW_AT_decl_file("C:/ti/ccsv7/tools/compiler/ti-cgt-arm_16.9.4.LTS/include
    3596                            .dwattr $C$DW$T$193, DW_AT_decl_line(0x61)
    3597                            .dwattr $C$DW$T$193, DW_AT_decl_column(0x29)
    3598                    
    3599                    
    3600                    $C$DW$T$69      .dwtag  DW_TAG_structure_type
    3601                            .dwattr $C$DW$T$69, DW_AT_byte_size(0x08)
    3602                    $C$DW$228       .dwtag  DW_TAG_member
    3603                            .dwattr $C$DW$228, DW_AT_type(*$C$DW$T$67)
    3604                            .dwattr $C$DW$228, DW_AT_name("pointerStack")
    3605                            .dwattr $C$DW$228, DW_AT_TI_symbol_name("pointerStack")
    3606                            .dwattr $C$DW$228, DW_AT_data_member_location[DW_OP_plus_uconst 0x0]
    3607                            .dwattr $C$DW$228, DW_AT_accessibility(DW_ACCESS_public)
    3608                            .dwattr $C$DW$228, DW_AT_decl_file("C:/ti/simplelink_cc13x0_sdk_1_50_00_08/source/ti/ti154stac
    3609                            .dwattr $C$DW$228, DW_AT_decl_line(0x3f5)
    3610                            .dwattr $C$DW$228, DW_AT_decl_column(0x16)
    3611                    
    3612                    $C$DW$229       .dwtag  DW_TAG_member
    3613                            .dwattr $C$DW$229, DW_AT_type(*$C$DW$T$68)
    3614                            .dwattr $C$DW$229, DW_AT_name("directAPI")
    3615                            .dwattr $C$DW$229, DW_AT_TI_symbol_name("directAPI")
    3616                            .dwattr $C$DW$229, DW_AT_data_member_location[DW_OP_plus_uconst 0x4]
    3617                            .dwattr $C$DW$229, DW_AT_accessibility(DW_ACCESS_public)
TI ARM Assembler PC v16.9.4 Sat Nov 18 18:46:31 2017

Tools Copyright (c) 1996-2017 Texas Instruments Incorporated
C:\Users\Kevin\AppData\Local\Temp\{6C42DDD5-7C92-479C-8F05-55537E4479EC} PAGE   67

    3618                            .dwattr $C$DW$229, DW_AT_decl_file("C:/ti/simplelink_cc13x0_sdk_1_50_00_08/source/ti/ti154stac
    3619                            .dwattr $C$DW$229, DW_AT_decl_line(0x3f6)
    3620                            .dwattr $C$DW$229, DW_AT_decl_column(0x15)
    3621                    
    3622                            .dwattr $C$DW$T$69, DW_AT_decl_file("C:/ti/simplelink_cc13x0_sdk_1_50_00_08/source/ti/ti154sta
    3623                            .dwattr $C$DW$T$69, DW_AT_decl_line(0x3f4)
    3624                            .dwattr $C$DW$T$69, DW_AT_decl_column(0x01)
    3625                            .dwendtag $C$DW$T$69
    3626                    
    3627                    $C$DW$T$71      .dwtag  DW_TAG_typedef
    3628                            .dwattr $C$DW$T$71, DW_AT_name("icall_directAPIMsg_t")
    3629                            .dwattr $C$DW$T$71, DW_AT_type(*$C$DW$T$69)
    3630                            .dwattr $C$DW$T$71, DW_AT_language(DW_LANG_C)
    3631                            .dwattr $C$DW$T$71, DW_AT_decl_file("C:/ti/simplelink_cc13x0_sdk_1_50_00_08/source/ti/ti154sta
    3632                            .dwattr $C$DW$T$71, DW_AT_decl_line(0x3f7)
    3633                            .dwattr $C$DW$T$71, DW_AT_decl_column(0x03)
    3634                    
    3635                    
    3636                    $C$DW$T$72      .dwtag  DW_TAG_structure_type
    3637                            .dwattr $C$DW$T$72, DW_AT_byte_size(0x14)
    3638                    $C$DW$230       .dwtag  DW_TAG_member
    3639                            .dwattr $C$DW$230, DW_AT_type(*$C$DW$T$70)
    3640                            .dwattr $C$DW$230, DW_AT_name("hdr")
    3641                            .dwattr $C$DW$230, DW_AT_TI_symbol_name("hdr")
    3642                            .dwattr $C$DW$230, DW_AT_data_member_location[DW_OP_plus_uconst 0x0]
    3643                            .dwattr $C$DW$230, DW_AT_accessibility(DW_ACCESS_public)
    3644                            .dwattr $C$DW$230, DW_AT_decl_file("C:/ti/simplelink_cc13x0_sdk_1_50_00_08/source/ti/ti154stac
    3645                            .dwattr $C$DW$230, DW_AT_decl_line(0x3fb)
    3646                            .dwattr $C$DW$230, DW_AT_decl_column(0x10)
    3647                    
    3648                    $C$DW$231       .dwtag  DW_TAG_member
    3649                            .dwattr $C$DW$231, DW_AT_type(*$C$DW$T$71)
    3650                            .dwattr $C$DW$231, DW_AT_name("msg")
    3651                            .dwattr $C$DW$231, DW_AT_TI_symbol_name("msg")
    3652                            .dwattr $C$DW$231, DW_AT_data_member_location[DW_OP_plus_uconst 0xc]
    3653                            .dwattr $C$DW$231, DW_AT_accessibility(DW_ACCESS_public)
    3654                            .dwattr $C$DW$231, DW_AT_decl_file("C:/ti/simplelink_cc13x0_sdk_1_50_00_08/source/ti/ti154stac
    3655                            .dwattr $C$DW$231, DW_AT_decl_line(0x3fc)
    3656                            .dwattr $C$DW$231, DW_AT_decl_column(0x1a)
    3657                    
    3658                            .dwattr $C$DW$T$72, DW_AT_decl_file("C:/ti/simplelink_cc13x0_sdk_1_50_00_08/source/ti/ti154sta
    3659                            .dwattr $C$DW$T$72, DW_AT_decl_line(0x3fa)
    3660                            .dwattr $C$DW$T$72, DW_AT_decl_column(0x01)
    3661                            .dwendtag $C$DW$T$72
    3662                    
    3663                    $C$DW$T$194     .dwtag  DW_TAG_typedef
    3664                            .dwattr $C$DW$T$194, DW_AT_name("icallLiteMsg_t")
    3665                            .dwattr $C$DW$T$194, DW_AT_type(*$C$DW$T$72)
    3666                            .dwattr $C$DW$T$194, DW_AT_language(DW_LANG_C)
    3667                            .dwattr $C$DW$T$194, DW_AT_decl_file("C:/ti/simplelink_cc13x0_sdk_1_50_00_08/source/ti/ti154st
    3668                            .dwattr $C$DW$T$194, DW_AT_decl_line(0x3fd)
    3669                            .dwattr $C$DW$T$194, DW_AT_decl_column(0x03)
    3670                    
    3671                    
    3672                    $C$DW$T$74      .dwtag  DW_TAG_structure_type
TI ARM Assembler PC v16.9.4 Sat Nov 18 18:46:31 2017

Tools Copyright (c) 1996-2017 Texas Instruments Incorporated
C:\Users\Kevin\AppData\Local\Temp\{6C42DDD5-7C92-479C-8F05-55537E4479EC} PAGE   68

    3673                            .dwattr $C$DW$T$74, DW_AT_byte_size(0x02)
    3674                    $C$DW$232       .dwtag  DW_TAG_member
    3675                            .dwattr $C$DW$232, DW_AT_type(*$C$DW$T$73)
    3676                            .dwattr $C$DW$232, DW_AT_name("event")
    3677                            .dwattr $C$DW$232, DW_AT_TI_symbol_name("event")
    3678                            .dwattr $C$DW$232, DW_AT_data_member_location[DW_OP_plus_uconst 0x0]
    3679                            .dwattr $C$DW$232, DW_AT_accessibility(DW_ACCESS_public)
    3680                            .dwattr $C$DW$232, DW_AT_decl_file("C:/Users/Kevin/workspace_v7/sensor_cc1310lp/Application/MA
    3681                            .dwattr $C$DW$232, DW_AT_decl_line(0x79)
    3682                            .dwattr $C$DW$232, DW_AT_decl_column(0x0a)
    3683                    
    3684                    $C$DW$233       .dwtag  DW_TAG_member
    3685                            .dwattr $C$DW$233, DW_AT_type(*$C$DW$T$73)
    3686                            .dwattr $C$DW$233, DW_AT_name("status")
    3687                            .dwattr $C$DW$233, DW_AT_TI_symbol_name("status")
    3688                            .dwattr $C$DW$233, DW_AT_data_member_location[DW_OP_plus_uconst 0x1]
    3689                            .dwattr $C$DW$233, DW_AT_accessibility(DW_ACCESS_public)
    3690                            .dwattr $C$DW$233, DW_AT_decl_file("C:/Users/Kevin/workspace_v7/sensor_cc1310lp/Application/MA
    3691                            .dwattr $C$DW$233, DW_AT_decl_line(0x7a)
    3692                            .dwattr $C$DW$233, DW_AT_decl_column(0x0a)
    3693                    
    3694                            .dwattr $C$DW$T$74, DW_AT_decl_file("C:/Users/Kevin/workspace_v7/sensor_cc1310lp/Application/M
    3695                            .dwattr $C$DW$T$74, DW_AT_decl_line(0x78)
    3696                            .dwattr $C$DW$T$74, DW_AT_decl_column(0x01)
    3697                            .dwendtag $C$DW$T$74
    3698                    
    3699                    $C$DW$T$195     .dwtag  DW_TAG_typedef
    3700                            .dwattr $C$DW$T$195, DW_AT_name("osal_event_hdr_t")
    3701                            .dwattr $C$DW$T$195, DW_AT_type(*$C$DW$T$74)
    3702                            .dwattr $C$DW$T$195, DW_AT_language(DW_LANG_C)
    3703                            .dwattr $C$DW$T$195, DW_AT_decl_file("C:/Users/Kevin/workspace_v7/sensor_cc1310lp/Application/
    3704                            .dwattr $C$DW$T$195, DW_AT_decl_line(0x7b)
    3705                            .dwattr $C$DW$T$195, DW_AT_decl_column(0x03)
    3706                    
    3707                    
    3708                    $C$DW$T$79      .dwtag  DW_TAG_union_type
    3709                            .dwattr $C$DW$T$79, DW_AT_byte_size(0x02)
    3710                    $C$DW$234       .dwtag  DW_TAG_member
    3711                            .dwattr $C$DW$234, DW_AT_type(*$C$DW$T$76)
    3712                            .dwattr $C$DW$234, DW_AT_name("entityId")
    3713                            .dwattr $C$DW$234, DW_AT_TI_symbol_name("entityId")
    3714                            .dwattr $C$DW$234, DW_AT_data_member_location[DW_OP_plus_uconst 0x0]
    3715                            .dwattr $C$DW$234, DW_AT_accessibility(DW_ACCESS_public)
    3716                            .dwattr $C$DW$234, DW_AT_decl_file("C:/ti/simplelink_cc13x0_sdk_1_50_00_08/source/ti/ti154stac
    3717                            .dwattr $C$DW$234, DW_AT_decl_line(0x1fe)
    3718                            .dwattr $C$DW$234, DW_AT_decl_column(0x14)
    3719                    
    3720                    $C$DW$235       .dwtag  DW_TAG_member
    3721                            .dwattr $C$DW$235, DW_AT_type(*$C$DW$T$78)
    3722                            .dwattr $C$DW$235, DW_AT_name("servId")
    3723                            .dwattr $C$DW$235, DW_AT_TI_symbol_name("servId")
    3724                            .dwattr $C$DW$235, DW_AT_data_member_location[DW_OP_plus_uconst 0x0]
    3725                            .dwattr $C$DW$235, DW_AT_accessibility(DW_ACCESS_public)
    3726                            .dwattr $C$DW$235, DW_AT_decl_file("C:/ti/simplelink_cc13x0_sdk_1_50_00_08/source/ti/ti154stac
    3727                            .dwattr $C$DW$235, DW_AT_decl_line(0x200)
TI ARM Assembler PC v16.9.4 Sat Nov 18 18:46:31 2017

Tools Copyright (c) 1996-2017 Texas Instruments Incorporated
C:\Users\Kevin\AppData\Local\Temp\{6C42DDD5-7C92-479C-8F05-55537E4479EC} PAGE   69

    3728                            .dwattr $C$DW$235, DW_AT_decl_column(0x17)
    3729                    
    3730                            .dwattr $C$DW$T$79, DW_AT_decl_file("C:/ti/simplelink_cc13x0_sdk_1_50_00_08/source/ti/ti154sta
    3731                            .dwattr $C$DW$T$79, DW_AT_decl_line(0x1fc)
    3732                            .dwattr $C$DW$T$79, DW_AT_decl_column(0x03)
    3733                            .dwendtag $C$DW$T$79
    3734                    
    3735                    
    3736                    $C$DW$T$80      .dwtag  DW_TAG_union_type
    3737                            .dwattr $C$DW$T$80, DW_AT_byte_size(0x02)
    3738                    $C$DW$236       .dwtag  DW_TAG_member
    3739                            .dwattr $C$DW$236, DW_AT_type(*$C$DW$T$78)
    3740                            .dwattr $C$DW$236, DW_AT_name("servId")
    3741                            .dwattr $C$DW$236, DW_AT_TI_symbol_name("servId")
    3742                            .dwattr $C$DW$236, DW_AT_data_member_location[DW_OP_plus_uconst 0x0]
    3743                            .dwattr $C$DW$236, DW_AT_accessibility(DW_ACCESS_public)
    3744                            .dwattr $C$DW$236, DW_AT_decl_file("C:/ti/simplelink_cc13x0_sdk_1_50_00_08/source/ti/ti154stac
    3745                            .dwattr $C$DW$236, DW_AT_decl_line(0x211)
    3746                            .dwattr $C$DW$236, DW_AT_decl_column(0x17)
    3747                    
    3748                    $C$DW$237       .dwtag  DW_TAG_member
    3749                            .dwattr $C$DW$237, DW_AT_type(*$C$DW$T$76)
    3750                            .dwattr $C$DW$237, DW_AT_name("entityId")
    3751                            .dwattr $C$DW$237, DW_AT_TI_symbol_name("entityId")
    3752                            .dwattr $C$DW$237, DW_AT_data_member_location[DW_OP_plus_uconst 0x0]
    3753                            .dwattr $C$DW$237, DW_AT_accessibility(DW_ACCESS_public)
    3754                            .dwattr $C$DW$237, DW_AT_decl_file("C:/ti/simplelink_cc13x0_sdk_1_50_00_08/source/ti/ti154stac
    3755                            .dwattr $C$DW$237, DW_AT_decl_line(0x213)
    3756                            .dwattr $C$DW$237, DW_AT_decl_column(0x14)
    3757                    
    3758                            .dwattr $C$DW$T$80, DW_AT_decl_file("C:/ti/simplelink_cc13x0_sdk_1_50_00_08/source/ti/ti154sta
    3759                            .dwattr $C$DW$T$80, DW_AT_decl_line(0x20f)
    3760                            .dwattr $C$DW$T$80, DW_AT_decl_column(0x03)
    3761                            .dwendtag $C$DW$T$80
    3762                    
    3763                    
    3764                    $C$DW$T$81      .dwtag  DW_TAG_structure_type
    3765                            .dwattr $C$DW$T$81, DW_AT_name(".ggroup1")
    3766                            .dwattr $C$DW$T$81, DW_AT_byte_size(0x08)
    3767                    $C$DW$238       .dwtag  DW_TAG_member
    3768                            .dwattr $C$DW$238, DW_AT_type(*$C$DW$T$6)
    3769                            .dwattr $C$DW$238, DW_AT_name("failF")
    3770                            .dwattr $C$DW$238, DW_AT_TI_symbol_name("failF")
    3771                            .dwattr $C$DW$238, DW_AT_data_member_location[DW_OP_plus_uconst 0x0]
    3772                            .dwattr $C$DW$238, DW_AT_accessibility(DW_ACCESS_public)
    3773                    
    3774                    $C$DW$239       .dwtag  DW_TAG_member
    3775                            .dwattr $C$DW$239, DW_AT_type(*$C$DW$T$6)
    3776                            .dwattr $C$DW$239, DW_AT_name("failW")
    3777                            .dwattr $C$DW$239, DW_AT_TI_symbol_name("failW")
    3778                            .dwattr $C$DW$239, DW_AT_data_member_location[DW_OP_plus_uconst 0x1]
    3779                            .dwattr $C$DW$239, DW_AT_accessibility(DW_ACCESS_public)
    3780                    
    3781                    $C$DW$240       .dwtag  DW_TAG_member
    3782                            .dwattr $C$DW$240, DW_AT_type(*$C$DW$T$9)
TI ARM Assembler PC v16.9.4 Sat Nov 18 18:46:31 2017

Tools Copyright (c) 1996-2017 Texas Instruments Incorporated
C:\Users\Kevin\AppData\Local\Temp\{6C42DDD5-7C92-479C-8F05-55537E4479EC} PAGE   70

    3783                            .dwattr $C$DW$240, DW_AT_name("pgOff")
    3784                            .dwattr $C$DW$240, DW_AT_TI_symbol_name("pgOff")
    3785                            .dwattr $C$DW$240, DW_AT_data_member_location[DW_OP_plus_uconst 0x2]
    3786                            .dwattr $C$DW$240, DW_AT_accessibility(DW_ACCESS_public)
    3787                    
    3788                    $C$DW$241       .dwtag  DW_TAG_member
    3789                            .dwattr $C$DW$241, DW_AT_type(*$C$DW$T$11)
    3790                            .dwattr $C$DW$241, DW_AT_name("sector_addr")
    3791                            .dwattr $C$DW$241, DW_AT_TI_symbol_name("sector_addr")
    3792                            .dwattr $C$DW$241, DW_AT_data_member_location[DW_OP_plus_uconst 0x4]
    3793                            .dwattr $C$DW$241, DW_AT_accessibility(DW_ACCESS_public)
    3794                    
    3795                            .dwendtag $C$DW$T$81
    3796                    
    3797                    
    3798                    $C$DW$T$82      .dwtag  DW_TAG_structure_type
    3799                            .dwattr $C$DW$T$82, DW_AT_name("_ICall_LiteCmdStatus_")
    3800                            .dwattr $C$DW$T$82, DW_AT_byte_size(0x01)
    3801                    $C$DW$242       .dwtag  DW_TAG_member
    3802                            .dwattr $C$DW$242, DW_AT_type(*$C$DW$T$75)
    3803                            .dwattr $C$DW$242, DW_AT_name("cmdId")
    3804                            .dwattr $C$DW$242, DW_AT_TI_symbol_name("cmdId")
    3805                            .dwattr $C$DW$242, DW_AT_data_member_location[DW_OP_plus_uconst 0x0]
    3806                            .dwattr $C$DW$242, DW_AT_accessibility(DW_ACCESS_public)
    3807                            .dwattr $C$DW$242, DW_AT_decl_file("C:/ti/simplelink_cc13x0_sdk_1_50_00_08/source/ti/ti154stac
    3808                            .dwattr $C$DW$242, DW_AT_decl_line(0x3f0)
    3809                            .dwattr $C$DW$242, DW_AT_decl_column(0x11)
    3810                    
    3811                            .dwattr $C$DW$T$82, DW_AT_decl_file("C:/ti/simplelink_cc13x0_sdk_1_50_00_08/source/ti/ti154sta
    3812                            .dwattr $C$DW$T$82, DW_AT_decl_line(0x3ee)
    3813                            .dwattr $C$DW$T$82, DW_AT_decl_column(0x10)
    3814                            .dwendtag $C$DW$T$82
    3815                    
    3816                    $C$DW$T$197     .dwtag  DW_TAG_typedef
    3817                            .dwattr $C$DW$T$197, DW_AT_name("ICall_LiteCmdStatus")
    3818                            .dwattr $C$DW$T$197, DW_AT_type(*$C$DW$T$82)
    3819                            .dwattr $C$DW$T$197, DW_AT_language(DW_LANG_C)
    3820                            .dwattr $C$DW$T$197, DW_AT_decl_file("C:/ti/simplelink_cc13x0_sdk_1_50_00_08/source/ti/ti154st
    3821                            .dwattr $C$DW$T$197, DW_AT_decl_line(0x3f1)
    3822                            .dwattr $C$DW$T$197, DW_AT_decl_column(0x03)
    3823                    
    3824                    $C$DW$T$2       .dwtag  DW_TAG_unspecified_type
    3825                            .dwattr $C$DW$T$2, DW_AT_name("void")
    3826                    
    3827                    $C$DW$T$3       .dwtag  DW_TAG_pointer_type
    3828                            .dwattr $C$DW$T$3, DW_AT_type(*$C$DW$T$2)
    3829                            .dwattr $C$DW$T$3, DW_AT_address_class(0x20)
    3830                    
    3831                    $C$DW$T$198     .dwtag  DW_TAG_typedef
    3832                            .dwattr $C$DW$T$198, DW_AT_name("ICall_Semaphore")
    3833                            .dwattr $C$DW$T$198, DW_AT_type(*$C$DW$T$3)
    3834                            .dwattr $C$DW$T$198, DW_AT_language(DW_LANG_C)
    3835                            .dwattr $C$DW$T$198, DW_AT_decl_file("C:/ti/simplelink_cc13x0_sdk_1_50_00_08/source/ti/ti154st
    3836                            .dwattr $C$DW$T$198, DW_AT_decl_line(0x1ac)
    3837                            .dwattr $C$DW$T$198, DW_AT_decl_column(0x0f)
TI ARM Assembler PC v16.9.4 Sat Nov 18 18:46:31 2017

Tools Copyright (c) 1996-2017 Texas Instruments Incorporated
C:\Users\Kevin\AppData\Local\Temp\{6C42DDD5-7C92-479C-8F05-55537E4479EC} PAGE   71

    3838                    
    3839                    $C$DW$T$96      .dwtag  DW_TAG_typedef
    3840                            .dwattr $C$DW$T$96, DW_AT_name("ICall_SyncHandle")
    3841                            .dwattr $C$DW$T$96, DW_AT_type(*$C$DW$T$3)
    3842                            .dwattr $C$DW$T$96, DW_AT_language(DW_LANG_C)
    3843                            .dwattr $C$DW$T$96, DW_AT_decl_file("C:/ti/simplelink_cc13x0_sdk_1_50_00_08/source/ti/ti154sta
    3844                            .dwattr $C$DW$T$96, DW_AT_decl_line(0x1aa)
    3845                            .dwattr $C$DW$T$96, DW_AT_decl_column(0x0f)
    3846                    
    3847                    $C$DW$T$141     .dwtag  DW_TAG_typedef
    3848                            .dwattr $C$DW$T$141, DW_AT_name("ICall_TimerID")
    3849                            .dwattr $C$DW$T$141, DW_AT_type(*$C$DW$T$3)
    3850                            .dwattr $C$DW$T$141, DW_AT_language(DW_LANG_C)
    3851                            .dwattr $C$DW$T$141, DW_AT_decl_file("C:/ti/simplelink_cc13x0_sdk_1_50_00_08/source/ti/ti154st
    3852                            .dwattr $C$DW$T$141, DW_AT_decl_line(0x1b7)
    3853                            .dwattr $C$DW$T$141, DW_AT_decl_column(0x0f)
    3854                    
    3855                    $C$DW$T$200     .dwtag  DW_TAG_const_type
    3856                            .dwattr $C$DW$T$200, DW_AT_type(*$C$DW$T$3)
    3857                    
    3858                    $C$DW$T$201     .dwtag  DW_TAG_typedef
    3859                            .dwattr $C$DW$T$201, DW_AT_name("osal_msg_q_t")
    3860                            .dwattr $C$DW$T$201, DW_AT_type(*$C$DW$T$3)
    3861                            .dwattr $C$DW$T$201, DW_AT_language(DW_LANG_C)
    3862                            .dwattr $C$DW$T$201, DW_AT_decl_file("C:/Users/Kevin/workspace_v7/sensor_cc1310lp/Application/
    3863                            .dwattr $C$DW$T$201, DW_AT_decl_line(0x7d)
    3864                            .dwattr $C$DW$T$201, DW_AT_decl_column(0x10)
    3865                    
    3866                    
    3867                    $C$DW$T$36      .dwtag  DW_TAG_subroutine_type
    3868                            .dwattr $C$DW$T$36, DW_AT_language(DW_LANG_C)
    3869                            .dwendtag $C$DW$T$36
    3870                    
    3871                    $C$DW$T$37      .dwtag  DW_TAG_pointer_type
    3872                            .dwattr $C$DW$T$37, DW_AT_type(*$C$DW$T$36)
    3873                            .dwattr $C$DW$T$37, DW_AT_address_class(0x20)
    3874                    
    3875                    $C$DW$T$157     .dwtag  DW_TAG_typedef
    3876                            .dwattr $C$DW$T$157, DW_AT_name("APPASRTINTF_callAssrtHndler")
    3877                            .dwattr $C$DW$T$157, DW_AT_type(*$C$DW$T$37)
    3878                            .dwattr $C$DW$T$157, DW_AT_language(DW_LANG_C)
    3879                            .dwattr $C$DW$T$157, DW_AT_decl_file("C:/ti/simplelink_cc13x0_sdk_1_50_00_08/source/ti/ti154st
    3880                            .dwattr $C$DW$T$157, DW_AT_decl_line(0x43)
    3881                            .dwattr $C$DW$T$157, DW_AT_decl_column(0x10)
    3882                    
    3883                    $C$DW$T$55      .dwtag  DW_TAG_typedef
    3884                            .dwattr $C$DW$T$55, DW_AT_name("FPTR_HFSOURCESAFESWITCH_T")
    3885                            .dwattr $C$DW$T$55, DW_AT_type(*$C$DW$T$37)
    3886                            .dwattr $C$DW$T$55, DW_AT_language(DW_LANG_C)
    3887                            .dwattr $C$DW$T$55, DW_AT_decl_file("C:\ti\simplelink_cc13x0_sdk_1_50_00_08\source\ti\devices\
    3888                            .dwattr $C$DW$T$55, DW_AT_decl_line(0x5f)
    3889                            .dwattr $C$DW$T$55, DW_AT_decl_column(0x19)
    3890                    
    3891                    $C$DW$T$38      .dwtag  DW_TAG_typedef
    3892                            .dwattr $C$DW$T$38, DW_AT_name("FPTR_RESETDEV_T")
TI ARM Assembler PC v16.9.4 Sat Nov 18 18:46:31 2017

Tools Copyright (c) 1996-2017 Texas Instruments Incorporated
C:\Users\Kevin\AppData\Local\Temp\{6C42DDD5-7C92-479C-8F05-55537E4479EC} PAGE   72

    3893                            .dwattr $C$DW$T$38, DW_AT_type(*$C$DW$T$37)
    3894                            .dwattr $C$DW$T$38, DW_AT_language(DW_LANG_C)
    3895                            .dwattr $C$DW$T$38, DW_AT_decl_file("C:\ti\simplelink_cc13x0_sdk_1_50_00_08\source\ti\devices\
    3896                            .dwattr $C$DW$T$38, DW_AT_decl_line(0x4d)
    3897                            .dwattr $C$DW$T$38, DW_AT_decl_column(0x19)
    3898                    
    3899                    $C$DW$T$202     .dwtag  DW_TAG_typedef
    3900                            .dwattr $C$DW$T$202, DW_AT_name("FPTR_VOID_VOID_T")
    3901                            .dwattr $C$DW$T$202, DW_AT_type(*$C$DW$T$37)
    3902                            .dwattr $C$DW$T$202, DW_AT_language(DW_LANG_C)
    3903                            .dwattr $C$DW$T$202, DW_AT_decl_file("C:/ti/simplelink_cc13x0_sdk_1_50_00_08/source/ti/devices
    3904                            .dwattr $C$DW$T$202, DW_AT_decl_line(0x33)
    3905                            .dwattr $C$DW$T$202, DW_AT_decl_column(0x11)
    3906                    
    3907                    $C$DW$T$203     .dwtag  DW_TAG_typedef
    3908                            .dwattr $C$DW$T$203, DW_AT_name("__TI_atexit_fn")
    3909                            .dwattr $C$DW$T$203, DW_AT_type(*$C$DW$T$37)
    3910                            .dwattr $C$DW$T$203, DW_AT_language(DW_LANG_C)
    3911                            .dwattr $C$DW$T$203, DW_AT_decl_file("C:/ti/ccsv7/tools/compiler/ti-cgt-arm_16.9.4.LTS/include
    3912                            .dwattr $C$DW$T$203, DW_AT_decl_line(0xb9)
    3913                            .dwattr $C$DW$T$203, DW_AT_decl_column(0x14)
    3914                    
    3915                    
    3916                    $C$DW$T$51      .dwtag  DW_TAG_subroutine_type
    3917                            .dwattr $C$DW$T$51, DW_AT_language(DW_LANG_C)
    3918                    $C$DW$243       .dwtag  DW_TAG_formal_parameter
    3919                            .dwattr $C$DW$243, DW_AT_type(*$C$DW$T$21)
    3920                    
    3921                            .dwendtag $C$DW$T$51
    3922                    
    3923                    $C$DW$T$52      .dwtag  DW_TAG_pointer_type
    3924                            .dwattr $C$DW$T$52, DW_AT_type(*$C$DW$T$51)
    3925                            .dwattr $C$DW$T$52, DW_AT_address_class(0x20)
    3926                    
    3927                    $C$DW$T$53      .dwtag  DW_TAG_typedef
    3928                            .dwattr $C$DW$T$53, DW_AT_name("FPTR_RESERVED4_T")
    3929                            .dwattr $C$DW$T$53, DW_AT_type(*$C$DW$T$52)
    3930                            .dwattr $C$DW$T$53, DW_AT_language(DW_LANG_C)
    3931                            .dwattr $C$DW$T$53, DW_AT_decl_file("C:\ti\simplelink_cc13x0_sdk_1_50_00_08\source\ti\devices\
    3932                            .dwattr $C$DW$T$53, DW_AT_decl_line(0x61)
    3933                            .dwattr $C$DW$T$53, DW_AT_decl_column(0x19)
    3934                    
    3935                    $C$DW$T$54      .dwtag  DW_TAG_typedef
    3936                            .dwattr $C$DW$T$54, DW_AT_name("FPTR_RESERVED5_T")
    3937                            .dwattr $C$DW$T$54, DW_AT_type(*$C$DW$T$52)
    3938                            .dwattr $C$DW$T$54, DW_AT_language(DW_LANG_C)
    3939                            .dwattr $C$DW$T$54, DW_AT_decl_file("C:\ti\simplelink_cc13x0_sdk_1_50_00_08\source\ti\devices\
    3940                            .dwattr $C$DW$T$54, DW_AT_decl_line(0x63)
    3941                            .dwattr $C$DW$T$54, DW_AT_decl_column(0x19)
    3942                    
    3943                    
    3944                    $C$DW$T$56      .dwtag  DW_TAG_subroutine_type
    3945                            .dwattr $C$DW$T$56, DW_AT_language(DW_LANG_C)
    3946                    $C$DW$244       .dwtag  DW_TAG_formal_parameter
    3947                            .dwattr $C$DW$244, DW_AT_type(*$C$DW$T$22)
TI ARM Assembler PC v16.9.4 Sat Nov 18 18:46:31 2017

Tools Copyright (c) 1996-2017 Texas Instruments Incorporated
C:\Users\Kevin\AppData\Local\Temp\{6C42DDD5-7C92-479C-8F05-55537E4479EC} PAGE   73

    3948                    
    3949                            .dwendtag $C$DW$T$56
    3950                    
    3951                    $C$DW$T$57      .dwtag  DW_TAG_pointer_type
    3952                            .dwattr $C$DW$T$57, DW_AT_type(*$C$DW$T$56)
    3953                            .dwattr $C$DW$T$57, DW_AT_address_class(0x20)
    3954                    
    3955                    $C$DW$T$60      .dwtag  DW_TAG_typedef
    3956                            .dwattr $C$DW$T$60, DW_AT_name("FPTR_ADCCOMPBIN_T")
    3957                            .dwattr $C$DW$T$60, DW_AT_type(*$C$DW$T$57)
    3958                            .dwattr $C$DW$T$60, DW_AT_language(DW_LANG_C)
    3959                            .dwattr $C$DW$T$60, DW_AT_decl_file("C:\ti\simplelink_cc13x0_sdk_1_50_00_08\source\ti\devices\
    3960                            .dwattr $C$DW$T$60, DW_AT_decl_line(0x69)
    3961                            .dwattr $C$DW$T$60, DW_AT_decl_column(0x19)
    3962                    
    3963                    $C$DW$T$58      .dwtag  DW_TAG_typedef
    3964                            .dwattr $C$DW$T$58, DW_AT_name("FPTR_COMPAIN_T")
    3965                            .dwattr $C$DW$T$58, DW_AT_type(*$C$DW$T$57)
    3966                            .dwattr $C$DW$T$58, DW_AT_language(DW_LANG_C)
    3967                            .dwattr $C$DW$T$58, DW_AT_decl_file("C:\ti\simplelink_cc13x0_sdk_1_50_00_08\source\ti\devices\
    3968                            .dwattr $C$DW$T$58, DW_AT_decl_line(0x65)
    3969                            .dwattr $C$DW$T$58, DW_AT_decl_column(0x19)
    3970                    
    3971                    $C$DW$T$59      .dwtag  DW_TAG_typedef
    3972                            .dwattr $C$DW$T$59, DW_AT_name("FPTR_COMPAREF_T")
    3973                            .dwattr $C$DW$T$59, DW_AT_type(*$C$DW$T$57)
    3974                            .dwattr $C$DW$T$59, DW_AT_language(DW_LANG_C)
    3975                            .dwattr $C$DW$T$59, DW_AT_decl_file("C:\ti\simplelink_cc13x0_sdk_1_50_00_08\source\ti\devices\
    3976                            .dwattr $C$DW$T$59, DW_AT_decl_line(0x67)
    3977                            .dwattr $C$DW$T$59, DW_AT_decl_column(0x19)
    3978                    
    3979                    $C$DW$T$61      .dwtag  DW_TAG_typedef
    3980                            .dwattr $C$DW$T$61, DW_AT_name("FPTR_COMPBREF_T")
    3981                            .dwattr $C$DW$T$61, DW_AT_type(*$C$DW$T$57)
    3982                            .dwattr $C$DW$T$61, DW_AT_language(DW_LANG_C)
    3983                            .dwattr $C$DW$T$61, DW_AT_decl_file("C:\ti\simplelink_cc13x0_sdk_1_50_00_08\source\ti\devices\
    3984                            .dwattr $C$DW$T$61, DW_AT_decl_line(0x6b)
    3985                            .dwattr $C$DW$T$61, DW_AT_decl_column(0x19)
    3986                    
    3987                    $C$DW$T$204     .dwtag  DW_TAG_typedef
    3988                            .dwattr $C$DW$T$204, DW_AT_name("FPTR_VOID_UINT8_T")
    3989                            .dwattr $C$DW$T$204, DW_AT_type(*$C$DW$T$57)
    3990                            .dwattr $C$DW$T$204, DW_AT_language(DW_LANG_C)
    3991                            .dwattr $C$DW$T$204, DW_AT_decl_file("C:/ti/simplelink_cc13x0_sdk_1_50_00_08/source/ti/devices
    3992                            .dwattr $C$DW$T$204, DW_AT_decl_line(0x34)
    3993                            .dwattr $C$DW$T$204, DW_AT_decl_column(0x11)
    3994                    
    3995                    
    3996                    $C$DW$T$86      .dwtag  DW_TAG_subroutine_type
    3997                            .dwattr $C$DW$T$86, DW_AT_language(DW_LANG_C)
    3998                    $C$DW$245       .dwtag  DW_TAG_formal_parameter
    3999                            .dwattr $C$DW$245, DW_AT_type(*$C$DW$T$84)
    4000                    
    4001                            .dwendtag $C$DW$T$86
    4002                    
TI ARM Assembler PC v16.9.4 Sat Nov 18 18:46:31 2017

Tools Copyright (c) 1996-2017 Texas Instruments Incorporated
C:\Users\Kevin\AppData\Local\Temp\{6C42DDD5-7C92-479C-8F05-55537E4479EC} PAGE   74

    4003                    $C$DW$T$87      .dwtag  DW_TAG_pointer_type
    4004                            .dwattr $C$DW$T$87, DW_AT_type(*$C$DW$T$86)
    4005                            .dwattr $C$DW$T$87, DW_AT_address_class(0x20)
    4006                    
    4007                    
    4008                    $C$DW$T$119     .dwtag  DW_TAG_subroutine_type
    4009                            .dwattr $C$DW$T$119, DW_AT_language(DW_LANG_C)
    4010                    $C$DW$246       .dwtag  DW_TAG_formal_parameter
    4011                            .dwattr $C$DW$246, DW_AT_type(*$C$DW$T$117)
    4012                    
    4013                    $C$DW$247       .dwtag  DW_TAG_formal_parameter
    4014                            .dwattr $C$DW$247, DW_AT_type(*$C$DW$T$118)
    4015                    
    4016                            .dwendtag $C$DW$T$119
    4017                    
    4018                    $C$DW$T$120     .dwtag  DW_TAG_pointer_type
    4019                            .dwattr $C$DW$T$120, DW_AT_type(*$C$DW$T$119)
    4020                            .dwattr $C$DW$T$120, DW_AT_address_class(0x20)
    4021                    
    4022                    $C$DW$T$121     .dwtag  DW_TAG_typedef
    4023                            .dwattr $C$DW$T$121, DW_AT_name("ICall_PwrNotifyFn")
    4024                            .dwattr $C$DW$T$121, DW_AT_type(*$C$DW$T$120)
    4025                            .dwattr $C$DW$T$121, DW_AT_language(DW_LANG_C)
    4026                            .dwattr $C$DW$T$121, DW_AT_decl_file("C:/ti/simplelink_cc13x0_sdk_1_50_00_08/source/ti/ti154st
    4027                            .dwattr $C$DW$T$121, DW_AT_decl_line(0x333)
    4028                            .dwattr $C$DW$T$121, DW_AT_decl_column(0x10)
    4029                    
    4030                    
    4031                    $C$DW$T$135     .dwtag  DW_TAG_subroutine_type
    4032                            .dwattr $C$DW$T$135, DW_AT_language(DW_LANG_C)
    4033                    $C$DW$248       .dwtag  DW_TAG_formal_parameter
    4034                            .dwattr $C$DW$248, DW_AT_type(*$C$DW$T$131)
    4035                    
    4036                            .dwendtag $C$DW$T$135
    4037                    
    4038                    $C$DW$T$136     .dwtag  DW_TAG_pointer_type
    4039                            .dwattr $C$DW$T$136, DW_AT_type(*$C$DW$T$135)
    4040                            .dwattr $C$DW$T$136, DW_AT_address_class(0x20)
    4041                    
    4042                    $C$DW$T$137     .dwtag  DW_TAG_typedef
    4043                            .dwattr $C$DW$T$137, DW_AT_name("ICall_LeaveCS")
    4044                            .dwattr $C$DW$T$137, DW_AT_type(*$C$DW$T$136)
    4045                            .dwattr $C$DW$T$137, DW_AT_language(DW_LANG_C)
    4046                            .dwattr $C$DW$T$137, DW_AT_decl_file("C:/ti/simplelink_cc13x0_sdk_1_50_00_08/source/ti/ti154st
    4047                            .dwattr $C$DW$T$137, DW_AT_decl_line(0x37e)
    4048                            .dwattr $C$DW$T$137, DW_AT_decl_column(0x10)
    4049                    
    4050                    
    4051                    $C$DW$T$142     .dwtag  DW_TAG_subroutine_type
    4052                            .dwattr $C$DW$T$142, DW_AT_language(DW_LANG_C)
    4053                    $C$DW$249       .dwtag  DW_TAG_formal_parameter
    4054                            .dwattr $C$DW$249, DW_AT_type(*$C$DW$T$3)
    4055                    
    4056                            .dwendtag $C$DW$T$142
    4057                    
TI ARM Assembler PC v16.9.4 Sat Nov 18 18:46:31 2017

Tools Copyright (c) 1996-2017 Texas Instruments Incorporated
C:\Users\Kevin\AppData\Local\Temp\{6C42DDD5-7C92-479C-8F05-55537E4479EC} PAGE   75

    4058                    $C$DW$T$143     .dwtag  DW_TAG_pointer_type
    4059                            .dwattr $C$DW$T$143, DW_AT_type(*$C$DW$T$142)
    4060                            .dwattr $C$DW$T$143, DW_AT_address_class(0x20)
    4061                    
    4062                    $C$DW$T$144     .dwtag  DW_TAG_typedef
    4063                            .dwattr $C$DW$T$144, DW_AT_name("ICall_TimerCback")
    4064                            .dwattr $C$DW$T$144, DW_AT_type(*$C$DW$T$143)
    4065                            .dwattr $C$DW$T$144, DW_AT_language(DW_LANG_C)
    4066                            .dwattr $C$DW$T$144, DW_AT_decl_file("C:/ti/simplelink_cc13x0_sdk_1_50_00_08/source/ti/ti154st
    4067                            .dwattr $C$DW$T$144, DW_AT_decl_line(0x1c8)
    4068                            .dwattr $C$DW$T$144, DW_AT_decl_column(0x10)
    4069                    
    4070                    $C$DW$T$205     .dwtag  DW_TAG_typedef
    4071                            .dwattr $C$DW$T$205, DW_AT_name("osal_highres_timer_cback_t")
    4072                            .dwattr $C$DW$T$205, DW_AT_type(*$C$DW$T$143)
    4073                            .dwattr $C$DW$T$205, DW_AT_language(DW_LANG_C)
    4074                            .dwattr $C$DW$T$205, DW_AT_decl_file("C:/Users/Kevin/workspace_v7/sensor_cc1310lp/Application/
    4075                            .dwattr $C$DW$T$205, DW_AT_decl_line(0x81)
    4076                            .dwattr $C$DW$T$205, DW_AT_decl_column(0x10)
    4077                    
    4078                    $C$DW$T$206     .dwtag  DW_TAG_typedef
    4079                            .dwattr $C$DW$T$206, DW_AT_name("osal_icallMsg_hook_t")
    4080                            .dwattr $C$DW$T$206, DW_AT_type(*$C$DW$T$143)
    4081                            .dwattr $C$DW$T$206, DW_AT_language(DW_LANG_C)
    4082                            .dwattr $C$DW$T$206, DW_AT_decl_file("C:/Users/Kevin/workspace_v7/sensor_cc1310lp/Application/
    4083                            .dwattr $C$DW$T$206, DW_AT_decl_line(0x85)
    4084                            .dwattr $C$DW$T$206, DW_AT_decl_column(0x10)
    4085                    
    4086                    $C$DW$T$151     .dwtag  DW_TAG_const_type
    4087                            .dwattr $C$DW$T$151, DW_AT_type(*$C$DW$T$2)
    4088                    
    4089                    $C$DW$T$152     .dwtag  DW_TAG_pointer_type
    4090                            .dwattr $C$DW$T$152, DW_AT_type(*$C$DW$T$151)
    4091                            .dwattr $C$DW$T$152, DW_AT_address_class(0x20)
    4092                    
    4093                    
    4094                    $C$DW$T$222     .dwtag  DW_TAG_subroutine_type
    4095                            .dwattr $C$DW$T$222, DW_AT_language(DW_LANG_C)
    4096                    $C$DW$250       .dwtag  DW_TAG_formal_parameter
    4097                            .dwattr $C$DW$250, DW_AT_type(*$C$DW$T$73)
    4098                    
    4099                    $C$DW$251       .dwtag  DW_TAG_formal_parameter
    4100                            .dwattr $C$DW$251, DW_AT_type(*$C$DW$T$73)
    4101                    
    4102                            .dwendtag $C$DW$T$222
    4103                    
    4104                    $C$DW$T$223     .dwtag  DW_TAG_pointer_type
    4105                            .dwattr $C$DW$T$223, DW_AT_type(*$C$DW$T$222)
    4106                            .dwattr $C$DW$T$223, DW_AT_address_class(0x20)
    4107                    
    4108                    $C$DW$T$224     .dwtag  DW_TAG_typedef
    4109                            .dwattr $C$DW$T$224, DW_AT_name("assertCback_t")
    4110                            .dwattr $C$DW$T$224, DW_AT_type(*$C$DW$T$223)
    4111                            .dwattr $C$DW$T$224, DW_AT_language(DW_LANG_C)
    4112                            .dwattr $C$DW$T$224, DW_AT_decl_file("C:/ti/simplelink_cc13x0_sdk_1_50_00_08/source/ti/ti154st
TI ARM Assembler PC v16.9.4 Sat Nov 18 18:46:31 2017

Tools Copyright (c) 1996-2017 Texas Instruments Incorporated
C:\Users\Kevin\AppData\Local\Temp\{6C42DDD5-7C92-479C-8F05-55537E4479EC} PAGE   76

    4113                            .dwattr $C$DW$T$224, DW_AT_decl_line(0xd3)
    4114                            .dwattr $C$DW$T$224, DW_AT_decl_column(0x10)
    4115                    
    4116                    
    4117                    $C$DW$T$228     .dwtag  DW_TAG_subroutine_type
    4118                            .dwattr $C$DW$T$228, DW_AT_language(DW_LANG_C)
    4119                    $C$DW$252       .dwtag  DW_TAG_formal_parameter
    4120                            .dwattr $C$DW$252, DW_AT_type(*$C$DW$T$227)
    4121                    
    4122                    $C$DW$253       .dwtag  DW_TAG_formal_parameter
    4123                            .dwattr $C$DW$253, DW_AT_type(*$C$DW$T$3)
    4124                    
    4125                            .dwendtag $C$DW$T$228
    4126                    
    4127                    $C$DW$T$229     .dwtag  DW_TAG_pointer_type
    4128                            .dwattr $C$DW$T$229, DW_AT_type(*$C$DW$T$228)
    4129                            .dwattr $C$DW$T$229, DW_AT_address_class(0x20)
    4130                    
    4131                    $C$DW$T$230     .dwtag  DW_TAG_typedef
    4132                            .dwattr $C$DW$T$230, DW_AT_name("ICall_RemoteTaskEntry")
    4133                            .dwattr $C$DW$T$230, DW_AT_type(*$C$DW$T$229)
    4134                            .dwattr $C$DW$T$230, DW_AT_language(DW_LANG_C)
    4135                            .dwattr $C$DW$T$230, DW_AT_decl_file("C:/ti/simplelink_cc13x0_sdk_1_50_00_08/source/ti/ti154st
    4136                            .dwattr $C$DW$T$230, DW_AT_decl_line(0x39b)
    4137                            .dwattr $C$DW$T$230, DW_AT_decl_column(0x10)
    4138                    
    4139                    $C$DW$T$4       .dwtag  DW_TAG_base_type
    4140                            .dwattr $C$DW$T$4, DW_AT_encoding(DW_ATE_boolean)
    4141                            .dwattr $C$DW$T$4, DW_AT_name("bool")
    4142                            .dwattr $C$DW$T$4, DW_AT_byte_size(0x01)
    4143                    
    4144                    $C$DW$T$5       .dwtag  DW_TAG_base_type
    4145                            .dwattr $C$DW$T$5, DW_AT_encoding(DW_ATE_signed_char)
    4146                            .dwattr $C$DW$T$5, DW_AT_name("signed char")
    4147                            .dwattr $C$DW$T$5, DW_AT_byte_size(0x01)
    4148                    
    4149                    $C$DW$T$231     .dwtag  DW_TAG_typedef
    4150                            .dwattr $C$DW$T$231, DW_AT_name("int8")
    4151                            .dwattr $C$DW$T$231, DW_AT_type(*$C$DW$T$5)
    4152                            .dwattr $C$DW$T$231, DW_AT_language(DW_LANG_C)
    4153                            .dwattr $C$DW$T$231, DW_AT_decl_file("C:\ti\simplelink_cc13x0_sdk_1_50_00_08\source\ti\ti154st
    4154                            .dwattr $C$DW$T$231, DW_AT_decl_line(0x38)
    4155                            .dwattr $C$DW$T$231, DW_AT_decl_column(0x19)
    4156                    
    4157                    $C$DW$T$232     .dwtag  DW_TAG_typedef
    4158                            .dwattr $C$DW$T$232, DW_AT_name("int8_t")
    4159                            .dwattr $C$DW$T$232, DW_AT_type(*$C$DW$T$5)
    4160                            .dwattr $C$DW$T$232, DW_AT_language(DW_LANG_C)
    4161                            .dwattr $C$DW$T$232, DW_AT_decl_file("C:/ti/ccsv7/tools/compiler/ti-cgt-arm_16.9.4.LTS/include
    4162                            .dwattr $C$DW$T$232, DW_AT_decl_line(0x2a)
    4163                            .dwattr $C$DW$T$232, DW_AT_decl_column(0x1d)
    4164                    
    4165                    $C$DW$T$233     .dwtag  DW_TAG_typedef
    4166                            .dwattr $C$DW$T$233, DW_AT_name("int_least8_t")
    4167                            .dwattr $C$DW$T$233, DW_AT_type(*$C$DW$T$232)
TI ARM Assembler PC v16.9.4 Sat Nov 18 18:46:31 2017

Tools Copyright (c) 1996-2017 Texas Instruments Incorporated
C:\Users\Kevin\AppData\Local\Temp\{6C42DDD5-7C92-479C-8F05-55537E4479EC} PAGE   77

    4168                            .dwattr $C$DW$T$233, DW_AT_language(DW_LANG_C)
    4169                            .dwattr $C$DW$T$233, DW_AT_decl_file("C:/ti/ccsv7/tools/compiler/ti-cgt-arm_16.9.4.LTS/include
    4170                            .dwattr $C$DW$T$233, DW_AT_decl_line(0x37)
    4171                            .dwattr $C$DW$T$233, DW_AT_decl_column(0x17)
    4172                    
    4173                    $C$DW$T$6       .dwtag  DW_TAG_base_type
    4174                            .dwattr $C$DW$T$6, DW_AT_encoding(DW_ATE_unsigned_char)
    4175                            .dwattr $C$DW$T$6, DW_AT_name("unsigned char")
    4176                            .dwattr $C$DW$T$6, DW_AT_byte_size(0x01)
    4177                    
    4178                    $C$DW$T$73      .dwtag  DW_TAG_typedef
    4179                            .dwattr $C$DW$T$73, DW_AT_name("uint8")
    4180                            .dwattr $C$DW$T$73, DW_AT_type(*$C$DW$T$6)
    4181                            .dwattr $C$DW$T$73, DW_AT_language(DW_LANG_C)
    4182                            .dwattr $C$DW$T$73, DW_AT_decl_file("C:\ti\simplelink_cc13x0_sdk_1_50_00_08\source\ti\ti154sta
    4183                            .dwattr $C$DW$T$73, DW_AT_decl_line(0x39)
    4184                            .dwattr $C$DW$T$73, DW_AT_decl_column(0x19)
    4185                    
    4186                    $C$DW$T$250     .dwtag  DW_TAG_typedef
    4187                            .dwattr $C$DW$T$250, DW_AT_name("Status_t")
    4188                            .dwattr $C$DW$T$250, DW_AT_type(*$C$DW$T$73)
    4189                            .dwattr $C$DW$T$250, DW_AT_language(DW_LANG_C)
    4190                            .dwattr $C$DW$T$250, DW_AT_decl_file("C:\Users\Kevin\workspace_v7\sensor_cc1310lp\Application\
    4191                            .dwattr $C$DW$T$250, DW_AT_decl_line(0x77)
    4192                            .dwattr $C$DW$T$250, DW_AT_decl_column(0x0f)
    4193                    
    4194                    $C$DW$T$207     .dwtag  DW_TAG_pointer_type
    4195                            .dwattr $C$DW$T$207, DW_AT_type(*$C$DW$T$73)
    4196                            .dwattr $C$DW$T$207, DW_AT_address_class(0x20)
    4197                    
    4198                    $C$DW$T$252     .dwtag  DW_TAG_const_type
    4199                            .dwattr $C$DW$T$252, DW_AT_type(*$C$DW$T$207)
    4200                    
    4201                    
    4202                    $C$DW$T$259     .dwtag  DW_TAG_array_type
    4203                            .dwattr $C$DW$T$259, DW_AT_type(*$C$DW$T$73)
    4204                            .dwattr $C$DW$T$259, DW_AT_language(DW_LANG_C)
    4205                            .dwattr $C$DW$T$259, DW_AT_byte_size(0x04)
    4206                    $C$DW$254       .dwtag  DW_TAG_subrange_type
    4207                            .dwattr $C$DW$254, DW_AT_upper_bound(0x03)
    4208                    
    4209                            .dwendtag $C$DW$T$259
    4210                    
    4211                    $C$DW$T$260     .dwtag  DW_TAG_typedef
    4212                            .dwattr $C$DW$T$260, DW_AT_name("osalSnvId_t")
    4213                            .dwattr $C$DW$T$260, DW_AT_type(*$C$DW$T$73)
    4214                            .dwattr $C$DW$T$260, DW_AT_language(DW_LANG_C)
    4215                            .dwattr $C$DW$T$260, DW_AT_decl_file("C:/ti/simplelink_cc13x0_sdk_1_50_00_08/source/ti/ti154st
    4216                            .dwattr $C$DW$T$260, DW_AT_decl_line(0x4d)
    4217                            .dwattr $C$DW$T$260, DW_AT_decl_column(0x11)
    4218                    
    4219                    $C$DW$T$215     .dwtag  DW_TAG_typedef
    4220                            .dwattr $C$DW$T$215, DW_AT_name("osalSnvLen_t")
    4221                            .dwattr $C$DW$T$215, DW_AT_type(*$C$DW$T$73)
    4222                            .dwattr $C$DW$T$215, DW_AT_language(DW_LANG_C)
TI ARM Assembler PC v16.9.4 Sat Nov 18 18:46:31 2017

Tools Copyright (c) 1996-2017 Texas Instruments Incorporated
C:\Users\Kevin\AppData\Local\Temp\{6C42DDD5-7C92-479C-8F05-55537E4479EC} PAGE   78

    4223                            .dwattr $C$DW$T$215, DW_AT_decl_file("C:/ti/simplelink_cc13x0_sdk_1_50_00_08/source/ti/ti154st
    4224                            .dwattr $C$DW$T$215, DW_AT_decl_line(0x4e)
    4225                            .dwattr $C$DW$T$215, DW_AT_decl_column(0x11)
    4226                    
    4227                    $C$DW$T$261     .dwtag  DW_TAG_const_type
    4228                            .dwattr $C$DW$T$261, DW_AT_type(*$C$DW$T$215)
    4229                    
    4230                    $C$DW$T$262     .dwtag  DW_TAG_const_type
    4231                            .dwattr $C$DW$T$262, DW_AT_type(*$C$DW$T$73)
    4232                    
    4233                    
    4234                    $C$DW$T$263     .dwtag  DW_TAG_array_type
    4235                            .dwattr $C$DW$T$263, DW_AT_type(*$C$DW$T$262)
    4236                            .dwattr $C$DW$T$263, DW_AT_language(DW_LANG_C)
    4237                            .dwattr $C$DW$T$263, DW_AT_byte_size(0x1000)
    4238                    $C$DW$255       .dwtag  DW_TAG_subrange_type
    4239                            .dwattr $C$DW$255, DW_AT_upper_bound(0xfff)
    4240                    
    4241                            .dwendtag $C$DW$T$263
    4242                    
    4243                    $C$DW$T$22      .dwtag  DW_TAG_typedef
    4244                            .dwattr $C$DW$T$22, DW_AT_name("uint8_t")
    4245                            .dwattr $C$DW$T$22, DW_AT_type(*$C$DW$T$6)
    4246                            .dwattr $C$DW$T$22, DW_AT_language(DW_LANG_C)
    4247                            .dwattr $C$DW$T$22, DW_AT_decl_file("C:/ti/ccsv7/tools/compiler/ti-cgt-arm_16.9.4.LTS/include/
    4248                            .dwattr $C$DW$T$22, DW_AT_decl_line(0x2b)
    4249                            .dwattr $C$DW$T$22, DW_AT_decl_column(0x1c)
    4250                    
    4251                    $C$DW$T$23      .dwtag  DW_TAG_pointer_type
    4252                            .dwattr $C$DW$T$23, DW_AT_type(*$C$DW$T$22)
    4253                            .dwattr $C$DW$T$23, DW_AT_address_class(0x20)
    4254                    
    4255                    
    4256                    $C$DW$T$160     .dwtag  DW_TAG_subroutine_type
    4257                            .dwattr $C$DW$T$160, DW_AT_type(*$C$DW$T$22)
    4258                            .dwattr $C$DW$T$160, DW_AT_language(DW_LANG_C)
    4259                    $C$DW$256       .dwtag  DW_TAG_formal_parameter
    4260                            .dwattr $C$DW$256, DW_AT_type(*$C$DW$T$3)
    4261                    
    4262                            .dwendtag $C$DW$T$160
    4263                    
    4264                    $C$DW$T$161     .dwtag  DW_TAG_pointer_type
    4265                            .dwattr $C$DW$T$161, DW_AT_type(*$C$DW$T$160)
    4266                            .dwattr $C$DW$T$161, DW_AT_address_class(0x20)
    4267                    
    4268                    $C$DW$T$162     .dwtag  DW_TAG_typedef
    4269                            .dwattr $C$DW$T$162, DW_AT_name("NVINTF_initNV")
    4270                            .dwattr $C$DW$T$162, DW_AT_type(*$C$DW$T$161)
    4271                            .dwattr $C$DW$T$162, DW_AT_language(DW_LANG_C)
    4272                            .dwattr $C$DW$T$162, DW_AT_decl_file("..\Application\Services\nvintf.h")
    4273                            .dwattr $C$DW$T$162, DW_AT_decl_line(0x67)
    4274                            .dwattr $C$DW$T$162, DW_AT_decl_column(0x13)
    4275                    
    4276                    
    4277                    $C$DW$T$163     .dwtag  DW_TAG_subroutine_type
TI ARM Assembler PC v16.9.4 Sat Nov 18 18:46:31 2017

Tools Copyright (c) 1996-2017 Texas Instruments Incorporated
C:\Users\Kevin\AppData\Local\Temp\{6C42DDD5-7C92-479C-8F05-55537E4479EC} PAGE   79

    4278                            .dwattr $C$DW$T$163, DW_AT_type(*$C$DW$T$22)
    4279                            .dwattr $C$DW$T$163, DW_AT_language(DW_LANG_C)
    4280                    $C$DW$257       .dwtag  DW_TAG_formal_parameter
    4281                            .dwattr $C$DW$257, DW_AT_type(*$C$DW$T$39)
    4282                    
    4283                            .dwendtag $C$DW$T$163
    4284                    
    4285                    $C$DW$T$164     .dwtag  DW_TAG_pointer_type
    4286                            .dwattr $C$DW$T$164, DW_AT_type(*$C$DW$T$163)
    4287                            .dwattr $C$DW$T$164, DW_AT_address_class(0x20)
    4288                    
    4289                    $C$DW$T$165     .dwtag  DW_TAG_typedef
    4290                            .dwattr $C$DW$T$165, DW_AT_name("NVINTF_compactNV")
    4291                            .dwattr $C$DW$T$165, DW_AT_type(*$C$DW$T$164)
    4292                            .dwattr $C$DW$T$165, DW_AT_language(DW_LANG_C)
    4293                            .dwattr $C$DW$T$165, DW_AT_decl_file("..\Application\Services\nvintf.h")
    4294                            .dwattr $C$DW$T$165, DW_AT_decl_line(0x6a)
    4295                            .dwattr $C$DW$T$165, DW_AT_decl_column(0x13)
    4296                    
    4297                    
    4298                    $C$DW$T$167     .dwtag  DW_TAG_subroutine_type
    4299                            .dwattr $C$DW$T$167, DW_AT_type(*$C$DW$T$22)
    4300                            .dwattr $C$DW$T$167, DW_AT_language(DW_LANG_C)
    4301                    $C$DW$258       .dwtag  DW_TAG_formal_parameter
    4302                            .dwattr $C$DW$258, DW_AT_type(*$C$DW$T$166)
    4303                    
    4304                    $C$DW$259       .dwtag  DW_TAG_formal_parameter
    4305                            .dwattr $C$DW$259, DW_AT_type(*$C$DW$T$21)
    4306                    
    4307                    $C$DW$260       .dwtag  DW_TAG_formal_parameter
    4308                            .dwattr $C$DW$260, DW_AT_type(*$C$DW$T$3)
    4309                    
    4310                            .dwendtag $C$DW$T$167
    4311                    
    4312                    $C$DW$T$168     .dwtag  DW_TAG_pointer_type
    4313                            .dwattr $C$DW$T$168, DW_AT_type(*$C$DW$T$167)
    4314                            .dwattr $C$DW$T$168, DW_AT_address_class(0x20)
    4315                    
    4316                    $C$DW$T$169     .dwtag  DW_TAG_typedef
    4317                            .dwattr $C$DW$T$169, DW_AT_name("NVINTF_createItem")
    4318                            .dwattr $C$DW$T$169, DW_AT_type(*$C$DW$T$168)
    4319                            .dwattr $C$DW$T$169, DW_AT_language(DW_LANG_C)
    4320                            .dwattr $C$DW$T$169, DW_AT_decl_file("..\Application\Services\nvintf.h")
    4321                            .dwattr $C$DW$T$169, DW_AT_decl_line(0x6d)
    4322                            .dwattr $C$DW$T$169, DW_AT_decl_column(0x13)
    4323                    
    4324                    
    4325                    $C$DW$T$170     .dwtag  DW_TAG_subroutine_type
    4326                            .dwattr $C$DW$T$170, DW_AT_type(*$C$DW$T$22)
    4327                            .dwattr $C$DW$T$170, DW_AT_language(DW_LANG_C)
    4328                    $C$DW$261       .dwtag  DW_TAG_formal_parameter
    4329                            .dwattr $C$DW$261, DW_AT_type(*$C$DW$T$166)
    4330                    
    4331                            .dwendtag $C$DW$T$170
    4332                    
TI ARM Assembler PC v16.9.4 Sat Nov 18 18:46:31 2017

Tools Copyright (c) 1996-2017 Texas Instruments Incorporated
C:\Users\Kevin\AppData\Local\Temp\{6C42DDD5-7C92-479C-8F05-55537E4479EC} PAGE   80

    4333                    $C$DW$T$171     .dwtag  DW_TAG_pointer_type
    4334                            .dwattr $C$DW$T$171, DW_AT_type(*$C$DW$T$170)
    4335                            .dwattr $C$DW$T$171, DW_AT_address_class(0x20)
    4336                    
    4337                    $C$DW$T$172     .dwtag  DW_TAG_typedef
    4338                            .dwattr $C$DW$T$172, DW_AT_name("NVINTF_deleteItem")
    4339                            .dwattr $C$DW$T$172, DW_AT_type(*$C$DW$T$171)
    4340                            .dwattr $C$DW$T$172, DW_AT_language(DW_LANG_C)
    4341                            .dwattr $C$DW$T$172, DW_AT_decl_file("..\Application\Services\nvintf.h")
    4342                            .dwattr $C$DW$T$172, DW_AT_decl_line(0x72)
    4343                            .dwattr $C$DW$T$172, DW_AT_decl_column(0x13)
    4344                    
    4345                    
    4346                    $C$DW$T$173     .dwtag  DW_TAG_subroutine_type
    4347                            .dwattr $C$DW$T$173, DW_AT_type(*$C$DW$T$22)
    4348                            .dwattr $C$DW$T$173, DW_AT_language(DW_LANG_C)
    4349                    $C$DW$262       .dwtag  DW_TAG_formal_parameter
    4350                            .dwattr $C$DW$262, DW_AT_type(*$C$DW$T$166)
    4351                    
    4352                    $C$DW$263       .dwtag  DW_TAG_formal_parameter
    4353                            .dwattr $C$DW$263, DW_AT_type(*$C$DW$T$39)
    4354                    
    4355                    $C$DW$264       .dwtag  DW_TAG_formal_parameter
    4356                            .dwattr $C$DW$264, DW_AT_type(*$C$DW$T$39)
    4357                    
    4358                    $C$DW$265       .dwtag  DW_TAG_formal_parameter
    4359                            .dwattr $C$DW$265, DW_AT_type(*$C$DW$T$3)
    4360                    
    4361                            .dwendtag $C$DW$T$173
    4362                    
    4363                    $C$DW$T$174     .dwtag  DW_TAG_pointer_type
    4364                            .dwattr $C$DW$T$174, DW_AT_type(*$C$DW$T$173)
    4365                            .dwattr $C$DW$T$174, DW_AT_address_class(0x20)
    4366                    
    4367                    $C$DW$T$175     .dwtag  DW_TAG_typedef
    4368                            .dwattr $C$DW$T$175, DW_AT_name("NVINTF_readItem")
    4369                            .dwattr $C$DW$T$175, DW_AT_type(*$C$DW$T$174)
    4370                            .dwattr $C$DW$T$175, DW_AT_language(DW_LANG_C)
    4371                            .dwattr $C$DW$T$175, DW_AT_decl_file("..\Application\Services\nvintf.h")
    4372                            .dwattr $C$DW$T$175, DW_AT_decl_line(0x75)
    4373                            .dwattr $C$DW$T$175, DW_AT_decl_column(0x13)
    4374                    
    4375                    $C$DW$T$179     .dwtag  DW_TAG_typedef
    4376                            .dwattr $C$DW$T$179, DW_AT_name("NVINTF_writeItemEx")
    4377                            .dwattr $C$DW$T$179, DW_AT_type(*$C$DW$T$174)
    4378                            .dwattr $C$DW$T$179, DW_AT_language(DW_LANG_C)
    4379                            .dwattr $C$DW$T$179, DW_AT_decl_file("..\Application\Services\nvintf.h")
    4380                            .dwattr $C$DW$T$179, DW_AT_decl_line(0x80)
    4381                            .dwattr $C$DW$T$179, DW_AT_decl_column(0x13)
    4382                    
    4383                    
    4384                    $C$DW$T$176     .dwtag  DW_TAG_subroutine_type
    4385                            .dwattr $C$DW$T$176, DW_AT_type(*$C$DW$T$22)
    4386                            .dwattr $C$DW$T$176, DW_AT_language(DW_LANG_C)
    4387                    $C$DW$266       .dwtag  DW_TAG_formal_parameter
TI ARM Assembler PC v16.9.4 Sat Nov 18 18:46:31 2017

Tools Copyright (c) 1996-2017 Texas Instruments Incorporated
C:\Users\Kevin\AppData\Local\Temp\{6C42DDD5-7C92-479C-8F05-55537E4479EC} PAGE   81

    4388                            .dwattr $C$DW$266, DW_AT_type(*$C$DW$T$166)
    4389                    
    4390                    $C$DW$267       .dwtag  DW_TAG_formal_parameter
    4391                            .dwattr $C$DW$267, DW_AT_type(*$C$DW$T$39)
    4392                    
    4393                    $C$DW$268       .dwtag  DW_TAG_formal_parameter
    4394                            .dwattr $C$DW$268, DW_AT_type(*$C$DW$T$3)
    4395                    
    4396                            .dwendtag $C$DW$T$176
    4397                    
    4398                    $C$DW$T$177     .dwtag  DW_TAG_pointer_type
    4399                            .dwattr $C$DW$T$177, DW_AT_type(*$C$DW$T$176)
    4400                            .dwattr $C$DW$T$177, DW_AT_address_class(0x20)
    4401                    
    4402                    $C$DW$T$178     .dwtag  DW_TAG_typedef
    4403                            .dwattr $C$DW$T$178, DW_AT_name("NVINTF_writeItem")
    4404                            .dwattr $C$DW$T$178, DW_AT_type(*$C$DW$T$177)
    4405                            .dwattr $C$DW$T$178, DW_AT_language(DW_LANG_C)
    4406                            .dwattr $C$DW$T$178, DW_AT_decl_file("..\Application\Services\nvintf.h")
    4407                            .dwattr $C$DW$T$178, DW_AT_decl_line(0x7b)
    4408                            .dwattr $C$DW$T$178, DW_AT_decl_column(0x13)
    4409                    
    4410                    $C$DW$T$264     .dwtag  DW_TAG_volatile_type
    4411                            .dwattr $C$DW$T$264, DW_AT_type(*$C$DW$T$22)
    4412                    
    4413                    $C$DW$T$265     .dwtag  DW_TAG_typedef
    4414                            .dwattr $C$DW$T$265, DW_AT_name("tFwpWriteByte")
    4415                            .dwattr $C$DW$T$265, DW_AT_type(*$C$DW$T$264)
    4416                            .dwattr $C$DW$T$265, DW_AT_language(DW_LANG_C)
    4417                            .dwattr $C$DW$T$265, DW_AT_decl_file("C:/ti/simplelink_cc13x0_sdk_1_50_00_08/source/ti/devices
    4418                            .dwattr $C$DW$T$265, DW_AT_decl_line(0xde)
    4419                            .dwattr $C$DW$T$265, DW_AT_decl_column(0x1a)
    4420                    
    4421                    $C$DW$T$75      .dwtag  DW_TAG_typedef
    4422                            .dwattr $C$DW$T$75, DW_AT_name("uint_least8_t")
    4423                            .dwattr $C$DW$T$75, DW_AT_type(*$C$DW$T$22)
    4424                            .dwattr $C$DW$T$75, DW_AT_language(DW_LANG_C)
    4425                            .dwattr $C$DW$T$75, DW_AT_decl_file("C:/ti/ccsv7/tools/compiler/ti-cgt-arm_16.9.4.LTS/include/
    4426                            .dwattr $C$DW$T$75, DW_AT_decl_line(0x38)
    4427                            .dwattr $C$DW$T$75, DW_AT_decl_column(0x16)
    4428                    
    4429                    $C$DW$T$76      .dwtag  DW_TAG_typedef
    4430                            .dwattr $C$DW$T$76, DW_AT_name("ICall_EntityID")
    4431                            .dwattr $C$DW$T$76, DW_AT_type(*$C$DW$T$75)
    4432                            .dwattr $C$DW$T$76, DW_AT_language(DW_LANG_C)
    4433                            .dwattr $C$DW$T$76, DW_AT_decl_file("C:/ti/simplelink_cc13x0_sdk_1_50_00_08/source/ti/ti154sta
    4434                            .dwattr $C$DW$T$76, DW_AT_decl_line(0x1b4)
    4435                            .dwattr $C$DW$T$76, DW_AT_decl_column(0x17)
    4436                    
    4437                    $C$DW$T$139     .dwtag  DW_TAG_typedef
    4438                            .dwattr $C$DW$T$139, DW_AT_name("ICall_MSGFormat")
    4439                            .dwattr $C$DW$T$139, DW_AT_type(*$C$DW$T$75)
    4440                            .dwattr $C$DW$T$139, DW_AT_language(DW_LANG_C)
    4441                            .dwattr $C$DW$T$139, DW_AT_decl_file("C:/ti/simplelink_cc13x0_sdk_1_50_00_08/source/ti/ti154st
    4442                            .dwattr $C$DW$T$139, DW_AT_decl_line(0x1a4)
TI ARM Assembler PC v16.9.4 Sat Nov 18 18:46:31 2017

Tools Copyright (c) 1996-2017 Texas Instruments Incorporated
C:\Users\Kevin\AppData\Local\Temp\{6C42DDD5-7C92-479C-8F05-55537E4479EC} PAGE   82

    4443                            .dwattr $C$DW$T$139, DW_AT_decl_column(0x17)
    4444                    
    4445                    $C$DW$T$7       .dwtag  DW_TAG_base_type
    4446                            .dwattr $C$DW$T$7, DW_AT_encoding(DW_ATE_signed_char)
    4447                            .dwattr $C$DW$T$7, DW_AT_name("wchar_t")
    4448                            .dwattr $C$DW$T$7, DW_AT_byte_size(0x02)
    4449                    
    4450                    $C$DW$T$8       .dwtag  DW_TAG_base_type
    4451                            .dwattr $C$DW$T$8, DW_AT_encoding(DW_ATE_signed)
    4452                            .dwattr $C$DW$T$8, DW_AT_name("short")
    4453                            .dwattr $C$DW$T$8, DW_AT_byte_size(0x02)
    4454                    
    4455                    $C$DW$T$266     .dwtag  DW_TAG_typedef
    4456                            .dwattr $C$DW$T$266, DW_AT_name("int16")
    4457                            .dwattr $C$DW$T$266, DW_AT_type(*$C$DW$T$8)
    4458                            .dwattr $C$DW$T$266, DW_AT_language(DW_LANG_C)
    4459                            .dwattr $C$DW$T$266, DW_AT_decl_file("C:\ti\simplelink_cc13x0_sdk_1_50_00_08\source\ti\ti154st
    4460                            .dwattr $C$DW$T$266, DW_AT_decl_line(0x3b)
    4461                            .dwattr $C$DW$T$266, DW_AT_decl_column(0x19)
    4462                    
    4463                    $C$DW$T$267     .dwtag  DW_TAG_typedef
    4464                            .dwattr $C$DW$T$267, DW_AT_name("int16_t")
    4465                            .dwattr $C$DW$T$267, DW_AT_type(*$C$DW$T$8)
    4466                            .dwattr $C$DW$T$267, DW_AT_language(DW_LANG_C)
    4467                            .dwattr $C$DW$T$267, DW_AT_decl_file("C:/ti/ccsv7/tools/compiler/ti-cgt-arm_16.9.4.LTS/include
    4468                            .dwattr $C$DW$T$267, DW_AT_decl_line(0x2c)
    4469                            .dwattr $C$DW$T$267, DW_AT_decl_column(0x1d)
    4470                    
    4471                    $C$DW$T$268     .dwtag  DW_TAG_typedef
    4472                            .dwattr $C$DW$T$268, DW_AT_name("int_least16_t")
    4473                            .dwattr $C$DW$T$268, DW_AT_type(*$C$DW$T$267)
    4474                            .dwattr $C$DW$T$268, DW_AT_language(DW_LANG_C)
    4475                            .dwattr $C$DW$T$268, DW_AT_decl_file("C:/ti/ccsv7/tools/compiler/ti-cgt-arm_16.9.4.LTS/include
    4476                            .dwattr $C$DW$T$268, DW_AT_decl_line(0x3a)
    4477                            .dwattr $C$DW$T$268, DW_AT_decl_column(0x17)
    4478                    
    4479                    $C$DW$T$9       .dwtag  DW_TAG_base_type
    4480                            .dwattr $C$DW$T$9, DW_AT_encoding(DW_ATE_unsigned)
    4481                            .dwattr $C$DW$T$9, DW_AT_name("unsigned short")
    4482                            .dwattr $C$DW$T$9, DW_AT_byte_size(0x02)
    4483                    
    4484                    $C$DW$T$19      .dwtag  DW_TAG_typedef
    4485                            .dwattr $C$DW$T$19, DW_AT_name("uint16")
    4486                            .dwattr $C$DW$T$19, DW_AT_type(*$C$DW$T$9)
    4487                            .dwattr $C$DW$T$19, DW_AT_language(DW_LANG_C)
    4488                            .dwattr $C$DW$T$19, DW_AT_decl_file("C:\ti\simplelink_cc13x0_sdk_1_50_00_08\source\ti\ti154sta
    4489                            .dwattr $C$DW$T$19, DW_AT_decl_line(0x3c)
    4490                            .dwattr $C$DW$T$19, DW_AT_decl_column(0x19)
    4491                    
    4492                    $C$DW$T$277     .dwtag  DW_TAG_const_type
    4493                            .dwattr $C$DW$T$277, DW_AT_type(*$C$DW$T$19)
    4494                    
    4495                    $C$DW$T$39      .dwtag  DW_TAG_typedef
    4496                            .dwattr $C$DW$T$39, DW_AT_name("uint16_t")
    4497                            .dwattr $C$DW$T$39, DW_AT_type(*$C$DW$T$9)
TI ARM Assembler PC v16.9.4 Sat Nov 18 18:46:31 2017

Tools Copyright (c) 1996-2017 Texas Instruments Incorporated
C:\Users\Kevin\AppData\Local\Temp\{6C42DDD5-7C92-479C-8F05-55537E4479EC} PAGE   83

    4498                            .dwattr $C$DW$T$39, DW_AT_language(DW_LANG_C)
    4499                            .dwattr $C$DW$T$39, DW_AT_decl_file("C:/ti/ccsv7/tools/compiler/ti-cgt-arm_16.9.4.LTS/include/
    4500                            .dwattr $C$DW$T$39, DW_AT_decl_line(0x2d)
    4501                            .dwattr $C$DW$T$39, DW_AT_decl_column(0x1c)
    4502                    
    4503                    $C$DW$T$40      .dwtag  DW_TAG_pointer_type
    4504                            .dwattr $C$DW$T$40, DW_AT_type(*$C$DW$T$39)
    4505                            .dwattr $C$DW$T$40, DW_AT_address_class(0x20)
    4506                    
    4507                    $C$DW$T$77      .dwtag  DW_TAG_typedef
    4508                            .dwattr $C$DW$T$77, DW_AT_name("uint_least16_t")
    4509                            .dwattr $C$DW$T$77, DW_AT_type(*$C$DW$T$39)
    4510                            .dwattr $C$DW$T$77, DW_AT_language(DW_LANG_C)
    4511                            .dwattr $C$DW$T$77, DW_AT_decl_file("C:/ti/ccsv7/tools/compiler/ti-cgt-arm_16.9.4.LTS/include/
    4512                            .dwattr $C$DW$T$77, DW_AT_decl_line(0x3b)
    4513                            .dwattr $C$DW$T$77, DW_AT_decl_column(0x16)
    4514                    
    4515                    $C$DW$T$101     .dwtag  DW_TAG_typedef
    4516                            .dwattr $C$DW$T$101, DW_AT_name("ICall_FuncID")
    4517                            .dwattr $C$DW$T$101, DW_AT_type(*$C$DW$T$77)
    4518                            .dwattr $C$DW$T$101, DW_AT_language(DW_LANG_C)
    4519                            .dwattr $C$DW$T$101, DW_AT_decl_file("C:/ti/simplelink_cc13x0_sdk_1_50_00_08/source/ti/ti154st
    4520                            .dwattr $C$DW$T$101, DW_AT_decl_line(0x1a7)
    4521                            .dwattr $C$DW$T$101, DW_AT_decl_column(0x18)
    4522                    
    4523                    $C$DW$T$78      .dwtag  DW_TAG_typedef
    4524                            .dwattr $C$DW$T$78, DW_AT_name("ICall_ServiceEnum")
    4525                            .dwattr $C$DW$T$78, DW_AT_type(*$C$DW$T$77)
    4526                            .dwattr $C$DW$T$78, DW_AT_language(DW_LANG_C)
    4527                            .dwattr $C$DW$T$78, DW_AT_decl_file("C:/ti/simplelink_cc13x0_sdk_1_50_00_08/source/ti/ti154sta
    4528                            .dwattr $C$DW$T$78, DW_AT_decl_line(0x1a1)
    4529                            .dwattr $C$DW$T$78, DW_AT_decl_column(0x18)
    4530                    
    4531                    $C$DW$T$278     .dwtag  DW_TAG_typedef
    4532                            .dwattr $C$DW$T$278, DW_AT_name("wchar_t")
    4533                            .dwattr $C$DW$T$278, DW_AT_type(*$C$DW$T$9)
    4534                            .dwattr $C$DW$T$278, DW_AT_language(DW_LANG_C)
    4535                            .dwattr $C$DW$T$278, DW_AT_decl_file("C:/ti/ccsv7/tools/compiler/ti-cgt-arm_16.9.4.LTS/include
    4536                            .dwattr $C$DW$T$278, DW_AT_decl_line(0x78)
    4537                            .dwattr $C$DW$T$278, DW_AT_decl_column(0x1a)
    4538                    
    4539                    $C$DW$T$10      .dwtag  DW_TAG_base_type
    4540                            .dwattr $C$DW$T$10, DW_AT_encoding(DW_ATE_signed)
    4541                            .dwattr $C$DW$T$10, DW_AT_name("int")
    4542                            .dwattr $C$DW$T$10, DW_AT_byte_size(0x04)
    4543                    
    4544                    
    4545                    $C$DW$T$281     .dwtag  DW_TAG_subroutine_type
    4546                            .dwattr $C$DW$T$281, DW_AT_type(*$C$DW$T$10)
    4547                            .dwattr $C$DW$T$281, DW_AT_language(DW_LANG_C)
    4548                    $C$DW$269       .dwtag  DW_TAG_formal_parameter
    4549                            .dwattr $C$DW$269, DW_AT_type(*$C$DW$T$152)
    4550                    
    4551                    $C$DW$270       .dwtag  DW_TAG_formal_parameter
    4552                            .dwattr $C$DW$270, DW_AT_type(*$C$DW$T$152)
TI ARM Assembler PC v16.9.4 Sat Nov 18 18:46:31 2017

Tools Copyright (c) 1996-2017 Texas Instruments Incorporated
C:\Users\Kevin\AppData\Local\Temp\{6C42DDD5-7C92-479C-8F05-55537E4479EC} PAGE   84

    4553                    
    4554                            .dwendtag $C$DW$T$281
    4555                    
    4556                    $C$DW$T$282     .dwtag  DW_TAG_pointer_type
    4557                            .dwattr $C$DW$T$282, DW_AT_type(*$C$DW$T$281)
    4558                            .dwattr $C$DW$T$282, DW_AT_address_class(0x20)
    4559                    
    4560                    $C$DW$T$283     .dwtag  DW_TAG_typedef
    4561                            .dwattr $C$DW$T$283, DW_AT_name("__TI_compar_fn")
    4562                            .dwattr $C$DW$T$283, DW_AT_type(*$C$DW$T$282)
    4563                            .dwattr $C$DW$T$283, DW_AT_language(DW_LANG_C)
    4564                            .dwattr $C$DW$T$283, DW_AT_decl_file("C:/ti/ccsv7/tools/compiler/ti-cgt-arm_16.9.4.LTS/include
    4565                            .dwattr $C$DW$T$283, DW_AT_decl_line(0xbc)
    4566                            .dwattr $C$DW$T$283, DW_AT_decl_column(0x13)
    4567                    
    4568                    $C$DW$T$89      .dwtag  DW_TAG_typedef
    4569                            .dwattr $C$DW$T$89, DW_AT_name("int32_t")
    4570                            .dwattr $C$DW$T$89, DW_AT_type(*$C$DW$T$10)
    4571                            .dwattr $C$DW$T$89, DW_AT_language(DW_LANG_C)
    4572                            .dwattr $C$DW$T$89, DW_AT_decl_file("C:/ti/ccsv7/tools/compiler/ti-cgt-arm_16.9.4.LTS/include/
    4573                            .dwattr $C$DW$T$89, DW_AT_decl_line(0x2e)
    4574                            .dwattr $C$DW$T$89, DW_AT_decl_column(0x1d)
    4575                    
    4576                    $C$DW$T$90      .dwtag  DW_TAG_typedef
    4577                            .dwattr $C$DW$T$90, DW_AT_name("int_fast16_t")
    4578                            .dwattr $C$DW$T$90, DW_AT_type(*$C$DW$T$89)
    4579                            .dwattr $C$DW$T$90, DW_AT_language(DW_LANG_C)
    4580                            .dwattr $C$DW$T$90, DW_AT_decl_file("C:/ti/ccsv7/tools/compiler/ti-cgt-arm_16.9.4.LTS/include/
    4581                            .dwattr $C$DW$T$90, DW_AT_decl_line(0x47)
    4582                            .dwattr $C$DW$T$90, DW_AT_decl_column(0x17)
    4583                    
    4584                    $C$DW$T$91      .dwtag  DW_TAG_typedef
    4585                            .dwattr $C$DW$T$91, DW_AT_name("ICall_Errno")
    4586                            .dwattr $C$DW$T$91, DW_AT_type(*$C$DW$T$90)
    4587                            .dwattr $C$DW$T$91, DW_AT_language(DW_LANG_C)
    4588                            .dwattr $C$DW$T$91, DW_AT_decl_file("C:/ti/simplelink_cc13x0_sdk_1_50_00_08/source/ti/ti154sta
    4589                            .dwattr $C$DW$T$91, DW_AT_decl_line(0x19e)
    4590                            .dwattr $C$DW$T$91, DW_AT_decl_column(0x16)
    4591                    
    4592                    
    4593                    $C$DW$T$93      .dwtag  DW_TAG_subroutine_type
    4594                            .dwattr $C$DW$T$93, DW_AT_type(*$C$DW$T$91)
    4595                            .dwattr $C$DW$T$93, DW_AT_language(DW_LANG_C)
    4596                    $C$DW$271       .dwtag  DW_TAG_formal_parameter
    4597                            .dwattr $C$DW$271, DW_AT_type(*$C$DW$T$92)
    4598                    
    4599                            .dwendtag $C$DW$T$93
    4600                    
    4601                    $C$DW$T$94      .dwtag  DW_TAG_pointer_type
    4602                            .dwattr $C$DW$T$94, DW_AT_type(*$C$DW$T$93)
    4603                            .dwattr $C$DW$T$94, DW_AT_address_class(0x20)
    4604                    
    4605                    $C$DW$T$130     .dwtag  DW_TAG_typedef
    4606                            .dwattr $C$DW$T$130, DW_AT_name("ICall_Dispatcher")
    4607                            .dwattr $C$DW$T$130, DW_AT_type(*$C$DW$T$94)
TI ARM Assembler PC v16.9.4 Sat Nov 18 18:46:31 2017

Tools Copyright (c) 1996-2017 Texas Instruments Incorporated
C:\Users\Kevin\AppData\Local\Temp\{6C42DDD5-7C92-479C-8F05-55537E4479EC} PAGE   85

    4608                            .dwattr $C$DW$T$130, DW_AT_language(DW_LANG_C)
    4609                            .dwattr $C$DW$T$130, DW_AT_decl_file("C:/ti/simplelink_cc13x0_sdk_1_50_00_08/source/ti/ti154st
    4610                            .dwattr $C$DW$T$130, DW_AT_decl_line(0x36c)
    4611                            .dwattr $C$DW$T$130, DW_AT_decl_column(0x17)
    4612                    
    4613                    $C$DW$T$95      .dwtag  DW_TAG_typedef
    4614                            .dwattr $C$DW$T$95, DW_AT_name("ICall_ServiceFunc")
    4615                            .dwattr $C$DW$T$95, DW_AT_type(*$C$DW$T$94)
    4616                            .dwattr $C$DW$T$95, DW_AT_language(DW_LANG_C)
    4617                            .dwattr $C$DW$T$95, DW_AT_decl_file("C:/ti/simplelink_cc13x0_sdk_1_50_00_08/source/ti/ti154sta
    4618                            .dwattr $C$DW$T$95, DW_AT_decl_line(0x3a3)
    4619                            .dwattr $C$DW$T$95, DW_AT_decl_column(0x17)
    4620                    
    4621                    $C$DW$T$284     .dwtag  DW_TAG_typedef
    4622                            .dwattr $C$DW$T$284, DW_AT_name("int_fast32_t")
    4623                            .dwattr $C$DW$T$284, DW_AT_type(*$C$DW$T$89)
    4624                            .dwattr $C$DW$T$284, DW_AT_language(DW_LANG_C)
    4625                            .dwattr $C$DW$T$284, DW_AT_decl_file("C:/ti/ccsv7/tools/compiler/ti-cgt-arm_16.9.4.LTS/include
    4626                            .dwattr $C$DW$T$284, DW_AT_decl_line(0x4a)
    4627                            .dwattr $C$DW$T$284, DW_AT_decl_column(0x17)
    4628                    
    4629                    $C$DW$T$285     .dwtag  DW_TAG_typedef
    4630                            .dwattr $C$DW$T$285, DW_AT_name("int_fast8_t")
    4631                            .dwattr $C$DW$T$285, DW_AT_type(*$C$DW$T$89)
    4632                            .dwattr $C$DW$T$285, DW_AT_language(DW_LANG_C)
    4633                            .dwattr $C$DW$T$285, DW_AT_decl_file("C:/ti/ccsv7/tools/compiler/ti-cgt-arm_16.9.4.LTS/include
    4634                            .dwattr $C$DW$T$285, DW_AT_decl_line(0x45)
    4635                            .dwattr $C$DW$T$285, DW_AT_decl_column(0x17)
    4636                    
    4637                    $C$DW$T$108     .dwtag  DW_TAG_typedef
    4638                            .dwattr $C$DW$T$108, DW_AT_name("int_least32_t")
    4639                            .dwattr $C$DW$T$108, DW_AT_type(*$C$DW$T$89)
    4640                            .dwattr $C$DW$T$108, DW_AT_language(DW_LANG_C)
    4641                            .dwattr $C$DW$T$108, DW_AT_decl_file("C:/ti/ccsv7/tools/compiler/ti-cgt-arm_16.9.4.LTS/include
    4642                            .dwattr $C$DW$T$108, DW_AT_decl_line(0x3c)
    4643                            .dwattr $C$DW$T$108, DW_AT_decl_column(0x17)
    4644                    
    4645                    $C$DW$T$286     .dwtag  DW_TAG_typedef
    4646                            .dwattr $C$DW$T$286, DW_AT_name("intptr_t")
    4647                            .dwattr $C$DW$T$286, DW_AT_type(*$C$DW$T$10)
    4648                            .dwattr $C$DW$T$286, DW_AT_language(DW_LANG_C)
    4649                            .dwattr $C$DW$T$286, DW_AT_decl_file("C:/ti/ccsv7/tools/compiler/ti-cgt-arm_16.9.4.LTS/include
    4650                            .dwattr $C$DW$T$286, DW_AT_decl_line(0x52)
    4651                            .dwattr $C$DW$T$286, DW_AT_decl_column(0x1a)
    4652                    
    4653                    $C$DW$T$11      .dwtag  DW_TAG_base_type
    4654                            .dwattr $C$DW$T$11, DW_AT_encoding(DW_ATE_unsigned)
    4655                            .dwattr $C$DW$T$11, DW_AT_name("unsigned int")
    4656                            .dwattr $C$DW$T$11, DW_AT_byte_size(0x04)
    4657                    
    4658                    $C$DW$T$287     .dwtag  DW_TAG_typedef
    4659                            .dwattr $C$DW$T$287, DW_AT_name("__UINT32")
    4660                            .dwattr $C$DW$T$287, DW_AT_type(*$C$DW$T$11)
    4661                            .dwattr $C$DW$T$287, DW_AT_language(DW_LANG_C)
    4662                            .dwattr $C$DW$T$287, DW_AT_decl_file("C:/ti/simplelink_cc13x0_sdk_1_50_00_08/source/ti/devices
TI ARM Assembler PC v16.9.4 Sat Nov 18 18:46:31 2017

Tools Copyright (c) 1996-2017 Texas Instruments Incorporated
C:\Users\Kevin\AppData\Local\Temp\{6C42DDD5-7C92-479C-8F05-55537E4479EC} PAGE   86

    4663                            .dwattr $C$DW$T$287, DW_AT_decl_line(0x45)
    4664                            .dwattr $C$DW$T$287, DW_AT_decl_column(0x17)
    4665                    
    4666                    $C$DW$T$84      .dwtag  DW_TAG_typedef
    4667                            .dwattr $C$DW$T$84, DW_AT_name("size_t")
    4668                            .dwattr $C$DW$T$84, DW_AT_type(*$C$DW$T$11)
    4669                            .dwattr $C$DW$T$84, DW_AT_language(DW_LANG_C)
    4670                            .dwattr $C$DW$T$84, DW_AT_decl_file("C:/ti/ccsv7/tools/compiler/ti-cgt-arm_16.9.4.LTS/include/
    4671                            .dwattr $C$DW$T$84, DW_AT_decl_line(0x3f)
    4672                            .dwattr $C$DW$T$84, DW_AT_decl_column(0x19)
    4673                    
    4674                    $C$DW$T$21      .dwtag  DW_TAG_typedef
    4675                            .dwattr $C$DW$T$21, DW_AT_name("uint32_t")
    4676                            .dwattr $C$DW$T$21, DW_AT_type(*$C$DW$T$11)
    4677                            .dwattr $C$DW$T$21, DW_AT_language(DW_LANG_C)
    4678                            .dwattr $C$DW$T$21, DW_AT_decl_file("C:/ti/ccsv7/tools/compiler/ti-cgt-arm_16.9.4.LTS/include/
    4679                            .dwattr $C$DW$T$21, DW_AT_decl_line(0x2f)
    4680                            .dwattr $C$DW$T$21, DW_AT_decl_column(0x1c)
    4681                    
    4682                    
    4683                    $C$DW$T$24      .dwtag  DW_TAG_subroutine_type
    4684                            .dwattr $C$DW$T$24, DW_AT_type(*$C$DW$T$21)
    4685                            .dwattr $C$DW$T$24, DW_AT_language(DW_LANG_C)
    4686                    $C$DW$272       .dwtag  DW_TAG_formal_parameter
    4687                            .dwattr $C$DW$272, DW_AT_type(*$C$DW$T$23)
    4688                    
    4689                    $C$DW$273       .dwtag  DW_TAG_formal_parameter
    4690                            .dwattr $C$DW$273, DW_AT_type(*$C$DW$T$21)
    4691                    
    4692                    $C$DW$274       .dwtag  DW_TAG_formal_parameter
    4693                            .dwattr $C$DW$274, DW_AT_type(*$C$DW$T$21)
    4694                    
    4695                            .dwendtag $C$DW$T$24
    4696                    
    4697                    $C$DW$T$25      .dwtag  DW_TAG_pointer_type
    4698                            .dwattr $C$DW$T$25, DW_AT_type(*$C$DW$T$24)
    4699                            .dwattr $C$DW$T$25, DW_AT_address_class(0x20)
    4700                    
    4701                    $C$DW$T$26      .dwtag  DW_TAG_typedef
    4702                            .dwattr $C$DW$T$26, DW_AT_name("FPTR_CRC32_T")
    4703                            .dwattr $C$DW$T$26, DW_AT_type(*$C$DW$T$25)
    4704                            .dwattr $C$DW$T$26, DW_AT_language(DW_LANG_C)
    4705                            .dwattr $C$DW$T$26, DW_AT_decl_file("C:\ti\simplelink_cc13x0_sdk_1_50_00_08\source\ti\devices\
    4706                            .dwattr $C$DW$T$26, DW_AT_decl_line(0x3e)
    4707                            .dwattr $C$DW$T$26, DW_AT_decl_column(0x19)
    4708                    
    4709                    $C$DW$T$35      .dwtag  DW_TAG_typedef
    4710                            .dwattr $C$DW$T$35, DW_AT_name("FPTR_RESERVED3_T")
    4711                            .dwattr $C$DW$T$35, DW_AT_type(*$C$DW$T$25)
    4712                            .dwattr $C$DW$T$35, DW_AT_language(DW_LANG_C)
    4713                            .dwattr $C$DW$T$35, DW_AT_decl_file("C:\ti\simplelink_cc13x0_sdk_1_50_00_08\source\ti\devices\
    4714                            .dwattr $C$DW$T$35, DW_AT_decl_line(0x4a)
    4715                            .dwattr $C$DW$T$35, DW_AT_decl_column(0x19)
    4716                    
    4717                    
TI ARM Assembler PC v16.9.4 Sat Nov 18 18:46:31 2017

Tools Copyright (c) 1996-2017 Texas Instruments Incorporated
C:\Users\Kevin\AppData\Local\Temp\{6C42DDD5-7C92-479C-8F05-55537E4479EC} PAGE   87

    4718                    $C$DW$T$27      .dwtag  DW_TAG_subroutine_type
    4719                            .dwattr $C$DW$T$27, DW_AT_type(*$C$DW$T$21)
    4720                            .dwattr $C$DW$T$27, DW_AT_language(DW_LANG_C)
    4721                            .dwendtag $C$DW$T$27
    4722                    
    4723                    $C$DW$T$28      .dwtag  DW_TAG_pointer_type
    4724                            .dwattr $C$DW$T$28, DW_AT_type(*$C$DW$T$27)
    4725                            .dwattr $C$DW$T$28, DW_AT_address_class(0x20)
    4726                    
    4727                    $C$DW$T$30      .dwtag  DW_TAG_typedef
    4728                            .dwattr $C$DW$T$30, DW_AT_name("FPTR_GETCHIPID_T")
    4729                            .dwattr $C$DW$T$30, DW_AT_type(*$C$DW$T$28)
    4730                            .dwattr $C$DW$T$30, DW_AT_language(DW_LANG_C)
    4731                            .dwattr $C$DW$T$30, DW_AT_decl_file("C:\ti\simplelink_cc13x0_sdk_1_50_00_08\source\ti\devices\
    4732                            .dwattr $C$DW$T$30, DW_AT_decl_line(0x44)
    4733                            .dwattr $C$DW$T$30, DW_AT_decl_column(0x19)
    4734                    
    4735                    $C$DW$T$29      .dwtag  DW_TAG_typedef
    4736                            .dwattr $C$DW$T$29, DW_AT_name("FPTR_GETFLSIZE_T")
    4737                            .dwattr $C$DW$T$29, DW_AT_type(*$C$DW$T$28)
    4738                            .dwattr $C$DW$T$29, DW_AT_language(DW_LANG_C)
    4739                            .dwattr $C$DW$T$29, DW_AT_decl_file("C:\ti\simplelink_cc13x0_sdk_1_50_00_08\source\ti\devices\
    4740                            .dwattr $C$DW$T$29, DW_AT_decl_line(0x42)
    4741                            .dwattr $C$DW$T$29, DW_AT_decl_column(0x19)
    4742                    
    4743                    $C$DW$T$34      .dwtag  DW_TAG_typedef
    4744                            .dwattr $C$DW$T$34, DW_AT_name("FPTR_RESERVED2_T")
    4745                            .dwattr $C$DW$T$34, DW_AT_type(*$C$DW$T$28)
    4746                            .dwattr $C$DW$T$34, DW_AT_language(DW_LANG_C)
    4747                            .dwattr $C$DW$T$34, DW_AT_decl_file("C:\ti\simplelink_cc13x0_sdk_1_50_00_08\source\ti\devices\
    4748                            .dwattr $C$DW$T$34, DW_AT_decl_line(0x48)
    4749                            .dwattr $C$DW$T$34, DW_AT_decl_column(0x19)
    4750                    
    4751                    
    4752                    $C$DW$T$31      .dwtag  DW_TAG_subroutine_type
    4753                            .dwattr $C$DW$T$31, DW_AT_type(*$C$DW$T$21)
    4754                            .dwattr $C$DW$T$31, DW_AT_language(DW_LANG_C)
    4755                    $C$DW$275       .dwtag  DW_TAG_formal_parameter
    4756                            .dwattr $C$DW$275, DW_AT_type(*$C$DW$T$21)
    4757                    
    4758                            .dwendtag $C$DW$T$31
    4759                    
    4760                    $C$DW$T$32      .dwtag  DW_TAG_pointer_type
    4761                            .dwattr $C$DW$T$32, DW_AT_type(*$C$DW$T$31)
    4762                            .dwattr $C$DW$T$32, DW_AT_address_class(0x20)
    4763                    
    4764                    $C$DW$T$33      .dwtag  DW_TAG_typedef
    4765                            .dwattr $C$DW$T$33, DW_AT_name("FPTR_RESERVED1_T")
    4766                            .dwattr $C$DW$T$33, DW_AT_type(*$C$DW$T$32)
    4767                            .dwattr $C$DW$T$33, DW_AT_language(DW_LANG_C)
    4768                            .dwattr $C$DW$T$33, DW_AT_decl_file("C:\ti\simplelink_cc13x0_sdk_1_50_00_08\source\ti\devices\
    4769                            .dwattr $C$DW$T$33, DW_AT_decl_line(0x46)
    4770                            .dwattr $C$DW$T$33, DW_AT_decl_column(0x19)
    4771                    
    4772                    
TI ARM Assembler PC v16.9.4 Sat Nov 18 18:46:31 2017

Tools Copyright (c) 1996-2017 Texas Instruments Incorporated
C:\Users\Kevin\AppData\Local\Temp\{6C42DDD5-7C92-479C-8F05-55537E4479EC} PAGE   88

    4773                    $C$DW$T$41      .dwtag  DW_TAG_subroutine_type
    4774                            .dwattr $C$DW$T$41, DW_AT_type(*$C$DW$T$21)
    4775                            .dwattr $C$DW$T$41, DW_AT_language(DW_LANG_C)
    4776                    $C$DW$276       .dwtag  DW_TAG_formal_parameter
    4777                            .dwattr $C$DW$276, DW_AT_type(*$C$DW$T$40)
    4778                    
    4779                    $C$DW$277       .dwtag  DW_TAG_formal_parameter
    4780                            .dwattr $C$DW$277, DW_AT_type(*$C$DW$T$39)
    4781                    
    4782                    $C$DW$278       .dwtag  DW_TAG_formal_parameter
    4783                            .dwattr $C$DW$278, DW_AT_type(*$C$DW$T$39)
    4784                    
    4785                            .dwendtag $C$DW$T$41
    4786                    
    4787                    $C$DW$T$42      .dwtag  DW_TAG_pointer_type
    4788                            .dwattr $C$DW$T$42, DW_AT_type(*$C$DW$T$41)
    4789                            .dwattr $C$DW$T$42, DW_AT_address_class(0x20)
    4790                    
    4791                    $C$DW$T$43      .dwtag  DW_TAG_typedef
    4792                            .dwattr $C$DW$T$43, DW_AT_name("FPTR_FLETCHER32_T")
    4793                            .dwattr $C$DW$T$43, DW_AT_type(*$C$DW$T$42)
    4794                            .dwattr $C$DW$T$43, DW_AT_language(DW_LANG_C)
    4795                            .dwattr $C$DW$T$43, DW_AT_decl_file("C:\ti\simplelink_cc13x0_sdk_1_50_00_08\source\ti\devices\
    4796                            .dwattr $C$DW$T$43, DW_AT_decl_line(0x4f)
    4797                            .dwattr $C$DW$T$43, DW_AT_decl_column(0x19)
    4798                    
    4799                    $C$DW$T$44      .dwtag  DW_TAG_pointer_type
    4800                            .dwattr $C$DW$T$44, DW_AT_type(*$C$DW$T$21)
    4801                            .dwattr $C$DW$T$44, DW_AT_address_class(0x20)
    4802                    
    4803                    
    4804                    $C$DW$T$45      .dwtag  DW_TAG_subroutine_type
    4805                            .dwattr $C$DW$T$45, DW_AT_type(*$C$DW$T$21)
    4806                            .dwattr $C$DW$T$45, DW_AT_language(DW_LANG_C)
    4807                    $C$DW$279       .dwtag  DW_TAG_formal_parameter
    4808                            .dwattr $C$DW$279, DW_AT_type(*$C$DW$T$44)
    4809                    
    4810                    $C$DW$280       .dwtag  DW_TAG_formal_parameter
    4811                            .dwattr $C$DW$280, DW_AT_type(*$C$DW$T$21)
    4812                    
    4813                            .dwendtag $C$DW$T$45
    4814                    
    4815                    $C$DW$T$46      .dwtag  DW_TAG_pointer_type
    4816                            .dwattr $C$DW$T$46, DW_AT_type(*$C$DW$T$45)
    4817                            .dwattr $C$DW$T$46, DW_AT_address_class(0x20)
    4818                    
    4819                    $C$DW$T$48      .dwtag  DW_TAG_typedef
    4820                            .dwattr $C$DW$T$48, DW_AT_name("FPTR_MAXVAL_T")
    4821                            .dwattr $C$DW$T$48, DW_AT_type(*$C$DW$T$46)
    4822                            .dwattr $C$DW$T$48, DW_AT_language(DW_LANG_C)
    4823                            .dwattr $C$DW$T$48, DW_AT_decl_file("C:\ti\simplelink_cc13x0_sdk_1_50_00_08\source\ti\devices\
    4824                            .dwattr $C$DW$T$48, DW_AT_decl_line(0x56)
    4825                            .dwattr $C$DW$T$48, DW_AT_decl_column(0x19)
    4826                    
    4827                    $C$DW$T$49      .dwtag  DW_TAG_typedef
TI ARM Assembler PC v16.9.4 Sat Nov 18 18:46:31 2017

Tools Copyright (c) 1996-2017 Texas Instruments Incorporated
C:\Users\Kevin\AppData\Local\Temp\{6C42DDD5-7C92-479C-8F05-55537E4479EC} PAGE   89

    4828                            .dwattr $C$DW$T$49, DW_AT_name("FPTR_MEANVAL_T")
    4829                            .dwattr $C$DW$T$49, DW_AT_type(*$C$DW$T$46)
    4830                            .dwattr $C$DW$T$49, DW_AT_language(DW_LANG_C)
    4831                            .dwattr $C$DW$T$49, DW_AT_decl_file("C:\ti\simplelink_cc13x0_sdk_1_50_00_08\source\ti\devices\
    4832                            .dwattr $C$DW$T$49, DW_AT_decl_line(0x59)
    4833                            .dwattr $C$DW$T$49, DW_AT_decl_column(0x19)
    4834                    
    4835                    $C$DW$T$47      .dwtag  DW_TAG_typedef
    4836                            .dwattr $C$DW$T$47, DW_AT_name("FPTR_MINVAL_T")
    4837                            .dwattr $C$DW$T$47, DW_AT_type(*$C$DW$T$46)
    4838                            .dwattr $C$DW$T$47, DW_AT_language(DW_LANG_C)
    4839                            .dwattr $C$DW$T$47, DW_AT_decl_file("C:\ti\simplelink_cc13x0_sdk_1_50_00_08\source\ti\devices\
    4840                            .dwattr $C$DW$T$47, DW_AT_decl_line(0x53)
    4841                            .dwattr $C$DW$T$47, DW_AT_decl_column(0x19)
    4842                    
    4843                    $C$DW$T$50      .dwtag  DW_TAG_typedef
    4844                            .dwattr $C$DW$T$50, DW_AT_name("FPTR_STDDVAL_T")
    4845                            .dwattr $C$DW$T$50, DW_AT_type(*$C$DW$T$46)
    4846                            .dwattr $C$DW$T$50, DW_AT_language(DW_LANG_C)
    4847                            .dwattr $C$DW$T$50, DW_AT_decl_file("C:\ti\simplelink_cc13x0_sdk_1_50_00_08\source\ti\devices\
    4848                            .dwattr $C$DW$T$50, DW_AT_decl_line(0x5c)
    4849                            .dwattr $C$DW$T$50, DW_AT_decl_column(0x19)
    4850                    
    4851                    
    4852                    $C$DW$T$180     .dwtag  DW_TAG_subroutine_type
    4853                            .dwattr $C$DW$T$180, DW_AT_type(*$C$DW$T$21)
    4854                            .dwattr $C$DW$T$180, DW_AT_language(DW_LANG_C)
    4855                    $C$DW$281       .dwtag  DW_TAG_formal_parameter
    4856                            .dwattr $C$DW$281, DW_AT_type(*$C$DW$T$166)
    4857                    
    4858                            .dwendtag $C$DW$T$180
    4859                    
    4860                    $C$DW$T$181     .dwtag  DW_TAG_pointer_type
    4861                            .dwattr $C$DW$T$181, DW_AT_type(*$C$DW$T$180)
    4862                            .dwattr $C$DW$T$181, DW_AT_address_class(0x20)
    4863                    
    4864                    $C$DW$T$182     .dwtag  DW_TAG_typedef
    4865                            .dwattr $C$DW$T$182, DW_AT_name("NVINTF_getItemLen")
    4866                            .dwattr $C$DW$T$182, DW_AT_type(*$C$DW$T$181)
    4867                            .dwattr $C$DW$T$182, DW_AT_language(DW_LANG_C)
    4868                            .dwattr $C$DW$T$182, DW_AT_decl_file("..\Application\Services\nvintf.h")
    4869                            .dwattr $C$DW$T$182, DW_AT_decl_line(0x86)
    4870                            .dwattr $C$DW$T$182, DW_AT_decl_column(0x14)
    4871                    
    4872                    $C$DW$T$293     .dwtag  DW_TAG_typedef
    4873                            .dwattr $C$DW$T$293, DW_AT_name("uint_fast16_t")
    4874                            .dwattr $C$DW$T$293, DW_AT_type(*$C$DW$T$21)
    4875                            .dwattr $C$DW$T$293, DW_AT_language(DW_LANG_C)
    4876                            .dwattr $C$DW$T$293, DW_AT_decl_file("C:/ti/ccsv7/tools/compiler/ti-cgt-arm_16.9.4.LTS/include
    4877                            .dwattr $C$DW$T$293, DW_AT_decl_line(0x48)
    4878                            .dwattr $C$DW$T$293, DW_AT_decl_column(0x16)
    4879                    
    4880                    $C$DW$T$111     .dwtag  DW_TAG_typedef
    4881                            .dwattr $C$DW$T$111, DW_AT_name("uint_fast32_t")
    4882                            .dwattr $C$DW$T$111, DW_AT_type(*$C$DW$T$21)
TI ARM Assembler PC v16.9.4 Sat Nov 18 18:46:31 2017

Tools Copyright (c) 1996-2017 Texas Instruments Incorporated
C:\Users\Kevin\AppData\Local\Temp\{6C42DDD5-7C92-479C-8F05-55537E4479EC} PAGE   90

    4883                            .dwattr $C$DW$T$111, DW_AT_language(DW_LANG_C)
    4884                            .dwattr $C$DW$T$111, DW_AT_decl_file("C:/ti/ccsv7/tools/compiler/ti-cgt-arm_16.9.4.LTS/include
    4885                            .dwattr $C$DW$T$111, DW_AT_decl_line(0x4b)
    4886                            .dwattr $C$DW$T$111, DW_AT_decl_column(0x16)
    4887                    
    4888                    $C$DW$T$112     .dwtag  DW_TAG_typedef
    4889                            .dwattr $C$DW$T$112, DW_AT_name("ICall_PwrBitmap_t")
    4890                            .dwattr $C$DW$T$112, DW_AT_type(*$C$DW$T$111)
    4891                            .dwattr $C$DW$T$112, DW_AT_language(DW_LANG_C)
    4892                            .dwattr $C$DW$T$112, DW_AT_decl_file("C:/ti/simplelink_cc13x0_sdk_1_50_00_08/source/ti/ti154st
    4893                            .dwattr $C$DW$T$112, DW_AT_decl_line(0x287)
    4894                            .dwattr $C$DW$T$112, DW_AT_decl_column(0x17)
    4895                    
    4896                    $C$DW$T$114     .dwtag  DW_TAG_typedef
    4897                            .dwattr $C$DW$T$114, DW_AT_name("uint_fast8_t")
    4898                            .dwattr $C$DW$T$114, DW_AT_type(*$C$DW$T$21)
    4899                            .dwattr $C$DW$T$114, DW_AT_language(DW_LANG_C)
    4900                            .dwattr $C$DW$T$114, DW_AT_decl_file("C:/ti/ccsv7/tools/compiler/ti-cgt-arm_16.9.4.LTS/include
    4901                            .dwattr $C$DW$T$114, DW_AT_decl_line(0x46)
    4902                            .dwattr $C$DW$T$114, DW_AT_decl_column(0x16)
    4903                    
    4904                    $C$DW$T$117     .dwtag  DW_TAG_typedef
    4905                            .dwattr $C$DW$T$117, DW_AT_name("ICall_PwrTransition")
    4906                            .dwattr $C$DW$T$117, DW_AT_type(*$C$DW$T$114)
    4907                            .dwattr $C$DW$T$117, DW_AT_language(DW_LANG_C)
    4908                            .dwattr $C$DW$T$117, DW_AT_decl_file("C:/ti/simplelink_cc13x0_sdk_1_50_00_08/source/ti/ti154st
    4909                            .dwattr $C$DW$T$117, DW_AT_decl_line(0x326)
    4910                            .dwattr $C$DW$T$117, DW_AT_decl_column(0x16)
    4911                    
    4912                    $C$DW$T$66      .dwtag  DW_TAG_typedef
    4913                            .dwattr $C$DW$T$66, DW_AT_name("uint_least32_t")
    4914                            .dwattr $C$DW$T$66, DW_AT_type(*$C$DW$T$21)
    4915                            .dwattr $C$DW$T$66, DW_AT_language(DW_LANG_C)
    4916                            .dwattr $C$DW$T$66, DW_AT_decl_file("C:/ti/ccsv7/tools/compiler/ti-cgt-arm_16.9.4.LTS/include/
    4917                            .dwattr $C$DW$T$66, DW_AT_decl_line(0x3d)
    4918                            .dwattr $C$DW$T$66, DW_AT_decl_column(0x16)
    4919                    
    4920                    $C$DW$T$131     .dwtag  DW_TAG_typedef
    4921                            .dwattr $C$DW$T$131, DW_AT_name("ICall_CSState")
    4922                            .dwattr $C$DW$T$131, DW_AT_type(*$C$DW$T$66)
    4923                            .dwattr $C$DW$T$131, DW_AT_language(DW_LANG_C)
    4924                            .dwattr $C$DW$T$131, DW_AT_decl_file("C:/ti/simplelink_cc13x0_sdk_1_50_00_08/source/ti/ti154st
    4925                            .dwattr $C$DW$T$131, DW_AT_decl_line(0x371)
    4926                            .dwattr $C$DW$T$131, DW_AT_decl_column(0x18)
    4927                    
    4928                    
    4929                    $C$DW$T$132     .dwtag  DW_TAG_subroutine_type
    4930                            .dwattr $C$DW$T$132, DW_AT_type(*$C$DW$T$131)
    4931                            .dwattr $C$DW$T$132, DW_AT_language(DW_LANG_C)
    4932                            .dwendtag $C$DW$T$132
    4933                    
    4934                    $C$DW$T$133     .dwtag  DW_TAG_pointer_type
    4935                            .dwattr $C$DW$T$133, DW_AT_type(*$C$DW$T$132)
    4936                            .dwattr $C$DW$T$133, DW_AT_address_class(0x20)
    4937                    
TI ARM Assembler PC v16.9.4 Sat Nov 18 18:46:31 2017

Tools Copyright (c) 1996-2017 Texas Instruments Incorporated
C:\Users\Kevin\AppData\Local\Temp\{6C42DDD5-7C92-479C-8F05-55537E4479EC} PAGE   91

    4938                    $C$DW$T$134     .dwtag  DW_TAG_typedef
    4939                            .dwattr $C$DW$T$134, DW_AT_name("ICall_EnterCS")
    4940                            .dwattr $C$DW$T$134, DW_AT_type(*$C$DW$T$133)
    4941                            .dwattr $C$DW$T$134, DW_AT_language(DW_LANG_C)
    4942                            .dwattr $C$DW$T$134, DW_AT_decl_file("C:/ti/simplelink_cc13x0_sdk_1_50_00_08/source/ti/ti154st
    4943                            .dwattr $C$DW$T$134, DW_AT_decl_line(0x377)
    4944                            .dwattr $C$DW$T$134, DW_AT_decl_column(0x19)
    4945                    
    4946                    $C$DW$T$294     .dwtag  DW_TAG_typedef
    4947                            .dwattr $C$DW$T$294, DW_AT_name("halIntState_t")
    4948                            .dwattr $C$DW$T$294, DW_AT_type(*$C$DW$T$131)
    4949                            .dwattr $C$DW$T$294, DW_AT_language(DW_LANG_C)
    4950                            .dwattr $C$DW$T$294, DW_AT_decl_file("C:\ti\simplelink_cc13x0_sdk_1_50_00_08\source\ti\ti154st
    4951                            .dwattr $C$DW$T$294, DW_AT_decl_line(0x6f)
    4952                            .dwattr $C$DW$T$294, DW_AT_decl_column(0x17)
    4953                    
    4954                    $C$DW$T$67      .dwtag  DW_TAG_pointer_type
    4955                            .dwattr $C$DW$T$67, DW_AT_type(*$C$DW$T$66)
    4956                            .dwattr $C$DW$T$67, DW_AT_address_class(0x20)
    4957                    
    4958                    $C$DW$T$68      .dwtag  DW_TAG_typedef
    4959                            .dwattr $C$DW$T$68, DW_AT_name("icall_lite_id_t")
    4960                            .dwattr $C$DW$T$68, DW_AT_type(*$C$DW$T$66)
    4961                            .dwattr $C$DW$T$68, DW_AT_language(DW_LANG_C)
    4962                            .dwattr $C$DW$T$68, DW_AT_decl_file("C:/ti/simplelink_cc13x0_sdk_1_50_00_08/source/ti/ti154sta
    4963                            .dwattr $C$DW$T$68, DW_AT_decl_line(0x3ec)
    4964                            .dwattr $C$DW$T$68, DW_AT_decl_column(0x18)
    4965                    
    4966                    $C$DW$T$295     .dwtag  DW_TAG_typedef
    4967                            .dwattr $C$DW$T$295, DW_AT_name("uintptr_t")
    4968                            .dwattr $C$DW$T$295, DW_AT_type(*$C$DW$T$11)
    4969                            .dwattr $C$DW$T$295, DW_AT_language(DW_LANG_C)
    4970                            .dwattr $C$DW$T$295, DW_AT_decl_file("C:/ti/ccsv7/tools/compiler/ti-cgt-arm_16.9.4.LTS/include
    4971                            .dwattr $C$DW$T$295, DW_AT_decl_line(0x53)
    4972                            .dwattr $C$DW$T$295, DW_AT_decl_column(0x1a)
    4973                    
    4974                    $C$DW$T$12      .dwtag  DW_TAG_base_type
    4975                            .dwattr $C$DW$T$12, DW_AT_encoding(DW_ATE_signed)
    4976                            .dwattr $C$DW$T$12, DW_AT_name("long")
    4977                            .dwattr $C$DW$T$12, DW_AT_byte_size(0x04)
    4978                    
    4979                    $C$DW$T$296     .dwtag  DW_TAG_typedef
    4980                            .dwattr $C$DW$T$296, DW_AT_name("int32")
    4981                            .dwattr $C$DW$T$296, DW_AT_type(*$C$DW$T$12)
    4982                            .dwattr $C$DW$T$296, DW_AT_language(DW_LANG_C)
    4983                            .dwattr $C$DW$T$296, DW_AT_decl_file("C:\ti\simplelink_cc13x0_sdk_1_50_00_08\source\ti\ti154st
    4984                            .dwattr $C$DW$T$296, DW_AT_decl_line(0x3e)
    4985                            .dwattr $C$DW$T$296, DW_AT_decl_column(0x19)
    4986                    
    4987                    $C$DW$T$297     .dwtag  DW_TAG_typedef
    4988                            .dwattr $C$DW$T$297, DW_AT_name("int24")
    4989                            .dwattr $C$DW$T$297, DW_AT_type(*$C$DW$T$296)
    4990                            .dwattr $C$DW$T$297, DW_AT_language(DW_LANG_C)
    4991                            .dwattr $C$DW$T$297, DW_AT_decl_file("C:\Users\Kevin\workspace_v7\sensor_cc1310lp\Application\
    4992                            .dwattr $C$DW$T$297, DW_AT_decl_line(0x7a)
TI ARM Assembler PC v16.9.4 Sat Nov 18 18:46:31 2017

Tools Copyright (c) 1996-2017 Texas Instruments Incorporated
C:\Users\Kevin\AppData\Local\Temp\{6C42DDD5-7C92-479C-8F05-55537E4479EC} PAGE   92

    4993                            .dwattr $C$DW$T$297, DW_AT_decl_column(0x11)
    4994                    
    4995                    $C$DW$T$13      .dwtag  DW_TAG_base_type
    4996                            .dwattr $C$DW$T$13, DW_AT_encoding(DW_ATE_unsigned)
    4997                            .dwattr $C$DW$T$13, DW_AT_name("unsigned long")
    4998                            .dwattr $C$DW$T$13, DW_AT_byte_size(0x04)
    4999                    
    5000                    $C$DW$T$210     .dwtag  DW_TAG_typedef
    5001                            .dwattr $C$DW$T$210, DW_AT_name("uint32")
    5002                            .dwattr $C$DW$T$210, DW_AT_type(*$C$DW$T$13)
    5003                            .dwattr $C$DW$T$210, DW_AT_language(DW_LANG_C)
    5004                            .dwattr $C$DW$T$210, DW_AT_decl_file("C:\ti\simplelink_cc13x0_sdk_1_50_00_08\source\ti\ti154st
    5005                            .dwattr $C$DW$T$210, DW_AT_decl_line(0x3f)
    5006                            .dwattr $C$DW$T$210, DW_AT_decl_column(0x19)
    5007                    
    5008                    $C$DW$T$298     .dwtag  DW_TAG_typedef
    5009                            .dwattr $C$DW$T$298, DW_AT_name("halDataAlign_t")
    5010                            .dwattr $C$DW$T$298, DW_AT_type(*$C$DW$T$210)
    5011                            .dwattr $C$DW$T$298, DW_AT_language(DW_LANG_C)
    5012                            .dwattr $C$DW$T$298, DW_AT_decl_file("C:\ti\simplelink_cc13x0_sdk_1_50_00_08\source\ti\ti154st
    5013                            .dwattr $C$DW$T$298, DW_AT_decl_line(0x43)
    5014                            .dwattr $C$DW$T$298, DW_AT_decl_column(0x19)
    5015                    
    5016                    $C$DW$T$299     .dwtag  DW_TAG_typedef
    5017                            .dwattr $C$DW$T$299, DW_AT_name("uint24")
    5018                            .dwattr $C$DW$T$299, DW_AT_type(*$C$DW$T$210)
    5019                            .dwattr $C$DW$T$299, DW_AT_language(DW_LANG_C)
    5020                            .dwattr $C$DW$T$299, DW_AT_decl_file("C:\Users\Kevin\workspace_v7\sensor_cc1310lp\Application\
    5021                            .dwattr $C$DW$T$299, DW_AT_decl_line(0x7b)
    5022                            .dwattr $C$DW$T$299, DW_AT_decl_column(0x11)
    5023                    
    5024                    $C$DW$T$14      .dwtag  DW_TAG_base_type
    5025                            .dwattr $C$DW$T$14, DW_AT_encoding(DW_ATE_signed)
    5026                            .dwattr $C$DW$T$14, DW_AT_name("long long")
    5027                            .dwattr $C$DW$T$14, DW_AT_byte_size(0x08)
    5028                    
    5029                    $C$DW$T$300     .dwtag  DW_TAG_typedef
    5030                            .dwattr $C$DW$T$300, DW_AT_name("int64_t")
    5031                            .dwattr $C$DW$T$300, DW_AT_type(*$C$DW$T$14)
    5032                            .dwattr $C$DW$T$300, DW_AT_language(DW_LANG_C)
    5033                            .dwattr $C$DW$T$300, DW_AT_decl_file("C:/ti/ccsv7/tools/compiler/ti-cgt-arm_16.9.4.LTS/include
    5034                            .dwattr $C$DW$T$300, DW_AT_decl_line(0x32)
    5035                            .dwattr $C$DW$T$300, DW_AT_decl_column(0x21)
    5036                    
    5037                    $C$DW$T$301     .dwtag  DW_TAG_typedef
    5038                            .dwattr $C$DW$T$301, DW_AT_name("int_fast64_t")
    5039                            .dwattr $C$DW$T$301, DW_AT_type(*$C$DW$T$300)
    5040                            .dwattr $C$DW$T$301, DW_AT_language(DW_LANG_C)
    5041                            .dwattr $C$DW$T$301, DW_AT_decl_file("C:/ti/ccsv7/tools/compiler/ti-cgt-arm_16.9.4.LTS/include
    5042                            .dwattr $C$DW$T$301, DW_AT_decl_line(0x4e)
    5043                            .dwattr $C$DW$T$301, DW_AT_decl_column(0x17)
    5044                    
    5045                    $C$DW$T$302     .dwtag  DW_TAG_typedef
    5046                            .dwattr $C$DW$T$302, DW_AT_name("int_least64_t")
    5047                            .dwattr $C$DW$T$302, DW_AT_type(*$C$DW$T$300)
TI ARM Assembler PC v16.9.4 Sat Nov 18 18:46:31 2017

Tools Copyright (c) 1996-2017 Texas Instruments Incorporated
C:\Users\Kevin\AppData\Local\Temp\{6C42DDD5-7C92-479C-8F05-55537E4479EC} PAGE   93

    5048                            .dwattr $C$DW$T$302, DW_AT_language(DW_LANG_C)
    5049                            .dwattr $C$DW$T$302, DW_AT_decl_file("C:/ti/ccsv7/tools/compiler/ti-cgt-arm_16.9.4.LTS/include
    5050                            .dwattr $C$DW$T$302, DW_AT_decl_line(0x40)
    5051                            .dwattr $C$DW$T$302, DW_AT_decl_column(0x17)
    5052                    
    5053                    $C$DW$T$303     .dwtag  DW_TAG_typedef
    5054                            .dwattr $C$DW$T$303, DW_AT_name("intmax_t")
    5055                            .dwattr $C$DW$T$303, DW_AT_type(*$C$DW$T$14)
    5056                            .dwattr $C$DW$T$303, DW_AT_language(DW_LANG_C)
    5057                            .dwattr $C$DW$T$303, DW_AT_decl_file("C:/ti/ccsv7/tools/compiler/ti-cgt-arm_16.9.4.LTS/include
    5058                            .dwattr $C$DW$T$303, DW_AT_decl_line(0x56)
    5059                            .dwattr $C$DW$T$303, DW_AT_decl_column(0x20)
    5060                    
    5061                    $C$DW$T$15      .dwtag  DW_TAG_base_type
    5062                            .dwattr $C$DW$T$15, DW_AT_encoding(DW_ATE_unsigned)
    5063                            .dwattr $C$DW$T$15, DW_AT_name("unsigned long long")
    5064                            .dwattr $C$DW$T$15, DW_AT_byte_size(0x08)
    5065                    
    5066                    $C$DW$T$304     .dwtag  DW_TAG_typedef
    5067                            .dwattr $C$DW$T$304, DW_AT_name("uint64_t")
    5068                            .dwattr $C$DW$T$304, DW_AT_type(*$C$DW$T$15)
    5069                            .dwattr $C$DW$T$304, DW_AT_language(DW_LANG_C)
    5070                            .dwattr $C$DW$T$304, DW_AT_decl_file("C:/ti/ccsv7/tools/compiler/ti-cgt-arm_16.9.4.LTS/include
    5071                            .dwattr $C$DW$T$304, DW_AT_decl_line(0x33)
    5072                            .dwattr $C$DW$T$304, DW_AT_decl_column(0x20)
    5073                    
    5074                    $C$DW$T$305     .dwtag  DW_TAG_typedef
    5075                            .dwattr $C$DW$T$305, DW_AT_name("uint_fast64_t")
    5076                            .dwattr $C$DW$T$305, DW_AT_type(*$C$DW$T$304)
    5077                            .dwattr $C$DW$T$305, DW_AT_language(DW_LANG_C)
    5078                            .dwattr $C$DW$T$305, DW_AT_decl_file("C:/ti/ccsv7/tools/compiler/ti-cgt-arm_16.9.4.LTS/include
    5079                            .dwattr $C$DW$T$305, DW_AT_decl_line(0x4f)
    5080                            .dwattr $C$DW$T$305, DW_AT_decl_column(0x16)
    5081                    
    5082                    $C$DW$T$306     .dwtag  DW_TAG_typedef
    5083                            .dwattr $C$DW$T$306, DW_AT_name("uint_least64_t")
    5084                            .dwattr $C$DW$T$306, DW_AT_type(*$C$DW$T$304)
    5085                            .dwattr $C$DW$T$306, DW_AT_language(DW_LANG_C)
    5086                            .dwattr $C$DW$T$306, DW_AT_decl_file("C:/ti/ccsv7/tools/compiler/ti-cgt-arm_16.9.4.LTS/include
    5087                            .dwattr $C$DW$T$306, DW_AT_decl_line(0x41)
    5088                            .dwattr $C$DW$T$306, DW_AT_decl_column(0x16)
    5089                    
    5090                    $C$DW$T$307     .dwtag  DW_TAG_typedef
    5091                            .dwattr $C$DW$T$307, DW_AT_name("uintmax_t")
    5092                            .dwattr $C$DW$T$307, DW_AT_type(*$C$DW$T$15)
    5093                            .dwattr $C$DW$T$307, DW_AT_language(DW_LANG_C)
    5094                            .dwattr $C$DW$T$307, DW_AT_decl_file("C:/ti/ccsv7/tools/compiler/ti-cgt-arm_16.9.4.LTS/include
    5095                            .dwattr $C$DW$T$307, DW_AT_decl_line(0x57)
    5096                            .dwattr $C$DW$T$307, DW_AT_decl_column(0x20)
    5097                    
    5098                    $C$DW$T$16      .dwtag  DW_TAG_base_type
    5099                            .dwattr $C$DW$T$16, DW_AT_encoding(DW_ATE_float)
    5100                            .dwattr $C$DW$T$16, DW_AT_name("float")
    5101                            .dwattr $C$DW$T$16, DW_AT_byte_size(0x04)
    5102                    
TI ARM Assembler PC v16.9.4 Sat Nov 18 18:46:31 2017

Tools Copyright (c) 1996-2017 Texas Instruments Incorporated
C:\Users\Kevin\AppData\Local\Temp\{6C42DDD5-7C92-479C-8F05-55537E4479EC} PAGE   94

    5103                    $C$DW$T$17      .dwtag  DW_TAG_base_type
    5104                            .dwattr $C$DW$T$17, DW_AT_encoding(DW_ATE_float)
    5105                            .dwattr $C$DW$T$17, DW_AT_name("double")
    5106                            .dwattr $C$DW$T$17, DW_AT_byte_size(0x08)
    5107                    
    5108                    $C$DW$T$18      .dwtag  DW_TAG_base_type
    5109                            .dwattr $C$DW$T$18, DW_AT_encoding(DW_ATE_float)
    5110                            .dwattr $C$DW$T$18, DW_AT_name("long double")
    5111                            .dwattr $C$DW$T$18, DW_AT_byte_size(0x08)
    5112                    
    5113                    $C$DW$T$105     .dwtag  DW_TAG_base_type
    5114                            .dwattr $C$DW$T$105, DW_AT_encoding(DW_ATE_unsigned_char)
    5115                            .dwattr $C$DW$T$105, DW_AT_name("unsigned char")
    5116                            .dwattr $C$DW$T$105, DW_AT_byte_size(0x01)
    5117                    
    5118                    
    5119                    $C$DW$T$153     .dwtag  DW_TAG_subroutine_type
    5120                            .dwattr $C$DW$T$153, DW_AT_type(*$C$DW$T$105)
    5121                            .dwattr $C$DW$T$153, DW_AT_language(DW_LANG_C)
    5122                    $C$DW$282       .dwtag  DW_TAG_formal_parameter
    5123                            .dwattr $C$DW$282, DW_AT_type(*$C$DW$T$78)
    5124                    
    5125                    $C$DW$283       .dwtag  DW_TAG_formal_parameter
    5126                            .dwattr $C$DW$283, DW_AT_type(*$C$DW$T$76)
    5127                    
    5128                    $C$DW$284       .dwtag  DW_TAG_formal_parameter
    5129                            .dwattr $C$DW$284, DW_AT_type(*$C$DW$T$152)
    5130                    
    5131                            .dwendtag $C$DW$T$153
    5132                    
    5133                    $C$DW$T$154     .dwtag  DW_TAG_pointer_type
    5134                            .dwattr $C$DW$T$154, DW_AT_type(*$C$DW$T$153)
    5135                            .dwattr $C$DW$T$154, DW_AT_address_class(0x20)
    5136                    
    5137                    $C$DW$T$155     .dwtag  DW_TAG_typedef
    5138                            .dwattr $C$DW$T$155, DW_AT_name("ICall_MsgMatchFn")
    5139                            .dwattr $C$DW$T$155, DW_AT_type(*$C$DW$T$154)
    5140                            .dwattr $C$DW$T$155, DW_AT_language(DW_LANG_C)
    5141                            .dwattr $C$DW$T$155, DW_AT_decl_file("C:/ti/simplelink_cc13x0_sdk_1_50_00_08/source/ti/ti154st
    5142                            .dwattr $C$DW$T$155, DW_AT_decl_line(0x1c1)
    5143                            .dwattr $C$DW$T$155, DW_AT_decl_column(0x10)
    5144                    
    5145                    
    5146                    $C$DW$T$85      .dwtag  DW_TAG_structure_type
    5147                            .dwattr $C$DW$T$85, DW_AT_name("_icall_alloc_args_t")
    5148                            .dwattr $C$DW$T$85, DW_AT_byte_size(0x0c)
    5149                    $C$DW$285       .dwtag  DW_TAG_member
    5150                            .dwattr $C$DW$285, DW_AT_type(*$C$DW$T$83)
    5151                            .dwattr $C$DW$285, DW_AT_name("hdr")
    5152                            .dwattr $C$DW$285, DW_AT_TI_symbol_name("hdr")
    5153                            .dwattr $C$DW$285, DW_AT_data_member_location[DW_OP_plus_uconst 0x0]
    5154                            .dwattr $C$DW$285, DW_AT_accessibility(DW_ACCESS_public)
    5155                            .dwattr $C$DW$285, DW_AT_decl_file("C:/ti/simplelink_cc13x0_sdk_1_50_00_08/source/ti/ti154stac
    5156                            .dwattr $C$DW$285, DW_AT_decl_line(0x1e3)
    5157                            .dwattr $C$DW$285, DW_AT_decl_column(0x15)
TI ARM Assembler PC v16.9.4 Sat Nov 18 18:46:31 2017

Tools Copyright (c) 1996-2017 Texas Instruments Incorporated
C:\Users\Kevin\AppData\Local\Temp\{6C42DDD5-7C92-479C-8F05-55537E4479EC} PAGE   95

    5158                    
    5159                    $C$DW$286       .dwtag  DW_TAG_member
    5160                            .dwattr $C$DW$286, DW_AT_type(*$C$DW$T$84)
    5161                            .dwattr $C$DW$286, DW_AT_name("size")
    5162                            .dwattr $C$DW$286, DW_AT_TI_symbol_name("size")
    5163                            .dwattr $C$DW$286, DW_AT_data_member_location[DW_OP_plus_uconst 0x4]
    5164                            .dwattr $C$DW$286, DW_AT_accessibility(DW_ACCESS_public)
    5165                            .dwattr $C$DW$286, DW_AT_decl_file("C:/ti/simplelink_cc13x0_sdk_1_50_00_08/source/ti/ti154stac
    5166                            .dwattr $C$DW$286, DW_AT_decl_line(0x1e5)
    5167                            .dwattr $C$DW$286, DW_AT_decl_column(0x0a)
    5168                    
    5169                    $C$DW$287       .dwtag  DW_TAG_member
    5170                            .dwattr $C$DW$287, DW_AT_type(*$C$DW$T$3)
    5171                            .dwattr $C$DW$287, DW_AT_name("ptr")
    5172                            .dwattr $C$DW$287, DW_AT_TI_symbol_name("ptr")
    5173                            .dwattr $C$DW$287, DW_AT_data_member_location[DW_OP_plus_uconst 0x8]
    5174                            .dwattr $C$DW$287, DW_AT_accessibility(DW_ACCESS_public)
    5175                            .dwattr $C$DW$287, DW_AT_decl_file("C:/ti/simplelink_cc13x0_sdk_1_50_00_08/source/ti/ti154stac
    5176                            .dwattr $C$DW$287, DW_AT_decl_line(0x1e7)
    5177                            .dwattr $C$DW$287, DW_AT_decl_column(0x0a)
    5178                    
    5179                            .dwattr $C$DW$T$85, DW_AT_decl_file("C:/ti/simplelink_cc13x0_sdk_1_50_00_08/source/ti/ti154sta
    5180                            .dwattr $C$DW$T$85, DW_AT_decl_line(0x1e0)
    5181                            .dwattr $C$DW$T$85, DW_AT_decl_column(0x10)
    5182                            .dwendtag $C$DW$T$85
    5183                    
    5184                    $C$DW$T$308     .dwtag  DW_TAG_typedef
    5185                            .dwattr $C$DW$T$308, DW_AT_name("ICall_AllocArgs")
    5186                            .dwattr $C$DW$T$308, DW_AT_type(*$C$DW$T$85)
    5187                            .dwattr $C$DW$T$308, DW_AT_language(DW_LANG_C)
    5188                            .dwattr $C$DW$T$308, DW_AT_decl_file("C:/ti/simplelink_cc13x0_sdk_1_50_00_08/source/ti/ti154st
    5189                            .dwattr $C$DW$T$308, DW_AT_decl_line(0x1e8)
    5190                            .dwattr $C$DW$T$308, DW_AT_decl_column(0x03)
    5191                    
    5192                    
    5193                    $C$DW$T$88      .dwtag  DW_TAG_structure_type
    5194                            .dwattr $C$DW$T$88, DW_AT_name("_icall_create_task_args_t")
    5195                            .dwattr $C$DW$T$88, DW_AT_byte_size(0x10)
    5196                    $C$DW$288       .dwtag  DW_TAG_member
    5197                            .dwattr $C$DW$288, DW_AT_type(*$C$DW$T$83)
    5198                            .dwattr $C$DW$288, DW_AT_name("hdr")
    5199                            .dwattr $C$DW$288, DW_AT_TI_symbol_name("hdr")
    5200                            .dwattr $C$DW$288, DW_AT_data_member_location[DW_OP_plus_uconst 0x0]
    5201                            .dwattr $C$DW$288, DW_AT_accessibility(DW_ACCESS_public)
    5202                            .dwattr $C$DW$288, DW_AT_decl_file("C:/ti/simplelink_cc13x0_sdk_1_50_00_08/source/ti/ti154stac
    5203                            .dwattr $C$DW$288, DW_AT_decl_line(0x2bc)
    5204                            .dwattr $C$DW$288, DW_AT_decl_column(0x15)
    5205                    
    5206                    $C$DW$289       .dwtag  DW_TAG_member
    5207                            .dwattr $C$DW$289, DW_AT_type(*$C$DW$T$87)
    5208                            .dwattr $C$DW$289, DW_AT_name("entryfn")
    5209                            .dwattr $C$DW$289, DW_AT_TI_symbol_name("entryfn")
    5210                            .dwattr $C$DW$289, DW_AT_data_member_location[DW_OP_plus_uconst 0x4]
    5211                            .dwattr $C$DW$289, DW_AT_accessibility(DW_ACCESS_public)
    5212                            .dwattr $C$DW$289, DW_AT_decl_file("C:/ti/simplelink_cc13x0_sdk_1_50_00_08/source/ti/ti154stac
TI ARM Assembler PC v16.9.4 Sat Nov 18 18:46:31 2017

Tools Copyright (c) 1996-2017 Texas Instruments Incorporated
C:\Users\Kevin\AppData\Local\Temp\{6C42DDD5-7C92-479C-8F05-55537E4479EC} PAGE   96

    5213                            .dwattr $C$DW$289, DW_AT_decl_line(0x2be)
    5214                            .dwattr $C$DW$289, DW_AT_decl_column(0x0a)
    5215                    
    5216                    $C$DW$290       .dwtag  DW_TAG_member
    5217                            .dwattr $C$DW$290, DW_AT_type(*$C$DW$T$75)
    5218                            .dwattr $C$DW$290, DW_AT_name("priority")
    5219                            .dwattr $C$DW$290, DW_AT_TI_symbol_name("priority")
    5220                            .dwattr $C$DW$290, DW_AT_data_member_location[DW_OP_plus_uconst 0x8]
    5221                            .dwattr $C$DW$290, DW_AT_accessibility(DW_ACCESS_public)
    5222                            .dwattr $C$DW$290, DW_AT_decl_file("C:/ti/simplelink_cc13x0_sdk_1_50_00_08/source/ti/ti154stac
    5223                            .dwattr $C$DW$290, DW_AT_decl_line(0x2c0)
    5224                            .dwattr $C$DW$290, DW_AT_decl_column(0x11)
    5225                    
    5226                    $C$DW$291       .dwtag  DW_TAG_member
    5227                            .dwattr $C$DW$291, DW_AT_type(*$C$DW$T$77)
    5228                            .dwattr $C$DW$291, DW_AT_name("stacksize")
    5229                            .dwattr $C$DW$291, DW_AT_TI_symbol_name("stacksize")
    5230                            .dwattr $C$DW$291, DW_AT_data_member_location[DW_OP_plus_uconst 0xa]
    5231                            .dwattr $C$DW$291, DW_AT_accessibility(DW_ACCESS_public)
    5232                            .dwattr $C$DW$291, DW_AT_decl_file("C:/ti/simplelink_cc13x0_sdk_1_50_00_08/source/ti/ti154stac
    5233                            .dwattr $C$DW$291, DW_AT_decl_line(0x2c2)
    5234                            .dwattr $C$DW$291, DW_AT_decl_column(0x12)
    5235                    
    5236                    $C$DW$292       .dwtag  DW_TAG_member
    5237                            .dwattr $C$DW$292, DW_AT_type(*$C$DW$T$84)
    5238                            .dwattr $C$DW$292, DW_AT_name("arg")
    5239                            .dwattr $C$DW$292, DW_AT_TI_symbol_name("arg")
    5240                            .dwattr $C$DW$292, DW_AT_data_member_location[DW_OP_plus_uconst 0xc]
    5241                            .dwattr $C$DW$292, DW_AT_accessibility(DW_ACCESS_public)
    5242                            .dwattr $C$DW$292, DW_AT_decl_file("C:/ti/simplelink_cc13x0_sdk_1_50_00_08/source/ti/ti154stac
    5243                            .dwattr $C$DW$292, DW_AT_decl_line(0x2c4)
    5244                            .dwattr $C$DW$292, DW_AT_decl_column(0x0a)
    5245                    
    5246                            .dwattr $C$DW$T$88, DW_AT_decl_file("C:/ti/simplelink_cc13x0_sdk_1_50_00_08/source/ti/ti154sta
    5247                            .dwattr $C$DW$T$88, DW_AT_decl_line(0x2b9)
    5248                            .dwattr $C$DW$T$88, DW_AT_decl_column(0x10)
    5249                            .dwendtag $C$DW$T$88
    5250                    
    5251                    $C$DW$T$309     .dwtag  DW_TAG_typedef
    5252                            .dwattr $C$DW$T$309, DW_AT_name("ICall_CreateTaskArgs")
    5253                            .dwattr $C$DW$T$309, DW_AT_type(*$C$DW$T$88)
    5254                            .dwattr $C$DW$T$309, DW_AT_language(DW_LANG_C)
    5255                            .dwattr $C$DW$T$309, DW_AT_decl_file("C:/ti/simplelink_cc13x0_sdk_1_50_00_08/source/ti/ti154st
    5256                            .dwattr $C$DW$T$309, DW_AT_decl_line(0x2c5)
    5257                            .dwattr $C$DW$T$309, DW_AT_decl_column(0x03)
    5258                    
    5259                    
    5260                    $C$DW$T$97      .dwtag  DW_TAG_structure_type
    5261                            .dwattr $C$DW$T$97, DW_AT_name("_icall_enroll_service_args_t")
    5262                            .dwattr $C$DW$T$97, DW_AT_byte_size(0x14)
    5263                    $C$DW$293       .dwtag  DW_TAG_member
    5264                            .dwattr $C$DW$293, DW_AT_type(*$C$DW$T$83)
    5265                            .dwattr $C$DW$293, DW_AT_name("hdr")
    5266                            .dwattr $C$DW$293, DW_AT_TI_symbol_name("hdr")
    5267                            .dwattr $C$DW$293, DW_AT_data_member_location[DW_OP_plus_uconst 0x0]
TI ARM Assembler PC v16.9.4 Sat Nov 18 18:46:31 2017

Tools Copyright (c) 1996-2017 Texas Instruments Incorporated
C:\Users\Kevin\AppData\Local\Temp\{6C42DDD5-7C92-479C-8F05-55537E4479EC} PAGE   97

    5268                            .dwattr $C$DW$293, DW_AT_accessibility(DW_ACCESS_public)
    5269                            .dwattr $C$DW$293, DW_AT_decl_file("C:/ti/simplelink_cc13x0_sdk_1_50_00_08/source/ti/ti154stac
    5270                            .dwattr $C$DW$293, DW_AT_decl_line(0x3a9)
    5271                            .dwattr $C$DW$293, DW_AT_decl_column(0x15)
    5272                    
    5273                    $C$DW$294       .dwtag  DW_TAG_member
    5274                            .dwattr $C$DW$294, DW_AT_type(*$C$DW$T$78)
    5275                            .dwattr $C$DW$294, DW_AT_name("service")
    5276                            .dwattr $C$DW$294, DW_AT_TI_symbol_name("service")
    5277                            .dwattr $C$DW$294, DW_AT_data_member_location[DW_OP_plus_uconst 0x4]
    5278                            .dwattr $C$DW$294, DW_AT_accessibility(DW_ACCESS_public)
    5279                            .dwattr $C$DW$294, DW_AT_decl_file("C:/ti/simplelink_cc13x0_sdk_1_50_00_08/source/ti/ti154stac
    5280                            .dwattr $C$DW$294, DW_AT_decl_line(0x3ab)
    5281                            .dwattr $C$DW$294, DW_AT_decl_column(0x15)
    5282                    
    5283                    $C$DW$295       .dwtag  DW_TAG_member
    5284                            .dwattr $C$DW$295, DW_AT_type(*$C$DW$T$95)
    5285                            .dwattr $C$DW$295, DW_AT_name("fn")
    5286                            .dwattr $C$DW$295, DW_AT_TI_symbol_name("fn")
    5287                            .dwattr $C$DW$295, DW_AT_data_member_location[DW_OP_plus_uconst 0x8]
    5288                            .dwattr $C$DW$295, DW_AT_accessibility(DW_ACCESS_public)
    5289                            .dwattr $C$DW$295, DW_AT_decl_file("C:/ti/simplelink_cc13x0_sdk_1_50_00_08/source/ti/ti154stac
    5290                            .dwattr $C$DW$295, DW_AT_decl_line(0x3ad)
    5291                            .dwattr $C$DW$295, DW_AT_decl_column(0x15)
    5292                    
    5293                    $C$DW$296       .dwtag  DW_TAG_member
    5294                            .dwattr $C$DW$296, DW_AT_type(*$C$DW$T$76)
    5295                            .dwattr $C$DW$296, DW_AT_name("entity")
    5296                            .dwattr $C$DW$296, DW_AT_TI_symbol_name("entity")
    5297                            .dwattr $C$DW$296, DW_AT_data_member_location[DW_OP_plus_uconst 0xc]
    5298                            .dwattr $C$DW$296, DW_AT_accessibility(DW_ACCESS_public)
    5299                            .dwattr $C$DW$296, DW_AT_decl_file("C:/ti/simplelink_cc13x0_sdk_1_50_00_08/source/ti/ti154stac
    5300                            .dwattr $C$DW$296, DW_AT_decl_line(0x3af)
    5301                            .dwattr $C$DW$296, DW_AT_decl_column(0x12)
    5302                    
    5303                    $C$DW$297       .dwtag  DW_TAG_member
    5304                            .dwattr $C$DW$297, DW_AT_type(*$C$DW$T$96)
    5305                            .dwattr $C$DW$297, DW_AT_name("msgSyncHdl")
    5306                            .dwattr $C$DW$297, DW_AT_TI_symbol_name("msgSyncHdl")
    5307                            .dwattr $C$DW$297, DW_AT_data_member_location[DW_OP_plus_uconst 0x10]
    5308                            .dwattr $C$DW$297, DW_AT_accessibility(DW_ACCESS_public)
    5309                            .dwattr $C$DW$297, DW_AT_decl_file("C:/ti/simplelink_cc13x0_sdk_1_50_00_08/source/ti/ti154stac
    5310                            .dwattr $C$DW$297, DW_AT_decl_line(0x3b2)
    5311                            .dwattr $C$DW$297, DW_AT_decl_column(0x14)
    5312                    
    5313                            .dwattr $C$DW$T$97, DW_AT_decl_file("C:/ti/simplelink_cc13x0_sdk_1_50_00_08/source/ti/ti154sta
    5314                            .dwattr $C$DW$T$97, DW_AT_decl_line(0x3a6)
    5315                            .dwattr $C$DW$T$97, DW_AT_decl_column(0x10)
    5316                            .dwendtag $C$DW$T$97
    5317                    
    5318                    $C$DW$T$310     .dwtag  DW_TAG_typedef
    5319                            .dwattr $C$DW$T$310, DW_AT_name("ICall_EnrollServiceArgs")
    5320                            .dwattr $C$DW$T$310, DW_AT_type(*$C$DW$T$97)
    5321                            .dwattr $C$DW$T$310, DW_AT_language(DW_LANG_C)
    5322                            .dwattr $C$DW$T$310, DW_AT_decl_file("C:/ti/simplelink_cc13x0_sdk_1_50_00_08/source/ti/ti154st
TI ARM Assembler PC v16.9.4 Sat Nov 18 18:46:31 2017

Tools Copyright (c) 1996-2017 Texas Instruments Incorporated
C:\Users\Kevin\AppData\Local\Temp\{6C42DDD5-7C92-479C-8F05-55537E4479EC} PAGE   98

    5323                            .dwattr $C$DW$T$310, DW_AT_decl_line(0x3b3)
    5324                            .dwattr $C$DW$T$310, DW_AT_decl_column(0x03)
    5325                    
    5326                    
    5327                    $C$DW$T$98      .dwtag  DW_TAG_structure_type
    5328                            .dwattr $C$DW$T$98, DW_AT_name("_icall_entity2service_args_t")
    5329                            .dwattr $C$DW$T$98, DW_AT_byte_size(0x08)
    5330                    $C$DW$298       .dwtag  DW_TAG_member
    5331                            .dwattr $C$DW$298, DW_AT_type(*$C$DW$T$83)
    5332                            .dwattr $C$DW$298, DW_AT_name("hdr")
    5333                            .dwattr $C$DW$298, DW_AT_TI_symbol_name("hdr")
    5334                            .dwattr $C$DW$298, DW_AT_data_member_location[DW_OP_plus_uconst 0x0]
    5335                            .dwattr $C$DW$298, DW_AT_accessibility(DW_ACCESS_public)
    5336                            .dwattr $C$DW$298, DW_AT_decl_file("C:/ti/simplelink_cc13x0_sdk_1_50_00_08/source/ti/ti154stac
    5337                            .dwattr $C$DW$298, DW_AT_decl_line(0x23e)
    5338                            .dwattr $C$DW$298, DW_AT_decl_column(0x15)
    5339                    
    5340                    $C$DW$299       .dwtag  DW_TAG_member
    5341                            .dwattr $C$DW$299, DW_AT_type(*$C$DW$T$76)
    5342                            .dwattr $C$DW$299, DW_AT_name("entityId")
    5343                            .dwattr $C$DW$299, DW_AT_TI_symbol_name("entityId")
    5344                            .dwattr $C$DW$299, DW_AT_data_member_location[DW_OP_plus_uconst 0x4]
    5345                            .dwattr $C$DW$299, DW_AT_accessibility(DW_ACCESS_public)
    5346                            .dwattr $C$DW$299, DW_AT_decl_file("C:/ti/simplelink_cc13x0_sdk_1_50_00_08/source/ti/ti154stac
    5347                            .dwattr $C$DW$299, DW_AT_decl_line(0x240)
    5348                            .dwattr $C$DW$299, DW_AT_decl_column(0x12)
    5349                    
    5350                    $C$DW$300       .dwtag  DW_TAG_member
    5351                            .dwattr $C$DW$300, DW_AT_type(*$C$DW$T$78)
    5352                            .dwattr $C$DW$300, DW_AT_name("servId")
    5353                            .dwattr $C$DW$300, DW_AT_TI_symbol_name("servId")
    5354                            .dwattr $C$DW$300, DW_AT_data_member_location[DW_OP_plus_uconst 0x6]
    5355                            .dwattr $C$DW$300, DW_AT_accessibility(DW_ACCESS_public)
    5356                            .dwattr $C$DW$300, DW_AT_decl_file("C:/ti/simplelink_cc13x0_sdk_1_50_00_08/source/ti/ti154stac
    5357                            .dwattr $C$DW$300, DW_AT_decl_line(0x242)
    5358                            .dwattr $C$DW$300, DW_AT_decl_column(0x15)
    5359                    
    5360                            .dwattr $C$DW$T$98, DW_AT_decl_file("C:/ti/simplelink_cc13x0_sdk_1_50_00_08/source/ti/ti154sta
    5361                            .dwattr $C$DW$T$98, DW_AT_decl_line(0x23b)
    5362                            .dwattr $C$DW$T$98, DW_AT_decl_column(0x10)
    5363                            .dwendtag $C$DW$T$98
    5364                    
    5365                    $C$DW$T$311     .dwtag  DW_TAG_typedef
    5366                            .dwattr $C$DW$T$311, DW_AT_name("ICall_EntityId2ServiceIdArgs")
    5367                            .dwattr $C$DW$T$311, DW_AT_type(*$C$DW$T$98)
    5368                            .dwattr $C$DW$T$311, DW_AT_language(DW_LANG_C)
    5369                            .dwattr $C$DW$T$311, DW_AT_decl_file("C:/ti/simplelink_cc13x0_sdk_1_50_00_08/source/ti/ti154st
    5370                            .dwattr $C$DW$T$311, DW_AT_decl_line(0x243)
    5371                            .dwattr $C$DW$T$311, DW_AT_decl_column(0x03)
    5372                    
    5373                    
    5374                    $C$DW$T$99      .dwtag  DW_TAG_structure_type
    5375                            .dwattr $C$DW$T$99, DW_AT_name("_icall_fetch_msg_args_t")
    5376                            .dwattr $C$DW$T$99, DW_AT_byte_size(0x0c)
    5377                    $C$DW$301       .dwtag  DW_TAG_member
TI ARM Assembler PC v16.9.4 Sat Nov 18 18:46:31 2017

Tools Copyright (c) 1996-2017 Texas Instruments Incorporated
C:\Users\Kevin\AppData\Local\Temp\{6C42DDD5-7C92-479C-8F05-55537E4479EC} PAGE   99

    5378                            .dwattr $C$DW$301, DW_AT_type(*$C$DW$T$83)
    5379                            .dwattr $C$DW$301, DW_AT_name("hdr")
    5380                            .dwattr $C$DW$301, DW_AT_TI_symbol_name("hdr")
    5381                            .dwattr $C$DW$301, DW_AT_data_member_location[DW_OP_plus_uconst 0x0]
    5382                            .dwattr $C$DW$301, DW_AT_accessibility(DW_ACCESS_public)
    5383                            .dwattr $C$DW$301, DW_AT_decl_file("C:/ti/simplelink_cc13x0_sdk_1_50_00_08/source/ti/ti154stac
    5384                            .dwattr $C$DW$301, DW_AT_decl_line(0x20c)
    5385                            .dwattr $C$DW$301, DW_AT_decl_column(0x15)
    5386                    
    5387                    $C$DW$302       .dwtag  DW_TAG_member
    5388                            .dwattr $C$DW$302, DW_AT_type(*$C$DW$T$80)
    5389                            .dwattr $C$DW$302, DW_AT_name("src")
    5390                            .dwattr $C$DW$302, DW_AT_TI_symbol_name("src")
    5391                            .dwattr $C$DW$302, DW_AT_data_member_location[DW_OP_plus_uconst 0x4]
    5392                            .dwattr $C$DW$302, DW_AT_accessibility(DW_ACCESS_public)
    5393                            .dwattr $C$DW$302, DW_AT_decl_file("C:/ti/simplelink_cc13x0_sdk_1_50_00_08/source/ti/ti154stac
    5394                            .dwattr $C$DW$302, DW_AT_decl_line(0x214)
    5395                            .dwattr $C$DW$302, DW_AT_decl_column(0x05)
    5396                    
    5397                    $C$DW$303       .dwtag  DW_TAG_member
    5398                            .dwattr $C$DW$303, DW_AT_type(*$C$DW$T$76)
    5399                            .dwattr $C$DW$303, DW_AT_name("dest")
    5400                            .dwattr $C$DW$303, DW_AT_TI_symbol_name("dest")
    5401                            .dwattr $C$DW$303, DW_AT_data_member_location[DW_OP_plus_uconst 0x6]
    5402                            .dwattr $C$DW$303, DW_AT_accessibility(DW_ACCESS_public)
    5403                            .dwattr $C$DW$303, DW_AT_decl_file("C:/ti/simplelink_cc13x0_sdk_1_50_00_08/source/ti/ti154stac
    5404                            .dwattr $C$DW$303, DW_AT_decl_line(0x216)
    5405                            .dwattr $C$DW$303, DW_AT_decl_column(0x12)
    5406                    
    5407                    $C$DW$304       .dwtag  DW_TAG_member
    5408                            .dwattr $C$DW$304, DW_AT_type(*$C$DW$T$3)
    5409                            .dwattr $C$DW$304, DW_AT_name("msg")
    5410                            .dwattr $C$DW$304, DW_AT_TI_symbol_name("msg")
    5411                            .dwattr $C$DW$304, DW_AT_data_member_location[DW_OP_plus_uconst 0x8]
    5412                            .dwattr $C$DW$304, DW_AT_accessibility(DW_ACCESS_public)
    5413                            .dwattr $C$DW$304, DW_AT_decl_file("C:/ti/simplelink_cc13x0_sdk_1_50_00_08/source/ti/ti154stac
    5414                            .dwattr $C$DW$304, DW_AT_decl_line(0x218)
    5415                            .dwattr $C$DW$304, DW_AT_decl_column(0x09)
    5416                    
    5417                            .dwattr $C$DW$T$99, DW_AT_decl_file("C:/ti/simplelink_cc13x0_sdk_1_50_00_08/source/ti/ti154sta
    5418                            .dwattr $C$DW$T$99, DW_AT_decl_line(0x209)
    5419                            .dwattr $C$DW$T$99, DW_AT_decl_column(0x10)
    5420                            .dwendtag $C$DW$T$99
    5421                    
    5422                    $C$DW$T$312     .dwtag  DW_TAG_typedef
    5423                            .dwattr $C$DW$T$312, DW_AT_name("ICall_FetchMsgArgs")
    5424                            .dwattr $C$DW$T$312, DW_AT_type(*$C$DW$T$99)
    5425                            .dwattr $C$DW$T$312, DW_AT_language(DW_LANG_C)
    5426                            .dwattr $C$DW$T$312, DW_AT_decl_file("C:/ti/simplelink_cc13x0_sdk_1_50_00_08/source/ti/ti154st
    5427                            .dwattr $C$DW$T$312, DW_AT_decl_line(0x219)
    5428                            .dwattr $C$DW$T$312, DW_AT_decl_column(0x03)
    5429                    
    5430                    
    5431                    $C$DW$T$100     .dwtag  DW_TAG_structure_type
    5432                            .dwattr $C$DW$T$100, DW_AT_name("_icall_free_args_t")
TI ARM Assembler PC v16.9.4 Sat Nov 18 18:46:31 2017

Tools Copyright (c) 1996-2017 Texas Instruments Incorporated
C:\Users\Kevin\AppData\Local\Temp\{6C42DDD5-7C92-479C-8F05-55537E4479EC} PAGE  100

    5433                            .dwattr $C$DW$T$100, DW_AT_byte_size(0x08)
    5434                    $C$DW$305       .dwtag  DW_TAG_member
    5435                            .dwattr $C$DW$305, DW_AT_type(*$C$DW$T$83)
    5436                            .dwattr $C$DW$305, DW_AT_name("hdr")
    5437                            .dwattr $C$DW$305, DW_AT_TI_symbol_name("hdr")
    5438                            .dwattr $C$DW$305, DW_AT_data_member_location[DW_OP_plus_uconst 0x0]
    5439                            .dwattr $C$DW$305, DW_AT_accessibility(DW_ACCESS_public)
    5440                            .dwattr $C$DW$305, DW_AT_decl_file("C:/ti/simplelink_cc13x0_sdk_1_50_00_08/source/ti/ti154stac
    5441                            .dwattr $C$DW$305, DW_AT_decl_line(0x1ee)
    5442                            .dwattr $C$DW$305, DW_AT_decl_column(0x15)
    5443                    
    5444                    $C$DW$306       .dwtag  DW_TAG_member
    5445                            .dwattr $C$DW$306, DW_AT_type(*$C$DW$T$3)
    5446                            .dwattr $C$DW$306, DW_AT_name("ptr")
    5447                            .dwattr $C$DW$306, DW_AT_TI_symbol_name("ptr")
    5448                            .dwattr $C$DW$306, DW_AT_data_member_location[DW_OP_plus_uconst 0x4]
    5449                            .dwattr $C$DW$306, DW_AT_accessibility(DW_ACCESS_public)
    5450                            .dwattr $C$DW$306, DW_AT_decl_file("C:/ti/simplelink_cc13x0_sdk_1_50_00_08/source/ti/ti154stac
    5451                            .dwattr $C$DW$306, DW_AT_decl_line(0x1f0)
    5452                            .dwattr $C$DW$306, DW_AT_decl_column(0x0a)
    5453                    
    5454                            .dwattr $C$DW$T$100, DW_AT_decl_file("C:/ti/simplelink_cc13x0_sdk_1_50_00_08/source/ti/ti154st
    5455                            .dwattr $C$DW$T$100, DW_AT_decl_line(0x1eb)
    5456                            .dwattr $C$DW$T$100, DW_AT_decl_column(0x10)
    5457                            .dwendtag $C$DW$T$100
    5458                    
    5459                    $C$DW$T$313     .dwtag  DW_TAG_typedef
    5460                            .dwattr $C$DW$T$313, DW_AT_name("ICall_FreeArgs")
    5461                            .dwattr $C$DW$T$313, DW_AT_type(*$C$DW$T$100)
    5462                            .dwattr $C$DW$T$313, DW_AT_language(DW_LANG_C)
    5463                            .dwattr $C$DW$T$313, DW_AT_decl_file("C:/ti/simplelink_cc13x0_sdk_1_50_00_08/source/ti/ti154st
    5464                            .dwattr $C$DW$T$313, DW_AT_decl_line(0x1f1)
    5465                            .dwattr $C$DW$T$313, DW_AT_decl_column(0x03)
    5466                    
    5467                    
    5468                    $C$DW$T$102     .dwtag  DW_TAG_structure_type
    5469                            .dwattr $C$DW$T$102, DW_AT_name("_icall_func_args_hdr_t")
    5470                            .dwattr $C$DW$T$102, DW_AT_byte_size(0x04)
    5471                    $C$DW$307       .dwtag  DW_TAG_member
    5472                            .dwattr $C$DW$307, DW_AT_type(*$C$DW$T$78)
    5473                            .dwattr $C$DW$307, DW_AT_name("service")
    5474                            .dwattr $C$DW$307, DW_AT_TI_symbol_name("service")
    5475                            .dwattr $C$DW$307, DW_AT_data_member_location[DW_OP_plus_uconst 0x0]
    5476                            .dwattr $C$DW$307, DW_AT_accessibility(DW_ACCESS_public)
    5477                            .dwattr $C$DW$307, DW_AT_decl_file("C:/ti/simplelink_cc13x0_sdk_1_50_00_08/source/ti/ti154stac
    5478                            .dwattr $C$DW$307, DW_AT_decl_line(0x1ce)
    5479                            .dwattr $C$DW$307, DW_AT_decl_column(0x15)
    5480                    
    5481                    $C$DW$308       .dwtag  DW_TAG_member
    5482                            .dwattr $C$DW$308, DW_AT_type(*$C$DW$T$101)
    5483                            .dwattr $C$DW$308, DW_AT_name("func")
    5484                            .dwattr $C$DW$308, DW_AT_TI_symbol_name("func")
    5485                            .dwattr $C$DW$308, DW_AT_data_member_location[DW_OP_plus_uconst 0x2]
    5486                            .dwattr $C$DW$308, DW_AT_accessibility(DW_ACCESS_public)
    5487                            .dwattr $C$DW$308, DW_AT_decl_file("C:/ti/simplelink_cc13x0_sdk_1_50_00_08/source/ti/ti154stac
TI ARM Assembler PC v16.9.4 Sat Nov 18 18:46:31 2017

Tools Copyright (c) 1996-2017 Texas Instruments Incorporated
C:\Users\Kevin\AppData\Local\Temp\{6C42DDD5-7C92-479C-8F05-55537E4479EC} PAGE  101

    5488                            .dwattr $C$DW$308, DW_AT_decl_line(0x1d0)
    5489                            .dwattr $C$DW$308, DW_AT_decl_column(0x10)
    5490                    
    5491                            .dwattr $C$DW$T$102, DW_AT_decl_file("C:/ti/simplelink_cc13x0_sdk_1_50_00_08/source/ti/ti154st
    5492                            .dwattr $C$DW$T$102, DW_AT_decl_line(0x1cb)
    5493                            .dwattr $C$DW$T$102, DW_AT_decl_column(0x10)
    5494                            .dwendtag $C$DW$T$102
    5495                    
    5496                    $C$DW$T$83      .dwtag  DW_TAG_typedef
    5497                            .dwattr $C$DW$T$83, DW_AT_name("ICall_FuncArgsHdr")
    5498                            .dwattr $C$DW$T$83, DW_AT_type(*$C$DW$T$102)
    5499                            .dwattr $C$DW$T$83, DW_AT_language(DW_LANG_C)
    5500                            .dwattr $C$DW$T$83, DW_AT_decl_file("C:/ti/simplelink_cc13x0_sdk_1_50_00_08/source/ti/ti154sta
    5501                            .dwattr $C$DW$T$83, DW_AT_decl_line(0x1d1)
    5502                            .dwattr $C$DW$T$83, DW_AT_decl_column(0x03)
    5503                    
    5504                    $C$DW$T$92      .dwtag  DW_TAG_pointer_type
    5505                            .dwattr $C$DW$T$92, DW_AT_type(*$C$DW$T$83)
    5506                            .dwattr $C$DW$T$92, DW_AT_address_class(0x20)
    5507                    
    5508                    
    5509                    $C$DW$T$103     .dwtag  DW_TAG_structure_type
    5510                            .dwattr $C$DW$T$103, DW_AT_name("_icall_get_entity_id_args_t")
    5511                            .dwattr $C$DW$T$103, DW_AT_byte_size(0x06)
    5512                    $C$DW$309       .dwtag  DW_TAG_member
    5513                            .dwattr $C$DW$309, DW_AT_type(*$C$DW$T$83)
    5514                            .dwattr $C$DW$309, DW_AT_name("hdr")
    5515                            .dwattr $C$DW$309, DW_AT_TI_symbol_name("hdr")
    5516                            .dwattr $C$DW$309, DW_AT_data_member_location[DW_OP_plus_uconst 0x0]
    5517                            .dwattr $C$DW$309, DW_AT_accessibility(DW_ACCESS_public)
    5518                            .dwattr $C$DW$309, DW_AT_decl_file("C:/ti/simplelink_cc13x0_sdk_1_50_00_08/source/ti/ti154stac
    5519                            .dwattr $C$DW$309, DW_AT_decl_line(0x362)
    5520                            .dwattr $C$DW$309, DW_AT_decl_column(0x15)
    5521                    
    5522                    $C$DW$310       .dwtag  DW_TAG_member
    5523                            .dwattr $C$DW$310, DW_AT_type(*$C$DW$T$76)
    5524                            .dwattr $C$DW$310, DW_AT_name("entity")
    5525                            .dwattr $C$DW$310, DW_AT_TI_symbol_name("entity")
    5526                            .dwattr $C$DW$310, DW_AT_data_member_location[DW_OP_plus_uconst 0x4]
    5527                            .dwattr $C$DW$310, DW_AT_accessibility(DW_ACCESS_public)
    5528                            .dwattr $C$DW$310, DW_AT_decl_file("C:/ti/simplelink_cc13x0_sdk_1_50_00_08/source/ti/ti154stac
    5529                            .dwattr $C$DW$310, DW_AT_decl_line(0x364)
    5530                            .dwattr $C$DW$310, DW_AT_decl_column(0x12)
    5531                    
    5532                            .dwattr $C$DW$T$103, DW_AT_decl_file("C:/ti/simplelink_cc13x0_sdk_1_50_00_08/source/ti/ti154st
    5533                            .dwattr $C$DW$T$103, DW_AT_decl_line(0x35f)
    5534                            .dwattr $C$DW$T$103, DW_AT_decl_column(0x10)
    5535                            .dwendtag $C$DW$T$103
    5536                    
    5537                    $C$DW$T$314     .dwtag  DW_TAG_typedef
    5538                            .dwattr $C$DW$T$314, DW_AT_name("ICall_GetEntityIdArgs")
    5539                            .dwattr $C$DW$T$314, DW_AT_type(*$C$DW$T$103)
    5540                            .dwattr $C$DW$T$314, DW_AT_language(DW_LANG_C)
    5541                            .dwattr $C$DW$T$314, DW_AT_decl_file("C:/ti/simplelink_cc13x0_sdk_1_50_00_08/source/ti/ti154st
    5542                            .dwattr $C$DW$T$314, DW_AT_decl_line(0x365)
TI ARM Assembler PC v16.9.4 Sat Nov 18 18:46:31 2017

Tools Copyright (c) 1996-2017 Texas Instruments Incorporated
C:\Users\Kevin\AppData\Local\Temp\{6C42DDD5-7C92-479C-8F05-55537E4479EC} PAGE  102

    5543                            .dwattr $C$DW$T$314, DW_AT_decl_column(0x03)
    5544                    
    5545                    
    5546                    $C$DW$T$104     .dwtag  DW_TAG_structure_type
    5547                            .dwattr $C$DW$T$104, DW_AT_name("_icall_get_local_msg_entity_id_args_t")
    5548                            .dwattr $C$DW$T$104, DW_AT_byte_size(0x08)
    5549                    $C$DW$311       .dwtag  DW_TAG_member
    5550                            .dwattr $C$DW$311, DW_AT_type(*$C$DW$T$83)
    5551                            .dwattr $C$DW$311, DW_AT_name("hdr")
    5552                            .dwattr $C$DW$311, DW_AT_TI_symbol_name("hdr")
    5553                            .dwattr $C$DW$311, DW_AT_data_member_location[DW_OP_plus_uconst 0x0]
    5554                            .dwattr $C$DW$311, DW_AT_accessibility(DW_ACCESS_public)
    5555                            .dwattr $C$DW$311, DW_AT_decl_file("C:/ti/simplelink_cc13x0_sdk_1_50_00_08/source/ti/ti154stac
    5556                            .dwattr $C$DW$311, DW_AT_decl_line(0x3d1)
    5557                            .dwattr $C$DW$311, DW_AT_decl_column(0x15)
    5558                    
    5559                    $C$DW$312       .dwtag  DW_TAG_member
    5560                            .dwattr $C$DW$312, DW_AT_type(*$C$DW$T$78)
    5561                            .dwattr $C$DW$312, DW_AT_name("service")
    5562                            .dwattr $C$DW$312, DW_AT_TI_symbol_name("service")
    5563                            .dwattr $C$DW$312, DW_AT_data_member_location[DW_OP_plus_uconst 0x4]
    5564                            .dwattr $C$DW$312, DW_AT_accessibility(DW_ACCESS_public)
    5565                            .dwattr $C$DW$312, DW_AT_decl_file("C:/ti/simplelink_cc13x0_sdk_1_50_00_08/source/ti/ti154stac
    5566                            .dwattr $C$DW$312, DW_AT_decl_line(0x3d3)
    5567                            .dwattr $C$DW$312, DW_AT_decl_column(0x15)
    5568                    
    5569                    $C$DW$313       .dwtag  DW_TAG_member
    5570                            .dwattr $C$DW$313, DW_AT_type(*$C$DW$T$76)
    5571                            .dwattr $C$DW$313, DW_AT_name("entity")
    5572                            .dwattr $C$DW$313, DW_AT_TI_symbol_name("entity")
    5573                            .dwattr $C$DW$313, DW_AT_data_member_location[DW_OP_plus_uconst 0x6]
    5574                            .dwattr $C$DW$313, DW_AT_accessibility(DW_ACCESS_public)
    5575                            .dwattr $C$DW$313, DW_AT_decl_file("C:/ti/simplelink_cc13x0_sdk_1_50_00_08/source/ti/ti154stac
    5576                            .dwattr $C$DW$313, DW_AT_decl_line(0x3d5)
    5577                            .dwattr $C$DW$313, DW_AT_decl_column(0x12)
    5578                    
    5579                    $C$DW$314       .dwtag  DW_TAG_member
    5580                            .dwattr $C$DW$314, DW_AT_type(*$C$DW$T$75)
    5581                            .dwattr $C$DW$314, DW_AT_name("localId")
    5582                            .dwattr $C$DW$314, DW_AT_TI_symbol_name("localId")
    5583                            .dwattr $C$DW$314, DW_AT_data_member_location[DW_OP_plus_uconst 0x7]
    5584                            .dwattr $C$DW$314, DW_AT_accessibility(DW_ACCESS_public)
    5585                            .dwattr $C$DW$314, DW_AT_decl_file("C:/ti/simplelink_cc13x0_sdk_1_50_00_08/source/ti/ti154stac
    5586                            .dwattr $C$DW$314, DW_AT_decl_line(0x3d7)
    5587                            .dwattr $C$DW$314, DW_AT_decl_column(0x11)
    5588                    
    5589                            .dwattr $C$DW$T$104, DW_AT_decl_file("C:/ti/simplelink_cc13x0_sdk_1_50_00_08/source/ti/ti154st
    5590                            .dwattr $C$DW$T$104, DW_AT_decl_line(0x3ce)
    5591                            .dwattr $C$DW$T$104, DW_AT_decl_column(0x10)
    5592                            .dwendtag $C$DW$T$104
    5593                    
    5594                    $C$DW$T$315     .dwtag  DW_TAG_typedef
    5595                            .dwattr $C$DW$T$315, DW_AT_name("ICall_GetLocalMsgEntityIdArgs")
    5596                            .dwattr $C$DW$T$315, DW_AT_type(*$C$DW$T$104)
    5597                            .dwattr $C$DW$T$315, DW_AT_language(DW_LANG_C)
TI ARM Assembler PC v16.9.4 Sat Nov 18 18:46:31 2017

Tools Copyright (c) 1996-2017 Texas Instruments Incorporated
C:\Users\Kevin\AppData\Local\Temp\{6C42DDD5-7C92-479C-8F05-55537E4479EC} PAGE  103

    5598                            .dwattr $C$DW$T$315, DW_AT_decl_file("C:/ti/simplelink_cc13x0_sdk_1_50_00_08/source/ti/ti154st
    5599                            .dwattr $C$DW$T$315, DW_AT_decl_line(0x3d8)
    5600                            .dwattr $C$DW$T$315, DW_AT_decl_column(0x03)
    5601                    
    5602                    
    5603                    $C$DW$T$106     .dwtag  DW_TAG_structure_type
    5604                            .dwattr $C$DW$T$106, DW_AT_name("_icall_getbool_args_t")
    5605                            .dwattr $C$DW$T$106, DW_AT_byte_size(0x06)
    5606                    $C$DW$315       .dwtag  DW_TAG_member
    5607                            .dwattr $C$DW$315, DW_AT_type(*$C$DW$T$83)
    5608                            .dwattr $C$DW$315, DW_AT_name("hdr")
    5609                            .dwattr $C$DW$315, DW_AT_TI_symbol_name("hdr")
    5610                            .dwattr $C$DW$315, DW_AT_data_member_location[DW_OP_plus_uconst 0x0]
    5611                            .dwattr $C$DW$315, DW_AT_accessibility(DW_ACCESS_public)
    5612                            .dwattr $C$DW$315, DW_AT_decl_file("C:/ti/simplelink_cc13x0_sdk_1_50_00_08/source/ti/ti154stac
    5613                            .dwattr $C$DW$315, DW_AT_decl_line(0x274)
    5614                            .dwattr $C$DW$315, DW_AT_decl_column(0x15)
    5615                    
    5616                    $C$DW$316       .dwtag  DW_TAG_member
    5617                            .dwattr $C$DW$316, DW_AT_type(*$C$DW$T$105)
    5618                            .dwattr $C$DW$316, DW_AT_name("value")
    5619                            .dwattr $C$DW$316, DW_AT_TI_symbol_name("value")
    5620                            .dwattr $C$DW$316, DW_AT_data_member_location[DW_OP_plus_uconst 0x4]
    5621                            .dwattr $C$DW$316, DW_AT_accessibility(DW_ACCESS_public)
    5622                            .dwattr $C$DW$316, DW_AT_decl_file("C:/ti/simplelink_cc13x0_sdk_1_50_00_08/source/ti/ti154stac
    5623                            .dwattr $C$DW$316, DW_AT_decl_line(0x276)
    5624                            .dwattr $C$DW$316, DW_AT_decl_column(0x08)
    5625                    
    5626                            .dwattr $C$DW$T$106, DW_AT_decl_file("C:/ti/simplelink_cc13x0_sdk_1_50_00_08/source/ti/ti154st
    5627                            .dwattr $C$DW$T$106, DW_AT_decl_line(0x271)
    5628                            .dwattr $C$DW$T$106, DW_AT_decl_column(0x10)
    5629                            .dwendtag $C$DW$T$106
    5630                    
    5631                    $C$DW$T$316     .dwtag  DW_TAG_typedef
    5632                            .dwattr $C$DW$T$316, DW_AT_name("ICall_GetBoolArgs")
    5633                            .dwattr $C$DW$T$316, DW_AT_type(*$C$DW$T$106)
    5634                            .dwattr $C$DW$T$316, DW_AT_language(DW_LANG_C)
    5635                            .dwattr $C$DW$T$316, DW_AT_decl_file("C:/ti/simplelink_cc13x0_sdk_1_50_00_08/source/ti/ti154st
    5636                            .dwattr $C$DW$T$316, DW_AT_decl_line(0x277)
    5637                            .dwattr $C$DW$T$316, DW_AT_decl_column(0x03)
    5638                    
    5639                    
    5640                    $C$DW$T$107     .dwtag  DW_TAG_structure_type
    5641                            .dwattr $C$DW$T$107, DW_AT_name("_icall_getuint32_args_t")
    5642                            .dwattr $C$DW$T$107, DW_AT_byte_size(0x08)
    5643                    $C$DW$317       .dwtag  DW_TAG_member
    5644                            .dwattr $C$DW$317, DW_AT_type(*$C$DW$T$83)
    5645                            .dwattr $C$DW$317, DW_AT_name("hdr")
    5646                            .dwattr $C$DW$317, DW_AT_TI_symbol_name("hdr")
    5647                            .dwattr $C$DW$317, DW_AT_data_member_location[DW_OP_plus_uconst 0x0]
    5648                            .dwattr $C$DW$317, DW_AT_accessibility(DW_ACCESS_public)
    5649                            .dwattr $C$DW$317, DW_AT_decl_file("C:/ti/simplelink_cc13x0_sdk_1_50_00_08/source/ti/ti154stac
    5650                            .dwattr $C$DW$317, DW_AT_decl_line(0x269)
    5651                            .dwattr $C$DW$317, DW_AT_decl_column(0x15)
    5652                    
TI ARM Assembler PC v16.9.4 Sat Nov 18 18:46:31 2017

Tools Copyright (c) 1996-2017 Texas Instruments Incorporated
C:\Users\Kevin\AppData\Local\Temp\{6C42DDD5-7C92-479C-8F05-55537E4479EC} PAGE  104

    5653                    $C$DW$318       .dwtag  DW_TAG_member
    5654                            .dwattr $C$DW$318, DW_AT_type(*$C$DW$T$66)
    5655                            .dwattr $C$DW$318, DW_AT_name("value")
    5656                            .dwattr $C$DW$318, DW_AT_TI_symbol_name("value")
    5657                            .dwattr $C$DW$318, DW_AT_data_member_location[DW_OP_plus_uconst 0x4]
    5658                            .dwattr $C$DW$318, DW_AT_accessibility(DW_ACCESS_public)
    5659                            .dwattr $C$DW$318, DW_AT_decl_file("C:/ti/simplelink_cc13x0_sdk_1_50_00_08/source/ti/ti154stac
    5660                            .dwattr $C$DW$318, DW_AT_decl_line(0x26b)
    5661                            .dwattr $C$DW$318, DW_AT_decl_column(0x12)
    5662                    
    5663                            .dwattr $C$DW$T$107, DW_AT_decl_file("C:/ti/simplelink_cc13x0_sdk_1_50_00_08/source/ti/ti154st
    5664                            .dwattr $C$DW$T$107, DW_AT_decl_line(0x266)
    5665                            .dwattr $C$DW$T$107, DW_AT_decl_column(0x10)
    5666                            .dwendtag $C$DW$T$107
    5667                    
    5668                    $C$DW$T$317     .dwtag  DW_TAG_typedef
    5669                            .dwattr $C$DW$T$317, DW_AT_name("ICall_GetUint32Args")
    5670                            .dwattr $C$DW$T$317, DW_AT_type(*$C$DW$T$107)
    5671                            .dwattr $C$DW$T$317, DW_AT_language(DW_LANG_C)
    5672                            .dwattr $C$DW$T$317, DW_AT_decl_file("C:/ti/simplelink_cc13x0_sdk_1_50_00_08/source/ti/ti154st
    5673                            .dwattr $C$DW$T$317, DW_AT_decl_line(0x26c)
    5674                            .dwattr $C$DW$T$317, DW_AT_decl_column(0x03)
    5675                    
    5676                    
    5677                    $C$DW$T$109     .dwtag  DW_TAG_structure_type
    5678                            .dwattr $C$DW$T$109, DW_AT_name("_icall_intnum_args_t")
    5679                            .dwattr $C$DW$T$109, DW_AT_byte_size(0x08)
    5680                    $C$DW$319       .dwtag  DW_TAG_member
    5681                            .dwattr $C$DW$319, DW_AT_type(*$C$DW$T$83)
    5682                            .dwattr $C$DW$319, DW_AT_name("hdr")
    5683                            .dwattr $C$DW$319, DW_AT_TI_symbol_name("hdr")
    5684                            .dwattr $C$DW$319, DW_AT_data_member_location[DW_OP_plus_uconst 0x0]
    5685                            .dwattr $C$DW$319, DW_AT_accessibility(DW_ACCESS_public)
    5686                            .dwattr $C$DW$319, DW_AT_decl_file("C:/ti/simplelink_cc13x0_sdk_1_50_00_08/source/ti/ti154stac
    5687                            .dwattr $C$DW$319, DW_AT_decl_line(0x249)
    5688                            .dwattr $C$DW$319, DW_AT_decl_column(0x15)
    5689                    
    5690                    $C$DW$320       .dwtag  DW_TAG_member
    5691                            .dwattr $C$DW$320, DW_AT_type(*$C$DW$T$108)
    5692                            .dwattr $C$DW$320, DW_AT_name("intnum")
    5693                            .dwattr $C$DW$320, DW_AT_TI_symbol_name("intnum")
    5694                            .dwattr $C$DW$320, DW_AT_data_member_location[DW_OP_plus_uconst 0x4]
    5695                            .dwattr $C$DW$320, DW_AT_accessibility(DW_ACCESS_public)
    5696                            .dwattr $C$DW$320, DW_AT_decl_file("C:/ti/simplelink_cc13x0_sdk_1_50_00_08/source/ti/ti154stac
    5697                            .dwattr $C$DW$320, DW_AT_decl_line(0x24b)
    5698                            .dwattr $C$DW$320, DW_AT_decl_column(0x11)
    5699                    
    5700                            .dwattr $C$DW$T$109, DW_AT_decl_file("C:/ti/simplelink_cc13x0_sdk_1_50_00_08/source/ti/ti154st
    5701                            .dwattr $C$DW$T$109, DW_AT_decl_line(0x246)
    5702                            .dwattr $C$DW$T$109, DW_AT_decl_column(0x10)
    5703                            .dwendtag $C$DW$T$109
    5704                    
    5705                    $C$DW$T$318     .dwtag  DW_TAG_typedef
    5706                            .dwattr $C$DW$T$318, DW_AT_name("ICall_IntNumArgs")
    5707                            .dwattr $C$DW$T$318, DW_AT_type(*$C$DW$T$109)
TI ARM Assembler PC v16.9.4 Sat Nov 18 18:46:31 2017

Tools Copyright (c) 1996-2017 Texas Instruments Incorporated
C:\Users\Kevin\AppData\Local\Temp\{6C42DDD5-7C92-479C-8F05-55537E4479EC} PAGE  105

    5708                            .dwattr $C$DW$T$318, DW_AT_language(DW_LANG_C)
    5709                            .dwattr $C$DW$T$318, DW_AT_decl_file("C:/ti/simplelink_cc13x0_sdk_1_50_00_08/source/ti/ti154st
    5710                            .dwattr $C$DW$T$318, DW_AT_decl_line(0x24c)
    5711                            .dwattr $C$DW$T$318, DW_AT_decl_column(0x03)
    5712                    
    5713                    
    5714                    $C$DW$T$110     .dwtag  DW_TAG_structure_type
    5715                            .dwattr $C$DW$T$110, DW_AT_name("_icall_msg_hdr_t")
    5716                            .dwattr $C$DW$T$110, DW_AT_byte_size(0x0c)
    5717                    $C$DW$321       .dwtag  DW_TAG_member
    5718                            .dwattr $C$DW$321, DW_AT_type(*$C$DW$T$3)
    5719                            .dwattr $C$DW$321, DW_AT_name("next")
    5720                            .dwattr $C$DW$321, DW_AT_TI_symbol_name("next")
    5721                            .dwattr $C$DW$321, DW_AT_data_member_location[DW_OP_plus_uconst 0x0]
    5722                            .dwattr $C$DW$321, DW_AT_accessibility(DW_ACCESS_public)
    5723                            .dwattr $C$DW$321, DW_AT_decl_file("C:/ti/simplelink_cc13x0_sdk_1_50_00_08/source/ti/ti154stac
    5724                            .dwattr $C$DW$321, DW_AT_decl_line(0x317)
    5725                            .dwattr $C$DW$321, DW_AT_decl_column(0x0c)
    5726                    
    5727                    $C$DW$322       .dwtag  DW_TAG_member
    5728                            .dwattr $C$DW$322, DW_AT_type(*$C$DW$T$22)
    5729                            .dwattr $C$DW$322, DW_AT_name("srcentity")
    5730                            .dwattr $C$DW$322, DW_AT_TI_symbol_name("srcentity")
    5731                            .dwattr $C$DW$322, DW_AT_data_member_location[DW_OP_plus_uconst 0x4]
    5732                            .dwattr $C$DW$322, DW_AT_accessibility(DW_ACCESS_public)
    5733                            .dwattr $C$DW$322, DW_AT_decl_file("C:/ti/simplelink_cc13x0_sdk_1_50_00_08/source/ti/ti154stac
    5734                            .dwattr $C$DW$322, DW_AT_decl_line(0x318)
    5735                            .dwattr $C$DW$322, DW_AT_decl_column(0x0c)
    5736                    
    5737                    $C$DW$323       .dwtag  DW_TAG_member
    5738                            .dwattr $C$DW$323, DW_AT_type(*$C$DW$T$22)
    5739                            .dwattr $C$DW$323, DW_AT_name("dstentity")
    5740                            .dwattr $C$DW$323, DW_AT_TI_symbol_name("dstentity")
    5741                            .dwattr $C$DW$323, DW_AT_data_member_location[DW_OP_plus_uconst 0x5]
    5742                            .dwattr $C$DW$323, DW_AT_accessibility(DW_ACCESS_public)
    5743                            .dwattr $C$DW$323, DW_AT_decl_file("C:/ti/simplelink_cc13x0_sdk_1_50_00_08/source/ti/ti154stac
    5744                            .dwattr $C$DW$323, DW_AT_decl_line(0x319)
    5745                            .dwattr $C$DW$323, DW_AT_decl_column(0x0c)
    5746                    
    5747                    $C$DW$324       .dwtag  DW_TAG_member
    5748                            .dwattr $C$DW$324, DW_AT_type(*$C$DW$T$22)
    5749                            .dwattr $C$DW$324, DW_AT_name("format")
    5750                            .dwattr $C$DW$324, DW_AT_TI_symbol_name("format")
    5751                            .dwattr $C$DW$324, DW_AT_data_member_location[DW_OP_plus_uconst 0x6]
    5752                            .dwattr $C$DW$324, DW_AT_accessibility(DW_ACCESS_public)
    5753                            .dwattr $C$DW$324, DW_AT_decl_file("C:/ti/simplelink_cc13x0_sdk_1_50_00_08/source/ti/ti154stac
    5754                            .dwattr $C$DW$324, DW_AT_decl_line(0x31a)
    5755                            .dwattr $C$DW$324, DW_AT_decl_column(0x0c)
    5756                    
    5757                    $C$DW$325       .dwtag  DW_TAG_member
    5758                            .dwattr $C$DW$325, DW_AT_type(*$C$DW$T$39)
    5759                            .dwattr $C$DW$325, DW_AT_name("len")
    5760                            .dwattr $C$DW$325, DW_AT_TI_symbol_name("len")
    5761                            .dwattr $C$DW$325, DW_AT_data_member_location[DW_OP_plus_uconst 0x8]
    5762                            .dwattr $C$DW$325, DW_AT_accessibility(DW_ACCESS_public)
TI ARM Assembler PC v16.9.4 Sat Nov 18 18:46:31 2017

Tools Copyright (c) 1996-2017 Texas Instruments Incorporated
C:\Users\Kevin\AppData\Local\Temp\{6C42DDD5-7C92-479C-8F05-55537E4479EC} PAGE  106

    5763                            .dwattr $C$DW$325, DW_AT_decl_file("C:/ti/simplelink_cc13x0_sdk_1_50_00_08/source/ti/ti154stac
    5764                            .dwattr $C$DW$325, DW_AT_decl_line(0x31b)
    5765                            .dwattr $C$DW$325, DW_AT_decl_column(0x0c)
    5766                    
    5767                    $C$DW$326       .dwtag  DW_TAG_member
    5768                            .dwattr $C$DW$326, DW_AT_type(*$C$DW$T$22)
    5769                            .dwattr $C$DW$326, DW_AT_name("dest_id")
    5770                            .dwattr $C$DW$326, DW_AT_TI_symbol_name("dest_id")
    5771                            .dwattr $C$DW$326, DW_AT_data_member_location[DW_OP_plus_uconst 0xa]
    5772                            .dwattr $C$DW$326, DW_AT_accessibility(DW_ACCESS_public)
    5773                            .dwattr $C$DW$326, DW_AT_decl_file("C:/ti/simplelink_cc13x0_sdk_1_50_00_08/source/ti/ti154stac
    5774                            .dwattr $C$DW$326, DW_AT_decl_line(0x31c)
    5775                            .dwattr $C$DW$326, DW_AT_decl_column(0x0c)
    5776                    
    5777                            .dwattr $C$DW$T$110, DW_AT_decl_file("C:/ti/simplelink_cc13x0_sdk_1_50_00_08/source/ti/ti154st
    5778                            .dwattr $C$DW$T$110, DW_AT_decl_line(0x315)
    5779                            .dwattr $C$DW$T$110, DW_AT_decl_column(0x10)
    5780                            .dwendtag $C$DW$T$110
    5781                    
    5782                    $C$DW$T$70      .dwtag  DW_TAG_typedef
    5783                            .dwattr $C$DW$T$70, DW_AT_name("ICall_MsgHdr")
    5784                            .dwattr $C$DW$T$70, DW_AT_type(*$C$DW$T$110)
    5785                            .dwattr $C$DW$T$70, DW_AT_language(DW_LANG_C)
    5786                            .dwattr $C$DW$T$70, DW_AT_decl_file("C:/ti/simplelink_cc13x0_sdk_1_50_00_08/source/ti/ti154sta
    5787                            .dwattr $C$DW$T$70, DW_AT_decl_line(0x31d)
    5788                            .dwattr $C$DW$T$70, DW_AT_decl_column(0x03)
    5789                    
    5790                    $C$DW$T$319     .dwtag  DW_TAG_typedef
    5791                            .dwattr $C$DW$T$319, DW_AT_name("osal_msg_hdr_t")
    5792                            .dwattr $C$DW$T$319, DW_AT_type(*$C$DW$T$70)
    5793                            .dwattr $C$DW$T$319, DW_AT_language(DW_LANG_C)
    5794                            .dwattr $C$DW$T$319, DW_AT_decl_file("C:/Users/Kevin/workspace_v7/sensor_cc1310lp/Application/
    5795                            .dwattr $C$DW$T$319, DW_AT_decl_line(0x68)
    5796                            .dwattr $C$DW$T$319, DW_AT_decl_column(0x16)
    5797                    
    5798                    
    5799                    $C$DW$T$113     .dwtag  DW_TAG_structure_type
    5800                            .dwattr $C$DW$T$113, DW_AT_name("_icall_pwr_bitmap_args_t")
    5801                            .dwattr $C$DW$T$113, DW_AT_byte_size(0x08)
    5802                    $C$DW$327       .dwtag  DW_TAG_member
    5803                            .dwattr $C$DW$327, DW_AT_type(*$C$DW$T$83)
    5804                            .dwattr $C$DW$327, DW_AT_name("hdr")
    5805                            .dwattr $C$DW$327, DW_AT_TI_symbol_name("hdr")
    5806                            .dwattr $C$DW$327, DW_AT_data_member_location[DW_OP_plus_uconst 0x0]
    5807                            .dwattr $C$DW$327, DW_AT_accessibility(DW_ACCESS_public)
    5808                            .dwattr $C$DW$327, DW_AT_decl_file("C:/ti/simplelink_cc13x0_sdk_1_50_00_08/source/ti/ti154stac
    5809                            .dwattr $C$DW$327, DW_AT_decl_line(0x290)
    5810                            .dwattr $C$DW$327, DW_AT_decl_column(0x15)
    5811                    
    5812                    $C$DW$328       .dwtag  DW_TAG_member
    5813                            .dwattr $C$DW$328, DW_AT_type(*$C$DW$T$112)
    5814                            .dwattr $C$DW$328, DW_AT_name("bitmap")
    5815                            .dwattr $C$DW$328, DW_AT_TI_symbol_name("bitmap")
    5816                            .dwattr $C$DW$328, DW_AT_data_member_location[DW_OP_plus_uconst 0x4]
    5817                            .dwattr $C$DW$328, DW_AT_accessibility(DW_ACCESS_public)
TI ARM Assembler PC v16.9.4 Sat Nov 18 18:46:31 2017

Tools Copyright (c) 1996-2017 Texas Instruments Incorporated
C:\Users\Kevin\AppData\Local\Temp\{6C42DDD5-7C92-479C-8F05-55537E4479EC} PAGE  107

    5818                            .dwattr $C$DW$328, DW_AT_decl_file("C:/ti/simplelink_cc13x0_sdk_1_50_00_08/source/ti/ti154stac
    5819                            .dwattr $C$DW$328, DW_AT_decl_line(0x292)
    5820                            .dwattr $C$DW$328, DW_AT_decl_column(0x15)
    5821                    
    5822                            .dwattr $C$DW$T$113, DW_AT_decl_file("C:/ti/simplelink_cc13x0_sdk_1_50_00_08/source/ti/ti154st
    5823                            .dwattr $C$DW$T$113, DW_AT_decl_line(0x28d)
    5824                            .dwattr $C$DW$T$113, DW_AT_decl_column(0x10)
    5825                            .dwendtag $C$DW$T$113
    5826                    
    5827                    $C$DW$T$320     .dwtag  DW_TAG_typedef
    5828                            .dwattr $C$DW$T$320, DW_AT_name("ICall_PwrBitmapArgs")
    5829                            .dwattr $C$DW$T$320, DW_AT_type(*$C$DW$T$113)
    5830                            .dwattr $C$DW$T$320, DW_AT_language(DW_LANG_C)
    5831                            .dwattr $C$DW$T$320, DW_AT_decl_file("C:/ti/simplelink_cc13x0_sdk_1_50_00_08/source/ti/ti154st
    5832                            .dwattr $C$DW$T$320, DW_AT_decl_line(0x293)
    5833                            .dwattr $C$DW$T$320, DW_AT_decl_column(0x03)
    5834                    
    5835                    
    5836                    $C$DW$T$115     .dwtag  DW_TAG_structure_type
    5837                            .dwattr $C$DW$T$115, DW_AT_name("_icall_pwr_get_transition_state_args_t")
    5838                            .dwattr $C$DW$T$115, DW_AT_byte_size(0x08)
    5839                    $C$DW$329       .dwtag  DW_TAG_member
    5840                            .dwattr $C$DW$329, DW_AT_type(*$C$DW$T$83)
    5841                            .dwattr $C$DW$329, DW_AT_name("hdr")
    5842                            .dwattr $C$DW$329, DW_AT_TI_symbol_name("hdr")
    5843                            .dwattr $C$DW$329, DW_AT_data_member_location[DW_OP_plus_uconst 0x0]
    5844                            .dwattr $C$DW$329, DW_AT_accessibility(DW_ACCESS_public)
    5845                            .dwattr $C$DW$329, DW_AT_decl_file("C:/ti/simplelink_cc13x0_sdk_1_50_00_08/source/ti/ti154stac
    5846                            .dwattr $C$DW$329, DW_AT_decl_line(0x29b)
    5847                            .dwattr $C$DW$329, DW_AT_decl_column(0x15)
    5848                    
    5849                    $C$DW$330       .dwtag  DW_TAG_member
    5850                            .dwattr $C$DW$330, DW_AT_type(*$C$DW$T$114)
    5851                            .dwattr $C$DW$330, DW_AT_name("state")
    5852                            .dwattr $C$DW$330, DW_AT_TI_symbol_name("state")
    5853                            .dwattr $C$DW$330, DW_AT_data_member_location[DW_OP_plus_uconst 0x4]
    5854                            .dwattr $C$DW$330, DW_AT_accessibility(DW_ACCESS_public)
    5855                            .dwattr $C$DW$330, DW_AT_decl_file("C:/ti/simplelink_cc13x0_sdk_1_50_00_08/source/ti/ti154stac
    5856                            .dwattr $C$DW$330, DW_AT_decl_line(0x29d)
    5857                            .dwattr $C$DW$330, DW_AT_decl_column(0x10)
    5858                    
    5859                            .dwattr $C$DW$T$115, DW_AT_decl_file("C:/ti/simplelink_cc13x0_sdk_1_50_00_08/source/ti/ti154st
    5860                            .dwattr $C$DW$T$115, DW_AT_decl_line(0x298)
    5861                            .dwattr $C$DW$T$115, DW_AT_decl_column(0x10)
    5862                            .dwendtag $C$DW$T$115
    5863                    
    5864                    $C$DW$T$321     .dwtag  DW_TAG_typedef
    5865                            .dwattr $C$DW$T$321, DW_AT_name("ICall_PwrGetTransitionStateArgs")
    5866                            .dwattr $C$DW$T$321, DW_AT_type(*$C$DW$T$115)
    5867                            .dwattr $C$DW$T$321, DW_AT_language(DW_LANG_C)
    5868                            .dwattr $C$DW$T$321, DW_AT_decl_file("C:/ti/simplelink_cc13x0_sdk_1_50_00_08/source/ti/ti154st
    5869                            .dwattr $C$DW$T$321, DW_AT_decl_line(0x29e)
    5870                            .dwattr $C$DW$T$321, DW_AT_decl_column(0x03)
    5871                    
    5872                    
TI ARM Assembler PC v16.9.4 Sat Nov 18 18:46:31 2017

Tools Copyright (c) 1996-2017 Texas Instruments Incorporated
C:\Users\Kevin\AppData\Local\Temp\{6C42DDD5-7C92-479C-8F05-55537E4479EC} PAGE  108

    5873                    $C$DW$T$116     .dwtag  DW_TAG_structure_type
    5874                            .dwattr $C$DW$T$116, DW_AT_name("_icall_pwr_get_xosc_startup_time_args_t")
    5875                            .dwattr $C$DW$T$116, DW_AT_byte_size(0x0c)
    5876                    $C$DW$331       .dwtag  DW_TAG_member
    5877                            .dwattr $C$DW$331, DW_AT_type(*$C$DW$T$83)
    5878                            .dwattr $C$DW$331, DW_AT_name("hdr")
    5879                            .dwattr $C$DW$331, DW_AT_TI_symbol_name("hdr")
    5880                            .dwattr $C$DW$331, DW_AT_data_member_location[DW_OP_plus_uconst 0x0]
    5881                            .dwattr $C$DW$331, DW_AT_accessibility(DW_ACCESS_public)
    5882                            .dwattr $C$DW$331, DW_AT_decl_file("C:/ti/simplelink_cc13x0_sdk_1_50_00_08/source/ti/ti154stac
    5883                            .dwattr $C$DW$331, DW_AT_decl_line(0x2a6)
    5884                            .dwattr $C$DW$331, DW_AT_decl_column(0x15)
    5885                    
    5886                    $C$DW$332       .dwtag  DW_TAG_member
    5887                            .dwattr $C$DW$332, DW_AT_type(*$C$DW$T$66)
    5888                            .dwattr $C$DW$332, DW_AT_name("timeUntilWakeupInMs")
    5889                            .dwattr $C$DW$332, DW_AT_TI_symbol_name("timeUntilWakeupInMs")
    5890                            .dwattr $C$DW$332, DW_AT_data_member_location[DW_OP_plus_uconst 0x4]
    5891                            .dwattr $C$DW$332, DW_AT_accessibility(DW_ACCESS_public)
    5892                            .dwattr $C$DW$332, DW_AT_decl_file("C:/ti/simplelink_cc13x0_sdk_1_50_00_08/source/ti/ti154stac
    5893                            .dwattr $C$DW$332, DW_AT_decl_line(0x2a8)
    5894                            .dwattr $C$DW$332, DW_AT_decl_column(0x12)
    5895                    
    5896                    $C$DW$333       .dwtag  DW_TAG_member
    5897                            .dwattr $C$DW$333, DW_AT_type(*$C$DW$T$66)
    5898                            .dwattr $C$DW$333, DW_AT_name("value")
    5899                            .dwattr $C$DW$333, DW_AT_TI_symbol_name("value")
    5900                            .dwattr $C$DW$333, DW_AT_data_member_location[DW_OP_plus_uconst 0x8]
    5901                            .dwattr $C$DW$333, DW_AT_accessibility(DW_ACCESS_public)
    5902                            .dwattr $C$DW$333, DW_AT_decl_file("C:/ti/simplelink_cc13x0_sdk_1_50_00_08/source/ti/ti154stac
    5903                            .dwattr $C$DW$333, DW_AT_decl_line(0x2aa)
    5904                            .dwattr $C$DW$333, DW_AT_decl_column(0x12)
    5905                    
    5906                            .dwattr $C$DW$T$116, DW_AT_decl_file("C:/ti/simplelink_cc13x0_sdk_1_50_00_08/source/ti/ti154st
    5907                            .dwattr $C$DW$T$116, DW_AT_decl_line(0x2a3)
    5908                            .dwattr $C$DW$T$116, DW_AT_decl_column(0x10)
    5909                            .dwendtag $C$DW$T$116
    5910                    
    5911                    $C$DW$T$322     .dwtag  DW_TAG_typedef
    5912                            .dwattr $C$DW$T$322, DW_AT_name("ICall_PwrGetXOSCStartupTimeArgs")
    5913                            .dwattr $C$DW$T$322, DW_AT_type(*$C$DW$T$116)
    5914                            .dwattr $C$DW$T$322, DW_AT_language(DW_LANG_C)
    5915                            .dwattr $C$DW$T$322, DW_AT_decl_file("C:/ti/simplelink_cc13x0_sdk_1_50_00_08/source/ti/ti154st
    5916                            .dwattr $C$DW$T$322, DW_AT_decl_line(0x2ab)
    5917                            .dwattr $C$DW$T$322, DW_AT_decl_column(0x03)
    5918                    
    5919                    
    5920                    $C$DW$T$122     .dwtag  DW_TAG_structure_type
    5921                            .dwattr $C$DW$T$122, DW_AT_name("_icall_pwr_notify_data_t")
    5922                            .dwattr $C$DW$T$122, DW_AT_byte_size(0x04)
    5923                    $C$DW$334       .dwtag  DW_TAG_member
    5924                            .dwattr $C$DW$334, DW_AT_type(*$C$DW$T$121)
    5925                            .dwattr $C$DW$334, DW_AT_name("_private")
    5926                            .dwattr $C$DW$334, DW_AT_TI_symbol_name("_private")
    5927                            .dwattr $C$DW$334, DW_AT_data_member_location[DW_OP_plus_uconst 0x0]
TI ARM Assembler PC v16.9.4 Sat Nov 18 18:46:31 2017

Tools Copyright (c) 1996-2017 Texas Instruments Incorporated
C:\Users\Kevin\AppData\Local\Temp\{6C42DDD5-7C92-479C-8F05-55537E4479EC} PAGE  109

    5928                            .dwattr $C$DW$334, DW_AT_accessibility(DW_ACCESS_public)
    5929                            .dwattr $C$DW$334, DW_AT_decl_file("C:/ti/simplelink_cc13x0_sdk_1_50_00_08/source/ti/ti154stac
    5930                            .dwattr $C$DW$334, DW_AT_decl_line(0x33f)
    5931                            .dwattr $C$DW$334, DW_AT_decl_column(0x15)
    5932                    
    5933                            .dwattr $C$DW$T$122, DW_AT_decl_file("C:/ti/simplelink_cc13x0_sdk_1_50_00_08/source/ti/ti154st
    5934                            .dwattr $C$DW$T$122, DW_AT_decl_line(0x339)
    5935                            .dwattr $C$DW$T$122, DW_AT_decl_column(0x10)
    5936                            .dwendtag $C$DW$T$122
    5937                    
    5938                    $C$DW$T$123     .dwtag  DW_TAG_typedef
    5939                            .dwattr $C$DW$T$123, DW_AT_name("ICall_PwrNotifyData")
    5940                            .dwattr $C$DW$T$123, DW_AT_type(*$C$DW$T$122)
    5941                            .dwattr $C$DW$T$123, DW_AT_language(DW_LANG_C)
    5942                            .dwattr $C$DW$T$123, DW_AT_decl_file("C:/ti/simplelink_cc13x0_sdk_1_50_00_08/source/ti/ti154st
    5943                            .dwattr $C$DW$T$123, DW_AT_decl_line(0x340)
    5944                            .dwattr $C$DW$T$123, DW_AT_decl_column(0x03)
    5945                    
    5946                    $C$DW$T$124     .dwtag  DW_TAG_pointer_type
    5947                            .dwattr $C$DW$T$124, DW_AT_type(*$C$DW$T$123)
    5948                            .dwattr $C$DW$T$124, DW_AT_address_class(0x20)
    5949                    
    5950                    $C$DW$T$118     .dwtag  DW_TAG_pointer_type
    5951                            .dwattr $C$DW$T$118, DW_AT_type(*$C$DW$T$122)
    5952                            .dwattr $C$DW$T$118, DW_AT_address_class(0x20)
    5953                    
    5954                    
    5955                    $C$DW$T$125     .dwtag  DW_TAG_structure_type
    5956                            .dwattr $C$DW$T$125, DW_AT_name("_icall_pwr_register_notify_args_t")
    5957                            .dwattr $C$DW$T$125, DW_AT_byte_size(0x0c)
    5958                    $C$DW$335       .dwtag  DW_TAG_member
    5959                            .dwattr $C$DW$335, DW_AT_type(*$C$DW$T$83)
    5960                            .dwattr $C$DW$335, DW_AT_name("hdr")
    5961                            .dwattr $C$DW$335, DW_AT_TI_symbol_name("hdr")
    5962                            .dwattr $C$DW$335, DW_AT_data_member_location[DW_OP_plus_uconst 0x0]
    5963                            .dwattr $C$DW$335, DW_AT_accessibility(DW_ACCESS_public)
    5964                            .dwattr $C$DW$335, DW_AT_decl_file("C:/ti/simplelink_cc13x0_sdk_1_50_00_08/source/ti/ti154stac
    5965                            .dwattr $C$DW$335, DW_AT_decl_line(0x346)
    5966                            .dwattr $C$DW$335, DW_AT_decl_column(0x15)
    5967                    
    5968                    $C$DW$336       .dwtag  DW_TAG_member
    5969                            .dwattr $C$DW$336, DW_AT_type(*$C$DW$T$121)
    5970                            .dwattr $C$DW$336, DW_AT_name("fn")
    5971                            .dwattr $C$DW$336, DW_AT_TI_symbol_name("fn")
    5972                            .dwattr $C$DW$336, DW_AT_data_member_location[DW_OP_plus_uconst 0x4]
    5973                            .dwattr $C$DW$336, DW_AT_accessibility(DW_ACCESS_public)
    5974                            .dwattr $C$DW$336, DW_AT_decl_file("C:/ti/simplelink_cc13x0_sdk_1_50_00_08/source/ti/ti154stac
    5975                            .dwattr $C$DW$336, DW_AT_decl_line(0x348)
    5976                            .dwattr $C$DW$336, DW_AT_decl_column(0x15)
    5977                    
    5978                    $C$DW$337       .dwtag  DW_TAG_member
    5979                            .dwattr $C$DW$337, DW_AT_type(*$C$DW$T$124)
    5980                            .dwattr $C$DW$337, DW_AT_name("obj")
    5981                            .dwattr $C$DW$337, DW_AT_TI_symbol_name("obj")
    5982                            .dwattr $C$DW$337, DW_AT_data_member_location[DW_OP_plus_uconst 0x8]
TI ARM Assembler PC v16.9.4 Sat Nov 18 18:46:31 2017

Tools Copyright (c) 1996-2017 Texas Instruments Incorporated
C:\Users\Kevin\AppData\Local\Temp\{6C42DDD5-7C92-479C-8F05-55537E4479EC} PAGE  110

    5983                            .dwattr $C$DW$337, DW_AT_accessibility(DW_ACCESS_public)
    5984                            .dwattr $C$DW$337, DW_AT_decl_file("C:/ti/simplelink_cc13x0_sdk_1_50_00_08/source/ti/ti154stac
    5985                            .dwattr $C$DW$337, DW_AT_decl_line(0x34a)
    5986                            .dwattr $C$DW$337, DW_AT_decl_column(0x18)
    5987                    
    5988                            .dwattr $C$DW$T$125, DW_AT_decl_file("C:/ti/simplelink_cc13x0_sdk_1_50_00_08/source/ti/ti154st
    5989                            .dwattr $C$DW$T$125, DW_AT_decl_line(0x343)
    5990                            .dwattr $C$DW$T$125, DW_AT_decl_column(0x10)
    5991                            .dwendtag $C$DW$T$125
    5992                    
    5993                    $C$DW$T$323     .dwtag  DW_TAG_typedef
    5994                            .dwattr $C$DW$T$323, DW_AT_name("ICall_PwrRegisterNotifyArgs")
    5995                            .dwattr $C$DW$T$323, DW_AT_type(*$C$DW$T$125)
    5996                            .dwattr $C$DW$T$323, DW_AT_language(DW_LANG_C)
    5997                            .dwattr $C$DW$T$323, DW_AT_decl_file("C:/ti/simplelink_cc13x0_sdk_1_50_00_08/source/ti/ti154st
    5998                            .dwattr $C$DW$T$323, DW_AT_decl_line(0x34b)
    5999                            .dwattr $C$DW$T$323, DW_AT_decl_column(0x03)
    6000                    
    6001                    
    6002                    $C$DW$T$126     .dwtag  DW_TAG_structure_type
    6003                            .dwattr $C$DW$T$126, DW_AT_name("_icall_pwr_upd_activity_counter_args_t")
    6004                            .dwattr $C$DW$T$126, DW_AT_byte_size(0x06)
    6005                    $C$DW$338       .dwtag  DW_TAG_member
    6006                            .dwattr $C$DW$338, DW_AT_type(*$C$DW$T$83)
    6007                            .dwattr $C$DW$338, DW_AT_name("hdr")
    6008                            .dwattr $C$DW$338, DW_AT_TI_symbol_name("hdr")
    6009                            .dwattr $C$DW$338, DW_AT_data_member_location[DW_OP_plus_uconst 0x0]
    6010                            .dwattr $C$DW$338, DW_AT_accessibility(DW_ACCESS_public)
    6011                            .dwattr $C$DW$338, DW_AT_decl_file("C:/ti/simplelink_cc13x0_sdk_1_50_00_08/source/ti/ti154stac
    6012                            .dwattr $C$DW$338, DW_AT_decl_line(0x27d)
    6013                            .dwattr $C$DW$338, DW_AT_decl_column(0x15)
    6014                    
    6015                    $C$DW$339       .dwtag  DW_TAG_member
    6016                            .dwattr $C$DW$339, DW_AT_type(*$C$DW$T$105)
    6017                            .dwattr $C$DW$339, DW_AT_name("incFlag")
    6018                            .dwattr $C$DW$339, DW_AT_TI_symbol_name("incFlag")
    6019                            .dwattr $C$DW$339, DW_AT_data_member_location[DW_OP_plus_uconst 0x4]
    6020                            .dwattr $C$DW$339, DW_AT_accessibility(DW_ACCESS_public)
    6021                            .dwattr $C$DW$339, DW_AT_decl_file("C:/ti/simplelink_cc13x0_sdk_1_50_00_08/source/ti/ti154stac
    6022                            .dwattr $C$DW$339, DW_AT_decl_line(0x27f)
    6023                            .dwattr $C$DW$339, DW_AT_decl_column(0x08)
    6024                    
    6025                    $C$DW$340       .dwtag  DW_TAG_member
    6026                            .dwattr $C$DW$340, DW_AT_type(*$C$DW$T$105)
    6027                            .dwattr $C$DW$340, DW_AT_name("pwrRequired")
    6028                            .dwattr $C$DW$340, DW_AT_TI_symbol_name("pwrRequired")
    6029                            .dwattr $C$DW$340, DW_AT_data_member_location[DW_OP_plus_uconst 0x5]
    6030                            .dwattr $C$DW$340, DW_AT_accessibility(DW_ACCESS_public)
    6031                            .dwattr $C$DW$340, DW_AT_decl_file("C:/ti/simplelink_cc13x0_sdk_1_50_00_08/source/ti/ti154stac
    6032                            .dwattr $C$DW$340, DW_AT_decl_line(0x281)
    6033                            .dwattr $C$DW$340, DW_AT_decl_column(0x08)
    6034                    
    6035                            .dwattr $C$DW$T$126, DW_AT_decl_file("C:/ti/simplelink_cc13x0_sdk_1_50_00_08/source/ti/ti154st
    6036                            .dwattr $C$DW$T$126, DW_AT_decl_line(0x27a)
    6037                            .dwattr $C$DW$T$126, DW_AT_decl_column(0x10)
TI ARM Assembler PC v16.9.4 Sat Nov 18 18:46:31 2017

Tools Copyright (c) 1996-2017 Texas Instruments Incorporated
C:\Users\Kevin\AppData\Local\Temp\{6C42DDD5-7C92-479C-8F05-55537E4479EC} PAGE  111

    6038                            .dwendtag $C$DW$T$126
    6039                    
    6040                    $C$DW$T$324     .dwtag  DW_TAG_typedef
    6041                            .dwattr $C$DW$T$324, DW_AT_name("ICall_PwrUpdActivityCounterArgs")
    6042                            .dwattr $C$DW$T$324, DW_AT_type(*$C$DW$T$126)
    6043                            .dwattr $C$DW$T$324, DW_AT_language(DW_LANG_C)
    6044                            .dwattr $C$DW$T$324, DW_AT_decl_file("C:/ti/simplelink_cc13x0_sdk_1_50_00_08/source/ti/ti154st
    6045                            .dwattr $C$DW$T$324, DW_AT_decl_line(0x282)
    6046                            .dwattr $C$DW$T$324, DW_AT_decl_column(0x03)
    6047                    
    6048                    
    6049                    $C$DW$T$127     .dwtag  DW_TAG_structure_type
    6050                            .dwattr $C$DW$T$127, DW_AT_name("_icall_register_app_args_t")
    6051                            .dwattr $C$DW$T$127, DW_AT_byte_size(0x0c)
    6052                    $C$DW$341       .dwtag  DW_TAG_member
    6053                            .dwattr $C$DW$341, DW_AT_type(*$C$DW$T$83)
    6054                            .dwattr $C$DW$341, DW_AT_name("hdr")
    6055                            .dwattr $C$DW$341, DW_AT_TI_symbol_name("hdr")
    6056                            .dwattr $C$DW$341, DW_AT_data_member_location[DW_OP_plus_uconst 0x0]
    6057                            .dwattr $C$DW$341, DW_AT_accessibility(DW_ACCESS_public)
    6058                            .dwattr $C$DW$341, DW_AT_decl_file("C:/ti/simplelink_cc13x0_sdk_1_50_00_08/source/ti/ti154stac
    6059                            .dwattr $C$DW$341, DW_AT_decl_line(0x1d7)
    6060                            .dwattr $C$DW$341, DW_AT_decl_column(0x15)
    6061                    
    6062                    $C$DW$342       .dwtag  DW_TAG_member
    6063                            .dwattr $C$DW$342, DW_AT_type(*$C$DW$T$76)
    6064                            .dwattr $C$DW$342, DW_AT_name("entity")
    6065                            .dwattr $C$DW$342, DW_AT_TI_symbol_name("entity")
    6066                            .dwattr $C$DW$342, DW_AT_data_member_location[DW_OP_plus_uconst 0x4]
    6067                            .dwattr $C$DW$342, DW_AT_accessibility(DW_ACCESS_public)
    6068                            .dwattr $C$DW$342, DW_AT_decl_file("C:/ti/simplelink_cc13x0_sdk_1_50_00_08/source/ti/ti154stac
    6069                            .dwattr $C$DW$342, DW_AT_decl_line(0x1d9)
    6070                            .dwattr $C$DW$342, DW_AT_decl_column(0x15)
    6071                    
    6072                    $C$DW$343       .dwtag  DW_TAG_member
    6073                            .dwattr $C$DW$343, DW_AT_type(*$C$DW$T$96)
    6074                            .dwattr $C$DW$343, DW_AT_name("msgSyncHdl")
    6075                            .dwattr $C$DW$343, DW_AT_TI_symbol_name("msgSyncHdl")
    6076                            .dwattr $C$DW$343, DW_AT_data_member_location[DW_OP_plus_uconst 0x8]
    6077                            .dwattr $C$DW$343, DW_AT_accessibility(DW_ACCESS_public)
    6078                            .dwattr $C$DW$343, DW_AT_decl_file("C:/ti/simplelink_cc13x0_sdk_1_50_00_08/source/ti/ti154stac
    6079                            .dwattr $C$DW$343, DW_AT_decl_line(0x1dc)
    6080                            .dwattr $C$DW$343, DW_AT_decl_column(0x16)
    6081                    
    6082                            .dwattr $C$DW$T$127, DW_AT_decl_file("C:/ti/simplelink_cc13x0_sdk_1_50_00_08/source/ti/ti154st
    6083                            .dwattr $C$DW$T$127, DW_AT_decl_line(0x1d4)
    6084                            .dwattr $C$DW$T$127, DW_AT_decl_column(0x10)
    6085                            .dwendtag $C$DW$T$127
    6086                    
    6087                    $C$DW$T$325     .dwtag  DW_TAG_typedef
    6088                            .dwattr $C$DW$T$325, DW_AT_name("ICall_RegisterAppArgs")
    6089                            .dwattr $C$DW$T$325, DW_AT_type(*$C$DW$T$127)
    6090                            .dwattr $C$DW$T$325, DW_AT_language(DW_LANG_C)
    6091                            .dwattr $C$DW$T$325, DW_AT_decl_file("C:/ti/simplelink_cc13x0_sdk_1_50_00_08/source/ti/ti154st
    6092                            .dwattr $C$DW$T$325, DW_AT_decl_line(0x1dd)
TI ARM Assembler PC v16.9.4 Sat Nov 18 18:46:31 2017

Tools Copyright (c) 1996-2017 Texas Instruments Incorporated
C:\Users\Kevin\AppData\Local\Temp\{6C42DDD5-7C92-479C-8F05-55537E4479EC} PAGE  112

    6093                            .dwattr $C$DW$T$325, DW_AT_decl_column(0x03)
    6094                    
    6095                    
    6096                    $C$DW$T$128     .dwtag  DW_TAG_structure_type
    6097                            .dwattr $C$DW$T$128, DW_AT_name("_icall_register_isr_args_ext_t")
    6098                            .dwattr $C$DW$T$128, DW_AT_byte_size(0x10)
    6099                    $C$DW$344       .dwtag  DW_TAG_member
    6100                            .dwattr $C$DW$344, DW_AT_type(*$C$DW$T$83)
    6101                            .dwattr $C$DW$344, DW_AT_name("hdr")
    6102                            .dwattr $C$DW$344, DW_AT_TI_symbol_name("hdr")
    6103                            .dwattr $C$DW$344, DW_AT_data_member_location[DW_OP_plus_uconst 0x0]
    6104                            .dwattr $C$DW$344, DW_AT_accessibility(DW_ACCESS_public)
    6105                            .dwattr $C$DW$344, DW_AT_decl_file("C:/ti/simplelink_cc13x0_sdk_1_50_00_08/source/ti/ti154stac
    6106                            .dwattr $C$DW$344, DW_AT_decl_line(0x25c)
    6107                            .dwattr $C$DW$344, DW_AT_decl_column(0x15)
    6108                    
    6109                    $C$DW$345       .dwtag  DW_TAG_member
    6110                            .dwattr $C$DW$345, DW_AT_type(*$C$DW$T$108)
    6111                            .dwattr $C$DW$345, DW_AT_name("intnum")
    6112                            .dwattr $C$DW$345, DW_AT_TI_symbol_name("intnum")
    6113                            .dwattr $C$DW$345, DW_AT_data_member_location[DW_OP_plus_uconst 0x4]
    6114                            .dwattr $C$DW$345, DW_AT_accessibility(DW_ACCESS_public)
    6115                            .dwattr $C$DW$345, DW_AT_decl_file("C:/ti/simplelink_cc13x0_sdk_1_50_00_08/source/ti/ti154stac
    6116                            .dwattr $C$DW$345, DW_AT_decl_line(0x25d)
    6117                            .dwattr $C$DW$345, DW_AT_decl_column(0x15)
    6118                    
    6119                    $C$DW$346       .dwtag  DW_TAG_member
    6120                            .dwattr $C$DW$346, DW_AT_type(*$C$DW$T$37)
    6121                            .dwattr $C$DW$346, DW_AT_name("isrfunc")
    6122                            .dwattr $C$DW$346, DW_AT_TI_symbol_name("isrfunc")
    6123                            .dwattr $C$DW$346, DW_AT_data_member_location[DW_OP_plus_uconst 0x8]
    6124                            .dwattr $C$DW$346, DW_AT_accessibility(DW_ACCESS_public)
    6125                            .dwattr $C$DW$346, DW_AT_decl_file("C:/ti/simplelink_cc13x0_sdk_1_50_00_08/source/ti/ti154stac
    6126                            .dwattr $C$DW$346, DW_AT_decl_line(0x25e)
    6127                            .dwattr $C$DW$346, DW_AT_decl_column(0x17)
    6128                    
    6129                    $C$DW$347       .dwtag  DW_TAG_member
    6130                            .dwattr $C$DW$347, DW_AT_type(*$C$DW$T$10)
    6131                            .dwattr $C$DW$347, DW_AT_name("intPriority")
    6132                            .dwattr $C$DW$347, DW_AT_TI_symbol_name("intPriority")
    6133                            .dwattr $C$DW$347, DW_AT_data_member_location[DW_OP_plus_uconst 0xc]
    6134                            .dwattr $C$DW$347, DW_AT_accessibility(DW_ACCESS_public)
    6135                            .dwattr $C$DW$347, DW_AT_decl_file("C:/ti/simplelink_cc13x0_sdk_1_50_00_08/source/ti/ti154stac
    6136                            .dwattr $C$DW$347, DW_AT_decl_line(0x25f)
    6137                            .dwattr $C$DW$347, DW_AT_decl_column(0x15)
    6138                    
    6139                            .dwattr $C$DW$T$128, DW_AT_decl_file("C:/ti/simplelink_cc13x0_sdk_1_50_00_08/source/ti/ti154st
    6140                            .dwattr $C$DW$T$128, DW_AT_decl_line(0x25a)
    6141                            .dwattr $C$DW$T$128, DW_AT_decl_column(0x10)
    6142                            .dwendtag $C$DW$T$128
    6143                    
    6144                    $C$DW$T$326     .dwtag  DW_TAG_typedef
    6145                            .dwattr $C$DW$T$326, DW_AT_name("ICall_RegisterISRArgs_Ext")
    6146                            .dwattr $C$DW$T$326, DW_AT_type(*$C$DW$T$128)
    6147                            .dwattr $C$DW$T$326, DW_AT_language(DW_LANG_C)
TI ARM Assembler PC v16.9.4 Sat Nov 18 18:46:31 2017

Tools Copyright (c) 1996-2017 Texas Instruments Incorporated
C:\Users\Kevin\AppData\Local\Temp\{6C42DDD5-7C92-479C-8F05-55537E4479EC} PAGE  113

    6148                            .dwattr $C$DW$T$326, DW_AT_decl_file("C:/ti/simplelink_cc13x0_sdk_1_50_00_08/source/ti/ti154st
    6149                            .dwattr $C$DW$T$326, DW_AT_decl_line(0x260)
    6150                            .dwattr $C$DW$T$326, DW_AT_decl_column(0x03)
    6151                    
    6152                    
    6153                    $C$DW$T$129     .dwtag  DW_TAG_structure_type
    6154                            .dwattr $C$DW$T$129, DW_AT_name("_icall_register_isr_args_t")
    6155                            .dwattr $C$DW$T$129, DW_AT_byte_size(0x0c)
    6156                    $C$DW$348       .dwtag  DW_TAG_member
    6157                            .dwattr $C$DW$348, DW_AT_type(*$C$DW$T$83)
    6158                            .dwattr $C$DW$348, DW_AT_name("hdr")
    6159                            .dwattr $C$DW$348, DW_AT_TI_symbol_name("hdr")
    6160                            .dwattr $C$DW$348, DW_AT_data_member_location[DW_OP_plus_uconst 0x0]
    6161                            .dwattr $C$DW$348, DW_AT_accessibility(DW_ACCESS_public)
    6162                            .dwattr $C$DW$348, DW_AT_decl_file("C:/ti/simplelink_cc13x0_sdk_1_50_00_08/source/ti/ti154stac
    6163                            .dwattr $C$DW$348, DW_AT_decl_line(0x252)
    6164                            .dwattr $C$DW$348, DW_AT_decl_column(0x15)
    6165                    
    6166                    $C$DW$349       .dwtag  DW_TAG_member
    6167                            .dwattr $C$DW$349, DW_AT_type(*$C$DW$T$108)
    6168                            .dwattr $C$DW$349, DW_AT_name("intnum")
    6169                            .dwattr $C$DW$349, DW_AT_TI_symbol_name("intnum")
    6170                            .dwattr $C$DW$349, DW_AT_data_member_location[DW_OP_plus_uconst 0x4]
    6171                            .dwattr $C$DW$349, DW_AT_accessibility(DW_ACCESS_public)
    6172                            .dwattr $C$DW$349, DW_AT_decl_file("C:/ti/simplelink_cc13x0_sdk_1_50_00_08/source/ti/ti154stac
    6173                            .dwattr $C$DW$349, DW_AT_decl_line(0x254)
    6174                            .dwattr $C$DW$349, DW_AT_decl_column(0x11)
    6175                    
    6176                    $C$DW$350       .dwtag  DW_TAG_member
    6177                            .dwattr $C$DW$350, DW_AT_type(*$C$DW$T$37)
    6178                            .dwattr $C$DW$350, DW_AT_name("isrfunc")
    6179                            .dwattr $C$DW$350, DW_AT_TI_symbol_name("isrfunc")
    6180                            .dwattr $C$DW$350, DW_AT_data_member_location[DW_OP_plus_uconst 0x8]
    6181                            .dwattr $C$DW$350, DW_AT_accessibility(DW_ACCESS_public)
    6182                            .dwattr $C$DW$350, DW_AT_decl_file("C:/ti/simplelink_cc13x0_sdk_1_50_00_08/source/ti/ti154stac
    6183                            .dwattr $C$DW$350, DW_AT_decl_line(0x256)
    6184                            .dwattr $C$DW$350, DW_AT_decl_column(0x0a)
    6185                    
    6186                            .dwattr $C$DW$T$129, DW_AT_decl_file("C:/ti/simplelink_cc13x0_sdk_1_50_00_08/source/ti/ti154st
    6187                            .dwattr $C$DW$T$129, DW_AT_decl_line(0x24f)
    6188                            .dwattr $C$DW$T$129, DW_AT_decl_column(0x10)
    6189                            .dwendtag $C$DW$T$129
    6190                    
    6191                    $C$DW$T$327     .dwtag  DW_TAG_typedef
    6192                            .dwattr $C$DW$T$327, DW_AT_name("ICall_RegisterISRArgs")
    6193                            .dwattr $C$DW$T$327, DW_AT_type(*$C$DW$T$129)
    6194                            .dwattr $C$DW$T$327, DW_AT_language(DW_LANG_C)
    6195                            .dwattr $C$DW$T$327, DW_AT_decl_file("C:/ti/simplelink_cc13x0_sdk_1_50_00_08/source/ti/ti154st
    6196                            .dwattr $C$DW$T$327, DW_AT_decl_line(0x257)
    6197                            .dwattr $C$DW$T$327, DW_AT_decl_column(0x03)
    6198                    
    6199                    
    6200                    $C$DW$T$138     .dwtag  DW_TAG_structure_type
    6201                            .dwattr $C$DW$T$138, DW_AT_name("_icall_remote_task_arg_t")
    6202                            .dwattr $C$DW$T$138, DW_AT_byte_size(0x0c)
TI ARM Assembler PC v16.9.4 Sat Nov 18 18:46:31 2017

Tools Copyright (c) 1996-2017 Texas Instruments Incorporated
C:\Users\Kevin\AppData\Local\Temp\{6C42DDD5-7C92-479C-8F05-55537E4479EC} PAGE  114

    6203                    $C$DW$351       .dwtag  DW_TAG_member
    6204                            .dwattr $C$DW$351, DW_AT_type(*$C$DW$T$130)
    6205                            .dwattr $C$DW$351, DW_AT_name("dispatch")
    6206                            .dwattr $C$DW$351, DW_AT_TI_symbol_name("dispatch")
    6207                            .dwattr $C$DW$351, DW_AT_data_member_location[DW_OP_plus_uconst 0x0]
    6208                            .dwattr $C$DW$351, DW_AT_accessibility(DW_ACCESS_public)
    6209                            .dwattr $C$DW$351, DW_AT_decl_file("C:/ti/simplelink_cc13x0_sdk_1_50_00_08/source/ti/ti154stac
    6210                            .dwattr $C$DW$351, DW_AT_decl_line(0x38d)
    6211                            .dwattr $C$DW$351, DW_AT_decl_column(0x14)
    6212                    
    6213                    $C$DW$352       .dwtag  DW_TAG_member
    6214                            .dwattr $C$DW$352, DW_AT_type(*$C$DW$T$134)
    6215                            .dwattr $C$DW$352, DW_AT_name("entercs")
    6216                            .dwattr $C$DW$352, DW_AT_TI_symbol_name("entercs")
    6217                            .dwattr $C$DW$352, DW_AT_data_member_location[DW_OP_plus_uconst 0x4]
    6218                            .dwattr $C$DW$352, DW_AT_accessibility(DW_ACCESS_public)
    6219                            .dwattr $C$DW$352, DW_AT_decl_file("C:/ti/simplelink_cc13x0_sdk_1_50_00_08/source/ti/ti154stac
    6220                            .dwattr $C$DW$352, DW_AT_decl_line(0x38e)
    6221                            .dwattr $C$DW$352, DW_AT_decl_column(0x11)
    6222                    
    6223                    $C$DW$353       .dwtag  DW_TAG_member
    6224                            .dwattr $C$DW$353, DW_AT_type(*$C$DW$T$137)
    6225                            .dwattr $C$DW$353, DW_AT_name("leavecs")
    6226                            .dwattr $C$DW$353, DW_AT_TI_symbol_name("leavecs")
    6227                            .dwattr $C$DW$353, DW_AT_data_member_location[DW_OP_plus_uconst 0x8]
    6228                            .dwattr $C$DW$353, DW_AT_accessibility(DW_ACCESS_public)
    6229                            .dwattr $C$DW$353, DW_AT_decl_file("C:/ti/simplelink_cc13x0_sdk_1_50_00_08/source/ti/ti154stac
    6230                            .dwattr $C$DW$353, DW_AT_decl_line(0x38f)
    6231                            .dwattr $C$DW$353, DW_AT_decl_column(0x11)
    6232                    
    6233                            .dwattr $C$DW$T$138, DW_AT_decl_file("C:/ti/simplelink_cc13x0_sdk_1_50_00_08/source/ti/ti154st
    6234                            .dwattr $C$DW$T$138, DW_AT_decl_line(0x38b)
    6235                            .dwattr $C$DW$T$138, DW_AT_decl_column(0x10)
    6236                            .dwendtag $C$DW$T$138
    6237                    
    6238                    $C$DW$T$225     .dwtag  DW_TAG_typedef
    6239                            .dwattr $C$DW$T$225, DW_AT_name("ICall_RemoteTaskArg")
    6240                            .dwattr $C$DW$T$225, DW_AT_type(*$C$DW$T$138)
    6241                            .dwattr $C$DW$T$225, DW_AT_language(DW_LANG_C)
    6242                            .dwattr $C$DW$T$225, DW_AT_decl_file("C:/ti/simplelink_cc13x0_sdk_1_50_00_08/source/ti/ti154st
    6243                            .dwattr $C$DW$T$225, DW_AT_decl_line(0x390)
    6244                            .dwattr $C$DW$T$225, DW_AT_decl_column(0x03)
    6245                    
    6246                    $C$DW$T$226     .dwtag  DW_TAG_const_type
    6247                            .dwattr $C$DW$T$226, DW_AT_type(*$C$DW$T$225)
    6248                    
    6249                    $C$DW$T$227     .dwtag  DW_TAG_pointer_type
    6250                            .dwattr $C$DW$T$227, DW_AT_type(*$C$DW$T$226)
    6251                            .dwattr $C$DW$T$227, DW_AT_address_class(0x20)
    6252                    
    6253                    
    6254                    $C$DW$T$140     .dwtag  DW_TAG_structure_type
    6255                            .dwattr $C$DW$T$140, DW_AT_name("_icall_send_args_t")
    6256                            .dwattr $C$DW$T$140, DW_AT_byte_size(0x10)
    6257                    $C$DW$354       .dwtag  DW_TAG_member
TI ARM Assembler PC v16.9.4 Sat Nov 18 18:46:31 2017

Tools Copyright (c) 1996-2017 Texas Instruments Incorporated
C:\Users\Kevin\AppData\Local\Temp\{6C42DDD5-7C92-479C-8F05-55537E4479EC} PAGE  115

    6258                            .dwattr $C$DW$354, DW_AT_type(*$C$DW$T$83)
    6259                            .dwattr $C$DW$354, DW_AT_name("hdr")
    6260                            .dwattr $C$DW$354, DW_AT_TI_symbol_name("hdr")
    6261                            .dwattr $C$DW$354, DW_AT_data_member_location[DW_OP_plus_uconst 0x0]
    6262                            .dwattr $C$DW$354, DW_AT_accessibility(DW_ACCESS_public)
    6263                            .dwattr $C$DW$354, DW_AT_decl_file("C:/ti/simplelink_cc13x0_sdk_1_50_00_08/source/ti/ti154stac
    6264                            .dwattr $C$DW$354, DW_AT_decl_line(0x1f7)
    6265                            .dwattr $C$DW$354, DW_AT_decl_column(0x15)
    6266                    
    6267                    $C$DW$355       .dwtag  DW_TAG_member
    6268                            .dwattr $C$DW$355, DW_AT_type(*$C$DW$T$76)
    6269                            .dwattr $C$DW$355, DW_AT_name("src")
    6270                            .dwattr $C$DW$355, DW_AT_TI_symbol_name("src")
    6271                            .dwattr $C$DW$355, DW_AT_data_member_location[DW_OP_plus_uconst 0x4]
    6272                            .dwattr $C$DW$355, DW_AT_accessibility(DW_ACCESS_public)
    6273                            .dwattr $C$DW$355, DW_AT_decl_file("C:/ti/simplelink_cc13x0_sdk_1_50_00_08/source/ti/ti154stac
    6274                            .dwattr $C$DW$355, DW_AT_decl_line(0x1f9)
    6275                            .dwattr $C$DW$355, DW_AT_decl_column(0x12)
    6276                    
    6277                    $C$DW$356       .dwtag  DW_TAG_member
    6278                            .dwattr $C$DW$356, DW_AT_type(*$C$DW$T$79)
    6279                            .dwattr $C$DW$356, DW_AT_name("dest")
    6280                            .dwattr $C$DW$356, DW_AT_TI_symbol_name("dest")
    6281                            .dwattr $C$DW$356, DW_AT_data_member_location[DW_OP_plus_uconst 0x6]
    6282                            .dwattr $C$DW$356, DW_AT_accessibility(DW_ACCESS_public)
    6283                            .dwattr $C$DW$356, DW_AT_decl_file("C:/ti/simplelink_cc13x0_sdk_1_50_00_08/source/ti/ti154stac
    6284                            .dwattr $C$DW$356, DW_AT_decl_line(0x201)
    6285                            .dwattr $C$DW$356, DW_AT_decl_column(0x05)
    6286                    
    6287                    $C$DW$357       .dwtag  DW_TAG_member
    6288                            .dwattr $C$DW$357, DW_AT_type(*$C$DW$T$139)
    6289                            .dwattr $C$DW$357, DW_AT_name("format")
    6290                            .dwattr $C$DW$357, DW_AT_TI_symbol_name("format")
    6291                            .dwattr $C$DW$357, DW_AT_data_member_location[DW_OP_plus_uconst 0x8]
    6292                            .dwattr $C$DW$357, DW_AT_accessibility(DW_ACCESS_public)
    6293                            .dwattr $C$DW$357, DW_AT_decl_file("C:/ti/simplelink_cc13x0_sdk_1_50_00_08/source/ti/ti154stac
    6294                            .dwattr $C$DW$357, DW_AT_decl_line(0x203)
    6295                            .dwattr $C$DW$357, DW_AT_decl_column(0x13)
    6296                    
    6297                    $C$DW$358       .dwtag  DW_TAG_member
    6298                            .dwattr $C$DW$358, DW_AT_type(*$C$DW$T$3)
    6299                            .dwattr $C$DW$358, DW_AT_name("msg")
    6300                            .dwattr $C$DW$358, DW_AT_TI_symbol_name("msg")
    6301                            .dwattr $C$DW$358, DW_AT_data_member_location[DW_OP_plus_uconst 0xc]
    6302                            .dwattr $C$DW$358, DW_AT_accessibility(DW_ACCESS_public)
    6303                            .dwattr $C$DW$358, DW_AT_decl_file("C:/ti/simplelink_cc13x0_sdk_1_50_00_08/source/ti/ti154stac
    6304                            .dwattr $C$DW$358, DW_AT_decl_line(0x205)
    6305                            .dwattr $C$DW$358, DW_AT_decl_column(0x09)
    6306                    
    6307                            .dwattr $C$DW$T$140, DW_AT_decl_file("C:/ti/simplelink_cc13x0_sdk_1_50_00_08/source/ti/ti154st
    6308                            .dwattr $C$DW$T$140, DW_AT_decl_line(0x1f4)
    6309                            .dwattr $C$DW$T$140, DW_AT_decl_column(0x10)
    6310                            .dwendtag $C$DW$T$140
    6311                    
    6312                    $C$DW$T$328     .dwtag  DW_TAG_typedef
TI ARM Assembler PC v16.9.4 Sat Nov 18 18:46:31 2017

Tools Copyright (c) 1996-2017 Texas Instruments Incorporated
C:\Users\Kevin\AppData\Local\Temp\{6C42DDD5-7C92-479C-8F05-55537E4479EC} PAGE  116

    6313                            .dwattr $C$DW$T$328, DW_AT_name("ICall_SendArgs")
    6314                            .dwattr $C$DW$T$328, DW_AT_type(*$C$DW$T$140)
    6315                            .dwattr $C$DW$T$328, DW_AT_language(DW_LANG_C)
    6316                            .dwattr $C$DW$T$328, DW_AT_decl_file("C:/ti/simplelink_cc13x0_sdk_1_50_00_08/source/ti/ti154st
    6317                            .dwattr $C$DW$T$328, DW_AT_decl_line(0x206)
    6318                            .dwattr $C$DW$T$328, DW_AT_decl_column(0x03)
    6319                    
    6320                    
    6321                    $C$DW$T$145     .dwtag  DW_TAG_structure_type
    6322                            .dwattr $C$DW$T$145, DW_AT_name("_icall_set_timer_args_t")
    6323                            .dwattr $C$DW$T$145, DW_AT_byte_size(0x14)
    6324                    $C$DW$359       .dwtag  DW_TAG_member
    6325                            .dwattr $C$DW$359, DW_AT_type(*$C$DW$T$83)
    6326                            .dwattr $C$DW$359, DW_AT_name("hdr")
    6327                            .dwattr $C$DW$359, DW_AT_TI_symbol_name("hdr")
    6328                            .dwattr $C$DW$359, DW_AT_data_member_location[DW_OP_plus_uconst 0x0]
    6329                            .dwattr $C$DW$359, DW_AT_accessibility(DW_ACCESS_public)
    6330                            .dwattr $C$DW$359, DW_AT_decl_file("C:/ti/simplelink_cc13x0_sdk_1_50_00_08/source/ti/ti154stac
    6331                            .dwattr $C$DW$359, DW_AT_decl_line(0x3b9)
    6332                            .dwattr $C$DW$359, DW_AT_decl_column(0x15)
    6333                    
    6334                    $C$DW$360       .dwtag  DW_TAG_member
    6335                            .dwattr $C$DW$360, DW_AT_type(*$C$DW$T$66)
    6336                            .dwattr $C$DW$360, DW_AT_name("timeout")
    6337                            .dwattr $C$DW$360, DW_AT_TI_symbol_name("timeout")
    6338                            .dwattr $C$DW$360, DW_AT_data_member_location[DW_OP_plus_uconst 0x4]
    6339                            .dwattr $C$DW$360, DW_AT_accessibility(DW_ACCESS_public)
    6340                            .dwattr $C$DW$360, DW_AT_decl_file("C:/ti/simplelink_cc13x0_sdk_1_50_00_08/source/ti/ti154stac
    6341                            .dwattr $C$DW$360, DW_AT_decl_line(0x3bb)
    6342                            .dwattr $C$DW$360, DW_AT_decl_column(0x12)
    6343                    
    6344                    $C$DW$361       .dwtag  DW_TAG_member
    6345                            .dwattr $C$DW$361, DW_AT_type(*$C$DW$T$141)
    6346                            .dwattr $C$DW$361, DW_AT_name("timerid")
    6347                            .dwattr $C$DW$361, DW_AT_TI_symbol_name("timerid")
    6348                            .dwattr $C$DW$361, DW_AT_data_member_location[DW_OP_plus_uconst 0x8]
    6349                            .dwattr $C$DW$361, DW_AT_accessibility(DW_ACCESS_public)
    6350                            .dwattr $C$DW$361, DW_AT_decl_file("C:/ti/simplelink_cc13x0_sdk_1_50_00_08/source/ti/ti154stac
    6351                            .dwattr $C$DW$361, DW_AT_decl_line(0x3bd)
    6352                            .dwattr $C$DW$361, DW_AT_decl_column(0x11)
    6353                    
    6354                    $C$DW$362       .dwtag  DW_TAG_member
    6355                            .dwattr $C$DW$362, DW_AT_type(*$C$DW$T$144)
    6356                            .dwattr $C$DW$362, DW_AT_name("cback")
    6357                            .dwattr $C$DW$362, DW_AT_TI_symbol_name("cback")
    6358                            .dwattr $C$DW$362, DW_AT_data_member_location[DW_OP_plus_uconst 0xc]
    6359                            .dwattr $C$DW$362, DW_AT_accessibility(DW_ACCESS_public)
    6360                            .dwattr $C$DW$362, DW_AT_decl_file("C:/ti/simplelink_cc13x0_sdk_1_50_00_08/source/ti/ti154stac
    6361                            .dwattr $C$DW$362, DW_AT_decl_line(0x3bf)
    6362                            .dwattr $C$DW$362, DW_AT_decl_column(0x14)
    6363                    
    6364                    $C$DW$363       .dwtag  DW_TAG_member
    6365                            .dwattr $C$DW$363, DW_AT_type(*$C$DW$T$3)
    6366                            .dwattr $C$DW$363, DW_AT_name("arg")
    6367                            .dwattr $C$DW$363, DW_AT_TI_symbol_name("arg")
TI ARM Assembler PC v16.9.4 Sat Nov 18 18:46:31 2017

Tools Copyright (c) 1996-2017 Texas Instruments Incorporated
C:\Users\Kevin\AppData\Local\Temp\{6C42DDD5-7C92-479C-8F05-55537E4479EC} PAGE  117

    6368                            .dwattr $C$DW$363, DW_AT_data_member_location[DW_OP_plus_uconst 0x10]
    6369                            .dwattr $C$DW$363, DW_AT_accessibility(DW_ACCESS_public)
    6370                            .dwattr $C$DW$363, DW_AT_decl_file("C:/ti/simplelink_cc13x0_sdk_1_50_00_08/source/ti/ti154stac
    6371                            .dwattr $C$DW$363, DW_AT_decl_line(0x3c1)
    6372                            .dwattr $C$DW$363, DW_AT_decl_column(0x09)
    6373                    
    6374                            .dwattr $C$DW$T$145, DW_AT_decl_file("C:/ti/simplelink_cc13x0_sdk_1_50_00_08/source/ti/ti154st
    6375                            .dwattr $C$DW$T$145, DW_AT_decl_line(0x3b6)
    6376                            .dwattr $C$DW$T$145, DW_AT_decl_column(0x10)
    6377                            .dwendtag $C$DW$T$145
    6378                    
    6379                    $C$DW$T$329     .dwtag  DW_TAG_typedef
    6380                            .dwattr $C$DW$T$329, DW_AT_name("ICall_SetTimerArgs")
    6381                            .dwattr $C$DW$T$329, DW_AT_type(*$C$DW$T$145)
    6382                            .dwattr $C$DW$T$329, DW_AT_language(DW_LANG_C)
    6383                            .dwattr $C$DW$T$329, DW_AT_decl_file("C:/ti/simplelink_cc13x0_sdk_1_50_00_08/source/ti/ti154st
    6384                            .dwattr $C$DW$T$329, DW_AT_decl_line(0x3c2)
    6385                            .dwattr $C$DW$T$329, DW_AT_decl_column(0x03)
    6386                    
    6387                    
    6388                    $C$DW$T$146     .dwtag  DW_TAG_structure_type
    6389                            .dwattr $C$DW$T$146, DW_AT_name("_icall_signal_args_t")
    6390                            .dwattr $C$DW$T$146, DW_AT_byte_size(0x08)
    6391                    $C$DW$364       .dwtag  DW_TAG_member
    6392                            .dwattr $C$DW$364, DW_AT_type(*$C$DW$T$83)
    6393                            .dwattr $C$DW$364, DW_AT_name("hdr")
    6394                            .dwattr $C$DW$364, DW_AT_TI_symbol_name("hdr")
    6395                            .dwattr $C$DW$364, DW_AT_data_member_location[DW_OP_plus_uconst 0x0]
    6396                            .dwattr $C$DW$364, DW_AT_accessibility(DW_ACCESS_public)
    6397                            .dwattr $C$DW$364, DW_AT_decl_file("C:/ti/simplelink_cc13x0_sdk_1_50_00_08/source/ti/ti154stac
    6398                            .dwattr $C$DW$364, DW_AT_decl_line(0x228)
    6399                            .dwattr $C$DW$364, DW_AT_decl_column(0x15)
    6400                    
    6401                    $C$DW$365       .dwtag  DW_TAG_member
    6402                            .dwattr $C$DW$365, DW_AT_type(*$C$DW$T$96)
    6403                            .dwattr $C$DW$365, DW_AT_name("syncHandle")
    6404                            .dwattr $C$DW$365, DW_AT_TI_symbol_name("syncHandle")
    6405                            .dwattr $C$DW$365, DW_AT_data_member_location[DW_OP_plus_uconst 0x4]
    6406                            .dwattr $C$DW$365, DW_AT_accessibility(DW_ACCESS_public)
    6407                            .dwattr $C$DW$365, DW_AT_decl_file("C:/ti/simplelink_cc13x0_sdk_1_50_00_08/source/ti/ti154stac
    6408                            .dwattr $C$DW$365, DW_AT_decl_line(0x22a)
    6409                            .dwattr $C$DW$365, DW_AT_decl_column(0x14)
    6410                    
    6411                            .dwattr $C$DW$T$146, DW_AT_decl_file("C:/ti/simplelink_cc13x0_sdk_1_50_00_08/source/ti/ti154st
    6412                            .dwattr $C$DW$T$146, DW_AT_decl_line(0x225)
    6413                            .dwattr $C$DW$T$146, DW_AT_decl_column(0x10)
    6414                            .dwendtag $C$DW$T$146
    6415                    
    6416                    $C$DW$T$330     .dwtag  DW_TAG_typedef
    6417                            .dwattr $C$DW$T$330, DW_AT_name("ICall_SignalArgs")
    6418                            .dwattr $C$DW$T$330, DW_AT_type(*$C$DW$T$146)
    6419                            .dwattr $C$DW$T$330, DW_AT_language(DW_LANG_C)
    6420                            .dwattr $C$DW$T$330, DW_AT_decl_file("C:/ti/simplelink_cc13x0_sdk_1_50_00_08/source/ti/ti154st
    6421                            .dwattr $C$DW$T$330, DW_AT_decl_line(0x22b)
    6422                            .dwattr $C$DW$T$330, DW_AT_decl_column(0x03)
TI ARM Assembler PC v16.9.4 Sat Nov 18 18:46:31 2017

Tools Copyright (c) 1996-2017 Texas Instruments Incorporated
C:\Users\Kevin\AppData\Local\Temp\{6C42DDD5-7C92-479C-8F05-55537E4479EC} PAGE  118

    6423                    
    6424                    
    6425                    $C$DW$T$147     .dwtag  DW_TAG_structure_type
    6426                            .dwattr $C$DW$T$147, DW_AT_name("_icall_signal_events_args_t")
    6427                            .dwattr $C$DW$T$147, DW_AT_byte_size(0x0c)
    6428                    $C$DW$366       .dwtag  DW_TAG_member
    6429                            .dwattr $C$DW$366, DW_AT_type(*$C$DW$T$83)
    6430                            .dwattr $C$DW$366, DW_AT_name("hdr")
    6431                            .dwattr $C$DW$366, DW_AT_TI_symbol_name("hdr")
    6432                            .dwattr $C$DW$366, DW_AT_data_member_location[DW_OP_plus_uconst 0x0]
    6433                            .dwattr $C$DW$366, DW_AT_accessibility(DW_ACCESS_public)
    6434                            .dwattr $C$DW$366, DW_AT_decl_file("C:/ti/simplelink_cc13x0_sdk_1_50_00_08/source/ti/ti154stac
    6435                            .dwattr $C$DW$366, DW_AT_decl_line(0x231)
    6436                            .dwattr $C$DW$366, DW_AT_decl_column(0x15)
    6437                    
    6438                    $C$DW$367       .dwtag  DW_TAG_member
    6439                            .dwattr $C$DW$367, DW_AT_type(*$C$DW$T$96)
    6440                            .dwattr $C$DW$367, DW_AT_name("syncHandle")
    6441                            .dwattr $C$DW$367, DW_AT_TI_symbol_name("syncHandle")
    6442                            .dwattr $C$DW$367, DW_AT_data_member_location[DW_OP_plus_uconst 0x4]
    6443                            .dwattr $C$DW$367, DW_AT_accessibility(DW_ACCESS_public)
    6444                            .dwattr $C$DW$367, DW_AT_decl_file("C:/ti/simplelink_cc13x0_sdk_1_50_00_08/source/ti/ti154stac
    6445                            .dwattr $C$DW$367, DW_AT_decl_line(0x233)
    6446                            .dwattr $C$DW$367, DW_AT_decl_column(0x14)
    6447                    
    6448                    $C$DW$368       .dwtag  DW_TAG_member
    6449                            .dwattr $C$DW$368, DW_AT_type(*$C$DW$T$21)
    6450                            .dwattr $C$DW$368, DW_AT_name("events")
    6451                            .dwattr $C$DW$368, DW_AT_TI_symbol_name("events")
    6452                            .dwattr $C$DW$368, DW_AT_data_member_location[DW_OP_plus_uconst 0x8]
    6453                            .dwattr $C$DW$368, DW_AT_accessibility(DW_ACCESS_public)
    6454                            .dwattr $C$DW$368, DW_AT_decl_file("C:/ti/simplelink_cc13x0_sdk_1_50_00_08/source/ti/ti154stac
    6455                            .dwattr $C$DW$368, DW_AT_decl_line(0x234)
    6456                            .dwattr $C$DW$368, DW_AT_decl_column(0x15)
    6457                    
    6458                            .dwattr $C$DW$T$147, DW_AT_decl_file("C:/ti/simplelink_cc13x0_sdk_1_50_00_08/source/ti/ti154st
    6459                            .dwattr $C$DW$T$147, DW_AT_decl_line(0x22e)
    6460                            .dwattr $C$DW$T$147, DW_AT_decl_column(0x10)
    6461                            .dwendtag $C$DW$T$147
    6462                    
    6463                    $C$DW$T$331     .dwtag  DW_TAG_typedef
    6464                            .dwattr $C$DW$T$331, DW_AT_name("ICall_SignalEventsArgs")
    6465                            .dwattr $C$DW$T$331, DW_AT_type(*$C$DW$T$147)
    6466                            .dwattr $C$DW$T$331, DW_AT_language(DW_LANG_C)
    6467                            .dwattr $C$DW$T$331, DW_AT_decl_file("C:/ti/simplelink_cc13x0_sdk_1_50_00_08/source/ti/ti154st
    6468                            .dwattr $C$DW$T$331, DW_AT_decl_line(0x235)
    6469                            .dwattr $C$DW$T$331, DW_AT_decl_column(0x03)
    6470                    
    6471                    
    6472                    $C$DW$T$148     .dwtag  DW_TAG_structure_type
    6473                            .dwattr $C$DW$T$148, DW_AT_name("_icall_stop_timer_args_t")
    6474                            .dwattr $C$DW$T$148, DW_AT_byte_size(0x08)
    6475                    $C$DW$369       .dwtag  DW_TAG_member
    6476                            .dwattr $C$DW$369, DW_AT_type(*$C$DW$T$83)
    6477                            .dwattr $C$DW$369, DW_AT_name("hdr")
TI ARM Assembler PC v16.9.4 Sat Nov 18 18:46:31 2017

Tools Copyright (c) 1996-2017 Texas Instruments Incorporated
C:\Users\Kevin\AppData\Local\Temp\{6C42DDD5-7C92-479C-8F05-55537E4479EC} PAGE  119

    6478                            .dwattr $C$DW$369, DW_AT_TI_symbol_name("hdr")
    6479                            .dwattr $C$DW$369, DW_AT_data_member_location[DW_OP_plus_uconst 0x0]
    6480                            .dwattr $C$DW$369, DW_AT_accessibility(DW_ACCESS_public)
    6481                            .dwattr $C$DW$369, DW_AT_decl_file("C:/ti/simplelink_cc13x0_sdk_1_50_00_08/source/ti/ti154stac
    6482                            .dwattr $C$DW$369, DW_AT_decl_line(0x3c8)
    6483                            .dwattr $C$DW$369, DW_AT_decl_column(0x15)
    6484                    
    6485                    $C$DW$370       .dwtag  DW_TAG_member
    6486                            .dwattr $C$DW$370, DW_AT_type(*$C$DW$T$141)
    6487                            .dwattr $C$DW$370, DW_AT_name("timerid")
    6488                            .dwattr $C$DW$370, DW_AT_TI_symbol_name("timerid")
    6489                            .dwattr $C$DW$370, DW_AT_data_member_location[DW_OP_plus_uconst 0x4]
    6490                            .dwattr $C$DW$370, DW_AT_accessibility(DW_ACCESS_public)
    6491                            .dwattr $C$DW$370, DW_AT_decl_file("C:/ti/simplelink_cc13x0_sdk_1_50_00_08/source/ti/ti154stac
    6492                            .dwattr $C$DW$370, DW_AT_decl_line(0x3ca)
    6493                            .dwattr $C$DW$370, DW_AT_decl_column(0x11)
    6494                    
    6495                            .dwattr $C$DW$T$148, DW_AT_decl_file("C:/ti/simplelink_cc13x0_sdk_1_50_00_08/source/ti/ti154st
    6496                            .dwattr $C$DW$T$148, DW_AT_decl_line(0x3c5)
    6497                            .dwattr $C$DW$T$148, DW_AT_decl_column(0x10)
    6498                            .dwendtag $C$DW$T$148
    6499                    
    6500                    $C$DW$T$332     .dwtag  DW_TAG_typedef
    6501                            .dwattr $C$DW$T$332, DW_AT_name("ICall_StopTimerArgs")
    6502                            .dwattr $C$DW$T$332, DW_AT_type(*$C$DW$T$148)
    6503                            .dwattr $C$DW$T$332, DW_AT_language(DW_LANG_C)
    6504                            .dwattr $C$DW$T$332, DW_AT_decl_file("C:/ti/simplelink_cc13x0_sdk_1_50_00_08/source/ti/ti154st
    6505                            .dwattr $C$DW$T$332, DW_AT_decl_line(0x3cb)
    6506                            .dwattr $C$DW$T$332, DW_AT_decl_column(0x03)
    6507                    
    6508                    
    6509                    $C$DW$T$149     .dwtag  DW_TAG_structure_type
    6510                            .dwattr $C$DW$T$149, DW_AT_name("_icall_thread_serves_args_t")
    6511                            .dwattr $C$DW$T$149, DW_AT_byte_size(0x0c)
    6512                    $C$DW$371       .dwtag  DW_TAG_member
    6513                            .dwattr $C$DW$371, DW_AT_type(*$C$DW$T$83)
    6514                            .dwattr $C$DW$371, DW_AT_name("hdr")
    6515                            .dwattr $C$DW$371, DW_AT_TI_symbol_name("hdr")
    6516                            .dwattr $C$DW$371, DW_AT_data_member_location[DW_OP_plus_uconst 0x0]
    6517                            .dwattr $C$DW$371, DW_AT_accessibility(DW_ACCESS_public)
    6518                            .dwattr $C$DW$371, DW_AT_decl_file("C:/ti/simplelink_cc13x0_sdk_1_50_00_08/source/ti/ti154stac
    6519                            .dwattr $C$DW$371, DW_AT_decl_line(0x2b1)
    6520                            .dwattr $C$DW$371, DW_AT_decl_column(0x15)
    6521                    
    6522                    $C$DW$372       .dwtag  DW_TAG_member
    6523                            .dwattr $C$DW$372, DW_AT_type(*$C$DW$T$78)
    6524                            .dwattr $C$DW$372, DW_AT_name("servId")
    6525                            .dwattr $C$DW$372, DW_AT_TI_symbol_name("servId")
    6526                            .dwattr $C$DW$372, DW_AT_data_member_location[DW_OP_plus_uconst 0x4]
    6527                            .dwattr $C$DW$372, DW_AT_accessibility(DW_ACCESS_public)
    6528                            .dwattr $C$DW$372, DW_AT_decl_file("C:/ti/simplelink_cc13x0_sdk_1_50_00_08/source/ti/ti154stac
    6529                            .dwattr $C$DW$372, DW_AT_decl_line(0x2b3)
    6530                            .dwattr $C$DW$372, DW_AT_decl_column(0x15)
    6531                    
    6532                    $C$DW$373       .dwtag  DW_TAG_member
TI ARM Assembler PC v16.9.4 Sat Nov 18 18:46:31 2017

Tools Copyright (c) 1996-2017 Texas Instruments Incorporated
C:\Users\Kevin\AppData\Local\Temp\{6C42DDD5-7C92-479C-8F05-55537E4479EC} PAGE  120

    6533                            .dwattr $C$DW$373, DW_AT_type(*$C$DW$T$114)
    6534                            .dwattr $C$DW$373, DW_AT_name("result")
    6535                            .dwattr $C$DW$373, DW_AT_TI_symbol_name("result")
    6536                            .dwattr $C$DW$373, DW_AT_data_member_location[DW_OP_plus_uconst 0x8]
    6537                            .dwattr $C$DW$373, DW_AT_accessibility(DW_ACCESS_public)
    6538                            .dwattr $C$DW$373, DW_AT_decl_file("C:/ti/simplelink_cc13x0_sdk_1_50_00_08/source/ti/ti154stac
    6539                            .dwattr $C$DW$373, DW_AT_decl_line(0x2b5)
    6540                            .dwattr $C$DW$373, DW_AT_decl_column(0x10)
    6541                    
    6542                            .dwattr $C$DW$T$149, DW_AT_decl_file("C:/ti/simplelink_cc13x0_sdk_1_50_00_08/source/ti/ti154st
    6543                            .dwattr $C$DW$T$149, DW_AT_decl_line(0x2ae)
    6544                            .dwattr $C$DW$T$149, DW_AT_decl_column(0x10)
    6545                            .dwendtag $C$DW$T$149
    6546                    
    6547                    $C$DW$T$333     .dwtag  DW_TAG_typedef
    6548                            .dwattr $C$DW$T$333, DW_AT_name("ICall_ThreadServesArgs")
    6549                            .dwattr $C$DW$T$333, DW_AT_type(*$C$DW$T$149)
    6550                            .dwattr $C$DW$T$333, DW_AT_language(DW_LANG_C)
    6551                            .dwattr $C$DW$T$333, DW_AT_decl_file("C:/ti/simplelink_cc13x0_sdk_1_50_00_08/source/ti/ti154st
    6552                            .dwattr $C$DW$T$333, DW_AT_decl_line(0x2b6)
    6553                            .dwattr $C$DW$T$333, DW_AT_decl_column(0x03)
    6554                    
    6555                    
    6556                    $C$DW$T$150     .dwtag  DW_TAG_structure_type
    6557                            .dwattr $C$DW$T$150, DW_AT_name("_icall_wait_args_t")
    6558                            .dwattr $C$DW$T$150, DW_AT_byte_size(0x08)
    6559                    $C$DW$374       .dwtag  DW_TAG_member
    6560                            .dwattr $C$DW$374, DW_AT_type(*$C$DW$T$83)
    6561                            .dwattr $C$DW$374, DW_AT_name("hdr")
    6562                            .dwattr $C$DW$374, DW_AT_TI_symbol_name("hdr")
    6563                            .dwattr $C$DW$374, DW_AT_data_member_location[DW_OP_plus_uconst 0x0]
    6564                            .dwattr $C$DW$374, DW_AT_accessibility(DW_ACCESS_public)
    6565                            .dwattr $C$DW$374, DW_AT_decl_file("C:/ti/simplelink_cc13x0_sdk_1_50_00_08/source/ti/ti154stac
    6566                            .dwattr $C$DW$374, DW_AT_decl_line(0x21f)
    6567                            .dwattr $C$DW$374, DW_AT_decl_column(0x15)
    6568                    
    6569                    $C$DW$375       .dwtag  DW_TAG_member
    6570                            .dwattr $C$DW$375, DW_AT_type(*$C$DW$T$66)
    6571                            .dwattr $C$DW$375, DW_AT_name("milliseconds")
    6572                            .dwattr $C$DW$375, DW_AT_TI_symbol_name("milliseconds")
    6573                            .dwattr $C$DW$375, DW_AT_data_member_location[DW_OP_plus_uconst 0x4]
    6574                            .dwattr $C$DW$375, DW_AT_accessibility(DW_ACCESS_public)
    6575                            .dwattr $C$DW$375, DW_AT_decl_file("C:/ti/simplelink_cc13x0_sdk_1_50_00_08/source/ti/ti154stac
    6576                            .dwattr $C$DW$375, DW_AT_decl_line(0x221)
    6577                            .dwattr $C$DW$375, DW_AT_decl_column(0x12)
    6578                    
    6579                            .dwattr $C$DW$T$150, DW_AT_decl_file("C:/ti/simplelink_cc13x0_sdk_1_50_00_08/source/ti/ti154st
    6580                            .dwattr $C$DW$T$150, DW_AT_decl_line(0x21c)
    6581                            .dwattr $C$DW$T$150, DW_AT_decl_column(0x10)
    6582                            .dwendtag $C$DW$T$150
    6583                    
    6584                    $C$DW$T$334     .dwtag  DW_TAG_typedef
    6585                            .dwattr $C$DW$T$334, DW_AT_name("ICall_WaitArgs")
    6586                            .dwattr $C$DW$T$334, DW_AT_type(*$C$DW$T$150)
    6587                            .dwattr $C$DW$T$334, DW_AT_language(DW_LANG_C)
TI ARM Assembler PC v16.9.4 Sat Nov 18 18:46:31 2017

Tools Copyright (c) 1996-2017 Texas Instruments Incorporated
C:\Users\Kevin\AppData\Local\Temp\{6C42DDD5-7C92-479C-8F05-55537E4479EC} PAGE  121

    6588                            .dwattr $C$DW$T$334, DW_AT_decl_file("C:/ti/simplelink_cc13x0_sdk_1_50_00_08/source/ti/ti154st
    6589                            .dwattr $C$DW$T$334, DW_AT_decl_line(0x222)
    6590                            .dwattr $C$DW$T$334, DW_AT_decl_column(0x03)
    6591                    
    6592                    
    6593                    $C$DW$T$156     .dwtag  DW_TAG_structure_type
    6594                            .dwattr $C$DW$T$156, DW_AT_name("_icall_wait_match_args_t")
    6595                            .dwattr $C$DW$T$156, DW_AT_byte_size(0x14)
    6596                    $C$DW$376       .dwtag  DW_TAG_member
    6597                            .dwattr $C$DW$376, DW_AT_type(*$C$DW$T$83)
    6598                            .dwattr $C$DW$376, DW_AT_name("hdr")
    6599                            .dwattr $C$DW$376, DW_AT_TI_symbol_name("hdr")
    6600                            .dwattr $C$DW$376, DW_AT_data_member_location[DW_OP_plus_uconst 0x0]
    6601                            .dwattr $C$DW$376, DW_AT_accessibility(DW_ACCESS_public)
    6602                            .dwattr $C$DW$376, DW_AT_decl_file("C:/ti/simplelink_cc13x0_sdk_1_50_00_08/source/ti/ti154stac
    6603                            .dwattr $C$DW$376, DW_AT_decl_line(0x351)
    6604                            .dwattr $C$DW$376, DW_AT_decl_column(0x15)
    6605                    
    6606                    $C$DW$377       .dwtag  DW_TAG_member
    6607                            .dwattr $C$DW$377, DW_AT_type(*$C$DW$T$66)
    6608                            .dwattr $C$DW$377, DW_AT_name("milliseconds")
    6609                            .dwattr $C$DW$377, DW_AT_TI_symbol_name("milliseconds")
    6610                            .dwattr $C$DW$377, DW_AT_data_member_location[DW_OP_plus_uconst 0x4]
    6611                            .dwattr $C$DW$377, DW_AT_accessibility(DW_ACCESS_public)
    6612                            .dwattr $C$DW$377, DW_AT_decl_file("C:/ti/simplelink_cc13x0_sdk_1_50_00_08/source/ti/ti154stac
    6613                            .dwattr $C$DW$377, DW_AT_decl_line(0x353)
    6614                            .dwattr $C$DW$377, DW_AT_decl_column(0x12)
    6615                    
    6616                    $C$DW$378       .dwtag  DW_TAG_member
    6617                            .dwattr $C$DW$378, DW_AT_type(*$C$DW$T$155)
    6618                            .dwattr $C$DW$378, DW_AT_name("matchFn")
    6619                            .dwattr $C$DW$378, DW_AT_TI_symbol_name("matchFn")
    6620                            .dwattr $C$DW$378, DW_AT_data_member_location[DW_OP_plus_uconst 0x8]
    6621                            .dwattr $C$DW$378, DW_AT_accessibility(DW_ACCESS_public)
    6622                            .dwattr $C$DW$378, DW_AT_decl_file("C:/ti/simplelink_cc13x0_sdk_1_50_00_08/source/ti/ti154stac
    6623                            .dwattr $C$DW$378, DW_AT_decl_line(0x355)
    6624                            .dwattr $C$DW$378, DW_AT_decl_column(0x14)
    6625                    
    6626                    $C$DW$379       .dwtag  DW_TAG_member
    6627                            .dwattr $C$DW$379, DW_AT_type(*$C$DW$T$78)
    6628                            .dwattr $C$DW$379, DW_AT_name("servId")
    6629                            .dwattr $C$DW$379, DW_AT_TI_symbol_name("servId")
    6630                            .dwattr $C$DW$379, DW_AT_data_member_location[DW_OP_plus_uconst 0xc]
    6631                            .dwattr $C$DW$379, DW_AT_accessibility(DW_ACCESS_public)
    6632                            .dwattr $C$DW$379, DW_AT_decl_file("C:/ti/simplelink_cc13x0_sdk_1_50_00_08/source/ti/ti154stac
    6633                            .dwattr $C$DW$379, DW_AT_decl_line(0x357)
    6634                            .dwattr $C$DW$379, DW_AT_decl_column(0x15)
    6635                    
    6636                    $C$DW$380       .dwtag  DW_TAG_member
    6637                            .dwattr $C$DW$380, DW_AT_type(*$C$DW$T$76)
    6638                            .dwattr $C$DW$380, DW_AT_name("dest")
    6639                            .dwattr $C$DW$380, DW_AT_TI_symbol_name("dest")
    6640                            .dwattr $C$DW$380, DW_AT_data_member_location[DW_OP_plus_uconst 0xe]
    6641                            .dwattr $C$DW$380, DW_AT_accessibility(DW_ACCESS_public)
    6642                            .dwattr $C$DW$380, DW_AT_decl_file("C:/ti/simplelink_cc13x0_sdk_1_50_00_08/source/ti/ti154stac
TI ARM Assembler PC v16.9.4 Sat Nov 18 18:46:31 2017

Tools Copyright (c) 1996-2017 Texas Instruments Incorporated
C:\Users\Kevin\AppData\Local\Temp\{6C42DDD5-7C92-479C-8F05-55537E4479EC} PAGE  122

    6643                            .dwattr $C$DW$380, DW_AT_decl_line(0x359)
    6644                            .dwattr $C$DW$380, DW_AT_decl_column(0x12)
    6645                    
    6646                    $C$DW$381       .dwtag  DW_TAG_member
    6647                            .dwattr $C$DW$381, DW_AT_type(*$C$DW$T$3)
    6648                            .dwattr $C$DW$381, DW_AT_name("msg")
    6649                            .dwattr $C$DW$381, DW_AT_TI_symbol_name("msg")
    6650                            .dwattr $C$DW$381, DW_AT_data_member_location[DW_OP_plus_uconst 0x10]
    6651                            .dwattr $C$DW$381, DW_AT_accessibility(DW_ACCESS_public)
    6652                            .dwattr $C$DW$381, DW_AT_decl_file("C:/ti/simplelink_cc13x0_sdk_1_50_00_08/source/ti/ti154stac
    6653                            .dwattr $C$DW$381, DW_AT_decl_line(0x35b)
    6654                            .dwattr $C$DW$381, DW_AT_decl_column(0x09)
    6655                    
    6656                            .dwattr $C$DW$T$156, DW_AT_decl_file("C:/ti/simplelink_cc13x0_sdk_1_50_00_08/source/ti/ti154st
    6657                            .dwattr $C$DW$T$156, DW_AT_decl_line(0x34e)
    6658                            .dwattr $C$DW$T$156, DW_AT_decl_column(0x10)
    6659                            .dwendtag $C$DW$T$156
    6660                    
    6661                    $C$DW$T$335     .dwtag  DW_TAG_typedef
    6662                            .dwattr $C$DW$T$335, DW_AT_name("ICall_WaitMatchArgs")
    6663                            .dwattr $C$DW$T$335, DW_AT_type(*$C$DW$T$156)
    6664                            .dwattr $C$DW$T$335, DW_AT_language(DW_LANG_C)
    6665                            .dwattr $C$DW$T$335, DW_AT_decl_file("C:/ti/simplelink_cc13x0_sdk_1_50_00_08/source/ti/ti154st
    6666                            .dwattr $C$DW$T$335, DW_AT_decl_line(0x35c)
    6667                            .dwattr $C$DW$T$335, DW_AT_decl_column(0x03)
    6668                    
    6669                    
    6670                    $C$DW$T$158     .dwtag  DW_TAG_structure_type
    6671                            .dwattr $C$DW$T$158, DW_AT_name("appasrtintf_assrthndlerfunc_t")
    6672                            .dwattr $C$DW$T$158, DW_AT_byte_size(0x04)
    6673                    $C$DW$382       .dwtag  DW_TAG_member
    6674                            .dwattr $C$DW$382, DW_AT_type(*$C$DW$T$157)
    6675                            .dwattr $C$DW$382, DW_AT_name("callAssrtHndler")
    6676                            .dwattr $C$DW$382, DW_AT_TI_symbol_name("callAssrtHndler")
    6677                            .dwattr $C$DW$382, DW_AT_data_member_location[DW_OP_plus_uconst 0x0]
    6678                            .dwattr $C$DW$382, DW_AT_accessibility(DW_ACCESS_public)
    6679                            .dwattr $C$DW$382, DW_AT_decl_file("C:/ti/simplelink_cc13x0_sdk_1_50_00_08/source/ti/ti154stac
    6680                            .dwattr $C$DW$382, DW_AT_decl_line(0x49)
    6681                            .dwattr $C$DW$382, DW_AT_decl_column(0x21)
    6682                    
    6683                            .dwattr $C$DW$T$158, DW_AT_decl_file("C:/ti/simplelink_cc13x0_sdk_1_50_00_08/source/ti/ti154st
    6684                            .dwattr $C$DW$T$158, DW_AT_decl_line(0x46)
    6685                            .dwattr $C$DW$T$158, DW_AT_decl_column(0x10)
    6686                            .dwendtag $C$DW$T$158
    6687                    
    6688                    $C$DW$T$336     .dwtag  DW_TAG_typedef
    6689                            .dwattr $C$DW$T$336, DW_AT_name("APPASRTINTF_assrtHndlerFunc_t")
    6690                            .dwattr $C$DW$T$336, DW_AT_type(*$C$DW$T$158)
    6691                            .dwattr $C$DW$T$336, DW_AT_language(DW_LANG_C)
    6692                            .dwattr $C$DW$T$336, DW_AT_decl_file("C:/ti/simplelink_cc13x0_sdk_1_50_00_08/source/ti/ti154st
    6693                            .dwattr $C$DW$T$336, DW_AT_decl_line(0x4a)
    6694                            .dwattr $C$DW$T$336, DW_AT_decl_column(0x03)
    6695                    
    6696                    
    6697                    $C$DW$T$159     .dwtag  DW_TAG_structure_type
TI ARM Assembler PC v16.9.4 Sat Nov 18 18:46:31 2017

Tools Copyright (c) 1996-2017 Texas Instruments Incorporated
C:\Users\Kevin\AppData\Local\Temp\{6C42DDD5-7C92-479C-8F05-55537E4479EC} PAGE  123

    6698                            .dwattr $C$DW$T$159, DW_AT_name("nvintf_itemid_t")
    6699                            .dwattr $C$DW$T$159, DW_AT_byte_size(0x06)
    6700                    $C$DW$383       .dwtag  DW_TAG_member
    6701                            .dwattr $C$DW$383, DW_AT_type(*$C$DW$T$22)
    6702                            .dwattr $C$DW$383, DW_AT_name("systemID")
    6703                            .dwattr $C$DW$383, DW_AT_TI_symbol_name("systemID")
    6704                            .dwattr $C$DW$383, DW_AT_data_member_location[DW_OP_plus_uconst 0x0]
    6705                            .dwattr $C$DW$383, DW_AT_accessibility(DW_ACCESS_public)
    6706                            .dwattr $C$DW$383, DW_AT_decl_file("..\Application\Services\nvintf.h")
    6707                            .dwattr $C$DW$383, DW_AT_decl_line(0x5f)
    6708                            .dwattr $C$DW$383, DW_AT_decl_column(0x0d)
    6709                    
    6710                    $C$DW$384       .dwtag  DW_TAG_member
    6711                            .dwattr $C$DW$384, DW_AT_type(*$C$DW$T$39)
    6712                            .dwattr $C$DW$384, DW_AT_name("itemID")
    6713                            .dwattr $C$DW$384, DW_AT_TI_symbol_name("itemID")
    6714                            .dwattr $C$DW$384, DW_AT_data_member_location[DW_OP_plus_uconst 0x2]
    6715                            .dwattr $C$DW$384, DW_AT_accessibility(DW_ACCESS_public)
    6716                            .dwattr $C$DW$384, DW_AT_decl_file("..\Application\Services\nvintf.h")
    6717                            .dwattr $C$DW$384, DW_AT_decl_line(0x61)
    6718                            .dwattr $C$DW$384, DW_AT_decl_column(0x0e)
    6719                    
    6720                    $C$DW$385       .dwtag  DW_TAG_member
    6721                            .dwattr $C$DW$385, DW_AT_type(*$C$DW$T$39)
    6722                            .dwattr $C$DW$385, DW_AT_name("subID")
    6723                            .dwattr $C$DW$385, DW_AT_TI_symbol_name("subID")
    6724                            .dwattr $C$DW$385, DW_AT_data_member_location[DW_OP_plus_uconst 0x4]
    6725                            .dwattr $C$DW$385, DW_AT_accessibility(DW_ACCESS_public)
    6726                            .dwattr $C$DW$385, DW_AT_decl_file("..\Application\Services\nvintf.h")
    6727                            .dwattr $C$DW$385, DW_AT_decl_line(0x63)
    6728                            .dwattr $C$DW$385, DW_AT_decl_column(0x0e)
    6729                    
    6730                            .dwattr $C$DW$T$159, DW_AT_decl_file("..\Application\Services\nvintf.h")
    6731                            .dwattr $C$DW$T$159, DW_AT_decl_line(0x5c)
    6732                            .dwattr $C$DW$T$159, DW_AT_decl_column(0x10)
    6733                            .dwendtag $C$DW$T$159
    6734                    
    6735                    $C$DW$T$166     .dwtag  DW_TAG_typedef
    6736                            .dwattr $C$DW$T$166, DW_AT_name("NVINTF_itemID_t")
    6737                            .dwattr $C$DW$T$166, DW_AT_type(*$C$DW$T$159)
    6738                            .dwattr $C$DW$T$166, DW_AT_language(DW_LANG_C)
    6739                            .dwattr $C$DW$T$166, DW_AT_decl_file("..\Application\Services\nvintf.h")
    6740                            .dwattr $C$DW$T$166, DW_AT_decl_line(0x64)
    6741                            .dwattr $C$DW$T$166, DW_AT_decl_column(0x03)
    6742                    
    6743                    
    6744                    $C$DW$T$183     .dwtag  DW_TAG_structure_type
    6745                            .dwattr $C$DW$T$183, DW_AT_name("nvintf_nvfuncts_t")
    6746                            .dwattr $C$DW$T$183, DW_AT_byte_size(0x20)
    6747                    $C$DW$386       .dwtag  DW_TAG_member
    6748                            .dwattr $C$DW$386, DW_AT_type(*$C$DW$T$162)
    6749                            .dwattr $C$DW$386, DW_AT_name("initNV")
    6750                            .dwattr $C$DW$386, DW_AT_TI_symbol_name("initNV")
    6751                            .dwattr $C$DW$386, DW_AT_data_member_location[DW_OP_plus_uconst 0x0]
    6752                            .dwattr $C$DW$386, DW_AT_accessibility(DW_ACCESS_public)
TI ARM Assembler PC v16.9.4 Sat Nov 18 18:46:31 2017

Tools Copyright (c) 1996-2017 Texas Instruments Incorporated
C:\Users\Kevin\AppData\Local\Temp\{6C42DDD5-7C92-479C-8F05-55537E4479EC} PAGE  124

    6753                            .dwattr $C$DW$386, DW_AT_decl_file("..\Application\Services\nvintf.h")
    6754                            .dwattr $C$DW$386, DW_AT_decl_line(0x8c)
    6755                            .dwattr $C$DW$386, DW_AT_decl_column(0x13)
    6756                    
    6757                    $C$DW$387       .dwtag  DW_TAG_member
    6758                            .dwattr $C$DW$387, DW_AT_type(*$C$DW$T$165)
    6759                            .dwattr $C$DW$387, DW_AT_name("compactNV")
    6760                            .dwattr $C$DW$387, DW_AT_TI_symbol_name("compactNV")
    6761                            .dwattr $C$DW$387, DW_AT_data_member_location[DW_OP_plus_uconst 0x4]
    6762                            .dwattr $C$DW$387, DW_AT_accessibility(DW_ACCESS_public)
    6763                            .dwattr $C$DW$387, DW_AT_decl_file("..\Application\Services\nvintf.h")
    6764                            .dwattr $C$DW$387, DW_AT_decl_line(0x8e)
    6765                            .dwattr $C$DW$387, DW_AT_decl_column(0x16)
    6766                    
    6767                    $C$DW$388       .dwtag  DW_TAG_member
    6768                            .dwattr $C$DW$388, DW_AT_type(*$C$DW$T$169)
    6769                            .dwattr $C$DW$388, DW_AT_name("createItem")
    6770                            .dwattr $C$DW$388, DW_AT_TI_symbol_name("createItem")
    6771                            .dwattr $C$DW$388, DW_AT_data_member_location[DW_OP_plus_uconst 0x8]
    6772                            .dwattr $C$DW$388, DW_AT_accessibility(DW_ACCESS_public)
    6773                            .dwattr $C$DW$388, DW_AT_decl_file("..\Application\Services\nvintf.h")
    6774                            .dwattr $C$DW$388, DW_AT_decl_line(0x90)
    6775                            .dwattr $C$DW$388, DW_AT_decl_column(0x17)
    6776                    
    6777                    $C$DW$389       .dwtag  DW_TAG_member
    6778                            .dwattr $C$DW$389, DW_AT_type(*$C$DW$T$172)
    6779                            .dwattr $C$DW$389, DW_AT_name("deleteItem")
    6780                            .dwattr $C$DW$389, DW_AT_TI_symbol_name("deleteItem")
    6781                            .dwattr $C$DW$389, DW_AT_data_member_location[DW_OP_plus_uconst 0xc]
    6782                            .dwattr $C$DW$389, DW_AT_accessibility(DW_ACCESS_public)
    6783                            .dwattr $C$DW$389, DW_AT_decl_file("..\Application\Services\nvintf.h")
    6784                            .dwattr $C$DW$389, DW_AT_decl_line(0x92)
    6785                            .dwattr $C$DW$389, DW_AT_decl_column(0x17)
    6786                    
    6787                    $C$DW$390       .dwtag  DW_TAG_member
    6788                            .dwattr $C$DW$390, DW_AT_type(*$C$DW$T$175)
    6789                            .dwattr $C$DW$390, DW_AT_name("readItem")
    6790                            .dwattr $C$DW$390, DW_AT_TI_symbol_name("readItem")
    6791                            .dwattr $C$DW$390, DW_AT_data_member_location[DW_OP_plus_uconst 0x10]
    6792                            .dwattr $C$DW$390, DW_AT_accessibility(DW_ACCESS_public)
    6793                            .dwattr $C$DW$390, DW_AT_decl_file("..\Application\Services\nvintf.h")
    6794                            .dwattr $C$DW$390, DW_AT_decl_line(0x94)
    6795                            .dwattr $C$DW$390, DW_AT_decl_column(0x15)
    6796                    
    6797                    $C$DW$391       .dwtag  DW_TAG_member
    6798                            .dwattr $C$DW$391, DW_AT_type(*$C$DW$T$178)
    6799                            .dwattr $C$DW$391, DW_AT_name("writeItem")
    6800                            .dwattr $C$DW$391, DW_AT_TI_symbol_name("writeItem")
    6801                            .dwattr $C$DW$391, DW_AT_data_member_location[DW_OP_plus_uconst 0x14]
    6802                            .dwattr $C$DW$391, DW_AT_accessibility(DW_ACCESS_public)
    6803                            .dwattr $C$DW$391, DW_AT_decl_file("..\Application\Services\nvintf.h")
    6804                            .dwattr $C$DW$391, DW_AT_decl_line(0x96)
    6805                            .dwattr $C$DW$391, DW_AT_decl_column(0x16)
    6806                    
    6807                    $C$DW$392       .dwtag  DW_TAG_member
TI ARM Assembler PC v16.9.4 Sat Nov 18 18:46:31 2017

Tools Copyright (c) 1996-2017 Texas Instruments Incorporated
C:\Users\Kevin\AppData\Local\Temp\{6C42DDD5-7C92-479C-8F05-55537E4479EC} PAGE  125

    6808                            .dwattr $C$DW$392, DW_AT_type(*$C$DW$T$179)
    6809                            .dwattr $C$DW$392, DW_AT_name("writeItemEx")
    6810                            .dwattr $C$DW$392, DW_AT_TI_symbol_name("writeItemEx")
    6811                            .dwattr $C$DW$392, DW_AT_data_member_location[DW_OP_plus_uconst 0x18]
    6812                            .dwattr $C$DW$392, DW_AT_accessibility(DW_ACCESS_public)
    6813                            .dwattr $C$DW$392, DW_AT_decl_file("..\Application\Services\nvintf.h")
    6814                            .dwattr $C$DW$392, DW_AT_decl_line(0x98)
    6815                            .dwattr $C$DW$392, DW_AT_decl_column(0x18)
    6816                    
    6817                    $C$DW$393       .dwtag  DW_TAG_member
    6818                            .dwattr $C$DW$393, DW_AT_type(*$C$DW$T$182)
    6819                            .dwattr $C$DW$393, DW_AT_name("getItemLen")
    6820                            .dwattr $C$DW$393, DW_AT_TI_symbol_name("getItemLen")
    6821                            .dwattr $C$DW$393, DW_AT_data_member_location[DW_OP_plus_uconst 0x1c]
    6822                            .dwattr $C$DW$393, DW_AT_accessibility(DW_ACCESS_public)
    6823                            .dwattr $C$DW$393, DW_AT_decl_file("..\Application\Services\nvintf.h")
    6824                            .dwattr $C$DW$393, DW_AT_decl_line(0x9a)
    6825                            .dwattr $C$DW$393, DW_AT_decl_column(0x17)
    6826                    
    6827                            .dwattr $C$DW$T$183, DW_AT_decl_file("..\Application\Services\nvintf.h")
    6828                            .dwattr $C$DW$T$183, DW_AT_decl_line(0x89)
    6829                            .dwattr $C$DW$T$183, DW_AT_decl_column(0x10)
    6830                            .dwendtag $C$DW$T$183
    6831                    
    6832                    $C$DW$T$341     .dwtag  DW_TAG_typedef
    6833                            .dwattr $C$DW$T$341, DW_AT_name("NVINTF_nvFuncts_t")
    6834                            .dwattr $C$DW$T$341, DW_AT_type(*$C$DW$T$183)
    6835                            .dwattr $C$DW$T$341, DW_AT_language(DW_LANG_C)
    6836                            .dwattr $C$DW$T$341, DW_AT_decl_file("..\Application\Services\nvintf.h")
    6837                            .dwattr $C$DW$T$341, DW_AT_decl_line(0x9b)
    6838                            .dwattr $C$DW$T$341, DW_AT_decl_column(0x03)
    6839                    
    6840                            .dwattr $C$DW$CU, DW_AT_language(DW_LANG_C)
    6841                    
    6842                    ;***************************************************************
    6843                    ;* DWARF CIE ENTRIES                                           *
    6844                    ;***************************************************************
    6845                    
    6846                    $C$DW$CIE       .dwcie 14
    6847                            .dwcfi  cfa_register, 13
    6848                            .dwcfi  cfa_offset, 0
    6849                            .dwcfi  same_value, 4
    6850                            .dwcfi  same_value, 5
    6851                            .dwcfi  same_value, 6
    6852                            .dwcfi  same_value, 7
    6853                            .dwcfi  same_value, 8
    6854                            .dwcfi  same_value, 9
    6855                            .dwcfi  same_value, 10
    6856                            .dwcfi  same_value, 11
    6857                            .dwendentry
    6858                    
    6859                    ;***************************************************************
    6860                    ;* DWARF REGISTER MAP                                          *
    6861                    ;***************************************************************
    6862                    
TI ARM Assembler PC v16.9.4 Sat Nov 18 18:46:31 2017

Tools Copyright (c) 1996-2017 Texas Instruments Incorporated
C:\Users\Kevin\AppData\Local\Temp\{6C42DDD5-7C92-479C-8F05-55537E4479EC} PAGE  126

    6863                    $C$DW$394       .dwtag  DW_TAG_TI_assign_register
    6864                            .dwattr $C$DW$394, DW_AT_name("A1")
    6865                            .dwattr $C$DW$394, DW_AT_location[DW_OP_reg0]
    6866                    
    6867                    $C$DW$395       .dwtag  DW_TAG_TI_assign_register
    6868                            .dwattr $C$DW$395, DW_AT_name("A2")
    6869                            .dwattr $C$DW$395, DW_AT_location[DW_OP_reg1]
    6870                    
    6871                    $C$DW$396       .dwtag  DW_TAG_TI_assign_register
    6872                            .dwattr $C$DW$396, DW_AT_name("A3")
    6873                            .dwattr $C$DW$396, DW_AT_location[DW_OP_reg2]
    6874                    
    6875                    $C$DW$397       .dwtag  DW_TAG_TI_assign_register
    6876                            .dwattr $C$DW$397, DW_AT_name("A4")
    6877                            .dwattr $C$DW$397, DW_AT_location[DW_OP_reg3]
    6878                    
    6879                    $C$DW$398       .dwtag  DW_TAG_TI_assign_register
    6880                            .dwattr $C$DW$398, DW_AT_name("V1")
    6881                            .dwattr $C$DW$398, DW_AT_location[DW_OP_reg4]
    6882                    
    6883                    $C$DW$399       .dwtag  DW_TAG_TI_assign_register
    6884                            .dwattr $C$DW$399, DW_AT_name("V2")
    6885                            .dwattr $C$DW$399, DW_AT_location[DW_OP_reg5]
    6886                    
    6887                    $C$DW$400       .dwtag  DW_TAG_TI_assign_register
    6888                            .dwattr $C$DW$400, DW_AT_name("V3")
    6889                            .dwattr $C$DW$400, DW_AT_location[DW_OP_reg6]
    6890                    
    6891                    $C$DW$401       .dwtag  DW_TAG_TI_assign_register
    6892                            .dwattr $C$DW$401, DW_AT_name("V4")
    6893                            .dwattr $C$DW$401, DW_AT_location[DW_OP_reg7]
    6894                    
    6895                    $C$DW$402       .dwtag  DW_TAG_TI_assign_register
    6896                            .dwattr $C$DW$402, DW_AT_name("V5")
    6897                            .dwattr $C$DW$402, DW_AT_location[DW_OP_reg8]
    6898                    
    6899                    $C$DW$403       .dwtag  DW_TAG_TI_assign_register
    6900                            .dwattr $C$DW$403, DW_AT_name("V6")
    6901                            .dwattr $C$DW$403, DW_AT_location[DW_OP_reg9]
    6902                    
    6903                    $C$DW$404       .dwtag  DW_TAG_TI_assign_register
    6904                            .dwattr $C$DW$404, DW_AT_name("V7")
    6905                            .dwattr $C$DW$404, DW_AT_location[DW_OP_reg10]
    6906                    
    6907                    $C$DW$405       .dwtag  DW_TAG_TI_assign_register
    6908                            .dwattr $C$DW$405, DW_AT_name("V8")
    6909                            .dwattr $C$DW$405, DW_AT_location[DW_OP_reg11]
    6910                    
    6911                    $C$DW$406       .dwtag  DW_TAG_TI_assign_register
    6912                            .dwattr $C$DW$406, DW_AT_name("V9")
    6913                            .dwattr $C$DW$406, DW_AT_location[DW_OP_reg12]
    6914                    
    6915                    $C$DW$407       .dwtag  DW_TAG_TI_assign_register
    6916                            .dwattr $C$DW$407, DW_AT_name("SP")
    6917                            .dwattr $C$DW$407, DW_AT_location[DW_OP_reg13]
TI ARM Assembler PC v16.9.4 Sat Nov 18 18:46:31 2017

Tools Copyright (c) 1996-2017 Texas Instruments Incorporated
C:\Users\Kevin\AppData\Local\Temp\{6C42DDD5-7C92-479C-8F05-55537E4479EC} PAGE  127

    6918                    
    6919                    $C$DW$408       .dwtag  DW_TAG_TI_assign_register
    6920                            .dwattr $C$DW$408, DW_AT_name("LR")
    6921                            .dwattr $C$DW$408, DW_AT_location[DW_OP_reg14]
    6922                    
    6923                    $C$DW$409       .dwtag  DW_TAG_TI_assign_register
    6924                            .dwattr $C$DW$409, DW_AT_name("PC")
    6925                            .dwattr $C$DW$409, DW_AT_location[DW_OP_reg15]
    6926                    
    6927                    $C$DW$410       .dwtag  DW_TAG_TI_assign_register
    6928                            .dwattr $C$DW$410, DW_AT_name("SR")
    6929                            .dwattr $C$DW$410, DW_AT_location[DW_OP_reg17]
    6930                    
    6931                    $C$DW$411       .dwtag  DW_TAG_TI_assign_register
    6932                            .dwattr $C$DW$411, DW_AT_name("AP")
    6933                            .dwattr $C$DW$411, DW_AT_location[DW_OP_reg7]
    6934                    
    6935                            .dwendtag $C$DW$CU
    6936                    

--------------------------
Thumb2 Statistics
--------------------------
Number of Thumb2 ins converted to Thumb = 0 (0%)
Number of Thumb ins in input = 549 (79%)
Number of Thumb2 ins encoded as Thumb2 = 142 (100%)
Number of Thumb2 ins converted to 2 OPND Thumb = 20


No Assembly Errors, No Assembly Warnings
